(lp0
(i__main__
sensor_data_struct
p1
(dp2
S'color'
p3
(lp4
I657
aI378
aI265
aI1119
aI2566
aF189.0
aI1030
aI482
aI377
aI1568
aI2341
aF150.0
asS'button'
p5
I0
sS'IR'
p6
(lp7
I45
aI440
aI-1
aI126
aI245
aI-1
asS'TOF'
p8
(lp9
I-1
aI-1
aI-1
aF-1.0
aF-1.0
aF-1.0
aI-1
aI-1
aI-1
aF-1.0
aF-1.0
aF-1.0
asS'pt'
p10
(lp11
F-0.004
aF0.0
aF0.0
asba(i__main__
sensor_data_struct
p12
(dp13
g3
(lp14
I676
aI400
aI272
aI1169
aI2578
aF212.0
aI978
aI500
aI364
aI1556
aI2399
aF205.0
asg5
I1
sg6
(lp15
I28
aI10
aI-1
aI97
aI110
aI-1
asg8
(lp16
I-1
aI-1
aI-1
aF-1.0
aF-1.0
aF-1.0
aI-1
aI-1
aI-1
aF-1.0
aF-1.0
aF-1.0
asg10
(lp17
F-0.006999999999999999
aF0.008
aF0.013999999999999999
asba(i__main__
sensor_data_struct
p18
(dp19
g3
(lp20
I688
aI405
aI275
aI1190
aI2574
aF214.0
aI787
aI443
aI325
aI1282
aI2497
aF205.0
asg5
I0
sg6
(lp21
I33
aI32
aI-1
aI135
aI170
aI-1
asg8
(lp22
I-1
aI-1
aI-1
aF-1.0
aF-1.0
aF-1.0
aI-1
aI-1
aI-1
aF-1.0
aF-1.0
aF-1.0
asg10
(lp23
F-0.005
aF-0.008
aF0.01
asba(i__main__
sensor_data_struct
p24
(dp25
g3
(lp26
I680
aI403
aI273
aI1177
aI2577
aF215.0
aI1120
aI546
aI406
aI1744
aI2355
aF201.0
asg5
I0
sg6
(lp27
I27
aI14
aI-1
aI97
aI108
aI-1
asg8
(lp28
I-1
aI-1
aI-1
aF-1.0
aF-1.0
aF-1.0
aI-1
aI-1
aI-1
aF-1.0
aF-1.0
aF-1.0
asg10
(lp29
F-0.002
aF0.009000000000000001
aF0.013999999999999999
asba(i__main__
sensor_data_struct
p30
(dp31
g3
(lp32
I708
aI419
aI286
aI1220
aI2573
aF222.0
aI850
aI451
aI331
aI1397
aI2503
aF193.0
asg5
I1
sg6
(lp33
I8
aI16
aI-1
aI57
aI62
aI-1
asg8
(lp34
I-1
aI-1
aI-1
aF-1.0
aF-1.0
aF-1.0
aI-1
aI-1
aI-1
aF-1.0
aF-1.0
aF-1.0
asg10
(lp35
F0.011000000000000001
aF0.008
aF0.015
asba(i__main__
sensor_data_struct
p36
(dp37
g3
(lp38
I734
aI423
aI297
aI1240
aI2545
aF211.0
aI1303
aI597
aI472
aI1945
aI2296
aF173.0
asg5
I0
sg6
(lp39
I105
aI161
aI-1
aI154
aI221
aI-1
asg8
(lp40
I-1
aI-1
aI-1
aF-1.0
aF-1.0
aF-1.0
aI-1
aI-1
aI-1
aF-1.0
aF-1.0
aF-1.0
asg10
(lp41
F0.0
aF0.001
aF0.006999999999999999
asba(i__main__
sensor_data_struct
p42
(dp43
g3
(lp44
I738
aI426
aI296
aI1249
aI2540
aF216.0
aI879
aI478
aI361
aI1396
aI2452
aF204.0
asg5
I0
sg6
(lp45
I82
aI88
aI-1
aI140
aI178
aI-1
asg8
(lp46
I-1
aI-1
aI-1
aF-1.0
aF-1.0
aF-1.0
aI-1
aI-1
aI-1
aF-1.0
aF-1.0
aF-1.0
asg10
(lp47
F0.0
aF-0.005
aF0.01
asba(i__main__
sensor_data_struct
p48
(dp49
g3
(lp50
I836
aI469
aI331
aI1379
aI2483
aF226.0
aI966
aI484
aI370
aI1504
aI2390
aF179.0
asg5
I0
sg6
(lp51
I59
aI77
aI-1
aI116
aI141
aI-1
asg8
(lp52
I-1
aI-1
aI-1
aF-1.0
aF-1.0
aF-1.0
aI-1
aI-1
aI-1
aF-1.0
aF-1.0
aF-1.0
asg10
(lp53
F-0.001
aF0.0
aF0.012
asba(i__main__
sensor_data_struct
p54
(dp55
g3
(lp56
I735
aI428
aI295
aI1252
aI2548
aF221.0
aI1799
aI623
aI536
aI2552
aI2185
aF6.0
asg5
I0
sg6
(lp57
I77
aI97
aI-1
aI146
aI243
aI-1
asg8
(lp58
I-1
aI-1
aI-1
aF-1.0
aF-1.0
aF-1.0
aI-1
aI-1
aI-1
aF-1.0
aF-1.0
aF-1.0
asg10
(lp59
F0.001
aF0.003
aF0.004
asba(i__main__
sensor_data_struct
p60
(dp61
g3
(lp62
I825
aI453
aI325
aI1357
aI2487
aF209.0
aI1076
aI519
aI396
aI1662
aI2360
aF180.0
asg5
I0
sg6
(lp63
I43
aI41
aI-1
aI99
aI110
aI-1
asg8
(lp64
I-1
aI-1
aI-1
aF-1.0
aF-1.0
aF-1.0
aI-1
aI-1
aI-1
aF-1.0
aF-1.0
aF-1.0
asg10
(lp65
F0.003
aF0.004
aF0.013999999999999999
asba(i__main__
sensor_data_struct
p66
(dp67
g3
(lp68
I703
aI419
aI286
aI1211
aI2574
aF223.0
aI622
aI382
aI260
aI1084
aI2608
aF210.0
asg5
I1
sg6
(lp69
I2
aI3
aI-1
aI29
aI25
aI-1
asg8
(lp70
I-1
aI-1
aI-1
aF-1.0
aF-1.0
aF-1.0
aI-1
aI-1
aI-1
aF-1.0
aF-1.0
aF-1.0
asg10
(lp71
F0.012
aF0.003
aF0.015
asba(i__main__
sensor_data_struct
p72
(dp73
g3
(lp74
I632
aI374
aI255
aI1098
aI2594
aF198.0
aI1064
aI519
aI405
aI1623
aI2354
aF177.0
asg5
I0
sg6
(lp75
I96
aI78
aI-1
aI160
aI193
aI-1
asg8
(lp76
I-1
aI-1
aI-1
aF-1.0
aF-1.0
aF-1.0
aI-1
aI-1
aI-1
aF-1.0
aF-1.0
aF-1.0
asg10
(lp77
F0.004
aF-0.003
aF0.006999999999999999
asba(i__main__
sensor_data_struct
p78
(dp79
g3
(lp80
I671
aI401
aI272
aI1160
aI2575
aF215.0
aI2657
aI733
aI676
aI3647
aI2117
aF65336.0
asg5
I1
sg6
(lp81
I35
aI23
aI-1
aI64
aI68
aI-1
asg8
(lp82
I-1
aI-1
aI-1
aF-1.0
aF-1.0
aF-1.0
aI-1
aI-1
aI-1
aF-1.0
aF-1.0
aF-1.0
asg10
(lp83
F0.002
aF0.009000000000000001
aF0.008
asba(i__main__
sensor_data_struct
p84
(dp85
g3
(lp86
I642
aI385
aI259
aI1122
aI2595
aF209.0
aI770
aI439
aI316
aI1269
aI2506
aF211.0
asg5
I1
sg6
(lp87
I45
aI42
aI-1
aI106
aI65
aI-1
asg8
(lp88
I-1
aI-1
aI-1
aF-1.0
aF-1.0
aF-1.0
aI-1
aI-1
aI-1
aF-1.0
aF-1.0
aF-1.0
asg10
(lp89
F0.004
aF-0.01
aF0.011000000000000001
asba(i__main__
sensor_data_struct
p90
(dp91
g3
(lp92
I724
aI417
aI292
aI1220
aI2537
aF209.0
aI1253
aI586
aI456
aI1880
aI2297
aF184.0
asg5
I0
sg6
(lp93
I129
aI110
aI-1
aI165
aI219
aI-1
asg8
(lp94
I-1
aI-1
aI-1
aF-1.0
aF-1.0
aF-1.0
aI-1
aI-1
aI-1
aF-1.0
aF-1.0
aF-1.0
asg10
(lp95
F0.005
aF-0.003
aF0.006
asba(i__main__
sensor_data_struct
p96
(dp97
g3
(lp98
I720
aI417
aI290
aI1217
aI2537
aF212.0
aI1319
aI544
aI449
aI1925
aI2257
aF101.0
asg5
I0
sg6
(lp99
I108
aI126
aI-1
aI162
aI219
aI-1
asg8
(lp100
I-1
aI-1
aI-1
aF-1.0
aF-1.0
aF-1.0
aI-1
aI-1
aI-1
aF-1.0
aF-1.0
aF-1.0
asg10
(lp101
F0.003
aF0.0
aF0.006
asba(i__main__
sensor_data_struct
p102
(dp103
g3
(lp104
I651
aI384
aI258
aI1131
aI2574
aF205.0
aI868
aI485
aI328
aI1442
aI2454
aF243.0
asg5
I1
sg6
(lp105
I13
aI7
aI-1
aI57
aI58
aI-1
asg8
(lp106
I-1
aI-1
aI-1
aF-1.0
aF-1.0
aF-1.0
aI-1
aI-1
aI-1
aF-1.0
aF-1.0
aF-1.0
asg10
(lp107
F-0.011000000000000001
aF-0.004
aF0.015
asba(i__main__
sensor_data_struct
p108
(dp109
g3
(lp110
I679
aI399
aI267
aI1177
aI2562
aF213.0
aI785
aI440
aI318
aI1287
aI2492
aF206.0
asg5
I0
sg6
(lp111
I37
aI38
aI-1
aI103
aI118
aI-1
asg8
(lp112
I-1
aI-1
aI-1
aF-1.0
aF-1.0
aF-1.0
aI-1
aI-1
aI-1
aF-1.0
aF-1.0
aF-1.0
asg10
(lp113
F-0.001
aF-0.006999999999999999
aF0.013999999999999999
asba(i__main__
sensor_data_struct
p114
(dp115
g3
(lp116
I756
aI423
aI300
aI1257
aI2507
aF202.0
aI1583
aI630
aI516
aI2295
aI2224
aF102.0
asg5
I0
sg6
(lp117
I75
aI85
aI-1
aI149
aI203
aI-1
asg8
(lp118
I-1
aI-1
aI-1
aF-1.0
aF-1.0
aF-1.0
aI-1
aI-1
aI-1
aF-1.0
aF-1.0
aF-1.0
asg10
(lp119
F0.001
aF0.004
aF0.006999999999999999
asba(i__main__
sensor_data_struct
p120
(dp121
g3
(lp122
I715
aI416
aI290
aI1214
aI2555
aF212.0
aI1051
aI538
aI401
aI1639
aI2373
aF214.0
asg5
I1
sg6
(lp123
I49
aI55
aI-1
aI100
aI111
aI-1
asg8
(lp124
I-1
aI-1
aI-1
aF-1.0
aF-1.0
aF-1.0
aI-1
aI-1
aI-1
aF-1.0
aF-1.0
aF-1.0
asg10
(lp125
F0.002
aF0.001
aF0.013999999999999999
asba(i__main__
sensor_data_struct
p126
(dp127
g3
(lp128
I835
aI473
aI330
aI1386
aI2487
aF233.0
aI1153
aI499
aI386
aI1758
aI2316
aF130.0
asg5
I1
sg6
(lp129
I32
aI18
aI-1
aI64
aI68
aI-1
asg8
(lp130
I-1
aI-1
aI-1
aF-1.0
aF-1.0
aF-1.0
aI-1
aI-1
aI-1
aF-1.0
aF-1.0
aF-1.0
asg10
(lp131
F0.0
aF0.009000000000000001
aF0.013000000000000001
asba(i__main__
sensor_data_struct
p132
(dp133
g3
(lp134
I665
aI397
aI273
aI1146
aI2585
aF210.0
aI1345
aI553
aI456
aI1964
aI2255
aF102.0
asg5
I0
sg6
(lp135
I113
aI109
aI-1
aI160
aI224
aI-1
asg8
(lp136
I-1
aI-1
aI-1
aF-1.0
aF-1.0
aF-1.0
aI-1
aI-1
aI-1
aF-1.0
aF-1.0
aF-1.0
asg10
(lp137
F0.006
aF0.001
aF0.005
asba(i__main__
sensor_data_struct
p138
(dp139
g3
(lp140
I673
aI396
aI273
aI1155
aI2573
aF206.0
aI1217
aI516
aI419
aI1790
aI2266
aF112.0
asg5
I0
sg6
(lp141
I90
aI250
aI-1
aI133
aI230
aI-1
asg8
(lp142
I-1
aI-1
aI-1
aF-1.0
aF-1.0
aF-1.0
aI-1
aI-1
aI-1
aF-1.0
aF-1.0
aF-1.0
asg10
(lp143
F-0.001
aF0.001
aF0.001
asba(i__main__
sensor_data_struct
p144
(dp145
g3
(lp146
I657
aI394
aI270
aI1136
aI2591
aF210.0
aI1350
aI582
aI443
aI2062
aI2306
aF156.0
asg5
I1
sg6
(lp147
I23
aI18
aI-1
aI55
aI61
aI-1
asg8
(lp148
I-1
aI-1
aI-1
aF-1.0
aF-1.0
aF-1.0
aI-1
aI-1
aI-1
aF-1.0
aF-1.0
aF-1.0
asg10
(lp149
F0.005
aF0.01
aF0.013999999999999999
asba(i__main__
sensor_data_struct
p150
(dp151
g3
(lp152
I686
aI409
aI281
aI1181
aI2581
aF217.0
aI950
aI496
aI373
aI1496
aI2414
aF201.0
asg5
I0
sg6
(lp153
I66
aI79
aI-1
aI110
aI127
aI-1
asg8
(lp154
I-1
aI-1
aI-1
aF-1.0
aF-1.0
aF-1.0
aI-1
aI-1
aI-1
aF-1.0
aF-1.0
aF-1.0
asg10
(lp155
F0.001
aF-0.001
aF0.013000000000000001
asba(i__main__
sensor_data_struct
p156
(dp157
g3
(lp158
I677
aI396
aI269
aI1165
aI2561
aF208.0
aI1061
aI523
aI396
aI1639
aI2357
aF191.0
asg5
I0
sg6
(lp159
I48
aI57
aI-1
aI135
aI178
aI-1
asg8
(lp160
I-1
aI-1
aI-1
aF-1.0
aF-1.0
aF-1.0
aI-1
aI-1
aI-1
aF-1.0
aF-1.0
aF-1.0
asg10
(lp161
F-0.006
aF0.002
aF0.009000000000000001
asba(i__main__
sensor_data_struct
p162
(dp163
g3
(lp164
I736
aI418
aI289
aI1243
aI2523
aF209.0
aI1129
aI503
aI396
aI1711
aI2324
aF137.0
asg5
I0
sg6
(lp165
I44
aI39
aI-1
aI108
aI126
aI-1
asg8
(lp166
I-1
aI-1
aI-1
aF-1.0
aF-1.0
aF-1.0
aI-1
aI-1
aI-1
aF-1.0
aF-1.0
aF-1.0
asg10
(lp167
F0.002
aF0.005
aF0.013000000000000001
asba(i__main__
sensor_data_struct
p168
(dp169
g3
(lp170
I650
aI383
aI259
aI1129
aI2582
aF203.0
aI1024
aI545
aI396
aI1621
aI2392
aF237.0
asg5
I0
sg6
(lp171
I33
aI28
aI-1
aI117
aI137
aI-1
asg8
(lp172
I-1
aI-1
aI-1
aF-1.0
aF-1.0
aF-1.0
aI-1
aI-1
aI-1
aF-1.0
aF-1.0
aF-1.0
asg10
(lp173
F0.001
aF-0.01
aF0.012
asba(i__main__
sensor_data_struct
p174
(dp175
g3
(lp176
I776
aI442
aI305
aI1304
aI2510
aF222.0
aI826
aI460
aI342
aI1327
aI2473
aF207.0
asg5
I0
sg6
(lp177
I77
aI68
aI-1
aI136
aI164
aI-1
asg8
(lp178
I-1
aI-1
aI-1
aF-1.0
aF-1.0
aF-1.0
aI-1
aI-1
aI-1
aF-1.0
aF-1.0
aF-1.0
asg10
(lp179
F0.002
aF-0.006999999999999999
aF0.01
asba(i__main__
sensor_data_struct
p180
(dp181
g3
(lp182
I692
aI406
aI279
aI1183
aI2556
aF211.0
aI1028
aI544
aI397
aI1626
aI2395
aF234.0
asg5
I1
sg6
(lp183
I56
aI66
aI-1
aI94
aI102
aI-1
asg8
(lp184
I-1
aI-1
aI-1
aF-1.0
aF-1.0
aF-1.0
aI-1
aI-1
aI-1
aF-1.0
aF-1.0
aF-1.0
asg10
(lp185
F0.003
aF-0.003
aF0.015
asba(i__main__
sensor_data_struct
p186
(dp187
g3
(lp188
I760
aI440
aI304
aI1283
aI2528
aF225.0
aI990
aI482
aI368
aI1543
aI2386
aF170.0
asg5
I1
sg6
(lp189
I41
aI36
aI-1
aI93
aI101
aI-1
asg8
(lp190
I-1
aI-1
aI-1
aF-1.0
aF-1.0
aF-1.0
aI-1
aI-1
aI-1
aF-1.0
aF-1.0
aF-1.0
asg10
(lp191
F0.002
aF0.005
aF0.015
asba(i__main__
sensor_data_struct
p192
(dp193
g3
(lp194
I751
aI435
aI301
aI1270
aI2534
aF222.0
aI1223
aI512
aI407
aI1829
aI2287
aF113.0
asg5
I0
sg6
(lp195
I37
aI22
aI-1
aI127
aI162
aI-1
asg8
(lp196
I-1
aI-1
aI-1
aF-1.0
aF-1.0
aF-1.0
aI-1
aI-1
aI-1
aF-1.0
aF-1.0
aF-1.0
asg10
(lp197
F-0.003
aF0.008
aF0.01
asba(i__main__
sensor_data_struct
p198
(dp199
g3
(lp200
I706
aI404
aI281
aI1196
aI2542
aF202.0
aI1576
aI601
aI496
aI2274
aI2212
aF73.0
asg5
I0
sg6
(lp201
I71
aI93
aI-1
aI149
aI224
aI-1
asg8
(lp202
I-1
aI-1
aI-1
aF-1.0
aF-1.0
aF-1.0
aI-1
aI-1
aI-1
aF-1.0
aF-1.0
aF-1.0
asg10
(lp203
F-0.001
aF0.004
aF0.005
asba(i__main__
sensor_data_struct
p204
(dp205
g3
(lp206
I683
aI403
aI278
aI1174
aI2576
aF210.0
aI1233
aI533
aI434
aI1819
aI2282
aF123.0
asg5
I0
sg6
(lp207
I142
aI146
aI-1
aI158
aI226
aI-1
asg8
(lp208
I-1
aI-1
aI-1
aF-1.0
aF-1.0
aF-1.0
aI-1
aI-1
aI-1
aF-1.0
aF-1.0
aF-1.0
asg10
(lp209
F0.003
aF0.0
aF0.005
asba(i__main__
sensor_data_struct
p210
(dp211
g3
(lp212
I731
aI416
aI293
aI1228
aI2530
aF204.0
aI1051
aI492
aI383
aI1611
aI2354
aF155.0
asg5
I0
sg6
(lp213
I50
aI45
aI-1
aI106
aI124
aI-1
asg8
(lp214
I-1
aI-1
aI-1
aF-1.0
aF-1.0
aF-1.0
aI-1
aI-1
aI-1
aF-1.0
aF-1.0
aF-1.0
asg10
(lp215
F0.001
aF0.005
aF0.013000000000000001
asba(i__main__
sensor_data_struct
p216
(dp217
g3
(lp218
I661
aI393
aI265
aI1150
aI2586
aF211.0
aI802
aI453
aI331
aI1307
aI2494
aF212.0
asg5
I0
sg6
(lp219
I56
aI41
aI-1
aI128
aI153
aI-1
asg8
(lp220
I-1
aI-1
aI-1
aF-1.0
aF-1.0
aF-1.0
aI-1
aI-1
aI-1
aF-1.0
aF-1.0
aF-1.0
asg10
(lp221
F0.0
aF-0.01
aF0.011000000000000001
asba(i__main__
sensor_data_struct
p222
(dp223
g3
(lp224
I694
aI405
aI280
aI1183
aI2554
aF208.0
aI1180
aI568
aI439
aI1788
aI2323
aF192.0
asg5
I0
sg6
(lp225
I109
aI114
aI-1
aI149
aI195
aI-1
asg8
(lp226
I-1
aI-1
aI-1
aF-1.0
aF-1.0
aF-1.0
aI-1
aI-1
aI-1
aF-1.0
aF-1.0
aF-1.0
asg10
(lp227
F0.004
aF-0.002
aF0.008
asba(i__main__
sensor_data_struct
p228
(dp229
g3
(lp230
I678
aI404
aI277
aI1166
aI2575
aF214.0
aI1810
aI608
aI522
aI2573
aI2184
aF65526.0
asg5
I1
sg6
(lp231
I43
aI36
aI-1
aI55
aI56
aI-1
asg8
(lp232
I-1
aI-1
aI-1
aF-1.0
aF-1.0
aF-1.0
aI-1
aI-1
aI-1
aF-1.0
aF-1.0
aF-1.0
asg10
(lp233
F0.004
aF0.006999999999999999
aF0.01
asba(i__main__
sensor_data_struct
p234
(dp235
g3
(lp236
I1066
aI504
aI379
aI1666
aI2371
aF172.0
aI1147
aI505
aI401
aI1731
aI2318
aF131.0
asg5
I0
sg6
(lp237
I47
aI44
aI-1
aI109
aI130
aI-1
asg8
(lp238
I-1
aI-1
aI-1
aF-1.0
aF-1.0
aF-1.0
aI-1
aI-1
aI-1
aF-1.0
aF-1.0
aF-1.0
asg10
(lp239
F0.003
aF0.005
aF0.013000000000000001
asba(i__main__
sensor_data_struct
p240
(dp241
g3
(lp242
I689
aI400
aI277
aI1174
aI2553
aF204.0
aI1070
aI556
aI409
aI1676
aI2374
aF230.0
asg5
I0
sg6
(lp243
I58
aI65
aI-1
aI108
aI124
aI-1
asg8
(lp244
I-1
aI-1
aI-1
aF-1.0
aF-1.0
aF-1.0
aI-1
aI-1
aI-1
aF-1.0
aF-1.0
aF-1.0
asg10
(lp245
F-0.002
aF-0.002
aF0.013000000000000001
asba(i__main__
sensor_data_struct
p246
(dp247
g3
(lp248
I666
aI398
aI272
aI1152
aI2585
aF212.0
aI1218
aI550
aI435
aI1825
aI2301
aF154.0
asg5
I0
sg6
(lp249
I79
aI87
aI-1
aI150
aI196
aI-1
asg8
(lp250
I-1
aI-1
aI-1
aF-1.0
aF-1.0
aF-1.0
aI-1
aI-1
aI-1
aF-1.0
aF-1.0
aF-1.0
asg10
(lp251
F0.008
aF0.0
aF0.008
asba(i__main__
sensor_data_struct
p252
(dp253
g3
(lp254
I681
aI404
aI279
aI1167
aI2573
aF212.0
aI1093
aI544
aI407
aI1699
aI2363
aF205.0
asg5
I1
sg6
(lp255
I44
aI46
aI-1
aI95
aI104
aI-1
asg8
(lp256
I-1
aI-1
aI-1
aF-1.0
aF-1.0
aF-1.0
aI-1
aI-1
aI-1
aF-1.0
aF-1.0
aF-1.0
asg10
(lp257
F0.004
aF0.004
aF0.015
asba(i__main__
sensor_data_struct
p258
(dp259
g3
(lp260
I666
aI393
aI266
aI1152
aI2573
aF209.0
aI895
aI487
aI370
aI1410
aI2438
aF207.0
asg5
I0
sg6
(lp261
I88
aI108
aI-1
aI151
aI199
aI-1
asg8
(lp262
I-1
aI-1
aI-1
aF-1.0
aF-1.0
aF-1.0
aI-1
aI-1
aI-1
aF-1.0
aF-1.0
aF-1.0
asg10
(lp263
F-0.004
aF-0.006999999999999999
aF0.006999999999999999
asba(i__main__
sensor_data_struct
p264
(dp265
g3
(lp266
I674
aI394
aI270
aI1156
aI2560
aF205.0
aI1090
aI549
aI421
aI1669
aI2353
aF204.0
asg5
I0
sg6
(lp267
I106
aI127
aI-1
aI141
aI183
aI-1
asg8
(lp268
I-1
aI-1
aI-1
aF-1.0
aF-1.0
aF-1.0
aI-1
aI-1
aI-1
aF-1.0
aF-1.0
aF-1.0
asg10
(lp269
F0.001
aF-0.003
aF0.009000000000000001
asba(i__main__
sensor_data_struct
p270
(dp271
g3
(lp272
I668
aI391
aI266
aI1152
aI2569
aF205.0
aI1025
aI533
aI384
aI1628
aI2387
aF227.0
asg5
I1
sg6
(lp273
I24
aI11
aI-1
aI96
aI106
aI-1
asg8
(lp274
I-1
aI-1
aI-1
aF-1.0
aF-1.0
aF-1.0
aI-1
aI-1
aI-1
aF-1.0
aF-1.0
aF-1.0
asg10
(lp275
F-0.006
aF0.004
aF0.013999999999999999
asba(i__main__
sensor_data_struct
p276
(dp277
g3
(lp278
I665
aI391
aI269
aI1142
aI2572
aF204.0
aI807
aI450
aI331
aI1308
aI2482
aF206.0
asg5
I1
sg6
(lp279
I56
aI51
aI-1
aI129
aI64
aI-1
asg8
(lp280
I-1
aI-1
aI-1
aF-1.0
aF-1.0
aF-1.0
aI-1
aI-1
aI-1
aF-1.0
aF-1.0
aF-1.0
asg10
(lp281
F0.006999999999999999
aF-0.006999999999999999
aF0.01
asba(i__main__
sensor_data_struct
p282
(dp283
g3
(lp284
I686
aI394
aI273
aI1167
aI2547
aF199.0
aI1091
aI532
aI415
aI1653
aI2336
aF181.0
asg5
I0
sg6
(lp285
I79
aI208
aI-1
aI131
aI247
aI-1
asg8
(lp286
I-1
aI-1
aI-1
aF-1.0
aF-1.0
aF-1.0
aI-1
aI-1
aI-1
aF-1.0
aF-1.0
aF-1.0
asg10
(lp287
F-0.004
aF-0.001
aF0.002
asba(i__main__
sensor_data_struct
p288
(dp289
g3
(lp290
I640
aI383
aI259
aI1113
aI2590
aF207.0
aI1075
aI503
aI370
aI1701
aI2379
aF174.0
asg5
I1
sg6
(lp291
I19
aI8
aI-1
aI36
aI30
aI-1
asg8
(lp292
I-1
aI-1
aI-1
aF-1.0
aF-1.0
aF-1.0
aI-1
aI-1
aI-1
aF-1.0
aF-1.0
aF-1.0
asg10
(lp293
F-0.003
aF0.013000000000000001
aF0.013999999999999999
asba(i__main__
sensor_data_struct
p294
(dp295
g3
(lp296
I771
aI422
aI305
aI1273
aI2506
aF192.0
aI2797
aI795
aI722
aI3857
aI2123
aF65355.0
asg5
I1
sg6
(lp297
I46
aI50
aI-1
aI33
aI43
aI-1
asg8
(lp298
I-1
aI-1
aI-1
aF-1.0
aF-1.0
aF-1.0
aI-1
aI-1
aI-1
aF-1.0
aF-1.0
aF-1.0
asg10
(lp299
F0.006999999999999999
aF0.006
aF0.008
asba(i__main__
sensor_data_struct
p300
(dp301
g3
(lp302
I700
aI411
aI287
aI1193
aI2569
aF211.0
aI1240
aI525
aI430
aI1829
aI2281
aF111.0
asg5
I0
sg6
(lp303
I78
aI94
aI-1
aI136
aI179
aI-1
asg8
(lp304
I-1
aI-1
aI-1
aF-1.0
aF-1.0
aF-1.0
aI-1
aI-1
aI-1
aF-1.0
aF-1.0
aF-1.0
asg10
(lp305
F0.001
aF0.004
aF0.009000000000000001
asba(i__main__
sensor_data_struct
p306
(dp307
g3
(lp308
I687
aI406
aI281
aI1179
aI2579
aF212.0
aI1789
aI644
aI520
aI2622
aI2223
aF55.0
asg5
I1
sg6
(lp309
I20
aI19
aI-1
aI36
aI44
aI-1
asg8
(lp310
I-1
aI-1
aI-1
aF-1.0
aF-1.0
aF-1.0
aI-1
aI-1
aI-1
aF-1.0
aF-1.0
aF-1.0
asg10
(lp311
F0.006
aF0.01
aF0.012
asba(i__main__
sensor_data_struct
p312
(dp313
g3
(lp314
I722
aI410
aI289
aI1212
aI2531
aF201.0
aI1173
aI569
aI442
aI1768
aI2314
aF193.0
asg5
I0
sg6
(lp315
I97
aI198
aI-1
aI151
aI229
aI-1
asg8
(lp316
I-1
aI-1
aI-1
aF-1.0
aF-1.0
aF-1.0
aI-1
aI-1
aI-1
aF-1.0
aF-1.0
aF-1.0
asg10
(lp317
F-0.003
aF-0.001
aF0.005
asba(i__main__
sensor_data_struct
p318
(dp319
g3
(lp320
I719
aI412
aI288
aI1215
aI2539
aF206.0
aI795
aI429
aI309
aI1300
aI2473
aF192.0
asg5
I1
sg6
(lp321
I24
aI14
aI-1
aI46
aI52
aI-1
asg8
(lp322
I-1
aI-1
aI-1
aF-1.0
aF-1.0
aF-1.0
aI-1
aI-1
aI-1
aF-1.0
aF-1.0
aF-1.0
asg10
(lp323
F-0.009000000000000001
aF0.002
aF0.011000000000000001
asba(i__main__
sensor_data_struct
p324
(dp325
g3
(lp326
I767
aI433
aI300
aI1288
aI2509
aF214.0
aI800
aI419
aI304
aI1305
aI2466
aF179.0
asg5
I1
sg6
(lp327
I22
aI7
aI-1
aI81
aI83
aI-1
asg8
(lp328
I-1
aI-1
aI-1
aF-1.0
aF-1.0
aF-1.0
aI-1
aI-1
aI-1
aF-1.0
aF-1.0
aF-1.0
asg10
(lp329
F-0.008
aF0.011000000000000001
aF0.015
asba(i__main__
sensor_data_struct
p330
(dp331
g3
(lp332
I635
aI386
aI264
aI1105
aI2607
aF209.0
aI1110
aI527
aI390
aI1755
aI2384
aF185.0
asg5
I1
sg6
(lp333
I13
aI20
aI-1
aI30
aI35
aI-1
asg8
(lp334
I-1
aI-1
aI-1
aF-1.0
aF-1.0
aF-1.0
aI-1
aI-1
aI-1
aF-1.0
aF-1.0
aF-1.0
asg10
(lp335
F0.011000000000000001
aF0.006999999999999999
aF0.013999999999999999
asba(i__main__
sensor_data_struct
p336
(dp337
g3
(lp338
I713
aI429
aI293
aI1228
aI2577
aF231.0
aI699
aI406
aI283
aI1187
aI2554
aF206.0
asg5
I1
sg6
(lp339
I14
aI18
aI-1
aI78
aI64
aI-1
asg8
(lp340
I-1
aI-1
aI-1
aF-1.0
aF-1.0
aF-1.0
aI-1
aI-1
aI-1
aF-1.0
aF-1.0
aF-1.0
asg10
(lp341
F0.006999999999999999
aF-0.011000000000000001
aF0.013999999999999999
asba(i__main__
sensor_data_struct
p342
(dp343
g3
(lp344
I715
aI410
aI284
aI1211
aI2535
aF207.0
aI1266
aI606
aI469
aI1905
aI2303
aF202.0
asg5
I0
sg6
(lp345
I66
aI111
aI-1
aI157
aI218
aI-1
asg8
(lp346
I-1
aI-1
aI-1
aF-1.0
aF-1.0
aF-1.0
aI-1
aI-1
aI-1
aF-1.0
aF-1.0
aF-1.0
asg10
(lp347
F-0.004
aF-0.003
aF0.006
asba(i__main__
sensor_data_struct
p348
(dp349
g3
(lp350
I831
aI461
aI328
aI1365
aI2478
aF217.0
aI923
aI463
aI346
aI1458
aI2404
aF177.0
asg5
I0
sg6
(lp351
I38
aI24
aI-1
aI112
aI137
aI-1
asg8
(lp352
I-1
aI-1
aI-1
aF-1.0
aF-1.0
aF-1.0
aI-1
aI-1
aI-1
aF-1.0
aF-1.0
aF-1.0
asg10
(lp353
F-0.005
aF0.002
aF0.012
asba(i__main__
sensor_data_struct
p354
(dp355
g3
(lp356
I614
aI374
aI253
aI1080
aI2625
aF205.0
aI817
aI474
aI314
aI1376
aI2474
aF253.0
asg5
I1
sg6
(lp357
I1
aI7
aI-1
aI29
aI24
aI-1
asg8
(lp358
I-1
aI-1
aI-1
aF-1.0
aF-1.0
aF-1.0
aI-1
aI-1
aI-1
aF-1.0
aF-1.0
aF-1.0
asg10
(lp359
F0.011000000000000001
aF-0.003
aF0.015
asba(i__main__
sensor_data_struct
p360
(dp361
g3
(lp362
I623
aI374
aI251
aI1090
aI2595
aF204.0
aI931
aI438
aI329
aI1480
aI2410
aF148.0
asg5
I1
sg6
(lp363
I28
aI16
aI-1
aI60
aI59
aI-1
asg8
(lp364
I-1
aI-1
aI-1
aF-1.0
aF-1.0
aF-1.0
aI-1
aI-1
aI-1
aF-1.0
aF-1.0
aF-1.0
asg10
(lp365
F0.001
aF0.011000000000000001
aF0.015
asba(i__main__
sensor_data_struct
p366
(dp367
g3
(lp368
I635
aI383
aI260
aI1109
aI2607
aF208.0
aI899
aI478
aI366
aI1412
aI2434
aF194.0
asg5
I0
sg6
(lp369
I151
aI95
aI-1
aI163
aI199
aI-1
asg8
(lp370
I-1
aI-1
aI-1
aF-1.0
aF-1.0
aF-1.0
aI-1
aI-1
aI-1
aF-1.0
aF-1.0
aF-1.0
asg10
(lp371
F0.005
aF-0.005
aF0.006999999999999999
asba(i__main__
sensor_data_struct
p372
(dp373
g3
(lp374
I640
aI382
aI258
aI1113
aI2588
aF206.0
aI912
aI453
aI336
aI1448
aI2408
aF172.0
asg5
I0
sg6
(lp375
I29
aI13
aI-1
aI104
aI121
aI-1
asg8
(lp376
I-1
aI-1
aI-1
aF-1.0
aF-1.0
aF-1.0
aI-1
aI-1
aI-1
aF-1.0
aF-1.0
aF-1.0
asg10
(lp377
F-0.006
aF0.008
aF0.013000000000000001
asba(i__main__
sensor_data_struct
p378
(dp379
g3
(lp380
I717
aI406
aI285
aI1205
aI2529
aF199.0
aI1884
aI666
aI565
aI2665
aI2171
aF26.0
asg5
I0
sg6
(lp381
I58
aI63
aI-1
aI148
aI214
aI-1
asg8
(lp382
I-1
aI-1
aI-1
aF-1.0
aF-1.0
aF-1.0
aI-1
aI-1
aI-1
aF-1.0
aF-1.0
aF-1.0
asg10
(lp383
F0.0
aF0.006
aF0.005
asba(i__main__
sensor_data_struct
p384
(dp385
g3
(lp386
I676
aI391
aI267
aI1158
aI2550
aF202.0
aI1172
aI578
aI440
aI1791
aI2334
aF209.0
asg5
I0
sg6
(lp387
I31
aI41
aI-1
aI139
aI186
aI-1
asg8
(lp388
I-1
aI-1
aI-1
aF-1.0
aF-1.0
aF-1.0
aI-1
aI-1
aI-1
aF-1.0
aF-1.0
aF-1.0
asg10
(lp389
F-0.008
aF-0.001
aF0.008
asba(i__main__
sensor_data_struct
p390
(dp391
g3
(lp392
I681
aI393
aI270
aI1161
aI2546
aF201.0
aI1217
aI595
aI455
aI1848
aI2320
aF210.0
asg5
I0
sg6
(lp393
I63
aI98
aI-1
aI139
aI182
aI-1
asg8
(lp394
I-1
aI-1
aI-1
aF-1.0
aF-1.0
aF-1.0
aI-1
aI-1
aI-1
aF-1.0
aF-1.0
aF-1.0
asg10
(lp395
F-0.005
aF-0.002
aF0.009000000000000001
asba(i__main__
sensor_data_struct
p396
(dp397
g3
(lp398
I677
aI397
aI277
aI1152
aI2564
aF204.0
aI1287
aI611
aI469
aI1940
aI2299
aF203.0
asg5
I0
sg6
(lp399
I54
aI68
aI-1
aI139
aI168
aI-1
asg8
(lp400
I-1
aI-1
aI-1
aF-1.0
aF-1.0
aF-1.0
aI-1
aI-1
aI-1
aF-1.0
aF-1.0
aF-1.0
asg10
(lp401
F0.01
aF0.001
aF0.01
asba(i__main__
sensor_data_struct
p402
(dp403
g3
(lp404
I720
aI418
aI293
aI1215
aI2542
aF211.0
aI1528
aI562
aI477
aI2192
aI2214
aF41.0
asg5
I0
sg6
(lp405
I54
aI63
aI-1
aI142
aI179
aI-1
asg8
(lp406
I-1
aI-1
aI-1
aF-1.0
aF-1.0
aF-1.0
aI-1
aI-1
aI-1
aF-1.0
aF-1.0
aF-1.0
asg10
(lp407
F0.006999999999999999
aF0.004
aF0.009000000000000001
asba(i__main__
sensor_data_struct
p408
(dp409
g3
(lp410
I668
aI396
aI273
aI1145
aI2569
aF208.0
aI1066
aI555
aI409
aI1668
aI2372
aF230.0
asg5
I1
sg6
(lp411
I54
aI63
aI-1
aI102
aI116
aI-1
asg8
(lp412
I-1
aI-1
aI-1
aF-1.0
aF-1.0
aF-1.0
aI-1
aI-1
aI-1
aF-1.0
aF-1.0
aF-1.0
asg10
(lp413
F0.004
aF-0.003
aF0.013999999999999999
asba(i__main__
sensor_data_struct
p414
(dp415
g3
(lp416
I777
aI444
aI308
aI1303
aI2509
aF223.0
aI977
aI471
aI361
aI1517
aI2376
aF161.0
asg5
I0
sg6
(lp417
I43
aI57
aI-1
aI119
aI137
aI-1
asg8
(lp418
I-1
aI-1
aI-1
aF-1.0
aF-1.0
aF-1.0
aI-1
aI-1
aI-1
aF-1.0
aF-1.0
aF-1.0
asg10
(lp419
F0.01
aF0.001
aF0.012
asba(i__main__
sensor_data_struct
p420
(dp421
g3
(lp422
I666
aI393
aI268
aI1150
aI2577
aF207.0
aI748
aI423
aI298
aI1245
aI2505
aF206.0
asg5
I1
sg6
(lp423
I29
aI31
aI-1
aI76
aI53
aI-1
asg8
(lp424
I-1
aI-1
aI-1
aF-1.0
aF-1.0
aF-1.0
aI-1
aI-1
aI-1
aF-1.0
aF-1.0
aF-1.0
asg10
(lp425
F0.003
aF-0.009000000000000001
aF0.015
asba(i__main__
sensor_data_struct
p426
(dp427
g3
(lp428
I686
aI400
aI268
aI1189
aI2564
aF212.0
aI936
aI490
aI381
aI1445
aI2400
aF190.0
asg5
I0
sg6
(lp429
I186
aI154
aI-1
aI155
aI229
aI-1
asg8
(lp430
I-1
aI-1
aI-1
aF-1.0
aF-1.0
aF-1.0
aI-1
aI-1
aI-1
aF-1.0
aF-1.0
aF-1.0
asg10
(lp431
F0.0
aF-0.005
aF0.003
asba(i__main__
sensor_data_struct
p432
(dp433
g3
(lp434
I654
aI385
aI261
aI1133
aI2578
aF204.0
aI1027
aI525
aI398
aI1592
aI2374
aF203.0
asg5
I0
sg6
(lp435
I88
aI84
aI-1
aI141
aI171
aI-1
asg8
(lp436
I-1
aI-1
aI-1
aF-1.0
aF-1.0
aF-1.0
aI-1
aI-1
aI-1
aF-1.0
aF-1.0
aF-1.0
asg10
(lp437
F0.004
aF-0.004
aF0.01
asba(i__main__
sensor_data_struct
p438
(dp439
g3
(lp440
I809
aI437
aI322
aI1303
aI2460
aF191.0
aI966
aI475
aI370
aI1479
aI2362
aF165.0
asg5
I0
sg6
(lp441
I75
aI361
aI-1
aI131
aI233
aI-1
asg8
(lp442
I-1
aI-1
aI-1
aF-1.0
aF-1.0
aF-1.0
aI-1
aI-1
aI-1
aF-1.0
aF-1.0
aF-1.0
asg10
(lp443
F-0.003
aF-0.003
aF0.0
asba(i__main__
sensor_data_struct
p444
(dp445
g3
(lp446
I678
aI391
aI270
aI1155
aI2548
aF199.0
aI1245
aI594
aI456
aI1879
aI2302
aF199.0
asg5
I0
sg6
(lp447
I158
aI109
aI-1
aI160
aI200
aI-1
asg8
(lp448
I-1
aI-1
aI-1
aF-1.0
aF-1.0
aF-1.0
aI-1
aI-1
aI-1
aF-1.0
aF-1.0
aF-1.0
asg10
(lp449
F0.004
aF-0.005
aF0.006999999999999999
asba(i__main__
sensor_data_struct
p450
(dp451
g3
(lp452
I756
aI430
aI299
aI1271
aI2518
aF214.0
aI768
aI425
aI308
aI1261
aI2496
aF196.0
asg5
I0
sg6
(lp453
I32
aI43
aI-1
aI101
aI110
aI-1
asg8
(lp454
I-1
aI-1
aI-1
aF-1.0
aF-1.0
aF-1.0
aI-1
aI-1
aI-1
aF-1.0
aF-1.0
aF-1.0
asg10
(lp455
F0.009000000000000001
aF-0.004
aF0.013999999999999999
asba(i__main__
sensor_data_struct
p456
(dp457
g3
(lp458
I639
aI380
aI256
aI1113
aI2585
aF204.0
aI1613
aI562
aI476
aI2308
aI2196
aF14.0
asg5
I0
sg6
(lp459
I51
aI46
aI-1
aI144
aI196
aI-1
asg8
(lp460
I-1
aI-1
aI-1
aF-1.0
aF-1.0
aF-1.0
aI-1
aI-1
aI-1
aF-1.0
aF-1.0
aF-1.0
asg10
(lp461
F-0.001
aF0.006999999999999999
aF0.006
asba(i__main__
sensor_data_struct
p462
(dp463
g3
(lp464
I650
aI380
aI256
aI1125
aI2567
aF201.0
aI1017
aI516
aI384
aI1589
aI2373
aF203.0
asg5
I0
sg6
(lp465
I39
aI40
aI-1
aI129
aI167
aI-1
asg8
(lp466
I-1
aI-1
aI-1
aF-1.0
aF-1.0
aF-1.0
aI-1
aI-1
aI-1
aF-1.0
aF-1.0
aF-1.0
asg10
(lp467
F-0.006999999999999999
aF0.0
aF0.01
asba(i__main__
sensor_data_struct
p468
(dp469
g3
(lp470
I642
aI376
aI251
aI1121
aI2578
aF201.0
aI695
aI396
aI276
aI1173
aI2531
aF197.0
asg5
I1
sg6
(lp471
I19
aI18
aI-1
aI80
aI61
aI-1
asg8
(lp472
I-1
aI-1
aI-1
aF-1.0
aF-1.0
aF-1.0
aI-1
aI-1
aI-1
aF-1.0
aF-1.0
aF-1.0
asg10
(lp473
F0.003
aF-0.011000000000000001
aF0.013999999999999999
asba(i__main__
sensor_data_struct
p474
(dp475
g3
(lp476
I685
aI395
aI268
aI1176
aI2548
aF204.0
aI1330
aI581
aI462
aI1970
aI2271
aF147.0
asg5
I0
sg6
(lp477
I86
aI129
aI-1
aI147
aI196
aI-1
asg8
(lp478
I-1
aI-1
aI-1
aF-1.0
aF-1.0
aF-1.0
aI-1
aI-1
aI-1
aF-1.0
aF-1.0
aF-1.0
asg10
(lp479
F-0.001
aF0.001
aF0.006999999999999999
asba(i__main__
sensor_data_struct
p480
(dp481
g3
(lp482
I656
aI388
aI264
aI1135
aI2580
aF206.0
aI1846
aI652
aI538
aI2661
aI2197
aF36.0
asg5
I1
sg6
(lp483
I37
aI40
aI-1
aI61
aI69
aI-1
asg8
(lp484
I-1
aI-1
aI-1
aF-1.0
aF-1.0
aF-1.0
aI-1
aI-1
aI-1
aF-1.0
aF-1.0
aF-1.0
asg10
(lp485
F0.006
aF0.006
aF0.011000000000000001
asba(i__main__
sensor_data_struct
p486
(dp487
g3
(lp488
I691
aI406
aI276
aI1192
aI2570
aF214.0
aI688
aI386
aI263
aI1171
aI2524
aF193.0
asg5
I1
sg6
(lp489
I14
aI8
aI-1
aI55
aI58
aI-1
asg8
(lp490
I-1
aI-1
aI-1
aF-1.0
aF-1.0
aF-1.0
aI-1
aI-1
aI-1
aF-1.0
aF-1.0
aF-1.0
asg10
(lp491
F-0.01
aF-0.005
aF0.015
asba(i__main__
sensor_data_struct
p492
(dp493
g3
(lp494
I693
aI395
aI268
aI1186
aI2537
aF202.0
aI1262
aI589
aI456
aI1898
aI2298
aF186.0
asg5
I0
sg6
(lp495
I56
aI117
aI-1
aI149
aI211
aI-1
asg8
(lp496
I-1
aI-1
aI-1
aF-1.0
aF-1.0
aF-1.0
aI-1
aI-1
aI-1
aF-1.0
aF-1.0
aF-1.0
asg10
(lp497
F-0.005
aF-0.001
aF0.006
asba(i__main__
sensor_data_struct
p498
(dp499
g3
(lp500
I744
aI415
aI288
aI1250
aI2511
aF202.0
aI902
aI458
aI336
aI1438
aI2411
aF184.0
asg5
I1
sg6
(lp501
I33
aI24
aI-1
aI93
aI103
aI-1
asg8
(lp502
I-1
aI-1
aI-1
aF-1.0
aF-1.0
aF-1.0
aI-1
aI-1
aI-1
aF-1.0
aF-1.0
aF-1.0
asg10
(lp503
F-0.002
aF0.002
aF0.015
asba(i__main__
sensor_data_struct
p504
(dp505
g3
(lp506
I787
aI442
aI304
aI1321
aI2498
aF219.0
aI982
aI488
aI370
aI1533
aI2388
aF180.0
asg5
I0
sg6
(lp507
I58
aI66
aI-1
aI104
aI120
aI-1
asg8
(lp508
I-1
aI-1
aI-1
aF-1.0
aF-1.0
aF-1.0
aI-1
aI-1
aI-1
aF-1.0
aF-1.0
aF-1.0
asg10
(lp509
F0.001
aF0.001
aF0.013000000000000001
asba(i__main__
sensor_data_struct
p510
(dp511
g3
(lp512
I679
aI389
aI264
aI1165
aI2548
aF200.0
aI1285
aI579
aI449
aI1928
aI2286
aF168.0
asg5
I0
sg6
(lp513
I51
aI55
aI-1
aI139
aI189
aI-1
asg8
(lp514
I-1
aI-1
aI-1
aF-1.0
aF-1.0
aF-1.0
aI-1
aI-1
aI-1
aF-1.0
aF-1.0
aF-1.0
asg10
(lp515
F-0.004
aF0.003
aF0.008
asba(i__main__
sensor_data_struct
p516
(dp517
g3
(lp518
I666
aI388
aI266
aI1141
aI2559
aF201.0
aI1154
aI513
aI413
aI1719
aI2302
aF132.0
asg5
I0
sg6
(lp519
I148
aI194
aI-1
aI135
aI224
aI-1
asg8
(lp520
I-1
aI-1
aI-1
aF-1.0
aF-1.0
aF-1.0
aI-1
aI-1
aI-1
aF-1.0
aF-1.0
aF-1.0
asg10
(lp521
F0.001
aF-0.002
aF0.0
asba(i__main__
sensor_data_struct
p522
(dp523
g3
(lp524
I641
aI381
aI258
aI1112
aI2581
aF204.0
aI1034
aI532
aI402
aI1602
aI2371
aF209.0
asg5
I0
sg6
(lp525
I93
aI68
aI-1
aI155
aI188
aI-1
asg8
(lp526
I-1
aI-1
aI-1
aF-1.0
aF-1.0
aF-1.0
aI-1
aI-1
aI-1
aF-1.0
aF-1.0
aF-1.0
asg10
(lp527
F0.006999999999999999
aF-0.006
aF0.008
asba(i__main__
sensor_data_struct
p528
(dp529
g3
(lp530
I697
aI401
aI280
aI1177
aI2539
aF201.0
aI1411
aI601
aI485
aI2065
aI2248
aF135.0
asg5
I0
sg6
(lp531
I101
aI123
aI-1
aI157
aI212
aI-1
asg8
(lp532
I-1
aI-1
aI-1
aF-1.0
aF-1.0
aF-1.0
aI-1
aI-1
aI-1
aF-1.0
aF-1.0
aF-1.0
asg10
(lp533
F0.002
aF0.001
aF0.006
asba(i__main__
sensor_data_struct
p534
(dp535
g3
(lp536
I663
aI386
aI265
aI1137
aI2563
aF200.0
aI1182
aI582
aI444
aI1797
aI2323
aF209.0
asg5
I0
sg6
(lp537
I122
aI58
aI-1
aI159
aI198
aI-1
asg8
(lp538
I-1
aI-1
aI-1
aF-1.0
aF-1.0
aF-1.0
aI-1
aI-1
aI-1
aF-1.0
aF-1.0
aF-1.0
asg10
(lp539
F0.002
aF-0.008
aF0.006999999999999999
asba(i__main__
sensor_data_struct
p540
(dp541
g3
(lp542
I632
aI372
aI249
aI1105
aI2585
aF199.0
aI1012
aI558
aI389
aI1631
aI2401
aF267.0
asg5
I1
sg6
(lp543
I37
aI34
aI-1
aI109
aI66
aI-1
asg8
(lp544
I-1
aI-1
aI-1
aF-1.0
aF-1.0
aF-1.0
aI-1
aI-1
aI-1
aF-1.0
aF-1.0
aF-1.0
asg10
(lp545
F0.006
aF-0.009000000000000001
aF0.01
asba(i__main__
sensor_data_struct
p546
(dp547
g3
(lp548
I653
aI384
aI255
aI1143
aI2582
aF207.0
aI747
aI410
aI291
aI1237
aI2494
aF191.0
asg5
I1
sg6
(lp549
I32
aI26
aI-1
aI92
aI102
aI-1
asg8
(lp550
I-1
aI-1
aI-1
aF-1.0
aF-1.0
aF-1.0
aI-1
aI-1
aI-1
aF-1.0
aF-1.0
aF-1.0
asg10
(lp551
F-0.005
aF-0.002
aF0.015
asba(i__main__
sensor_data_struct
p552
(dp553
g3
(lp554
I939
aI510
aI358
aI1527
aI2430
aF238.0
aI796
aI437
aI321
aI1291
aI2479
aF196.0
asg5
I0
sg6
(lp555
I56
aI63
aI-1
aI110
aI129
aI-1
asg8
(lp556
I-1
aI-1
aI-1
aF-1.0
aF-1.0
aF-1.0
aI-1
aI-1
aI-1
aF-1.0
aF-1.0
aF-1.0
asg10
(lp557
F-0.002
aF-0.005
aF0.013000000000000001
asba(i__main__
sensor_data_struct
p558
(dp559
g3
(lp560
I670
aI393
aI266
aI1157
aI2565
aF208.0
aI795
aI418
aI300
aI1302
aI2467
aF182.0
asg5
I1
sg6
(lp561
I21
aI8
aI-1
aI89
aI98
aI-1
asg8
(lp562
I-1
aI-1
aI-1
aF-1.0
aF-1.0
aF-1.0
aI-1
aI-1
aI-1
aF-1.0
aF-1.0
aF-1.0
asg10
(lp563
F-0.008
aF0.009000000000000001
aF0.015
asba(i__main__
sensor_data_struct
p564
(dp565
g3
(lp566
I635
aI375
aI251
aI1107
aI2579
aF202.0
aI976
aI521
aI374
aI1560
aI2407
aF231.0
asg5
I1
sg6
(lp567
I19
aI13
aI-1
aI95
aI99
aI-1
asg8
(lp568
I-1
aI-1
aI-1
aF-1.0
aF-1.0
aF-1.0
aI-1
aI-1
aI-1
aF-1.0
aF-1.0
aF-1.0
asg10
(lp569
F-0.008
aF-0.006999999999999999
aF0.015
asba(i__main__
sensor_data_struct
p570
(dp571
g3
(lp572
I729
aI421
aI285
aI1244
aI2532
aF219.0
aI951
aI484
aI368
aI1480
aI2389
aF185.0
asg5
I0
sg6
(lp573
I45
aI79
aI-1
aI146
aI212
aI-1
asg8
(lp574
I-1
aI-1
aI-1
aF-1.0
aF-1.0
aF-1.0
aI-1
aI-1
aI-1
aF-1.0
aF-1.0
aF-1.0
asg10
(lp575
F-0.006999999999999999
aF0.0
aF0.006
asba(i__main__
sensor_data_struct
p576
(dp577
g3
(lp578
I685
aI401
aI279
aI1164
aI2556
aF206.0
aI1686
aI637
aI531
aI2416
aI2201
aF69.0
asg5
I0
sg6
(lp579
I56
aI62
aI-1
aI151
aI200
aI-1
asg8
(lp580
I-1
aI-1
aI-1
aF-1.0
aF-1.0
aF-1.0
aI-1
aI-1
aI-1
aF-1.0
aF-1.0
aF-1.0
asg10
(lp581
F0.006
aF0.004
aF0.006999999999999999
asba(i__main__
sensor_data_struct
p582
(dp583
g3
(lp584
I682
aI400
aI278
aI1162
aI2560
aF206.0
aI1173
aI569
aI434
aI1788
aI2325
aF199.0
asg5
I0
sg6
(lp585
I82
aI96
aI-1
aI126
aI152
aI-1
asg8
(lp586
I-1
aI-1
aI-1
aF-1.0
aF-1.0
aF-1.0
aI-1
aI-1
aI-1
aF-1.0
aF-1.0
aF-1.0
asg10
(lp587
F0.003
aF0.0
aF0.011000000000000001
asba(i__main__
sensor_data_struct
p588
(dp589
g3
(lp590
I675
aI396
aI270
aI1164
aI2572
aF208.0
aI645
aI377
aI257
aI1115
aI2575
aF197.0
asg5
I1
sg6
(lp591
I10
aI20
aI-1
aI57
aI58
aI-1
asg8
(lp592
I-1
aI-1
aI-1
aF-1.0
aF-1.0
aF-1.0
aI-1
aI-1
aI-1
aF-1.0
aF-1.0
aF-1.0
asg10
(lp593
F0.012
aF-0.006
aF0.015
asba(i__main__
sensor_data_struct
p594
(dp595
g3
(lp596
I632
aI370
aI246
aI1105
aI2579
aF198.0
aI882
aI478
aI337
aI1437
aI2439
aF221.0
asg5
I1
sg6
(lp597
I31
aI30
aI-1
aI57
aI61
aI-1
asg8
(lp598
I-1
aI-1
aI-1
aF-1.0
aF-1.0
aF-1.0
aI-1
aI-1
aI-1
aF-1.0
aF-1.0
aF-1.0
asg10
(lp599
F-0.009000000000000001
aF-0.001
aF0.01
asba(i__main__
sensor_data_struct
p600
(dp601
g3
(lp602
I622
aI372
aI248
aI1094
aI2600
aF203.0
aI635
aI380
aI253
aI1109
aI2583
aF208.0
asg5
I1
sg6
(lp603
I2
aI5
aI-1
aI27
aI21
aI-1
asg8
(lp604
I-1
aI-1
aI-1
aF-1.0
aF-1.0
aF-1.0
aI-1
aI-1
aI-1
aF-1.0
aF-1.0
aF-1.0
asg10
(lp605
F0.011000000000000001
aF-0.004
aF0.015
asba.