(lp0
(i__main__
sensor_data_struct
p1
(dp2
S'color'
p3
(lp4
I689
aI371
aI273
aI1129
aI2500
aF162.0
aI666
aI364
aI259
aI1112
aI2518
aF168.0
asS'button'
p5
I0
sS'IR'
p6
(lp7
I21
aI11
aI-1
aI100
aI116
aI-1
asS'TOF'
p8
(lp9
I-1
aI-1
aI-1
aF-1.0
aF-1.0
aF-1.0
aI-1
aI-1
aI-1
aF-1.0
aF-1.0
aF-1.0
asS'pt'
p10
(lp11
F-0.008
aF0.001
aF0.013000000000000001
asba(i__main__
sensor_data_struct
p12
(dp13
g3
(lp14
I567
aI336
aI227
aI996
aI2610
aF180.0
aI1048
aI470
aI384
aI1552
aI2303
aF120.0
asg5
I0
sg6
(lp15
I165
aI168
aI-1
aI147
aI232
aI-1
asg8
(lp16
I-1
aI-1
aI-1
aF-1.0
aF-1.0
aF-1.0
aI-1
aI-1
aI-1
aF-1.0
aF-1.0
aF-1.0
asg10
(lp17
F0.002
aF0.0
aF0.002
asba(i__main__
sensor_data_struct
p18
(dp19
g3
(lp20
I579
aI339
aI230
aI1010
aI2593
aF178.0
aI995
aI492
aI378
aI1533
aI2365
aF176.0
asg5
I0
sg6
(lp21
I48
aI55
aI-1
aI138
aI186
aI-1
asg8
(lp22
I-1
aI-1
aI-1
aF-1.0
aF-1.0
aF-1.0
aI-1
aI-1
aI-1
aF-1.0
aF-1.0
aF-1.0
asg10
(lp23
F-0.005
aF0.002
aF0.008
asba(i__main__
sensor_data_struct
p24
(dp25
g3
(lp26
I553
aI328
aI219
aI980
aI2619
aF177.0
aI864
aI482
aI334
aI1419
aI2449
aF235.0
asg5
I1
sg6
(lp27
I17
aI20
aI-1
aI77
aI62
aI-1
asg8
(lp28
I-1
aI-1
aI-1
aF-1.0
aF-1.0
aF-1.0
aI-1
aI-1
aI-1
aF-1.0
aF-1.0
aF-1.0
asg10
(lp29
F0.005
aF-0.008
aF0.013999999999999999
asba(i__main__
sensor_data_struct
p30
(dp31
g3
(lp32
I607
aI359
aI241
aI1063
aI2594
aF193.0
aI1028
aI458
aI365
aI1556
aI2333
aF121.0
asg5
I0
sg6
(lp33
I73
aI83
aI-1
aI138
aI174
aI-1
asg8
(lp34
I-1
aI-1
aI-1
aF-1.0
aF-1.0
aF-1.0
aI-1
aI-1
aI-1
aF-1.0
aF-1.0
aF-1.0
asg10
(lp35
F0.006
aF0.003
aF0.009000000000000001
asba(i__main__
sensor_data_struct
p36
(dp37
g3
(lp38
I688
aI388
aI279
aI1146
aI2532
aF184.0
aI1295
aI592
aI462
aI1932
aI2281
aF175.0
asg5
I0
sg6
(lp39
I238
aI115
aI-1
aI161
aI227
aI-1
asg8
(lp40
I-1
aI-1
aI-1
aF-1.0
aF-1.0
aF-1.0
aI-1
aI-1
aI-1
aF-1.0
aF-1.0
aF-1.0
asg10
(lp41
F0.003
aF-0.003
aF0.003
asba(i__main__
sensor_data_struct
p42
(dp43
g3
(lp44
I586
aI349
aI237
aI1025
aI2609
aF187.0
aI1039
aI503
aI378
aI1615
aI2361
aF179.0
asg5
I1
sg6
(lp45
I30
aI19
aI-1
aI79
aI88
aI-1
asg8
(lp46
I-1
aI-1
aI-1
aF-1.0
aF-1.0
aF-1.0
aI-1
aI-1
aI-1
aF-1.0
aF-1.0
aF-1.0
asg10
(lp47
F0.002
aF0.01
aF0.015
asba(i__main__
sensor_data_struct
p48
(dp49
g3
(lp50
I891
aI477
aI342
aI1444
aI2441
aF213.0
aI924
aI438
aI337
aI1436
aI2380
aF144.0
asg5
I1
sg6
(lp51
I39
aI33
aI-1
aI95
aI106
aI-1
asg8
(lp52
I-1
aI-1
aI-1
aF-1.0
aF-1.0
aF-1.0
aI-1
aI-1
aI-1
aF-1.0
aF-1.0
aF-1.0
asg10
(lp53
F0.001
aF0.008
aF0.013999999999999999
asba(i__main__
sensor_data_struct
p54
(dp55
g3
(lp56
I644
aI375
aI261
aI1104
aI2576
aF191.0
aI1227
aI582
aI449
aI1852
aI2306
aF191.0
asg5
I0
sg6
(lp57
I86
aI83
aI-1
aI150
aI187
aI-1
asg8
(lp58
I-1
aI-1
aI-1
aF-1.0
aF-1.0
aF-1.0
aI-1
aI-1
aI-1
aF-1.0
aF-1.0
aF-1.0
asg10
(lp59
F0.006999999999999999
aF0.001
aF0.008
asba(i__main__
sensor_data_struct
p60
(dp61
g3
(lp62
I583
aI342
aI228
aI1028
aI2604
aF183.0
aI964
aI515
aI368
aI1544
aI2407
aF230.0
asg5
I1
sg6
(lp63
I16
aI15
aI-1
aI87
aI94
aI-1
asg8
(lp64
I-1
aI-1
aI-1
aF-1.0
aF-1.0
aF-1.0
aI-1
aI-1
aI-1
aF-1.0
aF-1.0
aF-1.0
asg10
(lp65
F-0.006
aF-0.01
aF0.015
asba(i__main__
sensor_data_struct
p66
(dp67
g3
(lp68
I617
aI361
aI240
aI1084
aI2589
aF193.0
aI742
aI412
aI286
aI1245
aI2507
aF200.0
asg5
I1
sg6
(lp69
I11
aI6
aI-1
aI60
aI50
aI-1
asg8
(lp70
I-1
aI-1
aI-1
aF-1.0
aF-1.0
aF-1.0
aI-1
aI-1
aI-1
aF-1.0
aF-1.0
aF-1.0
asg10
(lp71
F-0.01
aF-0.006
aF0.013000000000000001
asba(i__main__
sensor_data_struct
p72
(dp73
g3
(lp74
I584
aI345
aI228
aI1034
aI2607
aF188.0
aI880
aI480
aI338
aI1433
aI2440
aF224.0
asg5
I1
sg6
(lp75
I11
aI12
aI-1
aI80
aI84
aI-1
asg8
(lp76
I-1
aI-1
aI-1
aF-1.0
aF-1.0
aF-1.0
aI-1
aI-1
aI-1
aF-1.0
aF-1.0
aF-1.0
asg10
(lp77
F-0.003
aF-0.011000000000000001
aF0.015
asba(i__main__
sensor_data_struct
p78
(dp79
g3
(lp80
I745
aI424
aI285
aI1268
aI2512
aF218.0
aI637
aI363
aI249
aI1095
aI2561
aF183.0
asg5
I1
sg6
(lp81
I7
aI8
aI-1
aI63
aI59
aI-1
asg8
(lp82
I-1
aI-1
aI-1
aF-1.0
aF-1.0
aF-1.0
aI-1
aI-1
aI-1
aF-1.0
aF-1.0
aF-1.0
asg10
(lp83
F0.002
aF-0.012
aF0.012
asba(i__main__
sensor_data_struct
p84
(dp85
g3
(lp86
I629
aI369
aI247
aI1098
aI2583
aF197.0
aI948
aI517
aI369
aI1524
aI2419
aF238.0
asg5
I1
sg6
(lp87
I39
aI38
aI-1
aI109
aI79
aI-1
asg8
(lp88
I-1
aI-1
aI-1
aF-1.0
aF-1.0
aF-1.0
aI-1
aI-1
aI-1
aF-1.0
aF-1.0
aF-1.0
asg10
(lp89
F0.004
aF-0.006999999999999999
aF0.012
asba(i__main__
sensor_data_struct
p90
(dp91
g3
(lp92
I636
aI376
aI251
aI1114
aI2590
aF203.0
aI1148
aI491
aI392
aI1727
aI2309
aF115.0
asg5
I0
sg6
(lp93
I42
aI39
aI-1
aI108
aI127
aI-1
asg8
(lp94
I-1
aI-1
aI-1
aF-1.0
aF-1.0
aF-1.0
aI-1
aI-1
aI-1
aF-1.0
aF-1.0
aF-1.0
asg10
(lp95
F0.004
aF0.006999999999999999
aF0.012
asba(i__main__
sensor_data_struct
p96
(dp97
g3
(lp98
I605
aI355
aI239
aI1058
aI2594
aF188.0
aI839
aI460
aI327
aI1367
aI2453
aF214.0
asg5
I1
sg6
(lp99
I28
aI45
aI-1
aI56
aI59
aI-1
asg8
(lp100
I-1
aI-1
aI-1
aF-1.0
aF-1.0
aF-1.0
aI-1
aI-1
aI-1
aF-1.0
aF-1.0
aF-1.0
asg10
(lp101
F-0.009000000000000001
aF-0.001
aF0.006999999999999999
asba(i__main__
sensor_data_struct
p102
(dp103
g3
(lp104
I603
aI354
aI237
aI1057
aI2594
aF189.0
aI1022
aI536
aI389
aI1617
aI2386
aF229.0
asg5
I0
sg6
(lp105
I27
aI26
aI-1
aI98
aI110
aI-1
asg8
(lp106
I-1
aI-1
aI-1
aF-1.0
aF-1.0
aF-1.0
aI-1
aI-1
aI-1
aF-1.0
aF-1.0
aF-1.0
asg10
(lp107
F-0.005
aF-0.004
aF0.013000000000000001
asba(i__main__
sensor_data_struct
p108
(dp109
g3
(lp110
I593
aI357
aI240
aI1045
aI2619
aF195.0
aI1023
aI508
aI381
aI1594
aI2369
aF190.0
asg5
I0
sg6
(lp111
I41
aI54
aI-1
aI111
aI127
aI-1
asg8
(lp112
I-1
aI-1
aI-1
aF-1.0
aF-1.0
aF-1.0
aI-1
aI-1
aI-1
aF-1.0
aF-1.0
aF-1.0
asg10
(lp113
F0.011000000000000001
aF0.003
aF0.012
asba(i__main__
sensor_data_struct
p114
(dp115
g3
(lp116
I607
aI362
aI244
aI1064
aI2606
aF195.0
aI716
aI406
aI297
aI1179
aI2522
aF190.0
asg5
I0
sg6
(lp117
I48
aI38
aI-1
aI133
aI159
aI-1
asg8
(lp118
I-1
aI-1
aI-1
aF-1.0
aF-1.0
aF-1.0
aI-1
aI-1
aI-1
aF-1.0
aF-1.0
aF-1.0
asg10
(lp119
F0.0
aF-0.006999999999999999
aF0.01
asba(i__main__
sensor_data_struct
p120
(dp121
g3
(lp122
I642
aI373
aI253
aI1114
aI2577
aF195.0
aI675
aI378
aI267
aI1135
aI2534
aF182.0
asg5
I1
sg6
(lp123
I19
aI14
aI-1
aI103
aI119
aI-1
asg8
(lp124
I-1
aI-1
aI-1
aF-1.0
aF-1.0
aF-1.0
aI-1
aI-1
aI-1
aF-1.0
aF-1.0
aF-1.0
asg10
(lp125
F-0.008
aF-0.004
aF0.013000000000000001
asba(i__main__
sensor_data_struct
p126
(dp127
g3
(lp128
I591
aI349
aI232
aI1043
aI2605
aF189.0
aI789
aI446
aI331
aI1274
aI2487
aF205.0
asg5
I1
sg6
(lp129
I92
aI41
aI-1
aI201
aI78
aI-1
asg8
(lp130
I-1
aI-1
aI-1
aF-1.0
aF-1.0
aF-1.0
aI-1
aI-1
aI-1
aF-1.0
aF-1.0
aF-1.0
asg10
(lp131
F0.001
aF-0.008
aF0.006
asba(i__main__
sensor_data_struct
p132
(dp133
g3
(lp134
I615
aI363
aI243
aI1080
aI2600
aF195.0
aI1161
aI498
aI397
aI1744
aI2304
aF118.0
asg5
I0
sg6
(lp135
I52
aI49
aI-1
aI123
aI153
aI-1
asg8
(lp136
I-1
aI-1
aI-1
aF-1.0
aF-1.0
aF-1.0
aI-1
aI-1
aI-1
aF-1.0
aF-1.0
aF-1.0
asg10
(lp137
F0.0
aF0.006999999999999999
aF0.009000000000000001
asba(i__main__
sensor_data_struct
p138
(dp139
g3
(lp140
I598
aI353
aI238
aI1048
aI2603
aF188.0
aI959
aI497
aI387
aI1474
aI2388
aF189.0
asg5
I0
sg6
(lp141
I138
aI82
aI-1
aI162
aI226
aI-1
asg8
(lp142
I-1
aI-1
aI-1
aF-1.0
aF-1.0
aF-1.0
aI-1
aI-1
aI-1
aF-1.0
aF-1.0
aF-1.0
asg10
(lp143
F0.0
aF-0.004
aF0.004
asba(i__main__
sensor_data_struct
p144
(dp145
g3
(lp146
I595
aI351
aI235
aI1046
aI2603
aF188.0
aI797
aI435
aI307
aI1317
aI2479
aF203.0
asg5
I0
sg6
(lp147
I19
aI11
aI-1
aI66
aI60
aI-1
asg8
(lp148
I-1
aI-1
aI-1
aF-1.0
aF-1.0
aF-1.0
aI-1
aI-1
aI-1
aF-1.0
aF-1.0
aF-1.0
asg10
(lp149
F-0.009000000000000001
aF0.001
aF0.013000000000000001
asba(i__main__
sensor_data_struct
p150
(dp151
g3
(lp152
I646
aI377
aI254
aI1124
aI2580
aF199.0
aI1170
aI493
aI396
aI1744
aI2289
aF108.0
asg5
I0
sg6
(lp153
I56
aI71
aI-1
aI146
aI208
aI-1
asg8
(lp154
I-1
aI-1
aI-1
aF-1.0
aF-1.0
aF-1.0
aI-1
aI-1
aI-1
aF-1.0
aF-1.0
aF-1.0
asg10
(lp155
F-0.003
aF0.006
aF0.006
asba(i__main__
sensor_data_struct
p156
(dp157
g3
(lp158
I617
aI361
aI248
aI1068
aI2587
aF187.0
aI1040
aI512
aI398
aI1585
aI2350
aF179.0
asg5
I0
sg6
(lp159
I247
aI98
aI-1
aI157
aI230
aI-1
asg8
(lp160
I-1
aI-1
aI-1
aF-1.0
aF-1.0
aF-1.0
aI-1
aI-1
aI-1
aF-1.0
aF-1.0
aF-1.0
asg10
(lp161
F0.003
aF-0.003
aF0.002
asba(i__main__
sensor_data_struct
p162
(dp163
g3
(lp164
I583
aI344
aI230
aI1028
aI2609
aF185.0
aI806
aI443
aI312
aI1330
aI2477
aF209.0
asg5
I1
sg6
(lp165
I13
aI11
aI-1
aI83
aI86
aI-1
asg8
(lp166
I-1
aI-1
aI-1
aF-1.0
aF-1.0
aF-1.0
aI-1
aI-1
aI-1
aF-1.0
aF-1.0
aF-1.0
asg10
(lp167
F-0.01
aF-0.008
aF0.015
asba(i__main__
sensor_data_struct
p168
(dp169
g3
(lp170
I692
aI391
aI280
aI1155
aI2531
aF187.0
aI1252
aI562
aI440
aI1869
aI2282
aF158.0
asg5
I0
sg6
(lp171
I133
aI213
aI-1
aI141
aI234
aI-1
asg8
(lp172
I-1
aI-1
aI-1
aF-1.0
aF-1.0
aF-1.0
aI-1
aI-1
aI-1
aF-1.0
aF-1.0
aF-1.0
asg10
(lp173
F-0.002
aF-0.003
aF0.0
asba(i__main__
sensor_data_struct
p174
(dp175
g3
(lp176
I604
aI354
aI239
aI1055
aI2591
aF187.0
aI896
aI472
aI356
aI1413
aI2424
aF193.0
asg5
I0
sg6
(lp177
I51
aI63
aI-1
aI142
aI183
aI-1
asg8
(lp178
I-1
aI-1
aI-1
aF-1.0
aF-1.0
aF-1.0
aI-1
aI-1
aI-1
aF-1.0
aF-1.0
aF-1.0
asg10
(lp179
F-0.006
aF-0.005
aF0.008
asba(i__main__
sensor_data_struct
p180
(dp181
g3
(lp182
I707
aI401
aI277
aI1197
aI2528
aF200.0
aI701
aI391
aI282
aI1161
aI2517
aF183.0
asg5
I0
sg6
(lp183
I32
aI32
aI-1
aI112
aI145
aI-1
asg8
(lp184
I-1
aI-1
aI-1
aF-1.0
aF-1.0
aF-1.0
aI-1
aI-1
aI-1
aF-1.0
aF-1.0
aF-1.0
asg10
(lp185
F-0.006999999999999999
aF-0.004
aF0.011000000000000001
asba(i__main__
sensor_data_struct
p186
(dp187
g3
(lp188
I601
aI356
aI238
aI1059
aI2606
aF192.0
aI780
aI436
aI321
aI1267
aI2489
aF199.0
asg5
I1
sg6
(lp189
I79
aI53
aI-1
aI139
aI76
aI-1
asg8
(lp190
I-1
aI-1
aI-1
aF-1.0
aF-1.0
aF-1.0
aI-1
aI-1
aI-1
aF-1.0
aF-1.0
aF-1.0
asg10
(lp191
F0.004
aF-0.006
aF0.009000000000000001
asba(i__main__
sensor_data_struct
p192
(dp193
g3
(lp194
I620
aI367
aI244
aI1089
aI2591
aF199.0
aI886
aI455
aI337
aI1410
aI2419
aF183.0
asg5
I1
sg6
(lp195
I43
aI36
aI-1
aI99
aI112
aI-1
asg8
(lp196
I-1
aI-1
aI-1
aF-1.0
aF-1.0
aF-1.0
aI-1
aI-1
aI-1
aF-1.0
aF-1.0
aF-1.0
asg10
(lp197
F-0.003
aF0.004
aF0.013000000000000001
asba(i__main__
sensor_data_struct
p198
(dp199
g3
(lp200
I649
aI377
aI257
aI1119
aI2566
aF196.0
aI1233
aI550
aI440
aI1828
aI2284
aF145.0
asg5
I0
sg6
(lp201
I98
aI175
aI-1
aI151
aI219
aI-1
asg8
(lp202
I-1
aI-1
aI-1
aF-1.0
aF-1.0
aF-1.0
aI-1
aI-1
aI-1
aF-1.0
aF-1.0
aF-1.0
asg10
(lp203
F-0.001
aF0.004
aF0.005
asba(i__main__
sensor_data_struct
p204
(dp205
g3
(lp206
I794
aI429
aI310
aI1302
aI2485
aF192.0
aI992
aI462
aI362
aI1525
aI2367
aF142.0
asg5
I1
sg6
(lp207
I48
aI49
aI-1
aI102
aI116
aI-1
asg8
(lp208
I-1
aI-1
aI-1
aF-1.0
aF-1.0
aF-1.0
aI-1
aI-1
aI-1
aF-1.0
aF-1.0
aF-1.0
asg10
(lp209
F0.003
aF0.006999999999999999
aF0.013000000000000001
asba(i__main__
sensor_data_struct
p210
(dp211
g3
(lp212
I674
aI379
aI262
aI1147
aI2540
aF187.0
aI1253
aI573
aI447
aI1882
aI2298
aF170.0
asg5
I0
sg6
(lp213
I54
aI124
aI-1
aI146
aI220
aI-1
asg8
(lp214
I-1
aI-1
aI-1
aF-1.0
aF-1.0
aF-1.0
aI-1
aI-1
aI-1
aF-1.0
aF-1.0
aF-1.0
asg10
(lp215
F-0.005
aF0.005
aF0.005
asba(i__main__
sensor_data_struct
p216
(dp217
g3
(lp218
I598
aI353
aI237
aI1051
aI2605
aF189.0
aI1020
aI530
aI390
aI1602
aI2380
aF219.0
asg5
I1
sg6
(lp219
I47
aI47
aI-1
aI113
aI132
aI-1
asg8
(lp220
I-1
aI-1
aI-1
aF-1.0
aF-1.0
aF-1.0
aI-1
aI-1
aI-1
aF-1.0
aF-1.0
aF-1.0
asg10
(lp221
F0.002
aF-0.004
aF0.012
asba(i__main__
sensor_data_struct
p222
(dp223
g3
(lp224
I639
aI369
aI252
aI1104
aI2572
aF190.0
aI1133
aI563
aI418
aI1763
aI2357
aF214.0
asg5
I0
sg6
(lp225
I37
aI22
aI-1
aI100
aI115
aI-1
asg8
(lp226
I-1
aI-1
aI-1
aF-1.0
aF-1.0
aF-1.0
aI-1
aI-1
aI-1
aF-1.0
aF-1.0
aF-1.0
asg10
(lp227
F-0.002
aF0.008
aF0.013000000000000001
asba(i__main__
sensor_data_struct
p228
(dp229
g3
(lp230
I649
aI377
aI256
aI1124
aI2574
aF196.0
aI869
aI454
aI340
aI1379
aI2428
aF185.0
asg5
I0
sg6
(lp231
I60
aI74
aI-1
aI117
aI142
aI-1
asg8
(lp232
I-1
aI-1
aI-1
aF-1.0
aF-1.0
aF-1.0
aI-1
aI-1
aI-1
aF-1.0
aF-1.0
aF-1.0
asg10
(lp233
F-0.003
aF0.001
aF0.011000000000000001
asba(i__main__
sensor_data_struct
p234
(dp235
g3
(lp236
I604
aI354
aI236
aI1062
aI2594
aF189.0
aI838
aI451
aI323
aI1362
aI2449
aF203.0
asg5
I1
sg6
(lp237
I24
aI21
aI-1
aI101
aI116
aI-1
asg8
(lp238
I-1
aI-1
aI-1
aF-1.0
aF-1.0
aF-1.0
aI-1
aI-1
aI-1
aF-1.0
aF-1.0
aF-1.0
asg10
(lp239
F-0.009000000000000001
aF-0.006999999999999999
aF0.011000000000000001
asba(i__main__
sensor_data_struct
p240
(dp241
g3
(lp242
I650
aI372
aI256
aI1113
aI2558
aF188.0
aI1140
aI537
aI420
aI1718
aI2316
aF170.0
asg5
I0
sg6
(lp243
I54
aI247
aI-1
aI137
aI239
aI-1
asg8
(lp244
I-1
aI-1
aI-1
aF-1.0
aF-1.0
aF-1.0
aI-1
aI-1
aI-1
aF-1.0
aF-1.0
aF-1.0
asg10
(lp245
F-0.005
aF-0.001
aF0.001
asba(i__main__
sensor_data_struct
p246
(dp247
g3
(lp248
I606
aI355
aI238
aI1061
aI2590
aF189.0
aI999
aI533
aI381
aI1598
aI2404
aF238.0
asg5
I1
sg6
(lp249
I16
aI12
aI-1
aI90
aI89
aI-1
asg8
(lp250
I-1
aI-1
aI-1
aF-1.0
aF-1.0
aF-1.0
aI-1
aI-1
aI-1
aF-1.0
aF-1.0
aF-1.0
asg10
(lp251
F-0.006
aF-0.006
aF0.013999999999999999
asba(i__main__
sensor_data_struct
p252
(dp253
g3
(lp254
I621
aI362
aI244
aI1083
aI2584
aF191.0
aI679
aI379
aI265
aI1146
aI2532
aF183.0
asg5
I1
sg6
(lp255
I20
aI11
aI-1
aI88
aI96
aI-1
asg8
(lp256
I-1
aI-1
aI-1
aF-1.0
aF-1.0
aF-1.0
aI-1
aI-1
aI-1
aF-1.0
aF-1.0
aF-1.0
asg10
(lp257
F-0.008
aF-0.001
aF0.015
asba(i__main__
sensor_data_struct
p258
(dp259
g3
(lp260
I645
aI371
aI253
aI1110
aI2562
aF190.0
aI1125
aI542
aI421
aI1706
aI2329
aF182.0
asg5
I0
sg6
(lp261
I44
aI176
aI-1
aI143
aI237
aI-1
asg8
(lp262
I-1
aI-1
aI-1
aF-1.0
aF-1.0
aF-1.0
aI-1
aI-1
aI-1
aF-1.0
aF-1.0
aF-1.0
asg10
(lp263
F-0.006
aF0.0
aF0.003
asba(i__main__
sensor_data_struct
p264
(dp265
g3
(lp266
I628
aI367
aI248
aI1091
aI2578
aF193.0
aI789
aI411
aI296
aI1290
aI2462
aF175.0
asg5
I1
sg6
(lp267
I22
aI8
aI-1
aI99
aI117
aI-1
asg8
(lp268
I-1
aI-1
aI-1
aF-1.0
aF-1.0
aF-1.0
aI-1
aI-1
aI-1
aF-1.0
aF-1.0
aF-1.0
asg10
(lp269
F-0.008
aF0.009000000000000001
aF0.013000000000000001
asba(i__main__
sensor_data_struct
p270
(dp271
g3
(lp272
I622
aI367
aI249
aI1085
aI2598
aF195.0
aI1538
aI569
aI476
aI2207
aI2203
aF50.0
asg5
I0
sg6
(lp273
I74
aI96
aI-1
aI149
aI225
aI-1
asg8
(lp274
I-1
aI-1
aI-1
aF-1.0
aF-1.0
aF-1.0
aI-1
aI-1
aI-1
aF-1.0
aF-1.0
aF-1.0
asg10
(lp275
F0.0
aF0.006
aF0.004
asba(i__main__
sensor_data_struct
p276
(dp277
g3
(lp278
I604
aI358
aI242
aI1060
aI2608
aF191.0
aI793
aI442
aI333
aI1271
aI2483
aF196.0
asg5
I1
sg6
(lp279
I104
aI59
aI-1
aI193
aI94
aI-1
asg8
(lp280
I-1
aI-1
aI-1
aF-1.0
aF-1.0
aF-1.0
aI-1
aI-1
aI-1
aF-1.0
aF-1.0
aF-1.0
asg10
(lp281
F0.003
aF-0.005
aF0.006999999999999999
asba(i__main__
sensor_data_struct
p282
(dp283
g3
(lp284
I633
aI372
aI249
aI1107
aI2588
aF199.0
aI828
aI435
aI321
aI1333
aI2453
aF182.0
asg5
I1
sg6
(lp285
I54
aI61
aI-1
aI112
aI116
aI-1
asg8
(lp286
I-1
aI-1
aI-1
aF-1.0
aF-1.0
aF-1.0
aI-1
aI-1
aI-1
aF-1.0
aF-1.0
aF-1.0
asg10
(lp287
F-0.002
aF0.002
aF0.013000000000000001
asba(i__main__
sensor_data_struct
p288
(dp289
g3
(lp290
I613
aI361
aI243
aI1072
aI2595
aF192.0
aI875
aI459
aI357
aI1358
aI2417
aF179.0
asg5
I0
sg6
(lp291
I249
aI104
aI-1
aI151
aI231
aI-1
asg8
(lp292
I-1
aI-1
aI-1
aF-1.0
aF-1.0
aF-1.0
aI-1
aI-1
aI-1
aF-1.0
aF-1.0
aF-1.0
asg10
(lp293
F0.0
aF-0.005
aF0.001
asba(i__main__
sensor_data_struct
p294
(dp295
g3
(lp296
I612
aI359
aI243
aI1069
aI2597
aF190.0
aI933
aI474
aI360
aI1457
aI2394
aF181.0
asg5
I0
sg6
(lp297
I63
aI79
aI-1
aI127
aI159
aI-1
asg8
(lp298
I-1
aI-1
aI-1
aF-1.0
aF-1.0
aF-1.0
aI-1
aI-1
aI-1
aF-1.0
aF-1.0
aF-1.0
asg10
(lp299
F-0.003
aF0.001
aF0.01
asba(i__main__
sensor_data_struct
p300
(dp301
g3
(lp302
I607
aI359
aI242
aI1062
aI2596
aF192.0
aI950
aI498
aI383
aI1474
aI2402
aF197.0
asg5
I0
sg6
(lp303
I168
aI93
aI-1
aI172
aI215
aI-1
asg8
(lp304
I-1
aI-1
aI-1
aF-1.0
aF-1.0
aF-1.0
aI-1
aI-1
aI-1
aF-1.0
aF-1.0
aF-1.0
asg10
(lp305
F0.003
aF-0.004
aF0.005
asba(i__main__
sensor_data_struct
p306
(dp307
g3
(lp308
I601
aI355
aI239
aI1055
aI2603
aF190.0
aI964
aI483
aI356
aI1525
aI2393
aF188.0
asg5
I1
sg6
(lp309
I31
aI16
aI-1
aI99
aI114
aI-1
asg8
(lp310
I-1
aI-1
aI-1
aF-1.0
aF-1.0
aF-1.0
aI-1
aI-1
aI-1
aF-1.0
aF-1.0
aF-1.0
asg10
(lp311
F-0.004
aF0.006999999999999999
aF0.013000000000000001
asba(i__main__
sensor_data_struct
p312
(dp313
g3
(lp314
I672
aI385
aI262
aI1156
aI2557
aF197.0
aI959
aI478
aI351
aI1524
aI2399
aF186.0
asg5
I1
sg6
(lp315
I26
aI9
aI-1
aI100
aI116
aI-1
asg8
(lp316
I-1
aI-1
aI-1
aF-1.0
aF-1.0
aF-1.0
aI-1
aI-1
aI-1
aF-1.0
aF-1.0
aF-1.0
asg10
(lp317
F-0.005
aF0.01
aF0.013000000000000001
asba(i__main__
sensor_data_struct
p318
(dp319
g3
(lp320
I605
aI353
aI238
aI1059
aI2597
aF186.0
aI1018
aI507
aI395
aI1556
aI2361
aF180.0
asg5
I0
sg6
(lp321
I128
aI138
aI-1
aI159
aI233
aI-1
asg8
(lp322
I-1
aI-1
aI-1
aF-1.0
aF-1.0
aF-1.0
aI-1
aI-1
aI-1
aF-1.0
aF-1.0
aF-1.0
asg10
(lp323
F-0.003
aF-0.003
aF0.003
asba(i__main__
sensor_data_struct
p324
(dp325
g3
(lp326
I619
aI361
aI244
aI1078
aI2584
aF190.0
aI842
aI432
aI325
aI1335
aI2426
aF170.0
asg5
I0
sg6
(lp327
I47
aI75
aI-1
aI139
aI192
aI-1
asg8
(lp328
I-1
aI-1
aI-1
aF-1.0
aF-1.0
aF-1.0
aI-1
aI-1
aI-1
aF-1.0
aF-1.0
aF-1.0
asg10
(lp329
F-0.006999999999999999
aF0.003
aF0.006999999999999999
asba(i__main__
sensor_data_struct
p330
(dp331
g3
(lp332
I603
aI353
aI236
aI1056
aI2587
aF188.0
aI782
aI429
aI302
aI1294
aI2483
aF202.0
asg5
I1
sg6
(lp333
I17
aI14
aI-1
aI58
aI61
aI-1
asg8
(lp334
I-1
aI-1
aI-1
aF-1.0
aF-1.0
aF-1.0
aI-1
aI-1
aI-1
aF-1.0
aF-1.0
aF-1.0
asg10
(lp335
F-0.01
aF-0.003
aF0.01
asba(i__main__
sensor_data_struct
p336
(dp337
g3
(lp338
I779
aI440
aI295
aI1319
aI2497
aF225.0
aI637
aI363
aI251
aI1089
aI2555
aF182.0
asg5
I1
sg6
(lp339
I15
aI13
aI-1
aI80
aI81
aI-1
asg8
(lp340
I-1
aI-1
aI-1
aF-1.0
aF-1.0
aF-1.0
aI-1
aI-1
aI-1
aF-1.0
aF-1.0
aF-1.0
asg10
(lp341
F-0.008
aF-0.009000000000000001
aF0.015
asba(i__main__
sensor_data_struct
p342
(dp343
g3
(lp344
I873
aI481
aI333
aI1438
aI2454
aF232.0
aI635
aI363
aI253
aI1085
aI2564
aF181.0
asg5
I1
sg6
(lp345
I8
aI9
aI-1
aI88
aI93
aI-1
asg8
(lp346
I-1
aI-1
aI-1
aF-1.0
aF-1.0
aF-1.0
aI-1
aI-1
aI-1
aF-1.0
aF-1.0
aF-1.0
asg10
(lp347
F-0.006
aF-0.012
aF0.015
asba(i__main__
sensor_data_struct
p348
(dp349
g3
(lp350
I633
aI369
aI253
aI1091
aI2573
aF191.0
aI1358
aI546
aI448
aI1978
aI2240
aF93.0
asg5
I0
sg6
(lp351
I137
aI145
aI-1
aI146
aI236
aI-1
asg8
(lp352
I-1
aI-1
aI-1
aF-1.0
aF-1.0
aF-1.0
aI-1
aI-1
aI-1
aF-1.0
aF-1.0
aF-1.0
asg10
(lp353
F0.003
aF0.002
aF0.002
asba(i__main__
sensor_data_struct
p354
(dp355
g3
(lp356
I603
aI358
aI241
aI1059
aI2608
aF192.0
aI793
aI448
aI310
aI1321
aI2486
aF222.0
asg5
I1
sg6
(lp357
I15
aI22
aI-1
aI72
aI61
aI-1
asg8
(lp358
I-1
aI-1
aI-1
aF-1.0
aF-1.0
aF-1.0
aI-1
aI-1
aI-1
aF-1.0
aF-1.0
aF-1.0
asg10
(lp359
F0.008
aF-0.006
aF0.013999999999999999
asba(i__main__
sensor_data_struct
p360
(dp361
g3
(lp362
I627
aI367
aI249
aI1091
aI2587
aF193.0
aI1124
aI530
aI419
aI1692
aI2325
aF164.0
asg5
I0
sg6
(lp363
I126
aI154
aI-1
aI158
aI214
aI-1
asg8
(lp364
I-1
aI-1
aI-1
aF-1.0
aF-1.0
aF-1.0
aI-1
aI-1
aI-1
aF-1.0
aF-1.0
aF-1.0
asg10
(lp365
F0.001
aF0.001
aF0.006
asba(i__main__
sensor_data_struct
p366
(dp367
g3
(lp368
I654
aI378
aI262
aI1120
aI2566
aF192.0
aI1367
aI560
aI459
aI1992
aI2244
aF104.0
asg5
I0
sg6
(lp369
I118
aI150
aI-1
aI154
aI227
aI-1
asg8
(lp370
I-1
aI-1
aI-1
aF-1.0
aF-1.0
aF-1.0
aI-1
aI-1
aI-1
aF-1.0
aF-1.0
aF-1.0
asg10
(lp371
F0.002
aF0.003
aF0.004
asba(i__main__
sensor_data_struct
p372
(dp373
g3
(lp374
I609
aI359
aI242
aI1067
aI2601
aF191.0
aI1079
aI528
aI392
aI1689
aI2368
aF196.0
asg5
I1
sg6
(lp375
I25
aI10
aI-1
aI98
aI114
aI-1
asg8
(lp376
I-1
aI-1
aI-1
aF-1.0
aF-1.0
aF-1.0
aI-1
aI-1
aI-1
aF-1.0
aF-1.0
aF-1.0
asg10
(lp377
F-0.004
aF0.012
aF0.013000000000000001
asba(i__main__
sensor_data_struct
p378
(dp379
g3
(lp380
I617
aI366
aI247
aI1083
aI2609
aF196.0
aI856
aI430
aI324
aI1363
aI2435
aF163.0
asg5
I1
sg6
(lp381
I28
aI41
aI-1
aI91
aI99
aI-1
asg8
(lp382
I-1
aI-1
aI-1
aF-1.0
aF-1.0
aF-1.0
aI-1
aI-1
aI-1
aF-1.0
aF-1.0
aF-1.0
asg10
(lp383
F0.008
aF0.006999999999999999
aF0.015
asba(i__main__
sensor_data_struct
p384
(dp385
g3
(lp386
I603
aI357
aI240
aI1060
aI2606
aF192.0
aI955
aI502
aI359
aI1538
aI2418
aF219.0
asg5
I1
sg6
(lp387
I18
aI5
aI-1
aI86
aI93
aI-1
asg8
(lp388
I-1
aI-1
aI-1
aF-1.0
aF-1.0
aF-1.0
aI-1
aI-1
aI-1
aF-1.0
aF-1.0
aF-1.0
asg10
(lp389
F-0.008
aF0.01
aF0.015
asba(i__main__
sensor_data_struct
p390
(dp391
g3
(lp392
I609
aI362
aI243
aI1073
aI2613
aF195.0
aI1107
aI487
aI390
aI1670
aI2325
aF123.0
asg5
I0
sg6
(lp393
I59
aI63
aI-1
aI119
aI145
aI-1
asg8
(lp394
I-1
aI-1
aI-1
aF-1.0
aF-1.0
aF-1.0
aI-1
aI-1
aI-1
aF-1.0
aF-1.0
aF-1.0
asg10
(lp395
F0.002
aF0.006999999999999999
aF0.011000000000000001
asba(i__main__
sensor_data_struct
p396
(dp397
g3
(lp398
I611
aI358
aI241
aI1070
aI2595
aF190.0
aI929
aI480
aI363
aI1456
aI2404
aF190.0
asg5
I0
sg6
(lp399
I44
aI76
aI-1
aI149
aI216
aI-1
asg8
(lp400
I-1
aI-1
aI-1
aF-1.0
aF-1.0
aF-1.0
aI-1
aI-1
aI-1
aF-1.0
aF-1.0
aF-1.0
asg10
(lp401
F-0.006999999999999999
aF0.001
aF0.006
asba(i__main__
sensor_data_struct
p402
(dp403
g3
(lp404
I637
aI368
aI248
aI1108
aI2577
aF192.0
aI712
aI397
aI285
aI1183
aI2520
aF186.0
asg5
I1
sg6
(lp405
I20
aI18
aI-1
aI110
aI129
aI-1
asg8
(lp406
I-1
aI-1
aI-1
aF-1.0
aF-1.0
aF-1.0
aI-1
aI-1
aI-1
aF-1.0
aF-1.0
aF-1.0
asg10
(lp407
F-0.006999999999999999
aF-0.006999999999999999
aF0.012
asba(i__main__
sensor_data_struct
p408
(dp409
g3
(lp410
I583
aI347
aI230
aI1036
aI2619
aF190.0
aI750
aI422
aI304
aI1237
aI2508
aF200.0
asg5
I1
sg6
(lp411
I53
aI43
aI-1
aI89
aI65
aI-1
asg8
(lp412
I-1
aI-1
aI-1
aF-1.0
aF-1.0
aF-1.0
aI-1
aI-1
aI-1
aF-1.0
aF-1.0
aF-1.0
asg10
(lp413
F0.009000000000000001
aF-0.004
aF0.009000000000000001
asba(i__main__
sensor_data_struct
p414
(dp415
g3
(lp416
I625
aI364
aI246
aI1088
aI2585
aF191.0
aI1124
aI557
aI412
aI1757
aI2363
aF212.0
asg5
I0
sg6
(lp417
I25
aI9
aI-1
aI100
aI116
aI-1
asg8
(lp418
I-1
aI-1
aI-1
aF-1.0
aF-1.0
aF-1.0
aI-1
aI-1
aI-1
aF-1.0
aF-1.0
aF-1.0
asg10
(lp419
F-0.004
aF0.011000000000000001
aF0.013000000000000001
asba(i__main__
sensor_data_struct
p420
(dp421
g3
(lp422
I625
aI367
aI247
aI1093
aI2591
aF195.0
aI1079
aI506
aI397
aI1637
aI2336
aF157.0
asg5
I0
sg6
(lp423
I69
aI95
aI-1
aI141
aI186
aI-1
asg8
(lp424
I-1
aI-1
aI-1
aF-1.0
aF-1.0
aF-1.0
aI-1
aI-1
aI-1
aF-1.0
aF-1.0
aF-1.0
asg10
(lp425
F-0.002
aF0.005
aF0.008
asba(i__main__
sensor_data_struct
p426
(dp427
g3
(lp428
I633
aI368
aI250
aI1100
aI2585
aF192.0
aI937
aI495
aI356
aI1506
aI2420
aF216.0
asg5
I1
sg6
(lp429
I23
aI15
aI-1
aI95
aI106
aI-1
asg8
(lp430
I-1
aI-1
aI-1
aF-1.0
aF-1.0
aF-1.0
aI-1
aI-1
aI-1
aF-1.0
aF-1.0
aF-1.0
asg10
(lp431
F-0.006999999999999999
aF0.002
aF0.013999999999999999
asba(i__main__
sensor_data_struct
p432
(dp433
g3
(lp434
I688
aI388
aI275
aI1158
aI2543
aF187.0
aI1287
aI564
aI445
aI1912
aI2271
aF146.0
asg5
I0
sg6
(lp435
I169
aI121
aI-1
aI150
aI231
aI-1
asg8
(lp436
I-1
aI-1
aI-1
aF-1.0
aF-1.0
aF-1.0
aI-1
aI-1
aI-1
aF-1.0
aF-1.0
aF-1.0
asg10
(lp437
F0.005
aF0.001
aF0.002
asba(i__main__
sensor_data_struct
p438
(dp439
g3
(lp440
I730
aI406
aI290
aI1217
aI2523
aF191.0
aI737
aI407
aI298
aI1208
aI2503
aF185.0
asg5
I0
sg6
(lp441
I57
aI60
aI-1
aI106
aI123
aI-1
asg8
(lp442
I-1
aI-1
aI-1
aF-1.0
aF-1.0
aF-1.0
aI-1
aI-1
aI-1
aF-1.0
aF-1.0
aF-1.0
asg10
(lp443
F0.001
aF-0.002
aF0.013000000000000001
asba(i__main__
sensor_data_struct
p444
(dp445
g3
(lp446
I640
aI373
aI256
aI1104
aI2579
aF193.0
aI1347
aI581
aI459
aI2006
aI2276
aF143.0
asg5
I0
sg6
(lp447
I54
aI55
aI-1
aI129
aI163
aI-1
asg8
(lp448
I-1
aI-1
aI-1
aF-1.0
aF-1.0
aF-1.0
aI-1
aI-1
aI-1
aF-1.0
aF-1.0
aF-1.0
asg10
(lp449
F0.002
aF0.008
aF0.01
asba(i__main__
sensor_data_struct
p450
(dp451
g3
(lp452
I645
aI378
aI259
aI1117
aI2588
aF197.0
aI960
aI480
aI380
aI1467
aI2382
aF167.0
asg5
I0
sg6
(lp453
I163
aI190
aI-1
aI155
aI229
aI-1
asg8
(lp454
I-1
aI-1
aI-1
aF-1.0
aF-1.0
aF-1.0
aI-1
aI-1
aI-1
aF-1.0
aF-1.0
aF-1.0
asg10
(lp455
F0.0
aF0.0
aF0.003
asba(i__main__
sensor_data_struct
p456
(dp457
g3
(lp458
I639
aI372
aI255
aI1104
aI2579
aF193.0
aI830
aI427
aI309
aI1346
aI2444
aF178.0
asg5
I1
sg6
(lp459
I24
aI11
aI-1
aI86
aI91
aI-1
asg8
(lp460
I-1
aI-1
aI-1
aF-1.0
aF-1.0
aF-1.0
aI-1
aI-1
aI-1
aF-1.0
aF-1.0
aF-1.0
asg10
(lp461
F-0.003
aF0.009000000000000001
aF0.015
asba(i__main__
sensor_data_struct
p462
(dp463
g3
(lp464
I581
aI348
aI232
aI1031
aI2624
aF190.0
aI774
aI437
aI307
aI1287
aI2501
aF213.0
asg5
I1
sg6
(lp465
I24
aI28
aI-1
aI77
aI63
aI-1
asg8
(lp466
I-1
aI-1
aI-1
aF-1.0
aF-1.0
aF-1.0
aI-1
aI-1
aI-1
aF-1.0
aF-1.0
aF-1.0
asg10
(lp467
F0.009000000000000001
aF-0.006
aF0.011000000000000001
asba(i__main__
sensor_data_struct
p468
(dp469
g3
(lp470
I612
aI357
aI238
aI1072
aI2586
aF190.0
aI953
aI491
aI374
aI1482
aI2390
aF191.0
asg5
I0
sg6
(lp471
I70
aI114
aI-1
aI155
aI208
aI-1
asg8
(lp472
I-1
aI-1
aI-1
aF-1.0
aF-1.0
aF-1.0
aI-1
aI-1
aI-1
aF-1.0
aF-1.0
aF-1.0
asg10
(lp473
F-0.005
aF-0.003
aF0.005
asba(i__main__
sensor_data_struct
p474
(dp475
g3
(lp476
I601
aI355
aI237
aI1060
aI2608
aF191.0
aI903
aI452
aI346
aI1413
aI2404
aF167.0
asg5
I0
sg6
(lp477
I81
aI79
aI-1
aI143
aI176
aI-1
asg8
(lp478
I-1
aI-1
aI-1
aF-1.0
aF-1.0
aF-1.0
aI-1
aI-1
aI-1
aF-1.0
aF-1.0
aF-1.0
asg10
(lp479
F0.008
aF0.0
aF0.009000000000000001
asba(i__main__
sensor_data_struct
p480
(dp481
g3
(lp482
I599
aI355
aI237
aI1055
aI2603
aF192.0
aI724
aI402
aI296
aI1184
aI2505
aF182.0
asg5
I0
sg6
(lp483
I51
aI60
aI-1
aI132
aI164
aI-1
asg8
(lp484
I-1
aI-1
aI-1
aF-1.0
aF-1.0
aF-1.0
aI-1
aI-1
aI-1
aF-1.0
aF-1.0
aF-1.0
asg10
(lp485
F-0.006
aF-0.006
aF0.009000000000000001
asba(i__main__
sensor_data_struct
p486
(dp487
g3
(lp488
I616
aI361
aI244
aI1076
aI2595
aF191.0
aI1049
aI544
aI398
aI1649
aI2376
aF226.0
asg5
I1
sg6
(lp489
I58
aI64
aI-1
aI104
aI119
aI-1
asg8
(lp490
I-1
aI-1
aI-1
aF-1.0
aF-1.0
aF-1.0
aI-1
aI-1
aI-1
aF-1.0
aF-1.0
aF-1.0
asg10
(lp491
F0.003
aF-0.002
aF0.013000000000000001
asba(i__main__
sensor_data_struct
p492
(dp493
g3
(lp494
I600
aI358
aI239
aI1060
aI2615
aF195.0
aI813
aI447
aI317
aI1334
aI2470
aF209.0
asg5
I1
sg6
(lp495
I26
aI37
aI-1
aI85
aI88
aI-1
asg8
(lp496
I-1
aI-1
aI-1
aF-1.0
aF-1.0
aF-1.0
aI-1
aI-1
aI-1
aF-1.0
aF-1.0
aF-1.0
asg10
(lp497
F0.012
aF-0.002
aF0.015
asba(i__main__
sensor_data_struct
p498
(dp499
g3
(lp500
I632
aI366
aI250
aI1092
aI2573
aF189.0
aI1075
aI521
aI406
aI1632
aI2337
aF176.0
asg5
I0
sg6
(lp501
I178
aI118
aI-1
aI154
aI231
aI-1
asg8
(lp502
I-1
aI-1
aI-1
aF-1.0
aF-1.0
aF-1.0
aI-1
aI-1
aI-1
aF-1.0
aF-1.0
aF-1.0
asg10
(lp503
F0.0
aF-0.004
aF0.002
asba(i__main__
sensor_data_struct
p504
(dp505
g3
(lp506
I596
aI352
aI235
aI1050
aI2605
aF190.0
aI878
aI484
aI338
aI1437
aI2446
aF231.0
asg5
I1
sg6
(lp507
I28
aI34
aI-1
aI76
aI60
aI-1
asg8
(lp508
I-1
aI-1
aI-1
aF-1.0
aF-1.0
aF-1.0
aI-1
aI-1
aI-1
aF-1.0
aF-1.0
aF-1.0
asg10
(lp509
F0.006
aF-0.005
aF0.015
asba(i__main__
sensor_data_struct
p510
(dp511
g3
(lp512
I629
aI371
aI249
aI1098
aI2587
aF199.0
aI1067
aI509
aI395
aI1629
aI2343
aF167.0
asg5
I0
sg6
(lp513
I98
aI108
aI-1
aI141
aI179
aI-1
asg8
(lp514
I-1
aI-1
aI-1
aF-1.0
aF-1.0
aF-1.0
aI-1
aI-1
aI-1
aF-1.0
aF-1.0
aF-1.0
asg10
(lp515
F0.004
aF0.001
aF0.009000000000000001
asba(i__main__
sensor_data_struct
p516
(dp517
g3
(lp518
I639
aI368
aI251
aI1102
aI2565
aF189.0
aI1157
aI560
aI432
aI1758
aI2329
aF192.0
asg5
I0
sg6
(lp519
I92
aI136
aI-1
aI156
aI209
aI-1
asg8
(lp520
I-1
aI-1
aI-1
aF-1.0
aF-1.0
aF-1.0
aI-1
aI-1
aI-1
aF-1.0
aF-1.0
aF-1.0
asg10
(lp521
F-0.003
aF-0.002
aF0.006
asba(i__main__
sensor_data_struct
p522
(dp523
g3
(lp524
I652
aI376
aI255
aI1126
aI2565
aF195.0
aI897
aI472
aI361
aI1404
aI2418
aF189.0
asg5
I0
sg6
(lp525
I63
aI77
aI-1
aI157
aI215
aI-1
asg8
(lp526
I-1
aI-1
aI-1
aF-1.0
aF-1.0
aF-1.0
aI-1
aI-1
aI-1
aF-1.0
aF-1.0
aF-1.0
asg10
(lp527
F-0.004
aF-0.003
aF0.006
asba(i__main__
sensor_data_struct
p528
(dp529
g3
(lp530
I659
aI373
aI256
aI1130
aI2553
aF187.0
aI1178
aI566
aI431
aI1803
aI2331
aF195.0
asg5
I0
sg6
(lp531
I47
aI61
aI-1
aI136
aI185
aI-1
asg8
(lp532
I-1
aI-1
aI-1
aF-1.0
aF-1.0
aF-1.0
aI-1
aI-1
aI-1
aF-1.0
aF-1.0
aF-1.0
asg10
(lp533
F-0.006
aF0.004
aF0.006999999999999999
asba(i__main__
sensor_data_struct
p534
(dp535
g3
(lp536
I644
aI371
aI251
aI1114
aI2564
aF192.0
aI880
aI448
aI330
aI1407
aI2425
aF179.0
asg5
I0
sg6
(lp537
I32
aI23
aI-1
aI130
aI176
aI-1
asg8
(lp538
I-1
aI-1
aI-1
aF-1.0
aF-1.0
aF-1.0
aI-1
aI-1
aI-1
aF-1.0
aF-1.0
aF-1.0
asg10
(lp539
F-0.008
aF0.005
aF0.009000000000000001
asba(i__main__
sensor_data_struct
p540
(dp541
g3
(lp542
I616
aI360
aI241
aI1079
aI2589
aF191.0
aI830
aI447
aI318
aI1357
aI2457
aF203.0
asg5
I1
sg6
(lp543
I23
aI19
aI-1
aI97
aI110
aI-1
asg8
(lp544
I-1
aI-1
aI-1
aF-1.0
aF-1.0
aF-1.0
aI-1
aI-1
aI-1
aF-1.0
aF-1.0
aF-1.0
asg10
(lp545
F-0.006999999999999999
aF-0.002
aF0.013000000000000001
asba(i__main__
sensor_data_struct
p546
(dp547
g3
(lp548
I624
aI362
aI244
aI1086
aI2578
aF190.0
aI1097
aI551
aI415
aI1694
aI2354
aF209.0
asg5
I0
sg6
(lp549
I63
aI80
aI-1
aI135
aI169
aI-1
asg8
(lp550
I-1
aI-1
aI-1
aF-1.0
aF-1.0
aF-1.0
aI-1
aI-1
aI-1
aF-1.0
aF-1.0
aF-1.0
asg10
(lp551
F-0.004
aF-0.002
aF0.009000000000000001
asba(i__main__
sensor_data_struct
p552
(dp553
g3
(lp554
I651
aI376
aI255
aI1128
aI2572
aF195.0
aI770
aI424
aI299
aI1277
aI2490
aF200.0
asg5
I1
sg6
(lp555
I19
aI17
aI-1
aI88
aI101
aI-1
asg8
(lp556
I-1
aI-1
aI-1
aF-1.0
aF-1.0
aF-1.0
aI-1
aI-1
aI-1
aF-1.0
aF-1.0
aF-1.0
asg10
(lp557
F-0.006
aF-0.006999999999999999
aF0.015
asba(i__main__
sensor_data_struct
p558
(dp559
g3
(lp560
I660
aI381
aI254
aI1147
aI2561
aF201.0
aI871
aI468
aI334
aI1415
aI2443
aF211.0
asg5
I1
sg6
(lp561
I18
aI14
aI-1
aI93
aI103
aI-1
asg8
(lp562
I-1
aI-1
aI-1
aF-1.0
aF-1.0
aF-1.0
aI-1
aI-1
aI-1
aF-1.0
aF-1.0
aF-1.0
asg10
(lp563
F-0.006999999999999999
aF-0.005
aF0.013999999999999999
asba(i__main__
sensor_data_struct
p564
(dp565
g3
(lp566
I709
aI403
aI273
aI1213
aI2534
aF206.0
aI706
aI397
aI284
aI1176
aI2525
aF189.0
asg5
I1
sg6
(lp567
I22
aI20
aI-1
aI110
aI130
aI-1
asg8
(lp568
I-1
aI-1
aI-1
aF-1.0
aF-1.0
aF-1.0
aI-1
aI-1
aI-1
aF-1.0
aF-1.0
aF-1.0
asg10
(lp569
F-0.003
aF-0.005
aF0.012
asba(i__main__
sensor_data_struct
p570
(dp571
g3
(lp572
I641
aI370
aI251
aI1110
aI2571
aF192.0
aI1063
aI514
aI400
aI1619
aI2343
aF173.0
asg5
I0
sg6
(lp573
I88
aI166
aI-1
aI148
aI204
aI-1
asg8
(lp574
I-1
aI-1
aI-1
aF-1.0
aF-1.0
aF-1.0
aI-1
aI-1
aI-1
aF-1.0
aF-1.0
aF-1.0
asg10
(lp575
F-0.003
aF0.001
aF0.005
asba(i__main__
sensor_data_struct
p576
(dp577
g3
(lp578
I662
aI380
aI265
aI1126
aI2556
aF190.0
aI1189
aI565
aI435
aI1798
aI2310
aF187.0
asg5
I0
sg6
(lp579
I237
aI83
aI-1
aI171
aI228
aI-1
asg8
(lp580
I-1
aI-1
aI-1
aF-1.0
aF-1.0
aF-1.0
aI-1
aI-1
aI-1
aF-1.0
aF-1.0
aF-1.0
asg10
(lp581
F0.005
aF-0.004
aF0.003
asba(i__main__
sensor_data_struct
p582
(dp583
g3
(lp584
I596
aI353
aI235
aI1053
aI2610
aF191.0
aI622
aI355
aI239
aI1082
aI2571
aF183.0
asg5
I1
sg6
(lp585
I5
aI3
aI-1
aI54
aI56
aI-1
asg8
(lp586
I-1
aI-1
aI-1
aF-1.0
aF-1.0
aF-1.0
aI-1
aI-1
aI-1
aF-1.0
aF-1.0
aF-1.0
asg10
(lp587
F-0.013000000000000001
aF-0.004
aF0.015
asba(i__main__
sensor_data_struct
p588
(dp589
g3
(lp590
I603
aI356
aI240
aI1058
aI2606
aF190.0
aI999
aI536
aI382
aI1593
aI2392
aF242.0
asg5
I1
sg6
(lp591
I33
aI39
aI-1
aI114
aI85
aI-1
asg8
(lp592
I-1
aI-1
aI-1
aF-1.0
aF-1.0
aF-1.0
aI-1
aI-1
aI-1
aF-1.0
aF-1.0
aF-1.0
asg10
(lp593
F0.009000000000000001
aF-0.003
aF0.012
asba(i__main__
sensor_data_struct
p594
(dp595
g3
(lp596
I622
aI366
aI244
aI1093
aI2596
aF197.0
aI1036
aI519
aI382
aI1632
aI2382
aF203.0
asg5
I0
sg6
(lp597
I26
aI12
aI-1
aI109
aI133
aI-1
asg8
(lp598
I-1
aI-1
aI-1
aF-1.0
aF-1.0
aF-1.0
aI-1
aI-1
aI-1
aF-1.0
aF-1.0
aF-1.0
asg10
(lp599
F-0.006999999999999999
aF0.008
aF0.012
asba(i__main__
sensor_data_struct
p600
(dp601
g3
(lp602
I601
aI359
aI240
aI1060
aI2610
aF195.0
aI1041
aI480
aI374
aI1594
aI2348
aF145.0
asg5
I0
sg6
(lp603
I65
aI76
aI-1
aI120
aI144
aI-1
asg8
(lp604
I-1
aI-1
aI-1
aF-1.0
aF-1.0
aF-1.0
aI-1
aI-1
aI-1
aF-1.0
aF-1.0
aF-1.0
asg10
(lp605
F0.005
aF0.004
aF0.011000000000000001
asba.