(lp0
(i__main__
sensor_data_struct
p1
(dp2
S'color'
p3
(lp4
I791
aI414
aI312
aI1267
aI2460
aF168.0
aI1508
aI542
aI468
aI2153
aI2212
aF23.0
asS'button'
p5
I0
sS'IR'
p6
(lp7
I68
aI87
aI-1
aI151
aI216
aI-1
asS'TOF'
p8
(lp9
I-1
aI-1
aI-1
aF-1.0
aF-1.0
aF-1.0
aI-1
aI-1
aI-1
aF-1.0
aF-1.0
aF-1.0
asS'pt'
p10
(lp11
F0.002
aF0.005
aF0.006999999999999999
asba(i__main__
sensor_data_struct
p12
(dp13
g3
(lp14
I629
aI373
aI255
aI1090
aI2591
aF197.0
aI908
aI474
aI351
aI1441
aI2416
aF196.0
asg5
I0
sg6
(lp15
I34
aI28
aI-1
aI122
aI153
aI-1
asg8
(lp16
I-1
aI-1
aI-1
aF-1.0
aF-1.0
aF-1.0
aI-1
aI-1
aI-1
aF-1.0
aF-1.0
aF-1.0
asg10
(lp17
F-0.006
aF0.001
aF0.011000000000000001
asba(i__main__
sensor_data_struct
p18
(dp19
g3
(lp20
I760
aI406
aI294
aI1245
aI2482
aF178.0
aI1488
aI615
aI490
aI2178
aI2232
aF128.0
asg5
I0
sg6
(lp21
I65
aI128
aI-1
aI137
aI246
aI-1
asg8
(lp22
I-1
aI-1
aI-1
aF-1.0
aF-1.0
aF-1.0
aI-1
aI-1
aI-1
aF-1.0
aF-1.0
aF-1.0
asg10
(lp23
F-0.001
aF0.004
aF0.002
asba(i__main__
sensor_data_struct
p24
(dp25
g3
(lp26
I669
aI386
aI272
aI1133
aI2556
aF192.0
aI1319
aI593
aI472
aI1949
aI2272
aF162.0
asg5
I0
sg6
(lp27
I135
aI182
aI-1
aI160
aI241
aI-1
asg8
(lp28
I-1
aI-1
aI-1
aF-1.0
aF-1.0
aF-1.0
aI-1
aI-1
aI-1
aF-1.0
aF-1.0
aF-1.0
asg10
(lp29
F0.002
aF0.0
aF0.004
asba(i__main__
sensor_data_struct
p30
(dp31
g3
(lp32
I652
aI383
aI265
aI1118
aI2572
aF198.0
aI1352
aI527
aI440
aI1955
aI2231
aF70.0
asg5
I0
sg6
(lp33
I78
aI124
aI-1
aI155
aI234
aI-1
asg8
(lp34
I-1
aI-1
aI-1
aF-1.0
aF-1.0
aF-1.0
aI-1
aI-1
aI-1
aF-1.0
aF-1.0
aF-1.0
asg10
(lp35
F0.0
aF0.004
aF0.005
asba(i__main__
sensor_data_struct
p36
(dp37
g3
(lp38
I616
aI366
aI248
aI1074
aI2594
aF196.0
aI765
aI424
aI300
aI1266
aI2492
aF201.0
asg5
I0
sg6
(lp39
I13
aI8
aI-1
aI102
aI117
aI-1
asg8
(lp40
I-1
aI-1
aI-1
aF-1.0
aF-1.0
aF-1.0
aI-1
aI-1
aI-1
aF-1.0
aF-1.0
aF-1.0
asg10
(lp41
F-0.009000000000000001
aF-0.006999999999999999
aF0.013000000000000001
asba(i__main__
sensor_data_struct
p42
(dp43
g3
(lp44
I636
aI373
aI256
aI1099
aI2582
aF194.0
aI1154
aI572
aI425
aI1787
aI2343
aF217.0
asg5
I0
sg6
(lp45
I26
aI11
aI-1
aI111
aI132
aI-1
asg8
(lp46
I-1
aI-1
aI-1
aF-1.0
aF-1.0
aF-1.0
aI-1
aI-1
aI-1
aF-1.0
aF-1.0
aF-1.0
asg10
(lp47
F-0.005
aF0.009000000000000001
aF0.012
asba(i__main__
sensor_data_struct
p48
(dp49
g3
(lp50
I634
aI374
aI255
aI1099
aI2585
aF197.0
aI895
aI468
aI348
aI1422
aI2425
aF193.0
asg5
I0
sg6
(lp51
I34
aI49
aI-1
aI144
aI206
aI-1
asg8
(lp52
I-1
aI-1
aI-1
aF-1.0
aF-1.0
aF-1.0
aI-1
aI-1
aI-1
aF-1.0
aF-1.0
aF-1.0
asg10
(lp53
F-0.006999999999999999
aF0.003
aF0.006999999999999999
asba(i__main__
sensor_data_struct
p54
(dp55
g3
(lp56
I602
aI362
aI242
aI1060
aI2608
aF198.0
aI726
aI415
aI301
aI1202
aI2528
aF199.0
asg5
I1
sg6
(lp57
I43
aI36
aI-1
aI104
aI67
aI-1
asg8
(lp58
I-1
aI-1
aI-1
aF-1.0
aF-1.0
aF-1.0
aI-1
aI-1
aI-1
aF-1.0
aF-1.0
aF-1.0
asg10
(lp59
F0.006
aF-0.009000000000000001
aF0.011000000000000001
asba(i__main__
sensor_data_struct
p60
(dp61
g3
(lp62
I635
aI374
aI254
aI1104
aI2590
aF198.0
aI988
aI542
aI374
aI1606
aI2412
aF260.0
asg5
I1
sg6
(lp63
I20
aI9
aI-1
aI59
aI60
aI-1
asg8
(lp64
I-1
aI-1
aI-1
aF-1.0
aF-1.0
aF-1.0
aI-1
aI-1
aI-1
aF-1.0
aF-1.0
aF-1.0
asg10
(lp65
F-0.009000000000000001
aF0.001
aF0.013000000000000001
asba(i__main__
sensor_data_struct
p66
(dp67
g3
(lp68
I657
aI387
aI262
aI1138
aI2574
aF205.0
aI971
aI532
aI369
aI1580
aI2420
aF254.0
asg5
I1
sg6
(lp69
I18
aI8
aI-1
aI60
aI60
aI-1
asg8
(lp70
I-1
aI-1
aI-1
aF-1.0
aF-1.0
aF-1.0
aI-1
aI-1
aI-1
aF-1.0
aF-1.0
aF-1.0
asg10
(lp71
F-0.01
aF0.004
aF0.01
asba(i__main__
sensor_data_struct
p72
(dp73
g3
(lp74
I620
aI374
aI252
aI1087
aI2609
aF204.0
aI1004
aI483
aI377
aI1543
aI2370
aF160.0
asg5
I0
sg6
(lp75
I76
aI78
aI-1
aI155
aI197
aI-1
asg8
(lp76
I-1
aI-1
aI-1
aF-1.0
aF-1.0
aF-1.0
aI-1
aI-1
aI-1
aF-1.0
aF-1.0
aF-1.0
asg10
(lp77
F0.009000000000000001
aF-0.001
aF0.008
asba(i__main__
sensor_data_struct
p78
(dp79
g3
(lp80
I666
aI394
aI274
aI1141
aI2580
aF205.0
aI1125
aI580
aI422
aI1764
aI2363
aF241.0
asg5
I0
sg6
(lp81
I30
aI43
aI-1
aI93
aI97
aI-1
asg8
(lp82
I-1
aI-1
aI-1
aF-1.0
aF-1.0
aF-1.0
aI-1
aI-1
aI-1
aF-1.0
aF-1.0
aF-1.0
asg10
(lp83
F0.008
aF0.004
aF0.015
asba(i__main__
sensor_data_struct
p84
(dp85
g3
(lp86
I660
aI397
aI271
aI1144
aI2591
aF213.0
aI1110
aI498
aI373
aI1743
aI2367
aF152.0
asg5
I1
sg6
(lp87
I19
aI9
aI-1
aI59
aI59
aI-1
asg8
(lp88
I-1
aI-1
aI-1
aF-1.0
aF-1.0
aF-1.0
aI-1
aI-1
aI-1
aF-1.0
aF-1.0
aF-1.0
asg10
(lp89
F0.003
aF0.013000000000000001
aF0.013999999999999999
asba(i__main__
sensor_data_struct
p90
(dp91
g3
(lp92
I1036
aI539
aI380
aI1673
aI2408
aF236.0
aI1131
aI485
aI378
aI1723
aI2320
aF121.0
asg5
I1
sg6
(lp93
I33
aI18
aI-1
aI71
aI78
aI-1
asg8
(lp94
I-1
aI-1
aI-1
aF-1.0
aF-1.0
aF-1.0
aI-1
aI-1
aI-1
aF-1.0
aF-1.0
aF-1.0
asg10
(lp95
F0.002
aF0.01
aF0.013000000000000001
asba(i__main__
sensor_data_struct
p96
(dp97
g3
(lp98
I628
aI375
aI255
aI1092
aI2593
aF201.0
aI983
aI494
aI391
aI1496
aI2370
aF174.0
asg5
I0
sg6
(lp99
I184
aI176
aI-1
aI158
aI241
aI-1
asg8
(lp100
I-1
aI-1
aI-1
aF-1.0
aF-1.0
aF-1.0
aI-1
aI-1
aI-1
aF-1.0
aF-1.0
aF-1.0
asg10
(lp101
F0.002
aF-0.003
aF0.003
asba(i__main__
sensor_data_struct
p102
(dp103
g3
(lp104
I660
aI389
aI268
aI1135
aI2576
aF203.0
aI817
aI435
aI324
aI1316
aI2466
aF184.0
asg5
I0
sg6
(lp105
I37
aI52
aI-1
aI104
aI114
aI-1
asg8
(lp106
I-1
aI-1
aI-1
aF-1.0
aF-1.0
aF-1.0
aI-1
aI-1
aI-1
aF-1.0
aF-1.0
aF-1.0
asg10
(lp107
F0.012
aF0.0
aF0.013000000000000001
asba(i__main__
sensor_data_struct
p108
(dp109
g3
(lp110
I802
aI454
aI316
aI1335
aI2493
aF224.0
aI658
aI380
aI262
aI1129
aI2567
aF194.0
asg5
I1
sg6
(lp111
I7
aI10
aI-1
aI70
aI61
aI-1
asg8
(lp112
I-1
aI-1
aI-1
aF-1.0
aF-1.0
aF-1.0
aI-1
aI-1
aI-1
aF-1.0
aF-1.0
aF-1.0
asg10
(lp113
F0.005
aF-0.012
aF0.013999999999999999
asba(i__main__
sensor_data_struct
p114
(dp115
g3
(lp116
I634
aI375
aI249
aI1112
aI2586
aF203.0
aI786
aI438
aI327
aI1268
aI2489
aF196.0
asg5
I0
sg6
(lp117
I48
aI58
aI-1
aI149
aI193
aI-1
asg8
(lp118
I-1
aI-1
aI-1
aF-1.0
aF-1.0
aF-1.0
aI-1
aI-1
aI-1
aF-1.0
aF-1.0
aF-1.0
asg10
(lp119
F-0.005
aF-0.006999999999999999
aF0.008
asba(i__main__
sensor_data_struct
p120
(dp121
g3
(lp122
I668
aI390
aI264
aI1152
aI2560
aF205.0
aI1065
aI534
aI415
aI1623
aI2354
aF193.0
asg5
I0
sg6
(lp123
I96
aI187
aI-1
aI157
aI239
aI-1
asg8
(lp124
I-1
aI-1
aI-1
aF-1.0
aF-1.0
aF-1.0
aI-1
aI-1
aI-1
aF-1.0
aF-1.0
aF-1.0
asg10
(lp125
F-0.002
aF-0.003
aF0.004
asba(i__main__
sensor_data_struct
p126
(dp127
g3
(lp128
I743
aI422
aI296
aI1245
aI2519
aF208.0
aI688
aI391
aI273
aI1164
aI2539
aF193.0
asg5
I1
sg6
(lp129
I16
aI11
aI-1
aI96
aI106
aI-1
asg8
(lp130
I-1
aI-1
aI-1
aF-1.0
aF-1.0
aF-1.0
aI-1
aI-1
aI-1
aF-1.0
aF-1.0
aF-1.0
asg10
(lp131
F-0.008
aF-0.006999999999999999
aF0.013999999999999999
asba(i__main__
sensor_data_struct
p132
(dp133
g3
(lp134
I651
aI383
aI260
aI1128
aI2578
aF202.0
aI1035
aI538
aI388
aI1643
aI2386
aF229.0
asg5
I1
sg6
(lp135
I26
aI10
aI-1
aI91
aI98
aI-1
asg8
(lp136
I-1
aI-1
aI-1
aF-1.0
aF-1.0
aF-1.0
aI-1
aI-1
aI-1
aF-1.0
aF-1.0
aF-1.0
asg10
(lp137
F-0.004
aF0.008
aF0.015
asba(i__main__
sensor_data_struct
p138
(dp139
g3
(lp140
I641
aI383
aI260
aI1118
aI2599
aF206.0
aI1037
aI497
aI394
aI1576
aI2355
aF159.0
asg5
I0
sg6
(lp141
I105
aI117
aI-1
aI153
aI204
aI-1
asg8
(lp142
I-1
aI-1
aI-1
aF-1.0
aF-1.0
aF-1.0
aI-1
aI-1
aI-1
aF-1.0
aF-1.0
aF-1.0
asg10
(lp143
F0.004
aF0.0
aF0.008
asba(i__main__
sensor_data_struct
p144
(dp145
g3
(lp146
I628
aI374
aI252
aI1098
aI2596
aF201.0
aI752
aI429
aI291
aI1274
aI2511
aF219.0
asg5
I1
sg6
(lp147
I9
aI4
aI-1
aI56
aI58
aI-1
asg8
(lp148
I-1
aI-1
aI-1
aF-1.0
aF-1.0
aF-1.0
aI-1
aI-1
aI-1
aF-1.0
aF-1.0
aF-1.0
asg10
(lp149
F-0.013000000000000001
aF-0.001
aF0.015
asba(i__main__
sensor_data_struct
p150
(dp151
g3
(lp152
I684
aI394
aI270
aI1172
aI2554
aF202.0
aI1164
aI584
aI436
aI1794
aI2338
aF224.0
asg5
I0
sg6
(lp153
I34
aI39
aI-1
aI132
aI175
aI-1
asg8
(lp154
I-1
aI-1
aI-1
aF-1.0
aF-1.0
aF-1.0
aI-1
aI-1
aI-1
aF-1.0
aF-1.0
aF-1.0
asg10
(lp155
F-0.006999999999999999
aF0.001
aF0.009000000000000001
asba(i__main__
sensor_data_struct
p156
(dp157
g3
(lp158
I652
aI384
aI259
aI1130
aI2574
aF204.0
aI956
aI488
aI382
aI1464
aI2379
aF180.0
asg5
I0
sg6
(lp159
I110
aI229
aI-1
aI145
aI245
aI-1
asg8
(lp160
I-1
aI-1
aI-1
aF-1.0
aF-1.0
aF-1.0
aI-1
aI-1
aI-1
aF-1.0
aF-1.0
aF-1.0
asg10
(lp161
F-0.002
aF-0.002
aF0.002
asba(i__main__
sensor_data_struct
p162
(dp163
g3
(lp164
I692
aI399
aI276
aI1178
aI2550
aF203.0
aI718
aI408
aI292
aI1196
aI2527
aF197.0
asg5
I0
sg6
(lp165
I25
aI23
aI-1
aI114
aI133
aI-1
asg8
(lp166
I-1
aI-1
aI-1
aF-1.0
aF-1.0
aF-1.0
aI-1
aI-1
aI-1
aF-1.0
aF-1.0
aF-1.0
asg10
(lp167
F-0.005
aF-0.009000000000000001
aF0.012
asba(i__main__
sensor_data_struct
p168
(dp169
g3
(lp170
I682
aI393
aI270
aI1164
aI2549
aF201.0
aI1161
aI539
aI425
aI1740
aI2307
aF162.0
asg5
I0
sg6
(lp171
I71
aI185
aI-1
aI145
aI244
aI-1
asg8
(lp172
I-1
aI-1
aI-1
aF-1.0
aF-1.0
aF-1.0
aI-1
aI-1
aI-1
aF-1.0
aF-1.0
aF-1.0
asg10
(lp173
F-0.003
aF0.001
aF0.003
asba(i__main__
sensor_data_struct
p174
(dp175
g3
(lp176
I675
aI390
aI268
aI1156
aI2559
aF200.0
aI1281
aI578
aI449
aI1925
aI2292
aF167.0
asg5
I0
sg6
(lp177
I45
aI35
aI-1
aI139
aI188
aI-1
asg8
(lp178
I-1
aI-1
aI-1
aF-1.0
aF-1.0
aF-1.0
aI-1
aI-1
aI-1
aF-1.0
aF-1.0
aF-1.0
asg10
(lp179
F-0.003
aF0.006999999999999999
aF0.008
asba(i__main__
sensor_data_struct
p180
(dp181
g3
(lp182
I709
aI403
aI279
aI1203
aI2537
aF201.0
aI803
aI430
aI312
aI1307
aI2466
aF189.0
asg5
I1
sg6
(lp183
I22
aI14
aI-1
aI61
aI82
aI-1
asg8
(lp184
I-1
aI-1
aI-1
aF-1.0
aF-1.0
aF-1.0
aI-1
aI-1
aI-1
aF-1.0
aF-1.0
aF-1.0
asg10
(lp185
F-0.009000000000000001
aF0.004
aF0.009000000000000001
asba(i__main__
sensor_data_struct
p186
(dp187
g3
(lp188
I780
aI424
aI311
aI1273
aI2489
aF188.0
aI1362
aI592
aI468
aI2014
aI2259
aF149.0
asg5
I0
sg6
(lp189
I127
aI220
aI-1
aI135
aI249
aI-1
asg8
(lp190
I-1
aI-1
aI-1
aF-1.0
aF-1.0
aF-1.0
aI-1
aI-1
aI-1
aF-1.0
aF-1.0
aF-1.0
asg10
(lp191
F0.001
aF0.001
aF0.001
asba(i__main__
sensor_data_struct
p192
(dp193
g3
(lp194
I667
aI390
aI269
aI1145
aI2572
aF202.0
aI716
aI408
aI288
aI1200
aI2527
aF200.0
asg5
I1
sg6
(lp195
I15
aI13
aI-1
aI100
aI111
aI-1
asg8
(lp196
I-1
aI-1
aI-1
aF-1.0
aF-1.0
aF-1.0
aI-1
aI-1
aI-1
aF-1.0
aF-1.0
aF-1.0
asg10
(lp197
F-0.002
aF-0.01
aF0.013999999999999999
asba(i__main__
sensor_data_struct
p198
(dp199
g3
(lp200
I667
aI391
aI268
aI1147
aI2570
aF204.0
aI1178
aI514
aI417
aI1747
aI2292
aF123.0
asg5
I0
sg6
(lp201
I135
aI203
aI-1
aI135
aI244
aI-1
asg8
(lp202
I-1
aI-1
aI-1
aF-1.0
aF-1.0
aF-1.0
aI-1
aI-1
aI-1
aF-1.0
aF-1.0
aF-1.0
asg10
(lp203
F0.002
aF-0.001
aF0.0
asba(i__main__
sensor_data_struct
p204
(dp205
g3
(lp206
I630
aI375
aI253
aI1100
aI2594
aF202.0
aI829
aI448
aI321
aI1355
aI2467
aF203.0
asg5
I1
sg6
(lp207
I21
aI8
aI-1
aI60
aI72
aI-1
asg8
(lp208
I-1
aI-1
aI-1
aF-1.0
aF-1.0
aF-1.0
aI-1
aI-1
aI-1
aF-1.0
aF-1.0
aF-1.0
asg10
(lp209
F-0.009000000000000001
aF0.004
aF0.01
asba(i__main__
sensor_data_struct
p210
(dp211
g3
(lp212
I624
aI373
aI251
aI1094
aI2602
aF202.0
aI689
aI399
aI281
aI1165
aI2552
aF200.0
asg5
I1
sg6
(lp213
I23
aI28
aI-1
aI76
aI64
aI-1
asg8
(lp214
I-1
aI-1
aI-1
aF-1.0
aF-1.0
aF-1.0
aI-1
aI-1
aI-1
aF-1.0
aF-1.0
aF-1.0
asg10
(lp215
F0.006999999999999999
aF-0.008
aF0.015
asba(i__main__
sensor_data_struct
p216
(dp217
g3
(lp218
I675
aI402
aI269
aI1175
aI2579
aF218.0
aI914
aI464
aI349
aI1448
aI2423
aF180.0
asg5
I1
sg6
(lp219
I33
aI43
aI-1
aI89
aI92
aI-1
asg8
(lp220
I-1
aI-1
aI-1
aF-1.0
aF-1.0
aF-1.0
aI-1
aI-1
aI-1
aF-1.0
aF-1.0
aF-1.0
asg10
(lp221
F0.006999999999999999
aF0.005
aF0.015
asba(i__main__
sensor_data_struct
p222
(dp223
g3
(lp224
I667
aI396
aI271
aI1151
aI2581
aF210.0
aI1062
aI540
aI402
aI1658
aI2372
aF213.0
asg5
I0
sg6
(lp225
I52
aI55
aI-1
aI103
aI116
aI-1
asg8
(lp226
I-1
aI-1
aI-1
aF-1.0
aF-1.0
aF-1.0
aI-1
aI-1
aI-1
aF-1.0
aF-1.0
aF-1.0
asg10
(lp227
F0.0
aF0.003
aF0.013000000000000001
asba(i__main__
sensor_data_struct
p228
(dp229
g3
(lp230
I643
aI383
aI258
aI1122
aI2590
aF206.0
aI869
aI487
aI333
aI1442
aI2463
aF242.0
asg5
I1
sg6
(lp231
I17
aI5
aI-1
aI60
aI59
aI-1
asg8
(lp232
I-1
aI-1
aI-1
aF-1.0
aF-1.0
aF-1.0
aI-1
aI-1
aI-1
aF-1.0
aF-1.0
aF-1.0
asg10
(lp233
F-0.01
aF0.006
aF0.015
asba(i__main__
sensor_data_struct
p234
(dp235
g3
(lp236
I658
aI390
aI264
aI1144
aI2585
aF208.0
aI1208
aI561
aI432
aI1832
aI2313
aF177.0
asg5
I0
sg6
(lp237
I55
aI52
aI-1
aI128
aI165
aI-1
asg8
(lp238
I-1
aI-1
aI-1
aF-1.0
aF-1.0
aF-1.0
aI-1
aI-1
aI-1
aF-1.0
aF-1.0
aF-1.0
asg10
(lp239
F-0.001
aF0.005
aF0.01
asba(i__main__
sensor_data_struct
p240
(dp241
g3
(lp242
I623
aI368
aI246
aI1094
aI2598
aF198.0
aI665
aI383
aI264
aI1138
aI2557
aF195.0
asg5
I1
sg6
(lp243
I10
aI12
aI-1
aI59
aI60
aI-1
asg8
(lp244
I-1
aI-1
aI-1
aF-1.0
aF-1.0
aF-1.0
aI-1
aI-1
aI-1
aF-1.0
aF-1.0
aF-1.0
asg10
(lp245
F-0.001
aF-0.012
aF0.015
asba(i__main__
sensor_data_struct
p246
(dp247
g3
(lp248
I733
aI423
aI279
aI1264
aI2531
aF225.0
aI756
aI417
aI296
aI1255
aI2500
aF196.0
asg5
I1
sg6
(lp249
I24
aI12
aI-1
aI97
aI107
aI-1
asg8
(lp250
I-1
aI-1
aI-1
aF-1.0
aF-1.0
aF-1.0
aI-1
aI-1
aI-1
aF-1.0
aF-1.0
aF-1.0
asg10
(lp251
F-0.006999999999999999
aF0.0
aF0.013999999999999999
asba(i__main__
sensor_data_struct
p252
(dp253
g3
(lp254
I654
aI390
aI262
aI1140
aI2585
aF211.0
aI1249
aI533
aI435
aI1837
aI2272
aF117.0
asg5
I0
sg6
(lp255
I148
aI153
aI-1
aI154
aI250
aI-1
asg8
(lp256
I-1
aI-1
aI-1
aF-1.0
aF-1.0
aF-1.0
aI-1
aI-1
aI-1
aF-1.0
aF-1.0
aF-1.0
asg10
(lp257
F0.004
aF0.0
aF0.003
asba(i__main__
sensor_data_struct
p258
(dp259
g3
(lp260
I674
aI397
aI273
aI1159
aI2575
aF207.0
aI827
aI464
aI330
aI1358
aI2480
aF222.0
asg5
I1
sg6
(lp261
I33
aI36
aI-1
aI86
aI68
aI-1
asg8
(lp262
I-1
aI-1
aI-1
aF-1.0
aF-1.0
aF-1.0
aI-1
aI-1
aI-1
aF-1.0
aF-1.0
aF-1.0
asg10
(lp263
F0.004
aF-0.006999999999999999
aF0.013999999999999999
asba(i__main__
sensor_data_struct
p264
(dp265
g3
(lp266
I767
aI442
aI297
aI1305
aI2516
aF231.0
aI699
aI406
aI281
aI1189
aI2551
aF208.0
asg5
I1
sg6
(lp267
I15
aI22
aI-1
aI73
aI64
aI-1
asg8
(lp268
I-1
aI-1
aI-1
aF-1.0
aF-1.0
aF-1.0
aI-1
aI-1
aI-1
aF-1.0
aF-1.0
aF-1.0
asg10
(lp269
F0.008
aF-0.009000000000000001
aF0.015
asba(i__main__
sensor_data_struct
p270
(dp271
g3
(lp272
I649
aI388
aI260
aI1134
aI2591
aF211.0
aI591
aI363
aI240
aI1056
aI2639
aF205.0
asg5
I1
sg6
(lp273
I3
aI6
aI-1
aI56
aI57
aI-1
asg8
(lp274
I-1
aI-1
aI-1
aF-1.0
aF-1.0
aF-1.0
aI-1
aI-1
aI-1
aF-1.0
aF-1.0
aF-1.0
asg10
(lp275
F-0.005
aF0.012
aF0.013999999999999999
asba(i__main__
sensor_data_struct
p276
(dp277
g3
(lp278
I694
aI411
aI274
aI1209
aI2573
aF222.0
aI741
aI425
aI299
aI1241
aI2523
aF211.0
asg5
I0
sg6
(lp279
I20
aI19
aI-1
aI103
aI115
aI-1
asg8
(lp280
I-1
aI-1
aI-1
aF-1.0
aF-1.0
aF-1.0
aI-1
aI-1
aI-1
aF-1.0
aF-1.0
aF-1.0
asg10
(lp281
F-0.003
aF-0.013000000000000001
aF0.013999999999999999
asba(i__main__
sensor_data_struct
p282
(dp283
g3
(lp284
I703
aI410
aI277
aI1207
aI2548
aF216.0
aI1148
aI519
aI412
aI1722
aI2310
aF144.0
asg5
I0
sg6
(lp285
I95
aI283
aI-1
aI131
aI248
aI-1
asg8
(lp286
I-1
aI-1
aI-1
aF-1.0
aF-1.0
aF-1.0
aI-1
aI-1
aI-1
aF-1.0
aF-1.0
aF-1.0
asg10
(lp287
F-0.001
aF-0.002
aF0.0
asba(i__main__
sensor_data_struct
p288
(dp289
g3
(lp290
I694
aI403
aI275
aI1190
aI2553
aF209.0
aI1188
aI585
aI434
aI1835
aI2333
aF220.0
asg5
I0
sg6
(lp291
I34
aI18
aI-1
aI112
aI134
aI-1
asg8
(lp292
I-1
aI-1
aI-1
aF-1.0
aF-1.0
aF-1.0
aI-1
aI-1
aI-1
aF-1.0
aF-1.0
aF-1.0
asg10
(lp293
F-0.005
aF0.008
aF0.012
asba(i__main__
sensor_data_struct
p294
(dp295
g3
(lp296
I1017
aI533
aI382
aI1624
aI2397
aF231.0
aI901
aI455
aI334
aI1442
aI2420
aF181.0
asg5
I0
sg6
(lp297
I32
aI17
aI-1
aI99
aI111
aI-1
asg8
(lp298
I-1
aI-1
aI-1
aF-1.0
aF-1.0
aF-1.0
aI-1
aI-1
aI-1
aF-1.0
aF-1.0
aF-1.0
asg10
(lp299
F-0.004
aF0.006
aF0.013000000000000001
asba(i__main__
sensor_data_struct
p300
(dp301
g3
(lp302
I764
aI426
aI297
aI1282
aI2513
aF206.0
aI1403
aI622
aI486
aI2083
aI2262
aF170.0
asg5
I0
sg6
(lp303
I60
aI75
aI-1
aI149
aI222
aI-1
asg8
(lp304
I-1
aI-1
aI-1
aF-1.0
aF-1.0
aF-1.0
aI-1
aI-1
aI-1
aF-1.0
aF-1.0
aF-1.0
asg10
(lp305
F-0.003
aF0.005
aF0.006999999999999999
asba(i__main__
sensor_data_struct
p306
(dp307
g3
(lp308
I706
aI408
aI281
aI1205
aI2550
aF209.0
aI1208
aI589
aI444
aI1849
aI2324
aF212.0
asg5
I0
sg6
(lp309
I61
aI66
aI-1
aI123
aI154
aI-1
asg8
(lp310
I-1
aI-1
aI-1
aF-1.0
aF-1.0
aF-1.0
aI-1
aI-1
aI-1
aF-1.0
aF-1.0
aF-1.0
asg10
(lp311
F-0.002
aF0.003
aF0.011000000000000001
asba(i__main__
sensor_data_struct
p312
(dp313
g3
(lp314
I680
aI403
aI278
aI1168
aI2578
aF211.0
aI1158
aI582
aI432
aI1791
aI2343
aF226.0
asg5
I0
sg6
(lp315
I48
aI62
aI-1
aI115
aI133
aI-1
asg8
(lp316
I-1
aI-1
aI-1
aF-1.0
aF-1.0
aF-1.0
aI-1
aI-1
aI-1
aF-1.0
aF-1.0
aF-1.0
asg10
(lp317
F0.009000000000000001
aF0.0
aF0.012
asba(i__main__
sensor_data_struct
p318
(dp319
g3
(lp320
I656
aI390
aI262
aI1141
aI2581
aF210.0
aI788
aI436
aI314
aI1293
aI2489
aF202.0
asg5
I0
sg6
(lp321
I23
aI20
aI-1
aI134
aI178
aI-1
asg8
(lp322
I-1
aI-1
aI-1
aF-1.0
aF-1.0
aF-1.0
aI-1
aI-1
aI-1
aF-1.0
aF-1.0
aF-1.0
asg10
(lp323
F-0.008
aF-0.004
aF0.01
asba(i__main__
sensor_data_struct
p324
(dp325
g3
(lp326
I691
aI402
aI276
aI1182
aI2556
aF208.0
aI1290
aI531
aI433
aI1897
aI2264
aF102.0
asg5
I0
sg6
(lp327
I90
aI223
aI-1
aI129
aI248
aI-1
asg8
(lp328
I-1
aI-1
aI-1
aF-1.0
aF-1.0
aF-1.0
aI-1
aI-1
aI-1
aF-1.0
aF-1.0
aF-1.0
asg10
(lp329
F0.0
aF0.0
aF0.0
asba(i__main__
sensor_data_struct
p330
(dp331
g3
(lp332
I758
aI429
aI303
aI1265
aI2517
aF209.0
aI1360
aI552
aI457
aI1985
aI2255
aF95.0
asg5
I0
sg6
(lp333
I83
aI98
aI-1
aI147
aI206
aI-1
asg8
(lp334
I-1
aI-1
aI-1
aF-1.0
aF-1.0
aF-1.0
aI-1
aI-1
aI-1
aF-1.0
aF-1.0
aF-1.0
asg10
(lp335
F0.002
aF0.002
aF0.008
asba(i__main__
sensor_data_struct
p336
(dp337
g3
(lp338
I763
aI434
aI306
aI1275
aI2518
aF213.0
aI1193
aI501
aI388
aI1843
aI2345
aF119.0
asg5
I1
sg6
(lp339
I18
aI15
aI-1
aI60
aI63
aI-1
asg8
(lp340
I-1
aI-1
aI-1
aF-1.0
aF-1.0
aF-1.0
aI-1
aI-1
aI-1
aF-1.0
aF-1.0
aF-1.0
asg10
(lp341
F0.006
aF0.011000000000000001
aF0.013999999999999999
asba(i__main__
sensor_data_struct
p342
(dp343
g3
(lp344
I896
aI459
aI339
aI1437
aI2437
aF185.0
aI2660
aI770
aI711
aI3631
aI2113
aF65368.0
asg5
I1
sg6
(lp345
I55
aI57
aI-1
aI83
aI96
aI-1
asg8
(lp346
I-1
aI-1
aI-1
aF-1.0
aF-1.0
aF-1.0
aI-1
aI-1
aI-1
aF-1.0
aF-1.0
aF-1.0
asg10
(lp347
F0.004
aF0.006
aF0.005
asba(i__main__
sensor_data_struct
p348
(dp349
g3
(lp350
I727
aI416
aI293
aI1226
aI2542
aF206.0
aI693
aI393
aI273
aI1173
aI2534
aF195.0
asg5
I1
sg6
(lp351
I16
aI10
aI-1
aI92
aI100
aI-1
asg8
(lp352
I-1
aI-1
aI-1
aF-1.0
aF-1.0
aF-1.0
aI-1
aI-1
aI-1
aF-1.0
aF-1.0
aF-1.0
asg10
(lp353
F-0.009000000000000001
aF-0.006
aF0.015
asba(i__main__
sensor_data_struct
p354
(dp355
g3
(lp356
I724
aI420
aI282
aI1242
aI2536
aF221.0
aI861
aI455
aI327
aI1399
aI2447
aF199.0
asg5
I0
sg6
(lp357
I24
aI10
aI-1
aI101
aI115
aI-1
asg8
(lp358
I-1
aI-1
aI-1
aF-1.0
aF-1.0
aF-1.0
aI-1
aI-1
aI-1
aF-1.0
aF-1.0
aF-1.0
asg10
(lp359
F-0.006999999999999999
aF0.003
aF0.013999999999999999
asba(i__main__
sensor_data_struct
p360
(dp361
g3
(lp362
I674
aI396
aI267
aI1167
aI2568
aF210.0
aI1017
aI535
aI390
aI1606
aI2387
aF228.0
asg5
I0
sg6
(lp363
I48
aI50
aI-1
aI107
aI124
aI-1
asg8
(lp364
I-1
aI-1
aI-1
aF-1.0
aF-1.0
aF-1.0
aI-1
aI-1
aI-1
aF-1.0
aF-1.0
aF-1.0
asg10
(lp365
F-0.004
aF-0.003
aF0.013000000000000001
asba(i__main__
sensor_data_struct
p366
(dp367
g3
(lp368
I688
aI405
aI276
aI1186
aI2571
aF213.0
aI1167
aI515
aI413
aI1748
aI2310
aF131.0
asg5
I0
sg6
(lp369
I73
aI81
aI-1
aI126
aI155
aI-1
asg8
(lp370
I-1
aI-1
aI-1
aF-1.0
aF-1.0
aF-1.0
aI-1
aI-1
aI-1
aF-1.0
aF-1.0
aF-1.0
asg10
(lp371
F0.004
aF0.002
aF0.011000000000000001
asba(i__main__
sensor_data_struct
p372
(dp373
g3
(lp374
I677
aI399
aI275
aI1162
aI2573
aF208.0
aI1141
aI566
aI434
aI1740
aI2338
aF205.0
asg5
I0
sg6
(lp375
I134
aI95
aI-1
aI165
aI218
aI-1
asg8
(lp376
I-1
aI-1
aI-1
aF-1.0
aF-1.0
aF-1.0
aI-1
aI-1
aI-1
aF-1.0
aF-1.0
aF-1.0
asg10
(lp377
F0.006
aF-0.004
aF0.006999999999999999
asba(i__main__
sensor_data_struct
p378
(dp379
g3
(lp380
I658
aI394
aI266
aI1143
aI2585
aF213.0
aI1480
aI548
aI453
aI2149
aI2223
aF52.0
asg5
I0
sg6
(lp381
I48
aI39
aI-1
aI135
aI182
aI-1
asg8
(lp382
I-1
aI-1
aI-1
aF-1.0
aF-1.0
aF-1.0
aI-1
aI-1
aI-1
aF-1.0
aF-1.0
aF-1.0
asg10
(lp383
F-0.001
aF0.008
aF0.009000000000000001
asba(i__main__
sensor_data_struct
p384
(dp385
g3
(lp386
I1071
aI535
aI394
aI1683
aI2375
aF208.0
aI1129
aI494
aI384
aI1718
aI2319
aF132.0
asg5
I0
sg6
(lp387
I35
aI22
aI-1
aI117
aI133
aI-1
asg8
(lp388
I-1
aI-1
aI-1
aF-1.0
aF-1.0
aF-1.0
aI-1
aI-1
aI-1
aF-1.0
aF-1.0
aF-1.0
asg10
(lp389
F-0.001
aF0.008
aF0.012
asba(i__main__
sensor_data_struct
p390
(dp391
g3
(lp392
I740
aI423
aI298
aI1244
aI2536
aF209.0
aI1649
aI644
aI530
aI2380
aI2215
aF93.0
asg5
I0
sg6
(lp393
I70
aI78
aI-1
aI152
aI218
aI-1
asg8
(lp394
I-1
aI-1
aI-1
aF-1.0
aF-1.0
aF-1.0
aI-1
aI-1
aI-1
aF-1.0
aF-1.0
aF-1.0
asg10
(lp395
F0.005
aF0.004
aF0.006999999999999999
asba(i__main__
sensor_data_struct
p396
(dp397
g3
(lp398
I681
aI404
aI279
aI1169
aI2578
aF212.0
aI1226
aI562
aI442
aI1838
aI2300
aF165.0
asg5
I0
sg6
(lp399
I108
aI103
aI-1
aI160
aI214
aI-1
asg8
(lp400
I-1
aI-1
aI-1
aF-1.0
aF-1.0
aF-1.0
aI-1
aI-1
aI-1
aF-1.0
aF-1.0
aF-1.0
asg10
(lp401
F0.006999999999999999
aF0.0
aF0.006999999999999999
asba(i__main__
sensor_data_struct
p402
(dp403
g3
(lp404
I679
aI405
aI278
aI1170
aI2580
aF215.0
aI1172
aI502
aI383
aI1806
aI2329
aF131.0
asg5
I1
sg6
(lp405
I22
aI15
aI-1
aI59
aI62
aI-1
asg8
(lp406
I-1
aI-1
aI-1
aF-1.0
aF-1.0
aF-1.0
aI-1
aI-1
aI-1
aF-1.0
aF-1.0
aF-1.0
asg10
(lp407
F0.003
aF0.011000000000000001
aF0.013999999999999999
asba(i__main__
sensor_data_struct
p408
(dp409
g3
(lp410
I1012
aI535
aI374
aI1644
aI2419
aF242.0
aI1205
aI520
aI416
aI1811
aI2310
aF125.0
asg5
I0
sg6
(lp411
I36
aI46
aI-1
aI114
aI135
aI-1
asg8
(lp412
I-1
aI-1
aI-1
aF-1.0
aF-1.0
aF-1.0
aI-1
aI-1
aI-1
aF-1.0
aF-1.0
aF-1.0
asg10
(lp413
F0.006999999999999999
aF0.005
aF0.012
asba(i__main__
sensor_data_struct
p414
(dp415
g3
(lp416
I713
aI419
aI292
aI1213
aI2562
aF216.0
aI1894
aI638
aI556
aI2661
aI2168
aF65522.0
asg5
I0
sg6
(lp417
I77
aI85
aI-1
aI153
aI238
aI-1
asg8
(lp418
I-1
aI-1
aI-1
aF-1.0
aF-1.0
aF-1.0
aI-1
aI-1
aI-1
aF-1.0
aF-1.0
aF-1.0
asg10
(lp419
F0.004
aF0.004
aF0.005
asba(i__main__
sensor_data_struct
p420
(dp421
g3
(lp422
I689
aI408
aI281
aI1181
aI2570
aF214.0
aI1057
aI523
aI409
aI1612
aI2359
aF182.0
asg5
I0
sg6
(lp423
I117
aI129
aI-1
aI153
aI206
aI-1
asg8
(lp424
I-1
aI-1
aI-1
aF-1.0
aF-1.0
aF-1.0
aI-1
aI-1
aI-1
aF-1.0
aF-1.0
aF-1.0
asg10
(lp425
F0.002
aF-0.002
aF0.008
asba(i__main__
sensor_data_struct
p426
(dp427
g3
(lp428
I758
aI435
aI305
aI1273
aI2529
aF217.0
aI1032
aI518
aI396
aI1593
aI2370
aF192.0
asg5
I0
sg6
(lp429
I87
aI104
aI-1
aI127
aI156
aI-1
asg8
(lp430
I-1
aI-1
aI-1
aF-1.0
aF-1.0
aF-1.0
aI-1
aI-1
aI-1
aF-1.0
aF-1.0
aF-1.0
asg10
(lp431
F0.002
aF-0.001
aF0.011000000000000001
asba(i__main__
sensor_data_struct
p432
(dp433
g3
(lp434
I805
aI455
aI319
aI1339
aI2497
aF223.0
aI1152
aI520
aI413
aI1734
aI2319
aF144.0
asg5
I0
sg6
(lp435
I70
aI78
aI-1
aI124
aI154
aI-1
asg8
(lp436
I-1
aI-1
aI-1
aF-1.0
aF-1.0
aF-1.0
aI-1
aI-1
aI-1
aF-1.0
aF-1.0
aF-1.0
asg10
(lp437
F0.002
aF0.002
aF0.011000000000000001
asba(i__main__
sensor_data_struct
p438
(dp439
g3
(lp440
I688
aI402
aI275
aI1179
aI2556
aF209.0
aI1063
aI562
aI404
aI1682
aI2379
aF246.0
asg5
I1
sg6
(lp441
I45
aI42
aI-1
aI96
aI104
aI-1
asg8
(lp442
I-1
aI-1
aI-1
aF-1.0
aF-1.0
aF-1.0
aI-1
aI-1
aI-1
aF-1.0
aF-1.0
aF-1.0
asg10
(lp443
F-0.003
aF-0.004
aF0.015
asba(i__main__
sensor_data_struct
p444
(dp445
g3
(lp446
I686
aI407
aI276
aI1186
aI2575
aF217.0
aI1135
aI519
aI388
aI1769
aI2352
aF166.0
asg5
I1
sg6
(lp447
I24
aI14
aI-1
aI59
aI61
aI-1
asg8
(lp448
I-1
aI-1
aI-1
aF-1.0
aF-1.0
aF-1.0
aI-1
aI-1
aI-1
aF-1.0
aF-1.0
aF-1.0
asg10
(lp449
F0.003
aF0.01
aF0.015
asba(i__main__
sensor_data_struct
p450
(dp451
g3
(lp452
I665
aI396
aI267
aI1156
aI2582
aF213.0
aI944
aI517
aI372
aI1518
aI2431
aF237.0
asg5
I1
sg6
(lp453
I51
aI50
aI-1
aI113
aI83
aI-1
asg8
(lp454
I-1
aI-1
aI-1
aF-1.0
aF-1.0
aF-1.0
aI-1
aI-1
aI-1
aF-1.0
aF-1.0
aF-1.0
asg10
(lp455
F0.005
aF-0.006999999999999999
aF0.012
asba(i__main__
sensor_data_struct
p456
(dp457
g3
(lp458
I863
aI454
aI332
aI1391
aI2444
aF193.0
aI1890
aI668
aI561
aI2676
aI2167
aF30.0
asg5
I0
sg6
(lp459
I78
aI87
aI-1
aI141
aI248
aI-1
asg8
(lp460
I-1
aI-1
aI-1
aF-1.0
aF-1.0
aF-1.0
aI-1
aI-1
aI-1
aF-1.0
aF-1.0
aF-1.0
asg10
(lp461
F0.005
aF0.003
aF0.002
asba(i__main__
sensor_data_struct
p462
(dp463
g3
(lp464
I755
aI422
aI297
aI1266
aI2520
aF203.0
aI2104
aI719
aI594
aI3030
aI2190
aF17.0
asg5
I1
sg6
(lp465
I31
aI17
aI-1
aI61
aI64
aI-1
asg8
(lp466
I-1
aI-1
aI-1
aF-1.0
aF-1.0
aF-1.0
aI-1
aI-1
aI-1
aF-1.0
aF-1.0
aF-1.0
asg10
(lp467
F0.002
aF0.01
aF0.011000000000000001
asba(i__main__
sensor_data_struct
p468
(dp469
g3
(lp470
I677
aI406
aI275
aI1175
aI2587
aF219.0
aI837
aI464
aI343
aI1349
aI2473
aF209.0
asg5
I1
sg6
(lp471
I98
aI65
aI-1
aI152
aI80
aI-1
asg8
(lp472
I-1
aI-1
aI-1
aF-1.0
aF-1.0
aF-1.0
aI-1
aI-1
aI-1
aF-1.0
aF-1.0
aF-1.0
asg10
(lp473
F0.006
aF-0.006999999999999999
aF0.009000000000000001
asba(i__main__
sensor_data_struct
p474
(dp475
g3
(lp476
I667
aI393
aI265
aI1156
aI2573
aF209.0
aI1002
aI511
aI373
aI1586
aI2388
aF208.0
asg5
I0
sg6
(lp477
I33
aI17
aI-1
aI107
aI124
aI-1
asg8
(lp478
I-1
aI-1
aI-1
aF-1.0
aF-1.0
aF-1.0
aI-1
aI-1
aI-1
aF-1.0
aF-1.0
aF-1.0
asg10
(lp479
F-0.005
aF0.004
aF0.013000000000000001
asba(i__main__
sensor_data_struct
p480
(dp481
g3
(lp482
I717
aI413
aI281
aI1226
aI2543
aF213.0
aI851
aI462
aI334
aI1380
aI2457
aF208.0
asg5
I0
sg6
(lp483
I32
aI25
aI-1
aI116
aI140
aI-1
asg8
(lp484
I-1
aI-1
aI-1
aF-1.0
aF-1.0
aF-1.0
aI-1
aI-1
aI-1
aF-1.0
aF-1.0
aF-1.0
asg10
(lp485
F-0.006999999999999999
aF-0.002
aF0.012
asba(i__main__
sensor_data_struct
p486
(dp487
g3
(lp488
I706
aI407
aI283
aI1198
aI2545
aF206.0
aI1201
aI585
aI454
aI1812
aI2317
aF201.0
asg5
I0
sg6
(lp489
I133
aI188
aI-1
aI161
aI241
aI-1
asg8
(lp490
I-1
aI-1
aI-1
aF-1.0
aF-1.0
aF-1.0
aI-1
aI-1
aI-1
aF-1.0
aF-1.0
aF-1.0
asg10
(lp491
F-0.001
aF-0.004
aF0.004
asba(i__main__
sensor_data_struct
p492
(dp493
g3
(lp494
I651
aI384
aI257
aI1134
aI2576
aF206.0
aI915
aI500
aI356
aI1479
aI2431
aF231.0
asg5
I1
sg6
(lp495
I16
aI16
aI-1
aI104
aI116
aI-1
asg8
(lp496
I-1
aI-1
aI-1
aF-1.0
aF-1.0
aF-1.0
aI-1
aI-1
aI-1
aF-1.0
aF-1.0
aF-1.0
asg10
(lp497
F-0.002
aF-0.012
aF0.013999999999999999
asba(i__main__
sensor_data_struct
p498
(dp499
g3
(lp500
I680
aI398
aI265
aI1182
aI2565
aF213.0
aI821
aI437
aI313
aI1343
aI2463
aF194.0
asg5
I1
sg6
(lp501
I27
aI12
aI-1
aI93
aI101
aI-1
asg8
(lp502
I-1
aI-1
aI-1
aF-1.0
aF-1.0
aF-1.0
aI-1
aI-1
aI-1
aF-1.0
aF-1.0
aF-1.0
asg10
(lp503
F-0.006
aF0.003
aF0.015
asba(i__main__
sensor_data_struct
p504
(dp505
g3
(lp506
I1114
aI587
aI417
aI1767
aI2372
aF259.0
aI815
aI435
aI311
aI1333
aI2461
aF194.0
asg5
I1
sg6
(lp507
I30
aI17
aI-1
aI89
aI96
aI-1
asg8
(lp508
I-1
aI-1
aI-1
aF-1.0
aF-1.0
aF-1.0
aI-1
aI-1
aI-1
aF-1.0
aF-1.0
aF-1.0
asg10
(lp509
F-0.005
aF0.003
aF0.015
asba(i__main__
sensor_data_struct
p510
(dp511
g3
(lp512
I699
aI409
aI283
aI1192
aI2559
aF211.0
aI1372
aI595
aI477
aI2021
aI2263
aF144.0
asg5
I0
sg6
(lp513
I104
aI119
aI-1
aI155
aI217
aI-1
asg8
(lp514
I-1
aI-1
aI-1
aF-1.0
aF-1.0
aF-1.0
aI-1
aI-1
aI-1
aF-1.0
aF-1.0
aF-1.0
asg10
(lp515
F0.003
aF0.001
aF0.006999999999999999
asba(i__main__
sensor_data_struct
p516
(dp517
g3
(lp518
I676
aI395
aI270
aI1163
aI2565
aF206.0
aI1292
aI572
aI447
aI1934
aI2284
aF156.0
asg5
I0
sg6
(lp519
I47
aI40
aI-1
aI140
aI194
aI-1
asg8
(lp520
I-1
aI-1
aI-1
aF-1.0
aF-1.0
aF-1.0
aI-1
aI-1
aI-1
aF-1.0
aF-1.0
aF-1.0
asg10
(lp521
F-0.004
aF0.006999999999999999
aF0.008
asba(i__main__
sensor_data_struct
p522
(dp523
g3
(lp524
I754
aI423
aI295
aI1268
aI2518
aF206.0
aI890
aI452
aI330
aI1428
aI2422
aF182.0
asg5
I1
sg6
(lp525
I23
aI9
aI-1
aI95
aI106
aI-1
asg8
(lp526
I-1
aI-1
aI-1
aF-1.0
aF-1.0
aF-1.0
aI-1
aI-1
aI-1
aF-1.0
aF-1.0
aF-1.0
asg10
(lp527
F-0.006999999999999999
aF0.011000000000000001
aF0.013999999999999999
asba(i__main__
sensor_data_struct
p528
(dp529
g3
(lp530
I637
aI377
aI253
aI1113
aI2588
aF203.0
aI939
aI504
aI361
aI1507
aI2416
aF226.0
asg5
I1
sg6
(lp531
I17
aI12
aI-1
aI104
aI121
aI-1
asg8
(lp532
I-1
aI-1
aI-1
aF-1.0
aF-1.0
aF-1.0
aI-1
aI-1
aI-1
aF-1.0
aF-1.0
aF-1.0
asg10
(lp533
F-0.009000000000000001
aF-0.008
aF0.013000000000000001
asba(i__main__
sensor_data_struct
p534
(dp535
g3
(lp536
I655
aI386
aI261
aI1135
aI2576
aF205.0
aI1043
aI545
aI416
aI1607
aI2373
aF217.0
asg5
I0
sg6
(lp537
I119
aI82
aI-1
aI170
aI228
aI-1
asg8
(lp538
I-1
aI-1
aI-1
aF-1.0
aF-1.0
aF-1.0
aI-1
aI-1
aI-1
aF-1.0
aF-1.0
aF-1.0
asg10
(lp539
F0.0
aF-0.006999999999999999
aF0.006
asba(i__main__
sensor_data_struct
p540
(dp541
g3
(lp542
I751
aI423
aI300
aI1253
aI2520
aF204.0
aI1747
aI660
aI547
aI2506
aI2199
aF74.0
asg5
I0
sg6
(lp543
I58
aI61
aI-1
aI153
aI211
aI-1
asg8
(lp544
I-1
aI-1
aI-1
aF-1.0
aF-1.0
aF-1.0
aI-1
aI-1
aI-1
aF-1.0
aF-1.0
aF-1.0
asg10
(lp545
F0.006999999999999999
aF0.004
aF0.006999999999999999
asba(i__main__
sensor_data_struct
p546
(dp547
g3
(lp548
I731
aI417
aI297
aI1221
aI2529
aF203.0
aI1193
aI548
aI429
aI1790
aI2298
aF163.0
asg5
I0
sg6
(lp549
I205
aI162
aI-1
aI140
aI241
aI-1
asg8
(lp550
I-1
aI-1
aI-1
aF-1.0
aF-1.0
aF-1.0
aI-1
aI-1
aI-1
aF-1.0
aF-1.0
aF-1.0
asg10
(lp551
F0.002
aF-0.003
aF0.001
asba(i__main__
sensor_data_struct
p552
(dp553
g3
(lp554
I654
aI387
aI262
aI1134
aI2580
aF206.0
aI891
aI478
aI357
aI1412
aI2429
aF203.0
asg5
I0
sg6
(lp555
I48
aI81
aI-1
aI141
aI185
aI-1
asg8
(lp556
I-1
aI-1
aI-1
aF-1.0
aF-1.0
aF-1.0
aI-1
aI-1
aI-1
aF-1.0
aF-1.0
aF-1.0
asg10
(lp557
F-0.006
aF-0.002
aF0.009000000000000001
asba(i__main__
sensor_data_struct
p558
(dp559
g3
(lp560
I661
aI391
aI263
aI1148
aI2577
aF210.0
aI985
aI548
aI372
aI1614
aI2420
aF272.0
asg5
I1
sg6
(lp561
I13
aI6
aI-1
aI58
aI58
aI-1
asg8
(lp562
I-1
aI-1
aI-1
aF-1.0
aF-1.0
aF-1.0
aI-1
aI-1
aI-1
aF-1.0
aF-1.0
aF-1.0
asg10
(lp563
F-0.013000000000000001
aF0.001
aF0.015
asba(i__main__
sensor_data_struct
p564
(dp565
g3
(lp566
I658
aI394
aI266
aI1145
aI2589
aF213.0
aI1334
aI549
aI452
aI1950
aI2258
aF102.0
asg5
I0
sg6
(lp567
I108
aI109
aI-1
aI162
aI236
aI-1
asg8
(lp568
I-1
aI-1
aI-1
aF-1.0
aF-1.0
aF-1.0
aI-1
aI-1
aI-1
aF-1.0
aF-1.0
aF-1.0
asg10
(lp569
F0.005
aF0.0
aF0.005
asba(i__main__
sensor_data_struct
p570
(dp571
g3
(lp572
I777
aI429
aI307
aI1283
aI2496
aF200.0
aI1848
aI628
aI538
aI2614
aI2172
aF65534.0
asg5
I0
sg6
(lp573
I65
aI117
aI-1
aI125
aI243
aI-1
asg8
(lp574
I-1
aI-1
aI-1
aF-1.0
aF-1.0
aF-1.0
aI-1
aI-1
aI-1
aF-1.0
aF-1.0
aF-1.0
asg10
(lp575
F0.001
aF0.004
aF0.0
asba(i__main__
sensor_data_struct
p576
(dp577
g3
(lp578
I658
aI391
aI265
aI1140
aI2578
aF209.0
aI833
aI455
aI321
aI1372
aI2472
aF212.0
asg5
I1
sg6
(lp579
I22
aI8
aI-1
aI64
aI60
aI-1
asg8
(lp580
I-1
aI-1
aI-1
aF-1.0
aF-1.0
aF-1.0
aI-1
aI-1
aI-1
aF-1.0
aF-1.0
aF-1.0
asg10
(lp581
F-0.009000000000000001
aF0.002
aF0.013000000000000001
asba(i__main__
sensor_data_struct
p582
(dp583
g3
(lp584
I793
aI451
aI309
aI1336
aI2508
aF228.0
aI1236
aI523
aI418
aI1836
aI2277
aF118.0
asg5
I0
sg6
(lp585
I55
aI66
aI-1
aI150
aI228
aI-1
asg8
(lp586
I-1
aI-1
aI-1
aF-1.0
aF-1.0
aF-1.0
aI-1
aI-1
aI-1
aF-1.0
aF-1.0
aF-1.0
asg10
(lp587
F-0.004
aF0.005
aF0.006
asba(i__main__
sensor_data_struct
p588
(dp589
g3
(lp590
I635
aI381
aI257
aI1111
aI2601
aF207.0
aI880
aI497
aI346
aI1450
aI2466
aF245.0
asg5
I1
sg6
(lp591
I26
aI34
aI-1
aI79
aI64
aI-1
asg8
(lp592
I-1
aI-1
aI-1
aF-1.0
aF-1.0
aF-1.0
aI-1
aI-1
aI-1
aF-1.0
aF-1.0
aF-1.0
asg10
(lp593
F0.006999999999999999
aF-0.008
aF0.013999999999999999
asba(i__main__
sensor_data_struct
p594
(dp595
g3
(lp596
I657
aI388
aI260
aI1142
aI2575
aF208.0
aI933
aI505
aI358
aI1509
aI2427
aF232.0
asg5
I1
sg6
(lp597
I22
aI16
aI-1
aI94
aI103
aI-1
asg8
(lp598
I-1
aI-1
aI-1
aF-1.0
aF-1.0
aF-1.0
aI-1
aI-1
aI-1
aF-1.0
aF-1.0
aF-1.0
asg10
(lp599
F-0.006999999999999999
aF-0.005
aF0.015
asba(i__main__
sensor_data_struct
p600
(dp601
g3
(lp602
I713
aI414
aI279
aI1226
aI2546
aF217.0
aI836
aI463
aI337
aI1354
aI2465
aF212.0
asg5
I0
sg6
(lp603
I41
aI41
aI-1
aI126
aI154
aI-1
asg8
(lp604
I-1
aI-1
aI-1
aF-1.0
aF-1.0
aF-1.0
aI-1
aI-1
aI-1
aF-1.0
aF-1.0
aF-1.0
asg10
(lp605
F-0.004
aF-0.006999999999999999
aF0.011000000000000001
asba.