(lp0
(i__main__
sensor_data_struct
p1
(dp2
S'color'
p3
(lp4
I787
aI394
aI304
aI1230
aI2412
aF143.0
aI569
aI324
aI224
aI977
aI2566
aF162.0
asS'button'
p5
I1
sS'IR'
p6
(lp7
I10
aI3
aI-1
aI57
aI60
aI-1
asS'TOF'
p8
(lp9
I-1
aI-1
aI-1
aF-1.0
aF-1.0
aF-1.0
aI-1
aI-1
aI-1
aF-1.0
aF-1.0
aF-1.0
asS'pt'
p10
(lp11
F-0.013000000000000001
aF0.003
aF0.015
asba(i__main__
sensor_data_struct
p12
(dp13
g3
(lp14
I556
aI329
aI223
aI968
aI2590
aF175.0
aI1111
aI512
aI391
aI1699
aI2325
aF161.0
asg5
I0
sg6
(lp15
I30
aI14
aI-1
aI114
aI139
aI-1
asg8
(lp16
I-1
aI-1
aI-1
aF-1.0
aF-1.0
aF-1.0
aI-1
aI-1
aI-1
aF-1.0
aF-1.0
aF-1.0
asg10
(lp17
F-0.001
aF0.009000000000000001
aF0.011000000000000001
asba(i__main__
sensor_data_struct
p18
(dp19
g3
(lp20
I561
aI336
aI231
aI971
aI2597
aF179.0
aI1240
aI600
aI437
aI1931
aI2333
aF224.0
asg5
I1
sg6
(lp21
I16
aI28
aI-1
aI57
aI63
aI-1
asg8
(lp22
I-1
aI-1
aI-1
aF-1.0
aF-1.0
aF-1.0
aI-1
aI-1
aI-1
aF-1.0
aF-1.0
aF-1.0
asg10
(lp23
F0.011000000000000001
aF0.006999999999999999
aF0.013999999999999999
asba(i__main__
sensor_data_struct
p24
(dp25
g3
(lp26
I628
aI350
aI247
aI1052
aI2522
aF167.0
aI1191
aI553
aI434
aI1784
aI2299
aF168.0
asg5
I0
sg6
(lp27
I46
aI238
aI-1
aI137
aI244
aI-1
asg8
(lp28
I-1
aI-1
aI-1
aF-1.0
aF-1.0
aF-1.0
aI-1
aI-1
aI-1
aF-1.0
aF-1.0
aF-1.0
asg10
(lp29
F-0.005
aF0.001
aF0.003
asba(i__main__
sensor_data_struct
p30
(dp31
g3
(lp32
I566
aI333
aI229
aI975
aI2580
aF174.0
aI1270
aI530
aI432
aI1862
aI2258
aF108.0
asg5
I0
sg6
(lp33
I80
aI92
aI-1
aI151
aI199
aI-1
asg8
(lp34
I-1
aI-1
aI-1
aF-1.0
aF-1.0
aF-1.0
aI-1
aI-1
aI-1
aF-1.0
aF-1.0
aF-1.0
asg10
(lp35
F0.006999999999999999
aF0.004
aF0.006999999999999999
asba(i__main__
sensor_data_struct
p36
(dp37
g3
(lp38
I652
aI365
aI261
aI1082
aI2511
aF173.0
aI1302
aI581
aI460
aI1929
aI2271
aF157.0
asg5
I0
sg6
(lp39
I105
aI117
aI-1
aI153
aI203
aI-1
asg8
(lp40
I-1
aI-1
aI-1
aF-1.0
aF-1.0
aF-1.0
aI-1
aI-1
aI-1
aF-1.0
aF-1.0
aF-1.0
asg10
(lp41
F0.005
aF0.002
aF0.006999999999999999
asba(i__main__
sensor_data_struct
p42
(dp43
g3
(lp44
I600
aI351
aI243
aI1028
aI2570
aF181.0
aI832
aI432
aI322
aI1317
aI2417
aF176.0
asg5
I1
sg6
(lp45
I39
aI53
aI-1
aI108
aI123
aI-1
asg8
(lp46
I-1
aI-1
aI-1
aF-1.0
aF-1.0
aF-1.0
aI-1
aI-1
aI-1
aF-1.0
aF-1.0
aF-1.0
asg10
(lp47
F0.009000000000000001
aF0.0
aF0.013000000000000001
asba(i__main__
sensor_data_struct
p48
(dp49
g3
(lp50
I764
aI391
aI291
aI1220
aI2432
aF156.0
aI1462
aI615
aI494
aI2136
aI2238
aF134.0
asg5
I0
sg6
(lp51
I84
aI132
aI-1
aI155
aI223
aI-1
asg8
(lp52
I-1
aI-1
aI-1
aF-1.0
aF-1.0
aF-1.0
aI-1
aI-1
aI-1
aF-1.0
aF-1.0
aF-1.0
asg10
(lp53
F0.001
aF0.005
aF0.005
asba(i__main__
sensor_data_struct
p54
(dp55
g3
(lp56
I614
aI353
aI245
aI1043
aI2548
aF178.0
aI652
aI363
aI254
aI1093
aI2512
aF175.0
asg5
I1
sg6
(lp57
I16
aI13
aI-1
aI92
aI101
aI-1
asg8
(lp58
I-1
aI-1
aI-1
aF-1.0
aF-1.0
aF-1.0
aI-1
aI-1
aI-1
aF-1.0
aF-1.0
aF-1.0
asg10
(lp59
F-0.006999999999999999
aF-0.004
aF0.015
asba(i__main__
sensor_data_struct
p60
(dp61
g3
(lp62
I713
aI401
aI276
aI1199
aI2506
aF199.0
aI889
aI423
aI325
aI1376
aI2369
aF141.0
asg5
I0
sg6
(lp63
I41
aI32
aI-1
aI128
aI163
aI-1
asg8
(lp64
I-1
aI-1
aI-1
aF-1.0
aF-1.0
aF-1.0
aI-1
aI-1
aI-1
aF-1.0
aF-1.0
aF-1.0
asg10
(lp65
F-0.004
aF0.005
aF0.01
asba(i__main__
sensor_data_struct
p66
(dp67
g3
(lp68
I607
aI349
aI239
aI1040
aI2555
aF178.0
aI680
aI378
aI276
aI1112
aI2495
aF173.0
asg5
I0
sg6
(lp69
I33
aI38
aI-1
aI131
aI165
aI-1
asg8
(lp70
I-1
aI-1
aI-1
aF-1.0
aF-1.0
aF-1.0
aI-1
aI-1
aI-1
aF-1.0
aF-1.0
aF-1.0
asg10
(lp71
F-0.005
aF-0.005
aF0.009000000000000001
asba(i__main__
sensor_data_struct
p72
(dp73
g3
(lp74
I595
aI344
aI234
aI1025
aI2561
aF178.0
aI892
aI466
aI345
aI1410
aI2407
aF193.0
asg5
I1
sg6
(lp75
I30
aI25
aI-1
aI114
aI140
aI-1
asg8
(lp76
I-1
aI-1
aI-1
aF-1.0
aF-1.0
aF-1.0
aI-1
aI-1
aI-1
aF-1.0
aF-1.0
aF-1.0
asg10
(lp77
F-0.005
aF-0.002
aF0.012
asba(i__main__
sensor_data_struct
p78
(dp79
g3
(lp80
I576
aI340
aI230
aI999
aI2580
aF181.0
aI993
aI501
aI368
aI1561
aI2376
aF199.0
asg5
I1
sg6
(lp81
I20
aI9
aI-1
aI98
aI112
aI-1
asg8
(lp82
I-1
aI-1
aI-1
aF-1.0
aF-1.0
aF-1.0
aI-1
aI-1
aI-1
aF-1.0
aF-1.0
aF-1.0
asg10
(lp83
F-0.006
aF0.01
aF0.013999999999999999
asba(i__main__
sensor_data_struct
p84
(dp85
g3
(lp86
I550
aI325
aI217
aI966
aI2595
aF175.0
aI751
aI419
aI287
aI1252
aI2477
aF207.0
asg5
I1
sg6
(lp87
I6
aI7
aI-1
aI64
aI61
aI-1
asg8
(lp88
I-1
aI-1
aI-1
aF-1.0
aF-1.0
aF-1.0
aI-1
aI-1
aI-1
aF-1.0
aF-1.0
aF-1.0
asg10
(lp89
F0.002
aF-0.012
aF0.012
asba(i__main__
sensor_data_struct
p90
(dp91
g3
(lp92
I643
aI365
aI258
aI1078
aI2529
aF178.0
aI1268
aI568
aI449
aI1884
aI2279
aF156.0
asg5
I0
sg6
(lp93
I102
aI107
aI-1
aI155
aI204
aI-1
asg8
(lp94
I-1
aI-1
aI-1
aF-1.0
aF-1.0
aF-1.0
aI-1
aI-1
aI-1
aF-1.0
aF-1.0
aF-1.0
asg10
(lp95
F0.006
aF0.001
aF0.006999999999999999
asba(i__main__
sensor_data_struct
p96
(dp97
g3
(lp98
I576
aI337
aI228
aI997
aI2570
aF178.0
aI997
aI514
aI376
aI1575
aI2387
aF212.0
asg5
I1
sg6
(lp99
I21
aI8
aI-1
aI98
aI112
aI-1
asg8
(lp100
I-1
aI-1
aI-1
aF-1.0
aF-1.0
aF-1.0
aI-1
aI-1
aI-1
aF-1.0
aF-1.0
aF-1.0
asg10
(lp101
F-0.008
aF0.004
aF0.013999999999999999
asba(i__main__
sensor_data_struct
p102
(dp103
g3
(lp104
I583
aI342
aI232
aI1008
aI2573
aF180.0
aI1072
aI522
aI403
aI1634
aI2340
aF180.0
asg5
I0
sg6
(lp105
I69
aI88
aI-1
aI129
aI164
aI-1
asg8
(lp106
I-1
aI-1
aI-1
aF-1.0
aF-1.0
aF-1.0
aI-1
aI-1
aI-1
aF-1.0
aF-1.0
aF-1.0
asg10
(lp107
F0.0
aF0.001
aF0.01
asba(i__main__
sensor_data_struct
p108
(dp109
g3
(lp110
I649
aI370
aI258
aI1094
aI2531
aF184.0
aI1088
aI449
aI353
aI1645
aI2302
aF97.0
asg5
I1
sg6
(lp111
I28
aI13
aI-1
aI88
aI98
aI-1
asg8
(lp112
I-1
aI-1
aI-1
aF-1.0
aF-1.0
aF-1.0
aI-1
aI-1
aI-1
aF-1.0
aF-1.0
aF-1.0
asg10
(lp113
F0.0
aF0.01
aF0.012
asba(i__main__
sensor_data_struct
p114
(dp115
g3
(lp116
I582
aI347
aI238
aI1007
aI2590
aF184.0
aI1175
aI543
aI405
aI1816
aI2330
aF179.0
asg5
I1
sg6
(lp117
I25
aI17
aI-1
aI58
aI65
aI-1
asg8
(lp118
I-1
aI-1
aI-1
aF-1.0
aF-1.0
aF-1.0
aI-1
aI-1
aI-1
aF-1.0
aF-1.0
aF-1.0
asg10
(lp119
F0.006
aF0.012
aF0.015
asba(i__main__
sensor_data_struct
p120
(dp121
g3
(lp122
I596
aI354
aI242
aI1032
aI2587
aF188.0
aI755
aI408
aI308
aI1200
aI2454
aF173.0
asg5
I0
sg6
(lp123
I59
aI87
aI-1
aI137
aI178
aI-1
asg8
(lp124
I-1
aI-1
aI-1
aF-1.0
aF-1.0
aF-1.0
aI-1
aI-1
aI-1
aF-1.0
aF-1.0
aF-1.0
asg10
(lp125
F-0.004
aF-0.001
aF0.009000000000000001
asba(i__main__
sensor_data_struct
p126
(dp127
g3
(lp128
I718
aI388
aI285
aI1163
aI2469
aF170.0
aI1315
aI563
aI447
aI1940
aI2256
aF134.0
asg5
I0
sg6
(lp129
I188
aI126
aI-1
aI141
aI228
aI-1
asg8
(lp130
I-1
aI-1
aI-1
aF-1.0
aF-1.0
aF-1.0
aI-1
aI-1
aI-1
aF-1.0
aF-1.0
aF-1.0
asg10
(lp131
F0.005
aF-0.001
aF0.001
asba(i__main__
sensor_data_struct
p132
(dp133
g3
(lp134
I597
aI348
aI240
aI1023
aI2565
aF179.0
aI1055
aI534
aI402
aI1630
aI2357
aF206.0
asg5
I1
sg6
(lp135
I63
aI67
aI-1
aI118
aI143
aI-1
asg8
(lp136
I-1
aI-1
aI-1
aF-1.0
aF-1.0
aF-1.0
aI-1
aI-1
aI-1
aF-1.0
aF-1.0
aF-1.0
asg10
(lp137
F0.003
aF-0.003
aF0.012
asba(i__main__
sensor_data_struct
p138
(dp139
g3
(lp140
I584
aI342
aI232
aI1012
aI2576
aF180.0
aI980
aI484
aI367
aI1517
aI2363
aF177.0
asg5
I0
sg6
(lp141
I29
aI23
aI-1
aI139
aI201
aI-1
asg8
(lp142
I-1
aI-1
aI-1
aF-1.0
aF-1.0
aF-1.0
aI-1
aI-1
aI-1
aF-1.0
aF-1.0
aF-1.0
asg10
(lp143
F-0.008
aF0.005
aF0.008
asba(i__main__
sensor_data_struct
p144
(dp145
g3
(lp146
I596
aI346
aI236
aI1027
aI2568
aF179.0
aI716
aI386
aI282
aI1165
aI2476
aF170.0
asg5
I1
sg6
(lp147
I30
aI24
aI-1
aI95
aI106
aI-1
asg8
(lp148
I-1
aI-1
aI-1
aF-1.0
aF-1.0
aF-1.0
aI-1
aI-1
aI-1
aF-1.0
aF-1.0
aF-1.0
asg10
(lp149
F-0.003
aF0.001
aF0.015
asba(i__main__
sensor_data_struct
p150
(dp151
g3
(lp152
I597
aI351
aI240
aI1031
aI2580
aF184.0
aI1258
aI496
aI416
aI1811
aI2227
aF69.0
asg5
I0
sg6
(lp153
I137
aI150
aI-1
aI142
aI239
aI-1
asg8
(lp154
I-1
aI-1
aI-1
aF-1.0
aF-1.0
aF-1.0
aI-1
aI-1
aI-1
aF-1.0
aF-1.0
aF-1.0
asg10
(lp155
F0.004
aF0.003
aF0.002
asba(i__main__
sensor_data_struct
p156
(dp157
g3
(lp158
I673
aI377
aI269
aI1120
aI2519
aF179.0
aI1105
aI450
aI355
aI1668
aI2297
aF91.0
asg5
I1
sg6
(lp159
I25
aI10
aI-1
aI81
aI93
aI-1
asg8
(lp160
I-1
aI-1
aI-1
aF-1.0
aF-1.0
aF-1.0
aI-1
aI-1
aI-1
aF-1.0
aF-1.0
aF-1.0
asg10
(lp161
F0.0
aF0.011000000000000001
aF0.012
asba(i__main__
sensor_data_struct
p162
(dp163
g3
(lp164
I572
aI333
aI225
aI991
aI2572
aF175.0
aI1034
aI533
aI394
aI1617
aI2372
aF217.0
asg5
I1
sg6
(lp165
I31
aI28
aI-1
aI106
aI123
aI-1
asg8
(lp166
I-1
aI-1
aI-1
aF-1.0
aF-1.0
aF-1.0
aI-1
aI-1
aI-1
aF-1.0
aF-1.0
aF-1.0
asg10
(lp167
F-0.002
aF-0.006
aF0.013000000000000001
asba(i__main__
sensor_data_struct
p168
(dp169
g3
(lp170
I599
aI347
aI237
aI1029
aI2558
aF179.0
aI1062
aI514
aI396
aI1619
aI2337
aF176.0
asg5
I0
sg6
(lp171
I64
aI80
aI-1
aI123
aI155
aI-1
asg8
(lp172
I-1
aI-1
aI-1
aF-1.0
aF-1.0
aF-1.0
aI-1
aI-1
aI-1
aF-1.0
aF-1.0
aF-1.0
asg10
(lp173
F-0.001
aF0.002
aF0.011000000000000001
asba(i__main__
sensor_data_struct
p174
(dp175
g3
(lp176
I650
aI370
aI256
aI1099
aI2529
aF185.0
aI848
aI435
aI318
aI1354
aI2415
aF178.0
asg5
I1
sg6
(lp177
I24
aI10
aI-1
aI97
aI112
aI-1
asg8
(lp178
I-1
aI-1
aI-1
aF-1.0
aF-1.0
aF-1.0
aI-1
aI-1
aI-1
aF-1.0
aF-1.0
aF-1.0
asg10
(lp179
F-0.005
aF0.005
aF0.013999999999999999
asba(i__main__
sensor_data_struct
p180
(dp181
g3
(lp182
I576
aI338
aI227
aI1004
aI2583
aF180.0
aI833
aI445
aI331
aI1323
aI2429
aF189.0
asg5
I0
sg6
(lp183
I39
aI34
aI-1
aI134
aI165
aI-1
asg8
(lp184
I-1
aI-1
aI-1
aF-1.0
aF-1.0
aF-1.0
aI-1
aI-1
aI-1
aF-1.0
aF-1.0
aF-1.0
asg10
(lp185
F-0.002
aF-0.006999999999999999
aF0.01
asba(i__main__
sensor_data_struct
p186
(dp187
g3
(lp188
I592
aI350
aI237
aI1025
aI2574
aF186.0
aI1093
aI510
aI386
aI1680
aI2332
aF167.0
asg5
I1
sg6
(lp189
I22
aI10
aI-1
aI77
aI86
aI-1
asg8
(lp190
I-1
aI-1
aI-1
aF-1.0
aF-1.0
aF-1.0
aI-1
aI-1
aI-1
aF-1.0
aF-1.0
aF-1.0
asg10
(lp191
F-0.002
aF0.013000000000000001
aF0.013999999999999999
asba(i__main__
sensor_data_struct
p192
(dp193
g3
(lp194
I610
aI353
aI243
aI1045
aI2562
aF181.0
aI1303
aI557
aI443
aI1930
aI2267
aF131.0
asg5
I0
sg6
(lp195
I44
aI36
aI-1
aI139
aI188
aI-1
asg8
(lp196
I-1
aI-1
aI-1
aF-1.0
aF-1.0
aF-1.0
aI-1
aI-1
aI-1
aF-1.0
aF-1.0
aF-1.0
asg10
(lp197
F-0.002
aF0.008
aF0.008
asba(i__main__
sensor_data_struct
p198
(dp199
g3
(lp200
I579
aI345
aI235
aI1006
aI2595
aF184.0
aI972
aI492
aI367
aI1522
aI2383
aF192.0
asg5
I1
sg6
(lp201
I36
aI46
aI-1
aI90
aI99
aI-1
asg8
(lp202
I-1
aI-1
aI-1
aF-1.0
aF-1.0
aF-1.0
aI-1
aI-1
aI-1
aF-1.0
aF-1.0
aF-1.0
asg10
(lp203
F0.006999999999999999
aF0.005
aF0.015
asba(i__main__
sensor_data_struct
p204
(dp205
g3
(lp206
I594
aI345
aI235
aI1024
aI2565
aF179.0
aI992
aI508
aI381
aI1544
aI2375
aF200.0
asg5
I1
sg6
(lp207
I45
aI49
aI-1
aI122
aI150
aI-1
asg8
(lp208
I-1
aI-1
aI-1
aF-1.0
aF-1.0
aF-1.0
aI-1
aI-1
aI-1
aF-1.0
aF-1.0
aF-1.0
asg10
(lp209
F-0.003
aF-0.004
aF0.011000000000000001
asba(i__main__
sensor_data_struct
p210
(dp211
g3
(lp212
I594
aI345
aI232
aI1030
aI2568
aF181.0
aI835
aI450
aI324
aI1346
aI2435
aF202.0
asg5
I1
sg6
(lp213
I12
aI11
aI-1
aI98
aI112
aI-1
asg8
(lp214
I-1
aI-1
aI-1
aF-1.0
aF-1.0
aF-1.0
aI-1
aI-1
aI-1
aF-1.0
aF-1.0
aF-1.0
asg10
(lp215
F-0.004
aF-0.01
aF0.013999999999999999
asba(i__main__
sensor_data_struct
p216
(dp217
g3
(lp218
I602
aI350
aI235
aI1041
aI2557
aF184.0
aI992
aI466
aI373
aI1496
aI2342
aF140.0
asg5
I0
sg6
(lp219
I91
aI125
aI-1
aI140
aI182
aI-1
asg8
(lp220
I-1
aI-1
aI-1
aF-1.0
aF-1.0
aF-1.0
aI-1
aI-1
aI-1
aF-1.0
aF-1.0
aF-1.0
asg10
(lp221
F0.001
aF0.001
aF0.009000000000000001
asba(i__main__
sensor_data_struct
p222
(dp223
g3
(lp224
I582
aI341
aI229
aI1011
aI2574
aF181.0
aI847
aI469
aI320
aI1398
aI2442
aF231.0
asg5
I1
sg6
(lp225
I9
aI5
aI-1
aI55
aI57
aI-1
asg8
(lp226
I-1
aI-1
aI-1
aF-1.0
aF-1.0
aF-1.0
aI-1
aI-1
aI-1
aF-1.0
aF-1.0
aF-1.0
asg10
(lp227
F-0.011000000000000001
aF-0.005
aF0.013999999999999999
asba(i__main__
sensor_data_struct
p228
(dp229
g3
(lp230
I674
aI387
aI258
aI1157
aI2528
aF203.0
aI737
aI386
aI277
aI1204
aI2458
aF167.0
asg5
I1
sg6
(lp231
I22
aI8
aI-1
aI89
aI99
aI-1
asg8
(lp232
I-1
aI-1
aI-1
aF-1.0
aF-1.0
aF-1.0
aI-1
aI-1
aI-1
aF-1.0
aF-1.0
aF-1.0
asg10
(lp233
F-0.006999999999999999
aF0.008
aF0.015
asba(i__main__
sensor_data_struct
p234
(dp235
g3
(lp236
I617
aI359
aI251
aI1050
aI2564
aF182.0
aI910
aI431
aI334
aI1405
aI2369
aF140.0
asg5
I1
sg6
(lp237
I39
aI56
aI-1
aI112
aI131
aI-1
asg8
(lp238
I-1
aI-1
aI-1
aF-1.0
aF-1.0
aF-1.0
aI-1
aI-1
aI-1
aF-1.0
aF-1.0
aF-1.0
asg10
(lp239
F0.008
aF0.003
aF0.012
asba(i__main__
sensor_data_struct
p240
(dp241
g3
(lp242
I623
aI365
aI253
aI1062
aI2561
aF188.0
aI1089
aI536
aI407
aI1670
aI2339
aF194.0
asg5
I1
sg6
(lp243
I57
aI70
aI-1
aI120
aI140
aI-1
asg8
(lp244
I-1
aI-1
aI-1
aF-1.0
aF-1.0
aF-1.0
aI-1
aI-1
aI-1
aF-1.0
aF-1.0
aF-1.0
asg10
(lp245
F0.006
aF0.001
aF0.012
asba(i__main__
sensor_data_struct
p246
(dp247
g3
(lp248
I643
aI372
aI257
aI1093
aI2546
aF190.0
aI871
aI433
aI334
aI1348
aI2382
aF156.0
asg5
I0
sg6
(lp249
I51
aI53
aI-1
aI132
aI173
aI-1
asg8
(lp250
I-1
aI-1
aI-1
aF-1.0
aF-1.0
aF-1.0
aI-1
aI-1
aI-1
aF-1.0
aF-1.0
aF-1.0
asg10
(lp251
F-0.003
aF0.003
aF0.01
asba(i__main__
sensor_data_struct
p252
(dp253
g3
(lp254
I579
aI340
aI229
aI1006
aI2576
aF181.0
aI733
aI409
aI303
aI1181
aI2475
aF185.0
asg5
I0
sg6
(lp255
I68
aI42
aI-1
aI145
aI177
aI-1
asg8
(lp256
I-1
aI-1
aI-1
aF-1.0
aF-1.0
aF-1.0
aI-1
aI-1
aI-1
aF-1.0
aF-1.0
aF-1.0
asg10
(lp257
F0.002
aF-0.006999999999999999
aF0.009000000000000001
asba(i__main__
sensor_data_struct
p258
(dp259
g3
(lp260
I579
aI339
aI228
aI1005
aI2573
aF180.0
aI854
aI442
aI343
aI1318
aI2395
aF169.0
asg5
I0
sg6
(lp261
I65
aI162
aI-1
aI148
aI219
aI-1
asg8
(lp262
I-1
aI-1
aI-1
aF-1.0
aF-1.0
aF-1.0
aI-1
aI-1
aI-1
aF-1.0
aF-1.0
aF-1.0
asg10
(lp263
F-0.004
aF0.0
aF0.005
asba(i__main__
sensor_data_struct
p264
(dp265
g3
(lp266
I607
aI351
aI244
aI1033
aI2556
aF178.0
aI1174
aI569
aI436
aI1777
aI2311
aF197.0
asg5
I0
sg6
(lp267
I86
aI66
aI-1
aI150
aI183
aI-1
asg8
(lp268
I-1
aI-1
aI-1
aF-1.0
aF-1.0
aF-1.0
aI-1
aI-1
aI-1
aF-1.0
aF-1.0
aF-1.0
asg10
(lp269
F0.006999999999999999
aF-0.004
aF0.008
asba(i__main__
sensor_data_struct
p270
(dp271
g3
(lp272
I588
aI345
aI235
aI1017
aI2579
aF181.0
aI809
aI445
aI343
aI1262
aI2435
aF188.0
asg5
I1
sg6
(lp273
I172
aI71
aI-1
aI282
aI97
aI-1
asg8
(lp274
I-1
aI-1
aI-1
aF-1.0
aF-1.0
aF-1.0
aI-1
aI-1
aI-1
aF-1.0
aF-1.0
aF-1.0
asg10
(lp275
F0.003
aF-0.006
aF0.004
asba(i__main__
sensor_data_struct
p276
(dp277
g3
(lp278
I592
aI345
aI233
aI1021
aI2560
aF181.0
aI766
aI408
aI306
aI1218
aI2441
aF171.0
asg5
I0
sg6
(lp279
I51
aI59
aI-1
aI123
aI154
aI-1
asg8
(lp280
I-1
aI-1
aI-1
aF-1.0
aF-1.0
aF-1.0
aI-1
aI-1
aI-1
aF-1.0
aF-1.0
aF-1.0
asg10
(lp281
F-0.003
aF-0.001
aF0.01
asba(i__main__
sensor_data_struct
p282
(dp283
g3
(lp284
I574
aI339
aI228
aI999
aI2580
aF181.0
aI824
aI446
aI327
aI1318
aI2436
aF197.0
asg5
I1
sg6
(lp285
I44
aI47
aI-1
aI125
aI100
aI-1
asg8
(lp286
I-1
aI-1
aI-1
aF-1.0
aF-1.0
aF-1.0
aI-1
aI-1
aI-1
aF-1.0
aF-1.0
aF-1.0
asg10
(lp287
F0.006
aF-0.005
aF0.012
asba(i__main__
sensor_data_struct
p288
(dp289
g3
(lp290
I589
aI349
aI237
aI1017
aI2571
aF186.0
aI1514
aI560
aI453
aI2221
aI2230
aF60.0
asg5
I1
sg6
(lp291
I27
aI17
aI-1
aI63
aI67
aI-1
asg8
(lp292
I-1
aI-1
aI-1
aF-1.0
aF-1.0
aF-1.0
aI-1
aI-1
aI-1
aF-1.0
aF-1.0
aF-1.0
asg10
(lp293
F0.004
aF0.011000000000000001
aF0.012
asba(i__main__
sensor_data_struct
p294
(dp295
g3
(lp296
I669
aI383
aI267
aI1132
aI2541
aF191.0
aI971
aI462
aI369
aI1470
aI2351
aF143.0
asg5
I0
sg6
(lp297
I98
aI127
aI-1
aI141
aI179
aI-1
asg8
(lp298
I-1
aI-1
aI-1
aF-1.0
aF-1.0
aF-1.0
aI-1
aI-1
aI-1
aF-1.0
aF-1.0
aF-1.0
asg10
(lp299
F0.002
aF0.002
aF0.009000000000000001
asba(i__main__
sensor_data_struct
p300
(dp301
g3
(lp302
I643
aI367
aI259
aI1083
aI2540
aF180.0
aI1294
aI576
aI455
aI1920
aI2273
aF156.0
asg5
I0
sg6
(lp303
I80
aI87
aI-1
aI157
aI201
aI-1
asg8
(lp304
I-1
aI-1
aI-1
aF-1.0
aF-1.0
aF-1.0
aI-1
aI-1
aI-1
aF-1.0
aF-1.0
aF-1.0
asg10
(lp305
F0.008
aF0.003
aF0.006999999999999999
asba(i__main__
sensor_data_struct
p306
(dp307
g3
(lp308
I598
aI352
aI241
aI1031
aI2575
aF185.0
aI893
aI466
aI353
aI1396
aI2401
aF187.0
asg5
I0
sg6
(lp309
I72
aI62
aI-1
aI138
aI167
aI-1
asg8
(lp310
I-1
aI-1
aI-1
aF-1.0
aF-1.0
aF-1.0
aI-1
aI-1
aI-1
aF-1.0
aF-1.0
aF-1.0
asg10
(lp311
F0.005
aF-0.004
aF0.01
asba(i__main__
sensor_data_struct
p312
(dp313
g3
(lp314
I591
aI344
aI232
aI1022
aI2565
aF181.0
aI979
aI512
aI373
aI1548
aI2388
aF217.0
asg5
I1
sg6
(lp315
I27
aI23
aI-1
aI93
aI105
aI-1
asg8
(lp316
I-1
aI-1
aI-1
aF-1.0
aF-1.0
aF-1.0
aI-1
aI-1
aI-1
aF-1.0
aF-1.0
aF-1.0
asg10
(lp317
F-0.005
aF-0.003
aF0.015
asba(i__main__
sensor_data_struct
p318
(dp319
g3
(lp320
I953
aI506
aI362
aI1526
aI2407
aF224.0
aI695
aI381
aI275
aI1140
aI2488
aF174.0
asg5
I1
sg6
(lp321
I36
aI33
aI-1
aI87
aI93
aI-1
asg8
(lp322
I-1
aI-1
aI-1
aF-1.0
aF-1.0
aF-1.0
aI-1
aI-1
aI-1
aF-1.0
aF-1.0
aF-1.0
asg10
(lp323
F-0.002
aF-0.001
aF0.015
asba(i__main__
sensor_data_struct
p324
(dp325
g3
(lp326
I665
aI371
aI260
aI1113
aI2512
aF179.0
aI1254
aI579
aI445
aI1892
aI2295
aF181.0
asg5
I1
sg6
(lp327
I38
aI26
aI-1
aI118
aI146
aI-1
asg8
(lp328
I-1
aI-1
aI-1
aF-1.0
aF-1.0
aF-1.0
aI-1
aI-1
aI-1
aF-1.0
aF-1.0
aF-1.0
asg10
(lp329
F0.0
aF0.008
aF0.011000000000000001
asba(i__main__
sensor_data_struct
p330
(dp331
g3
(lp332
I680
aI387
aI269
aI1148
aI2528
aF193.0
aI1213
aI503
aI394
aI1824
aI2284
aF111.0
asg5
I1
sg6
(lp333
I25
aI12
aI-1
aI80
aI91
aI-1
asg8
(lp334
I-1
aI-1
aI-1
aF-1.0
aF-1.0
aF-1.0
aI-1
aI-1
aI-1
aF-1.0
aF-1.0
aF-1.0
asg10
(lp335
F-0.001
aF0.012
aF0.012
asba(i__main__
sensor_data_struct
p336
(dp337
g3
(lp338
I602
aI348
aI237
aI1034
aI2557
aF180.0
aI1091
aI531
aI413
aI1651
aI2327
aF181.0
asg5
I0
sg6
(lp339
I52
aI68
aI-1
aI154
aI216
aI-1
asg8
(lp340
I-1
aI-1
aI-1
aF-1.0
aF-1.0
aF-1.0
aI-1
aI-1
aI-1
aF-1.0
aF-1.0
aF-1.0
asg10
(lp341
F-0.004
aF-0.003
aF0.006
asba(i__main__
sensor_data_struct
p342
(dp343
g3
(lp344
I618
aI357
aI243
aI1058
aI2545
aF184.0
aI1010
aI478
aI385
aI1510
aI2328
aF144.0
asg5
I0
sg6
(lp345
I138
aI225
aI-1
aI144
aI233
aI-1
asg8
(lp346
I-1
aI-1
aI-1
aF-1.0
aF-1.0
aF-1.0
aI-1
aI-1
aI-1
aF-1.0
aF-1.0
aF-1.0
asg10
(lp347
F0.0
aF0.0
aF0.003
asba(i__main__
sensor_data_struct
p348
(dp349
g3
(lp350
I615
aI357
aI247
aI1049
aI2555
aF183.0
aI1157
aI548
aI426
aI1742
aI2308
aF177.0
asg5
I0
sg6
(lp351
I113
aI88
aI-1
aI159
aI198
aI-1
asg8
(lp352
I-1
aI-1
aI-1
aF-1.0
aF-1.0
aF-1.0
aI-1
aI-1
aI-1
aF-1.0
aF-1.0
aF-1.0
asg10
(lp353
F0.006999999999999999
aF-0.002
aF0.006999999999999999
asba(i__main__
sensor_data_struct
p354
(dp355
g3
(lp356
I597
aI347
aI236
aI1028
aI2561
aF181.0
aI1010
aI493
aI373
aI1563
aI2359
aF177.0
asg5
I1
sg6
(lp357
I41
aI39
aI-1
aI123
aI159
aI-1
asg8
(lp358
I-1
aI-1
aI-1
aF-1.0
aF-1.0
aF-1.0
aI-1
aI-1
aI-1
aF-1.0
aF-1.0
aF-1.0
asg10
(lp359
F-0.005
aF0.005
aF0.009000000000000001
asba(i__main__
sensor_data_struct
p360
(dp361
g3
(lp362
I596
aI355
aI242
aI1031
aI2582
aF189.0
aI1120
aI534
aI408
aI1715
aI2336
aF180.0
asg5
I1
sg6
(lp363
I27
aI39
aI-1
aI84
aI96
aI-1
asg8
(lp364
I-1
aI-1
aI-1
aF-1.0
aF-1.0
aF-1.0
aI-1
aI-1
aI-1
aF-1.0
aF-1.0
aF-1.0
asg10
(lp365
F0.008
aF0.006999999999999999
aF0.013999999999999999
asba(i__main__
sensor_data_struct
p366
(dp367
g3
(lp368
I602
aI356
aI243
aI1039
aI2575
aF188.0
aI855
aI441
aI329
aI1349
aI2405
aF177.0
asg5
I1
sg6
(lp369
I46
aI44
aI-1
aI107
aI129
aI-1
asg8
(lp370
I-1
aI-1
aI-1
aF-1.0
aF-1.0
aF-1.0
aI-1
aI-1
aI-1
aF-1.0
aF-1.0
aF-1.0
asg10
(lp371
F-0.003
aF0.002
aF0.013000000000000001
asba(i__main__
sensor_data_struct
p372
(dp373
g3
(lp374
I610
aI356
aI240
aI1053
aI2561
aF188.0
aI994
aI540
aI373
aI1609
aI2400
aF256.0
asg5
I1
sg6
(lp375
I19
aI7
aI-1
aI57
aI60
aI-1
asg8
(lp376
I-1
aI-1
aI-1
aF-1.0
aF-1.0
aF-1.0
aI-1
aI-1
aI-1
aF-1.0
aF-1.0
aF-1.0
asg10
(lp377
F-0.009000000000000001
aF0.003
aF0.013999999999999999
asba(i__main__
sensor_data_struct
p378
(dp379
g3
(lp380
I623
aI362
aI244
aI1073
aI2551
aF190.0
aI934
aI490
aI355
aI1488
aI2405
aF210.0
asg5
I1
sg6
(lp381
I28
aI15
aI-1
aI88
aI97
aI-1
asg8
(lp382
I-1
aI-1
aI-1
aF-1.0
aF-1.0
aF-1.0
aI-1
aI-1
aI-1
aF-1.0
aF-1.0
aF-1.0
asg10
(lp383
F-0.005
aF0.003
aF0.015
asba(i__main__
sensor_data_struct
p384
(dp385
g3
(lp386
I768
aI425
aI296
aI1275
aI2480
aF204.0
aI754
aI396
aI287
aI1225
aI2455
aF170.0
asg5
I1
sg6
(lp387
I22
aI10
aI-1
aI110
aI137
aI-1
asg8
(lp388
I-1
aI-1
aI-1
aF-1.0
aF-1.0
aF-1.0
aI-1
aI-1
aI-1
aF-1.0
aF-1.0
aF-1.0
asg10
(lp389
F-0.009000000000000001
aF0.006999999999999999
aF0.012
asba(i__main__
sensor_data_struct
p390
(dp391
g3
(lp392
I597
aI354
aI241
aI1033
aI2582
aF188.0
aI1428
aI520
aI445
aI2032
aI2200
aF31.0
asg5
I0
sg6
(lp393
I112
aI140
aI-1
aI133
aI228
aI-1
asg8
(lp394
I-1
aI-1
aI-1
aF-1.0
aF-1.0
aF-1.0
aI-1
aI-1
aI-1
aF-1.0
aF-1.0
aF-1.0
asg10
(lp395
F0.004
aF0.003
aF0.001
asba(i__main__
sensor_data_struct
p396
(dp397
g3
(lp398
I619
aI355
aI244
aI1057
aI2550
aF180.0
aI1152
aI528
aI416
aI1724
aI2298
aF154.0
asg5
I1
sg6
(lp399
I59
aI149
aI-1
aI139
aI232
aI-1
asg8
(lp400
I-1
aI-1
aI-1
aF-1.0
aF-1.0
aF-1.0
aI-1
aI-1
aI-1
aF-1.0
aF-1.0
aF-1.0
asg10
(lp401
F-0.004
aF0.004
aF0.004
asba(i__main__
sensor_data_struct
p402
(dp403
g3
(lp404
I586
aI343
aI230
aI1020
aI2577
aF182.0
aI932
aI486
aI362
aI1464
aI2395
aF199.0
asg5
I1
sg6
(lp405
I38
aI37
aI-1
aI122
aI151
aI-1
asg8
(lp406
I-1
aI-1
aI-1
aF-1.0
aF-1.0
aF-1.0
aI-1
aI-1
aI-1
aF-1.0
aF-1.0
aF-1.0
asg10
(lp407
F-0.005
aF-0.006999999999999999
aF0.011000000000000001
asba(i__main__
sensor_data_struct
p408
(dp409
g3
(lp410
I588
aI345
aI232
aI1022
aI2577
aF183.0
aI918
aI505
aI361
aI1474
aI2419
aF234.0
asg5
I1
sg6
(lp411
I70
aI44
aI-1
aI120
aI66
aI-1
asg8
(lp412
I-1
aI-1
aI-1
aF-1.0
aF-1.0
aF-1.0
aI-1
aI-1
aI-1
aF-1.0
aF-1.0
aF-1.0
asg10
(lp413
F0.005
aF-0.006999999999999999
aF0.009000000000000001
asba(i__main__
sensor_data_struct
p414
(dp415
g3
(lp416
I672
aI386
aI264
aI1144
aI2534
aF197.0
aI708
aI395
aI288
aI1156
aI2493
aF182.0
asg5
I0
sg6
(lp417
I40
aI36
aI-1
aI118
aI140
aI-1
asg8
(lp418
I-1
aI-1
aI-1
aF-1.0
aF-1.0
aF-1.0
aI-1
aI-1
aI-1
aF-1.0
aF-1.0
aF-1.0
asg10
(lp419
F0.001
aF-0.006
aF0.012
asba(i__main__
sensor_data_struct
p420
(dp421
g3
(lp422
I611
aI355
aI239
aI1056
aI2561
aF187.0
aI977
aI538
aI379
aI1570
aI2405
aF254.0
asg5
I1
sg6
(lp423
I59
aI33
aI-1
aI113
aI66
aI-1
asg8
(lp424
I-1
aI-1
aI-1
aF-1.0
aF-1.0
aF-1.0
aI-1
aI-1
aI-1
aF-1.0
aF-1.0
aF-1.0
asg10
(lp425
F0.003
aF-0.009000000000000001
aF0.009000000000000001
asba(i__main__
sensor_data_struct
p426
(dp427
g3
(lp428
I768
aI434
aI296
aI1288
aI2488
aF219.0
aI711
aI395
aI285
aI1164
aI2486
aF184.0
asg5
I1
sg6
(lp429
I42
aI48
aI-1
aI94
aI105
aI-1
asg8
(lp430
I-1
aI-1
aI-1
aF-1.0
aF-1.0
aF-1.0
aI-1
aI-1
aI-1
aF-1.0
aF-1.0
aF-1.0
asg10
(lp431
F0.004
aF-0.005
aF0.015
asba(i__main__
sensor_data_struct
p432
(dp433
g3
(lp434
I615
aI362
aI245
aI1060
aI2561
aF192.0
aI1115
aI456
aI357
aI1689
aI2301
aF96.0
asg5
I1
sg6
(lp435
I25
aI14
aI-1
aI60
aI64
aI-1
asg8
(lp436
I-1
aI-1
aI-1
aF-1.0
aF-1.0
aF-1.0
aI-1
aI-1
aI-1
aF-1.0
aF-1.0
aF-1.0
asg10
(lp437
F0.003
aF0.011000000000000001
aF0.013000000000000001
asba(i__main__
sensor_data_struct
p438
(dp439
g3
(lp440
I613
aI361
aI246
aI1059
aI2577
aF190.0
aI663
aI370
aI262
aI1105
aI2511
aF176.0
asg5
I1
sg6
(lp441
I22
aI19
aI-1
aI104
aI123
aI-1
asg8
(lp442
I-1
aI-1
aI-1
aF-1.0
aF-1.0
aF-1.0
aI-1
aI-1
aI-1
aF-1.0
aF-1.0
aF-1.0
asg10
(lp443
F-0.008
aF-0.006
aF0.013000000000000001
asba(i__main__
sensor_data_struct
p444
(dp445
g3
(lp446
I632
aI364
aI246
aI1085
aI2546
aF189.0
aI798
aI427
aI311
aI1283
aI2439
aF187.0
asg5
I0
sg6
(lp447
I34
aI20
aI-1
aI124
aI160
aI-1
asg8
(lp448
I-1
aI-1
aI-1
aF-1.0
aF-1.0
aF-1.0
aI-1
aI-1
aI-1
aF-1.0
aF-1.0
aF-1.0
asg10
(lp449
F-0.008
aF-0.002
aF0.01
asba(i__main__
sensor_data_struct
p450
(dp451
g3
(lp452
I693
aI390
aI269
aI1167
aI2513
aF193.0
aI950
aI437
aI335
aI1464
aI2346
aF136.0
asg5
I1
sg6
(lp453
I29
aI18
aI-1
aI96
aI111
aI-1
asg8
(lp454
I-1
aI-1
aI-1
aF-1.0
aF-1.0
aF-1.0
aI-1
aI-1
aI-1
aF-1.0
aF-1.0
aF-1.0
asg10
(lp455
F0.001
aF0.008
aF0.013999999999999999
asba(i__main__
sensor_data_struct
p456
(dp457
g3
(lp458
I623
aI360
aI245
aI1067
aI2548
aF186.0
aI975
aI522
aI372
aI1571
aI2419
aF235.0
asg5
I1
sg6
(lp459
I19
aI8
aI-1
aI60
aI65
aI-1
asg8
(lp460
I-1
aI-1
aI-1
aF-1.0
aF-1.0
aF-1.0
aI-1
aI-1
aI-1
aF-1.0
aF-1.0
aF-1.0
asg10
(lp461
F-0.01
aF0.005
aF0.011000000000000001
asba(i__main__
sensor_data_struct
p462
(dp463
g3
(lp464
I720
aI395
aI288
aI1175
aI2484
aF178.0
aI1293
aI560
aI444
aI1913
aI2263
aF139.0
asg5
I0
sg6
(lp465
I209
aI130
aI-1
aI140
aI228
aI-1
asg8
(lp466
I-1
aI-1
aI-1
aF-1.0
aF-1.0
aF-1.0
aI-1
aI-1
aI-1
aF-1.0
aF-1.0
aF-1.0
asg10
(lp467
F0.004
aF-0.001
aF0.001
asba(i__main__
sensor_data_struct
p468
(dp469
g3
(lp470
I585
aI340
aI228
aI1018
aI2575
aF179.0
aI1020
aI530
aI389
aI1600
aI2375
aF220.0
asg5
I1
sg6
(lp471
I18
aI14
aI-1
aI107
aI126
aI-1
asg8
(lp472
I-1
aI-1
aI-1
aF-1.0
aF-1.0
aF-1.0
aI-1
aI-1
aI-1
aF-1.0
aF-1.0
aF-1.0
asg10
(lp473
F-0.002
aF-0.011000000000000001
aF0.013000000000000001
asba(i__main__
sensor_data_struct
p474
(dp475
g3
(lp476
I603
aI351
aI235
aI1045
aI2560
aF186.0
aI1009
aI463
aI370
aI1516
aI2323
aF132.0
asg5
I0
sg6
(lp477
I75
aI94
aI-1
aI133
aI168
aI-1
asg8
(lp478
I-1
aI-1
aI-1
aF-1.0
aF-1.0
aF-1.0
aI-1
aI-1
aI-1
aF-1.0
aF-1.0
aF-1.0
asg10
(lp479
F0.003
aF0.002
aF0.01
asba(i__main__
sensor_data_struct
p480
(dp481
g3
(lp482
I939
aI487
aI359
aI1485
aI2400
aF201.0
aI1091
aI465
aI372
aI1635
aI2302
aF107.0
asg5
I1
sg6
(lp483
I40
aI42
aI-1
aI86
aI96
aI-1
asg8
(lp484
I-1
aI-1
aI-1
aF-1.0
aF-1.0
aF-1.0
aI-1
aI-1
aI-1
aF-1.0
aF-1.0
aF-1.0
asg10
(lp485
F0.005
aF0.006
aF0.013000000000000001
asba(i__main__
sensor_data_struct
p486
(dp487
g3
(lp488
I687
aI377
aI268
aI1138
aI2495
aF175.0
aI1322
aI522
aI424
aI1926
aI2228
aF84.0
asg5
I0
sg6
(lp489
I62
aI193
aI-1
aI122
aI233
aI-1
asg8
(lp490
I-1
aI-1
aI-1
aF-1.0
aF-1.0
aF-1.0
aI-1
aI-1
aI-1
aF-1.0
aF-1.0
aF-1.0
asg10
(lp491
F-0.001
aF0.004
aF0.0
asba(i__main__
sensor_data_struct
p492
(dp493
g3
(lp494
I598
aI349
aI236
aI1033
aI2563
aF183.0
aI714
aI401
aI274
aI1202
aI2501
aF200.0
asg5
I1
sg6
(lp495
I10
aI7
aI-1
aI56
aI56
aI-1
asg8
(lp496
I-1
aI-1
aI-1
aF-1.0
aF-1.0
aF-1.0
aI-1
aI-1
aI-1
aF-1.0
aF-1.0
aF-1.0
asg10
(lp497
F-0.011000000000000001
aF-0.006999999999999999
aF0.013999999999999999
asba(i__main__
sensor_data_struct
p498
(dp499
g3
(lp500
I611
aI355
aI238
aI1056
aI2554
aF187.0
aI968
aI482
aI368
aI1493
aI2364
aF177.0
asg5
I0
sg6
(lp501
I42
aI83
aI-1
aI143
aI214
aI-1
asg8
(lp502
I-1
aI-1
aI-1
aF-1.0
aF-1.0
aF-1.0
aI-1
aI-1
aI-1
aF-1.0
aF-1.0
aF-1.0
asg10
(lp503
F-0.006
aF0.002
aF0.006
asba(i__main__
sensor_data_struct
p504
(dp505
g3
(lp506
I587
aI347
aI235
aI1020
aI2586
aF185.0
aI993
aI487
aI375
aI1525
aI2357
aF171.0
asg5
I0
sg6
(lp507
I75
aI87
aI-1
aI123
aI149
aI-1
asg8
(lp508
I-1
aI-1
aI-1
aF-1.0
aF-1.0
aF-1.0
aI-1
aI-1
aI-1
aF-1.0
aF-1.0
aF-1.0
asg10
(lp509
F0.005
aF0.0
aF0.011000000000000001
asba(i__main__
sensor_data_struct
p510
(dp511
g3
(lp512
I647
aI369
aI259
aI1089
aI2532
aF182.0
aI1196
aI574
aI445
aI1801
aI2307
aF191.0
asg5
I0
sg6
(lp513
I131
aI99
aI-1
aI156
aI201
aI-1
asg8
(lp514
I-1
aI-1
aI-1
aF-1.0
aF-1.0
aF-1.0
aI-1
aI-1
aI-1
aF-1.0
aF-1.0
aF-1.0
asg10
(lp515
F0.002
aF-0.004
aF0.006999999999999999
asba(i__main__
sensor_data_struct
p516
(dp517
g3
(lp518
I597
aI352
aI239
aI1033
aI2577
aF186.0
aI975
aI485
aI366
aI1516
aI2371
aF181.0
asg5
I1
sg6
(lp519
I43
aI58
aI-1
aI107
aI123
aI-1
asg8
(lp520
I-1
aI-1
aI-1
aF-1.0
aF-1.0
aF-1.0
aI-1
aI-1
aI-1
aF-1.0
aF-1.0
aF-1.0
asg10
(lp521
F0.008
aF0.002
aF0.013000000000000001
asba(i__main__
sensor_data_struct
p522
(dp523
g3
(lp524
I846
aI414
aI310
aI1336
aI2399
aF151.0
aI2149
aI624
aI579
aI2940
aI2122
aF65400.0
asg5
I1
sg6
(lp525
I52
aI57
aI-1
aI99
aI116
aI-1
asg8
(lp526
I-1
aI-1
aI-1
aF-1.0
aF-1.0
aF-1.0
aI-1
aI-1
aI-1
aF-1.0
aF-1.0
aF-1.0
asg10
(lp527
F0.006
aF0.006
aF0.006
asba(i__main__
sensor_data_struct
p528
(dp529
g3
(lp530
I622
aI363
aI252
aI1061
aI2561
aF186.0
aI973
aI492
aI368
aI1521
aI2379
aF191.0
asg5
I1
sg6
(lp531
I44
aI43
aI-1
aI93
aI104
aI-1
asg8
(lp532
I-1
aI-1
aI-1
aF-1.0
aF-1.0
aF-1.0
aI-1
aI-1
aI-1
aF-1.0
aF-1.0
aF-1.0
asg10
(lp533
F0.001
aF0.004
aF0.015
asba(i__main__
sensor_data_struct
p534
(dp535
g3
(lp536
I953
aI504
aI364
aI1521
aI2406
aF219.0
aI790
aI416
aI313
aI1255
aI2439
aF171.0
asg5
I1
sg6
(lp537
I49
aI59
aI-1
aI101
aI116
aI-1
asg8
(lp538
I-1
aI-1
aI-1
aF-1.0
aF-1.0
aF-1.0
aI-1
aI-1
aI-1
aF-1.0
aF-1.0
aF-1.0
asg10
(lp539
F0.003
aF0.0
aF0.013999999999999999
asba(i__main__
sensor_data_struct
p540
(dp541
g3
(lp542
I620
aI362
aI246
aI1067
aI2562
aF190.0
aI675
aI373
aI261
aI1129
aI2504
aF178.0
asg5
I1
sg6
(lp543
I16
aI5
aI-1
aI57
aI59
aI-1
asg8
(lp544
I-1
aI-1
aI-1
aF-1.0
aF-1.0
aF-1.0
aI-1
aI-1
aI-1
aF-1.0
aF-1.0
aF-1.0
asg10
(lp545
F-0.01
aF0.003
aF0.013999999999999999
asba(i__main__
sensor_data_struct
p546
(dp547
g3
(lp548
I590
aI351
aI239
aI1023
aI2589
aF187.0
aI1126
aI525
aI407
aI1706
aI2317
aF165.0
asg5
I0
sg6
(lp549
I47
aI62
aI-1
aI132
aI161
aI-1
asg8
(lp550
I-1
aI-1
aI-1
aF-1.0
aF-1.0
aF-1.0
aI-1
aI-1
aI-1
aF-1.0
aF-1.0
aF-1.0
asg10
(lp551
F0.01
aF0.002
aF0.01
asba(i__main__
sensor_data_struct
p552
(dp553
g3
(lp554
I583
aI344
aI232
aI1015
aI2583
aF183.0
aI883
aI490
aI335
aI1453
aI2439
aF241.0
asg5
I1
sg6
(lp555
I13
aI5
aI-1
aI56
aI57
aI-1
asg8
(lp556
I-1
aI-1
aI-1
aF-1.0
aF-1.0
aF-1.0
aI-1
aI-1
aI-1
aF-1.0
aF-1.0
aF-1.0
asg10
(lp557
F-0.012
aF0.006
aF0.015
asba(i__main__
sensor_data_struct
p558
(dp559
g3
(lp560
I604
aI350
aI237
aI1041
aI2557
aF182.0
aI1061
aI525
aI406
aI1615
aI2342
aF187.0
asg5
I0
sg6
(lp561
I72
aI90
aI-1
aI156
aI212
aI-1
asg8
(lp562
I-1
aI-1
aI-1
aF-1.0
aF-1.0
aF-1.0
aI-1
aI-1
aI-1
aF-1.0
aF-1.0
aF-1.0
asg10
(lp563
F-0.003
aF-0.004
aF0.006
asba(i__main__
sensor_data_struct
p564
(dp565
g3
(lp566
I604
aI350
aI236
aI1044
aI2560
aF183.0
aI879
aI465
aI345
aI1393
aI2417
aF196.0
asg5
I1
sg6
(lp567
I46
aI42
aI-1
aI123
aI150
aI-1
asg8
(lp568
I-1
aI-1
aI-1
aF-1.0
aF-1.0
aF-1.0
aI-1
aI-1
aI-1
aF-1.0
aF-1.0
aF-1.0
asg10
(lp569
F-0.004
aF-0.008
aF0.011000000000000001
asba(i__main__
sensor_data_struct
p570
(dp571
g3
(lp572
I594
aI349
aI235
aI1029
aI2570
aF186.0
aI1286
aI499
aI418
aI1850
aI2221
aF64.0
asg5
I0
sg6
(lp573
I132
aI150
aI-1
aI134
aI229
aI-1
asg8
(lp574
I-1
aI-1
aI-1
aF-1.0
aF-1.0
aF-1.0
aI-1
aI-1
aI-1
aF-1.0
aF-1.0
aF-1.0
asg10
(lp575
F0.004
aF0.002
aF0.001
asba(i__main__
sensor_data_struct
p576
(dp577
g3
(lp578
I644
aI369
aI257
aI1089
aI2539
aF185.0
aI672
aI378
aI268
aI1116
aI2505
aF182.0
asg5
I1
sg6
(lp579
I20
aI19
aI-1
aI102
aI116
aI-1
asg8
(lp580
I-1
aI-1
aI-1
aF-1.0
aF-1.0
aF-1.0
aI-1
aI-1
aI-1
aF-1.0
aF-1.0
aF-1.0
asg10
(lp581
F0.0
aF-0.008
aF0.013999999999999999
asba(i__main__
sensor_data_struct
p582
(dp583
g3
(lp584
I602
aI354
aI239
aI1043
aI2571
aF188.0
aI1129
aI483
aI379
aI1702
aI2299
aF118.0
asg5
I1
sg6
(lp585
I34
aI23
aI-1
aI86
aI92
aI-1
asg8
(lp586
I-1
aI-1
aI-1
aF-1.0
aF-1.0
aF-1.0
aI-1
aI-1
aI-1
aF-1.0
aF-1.0
aF-1.0
asg10
(lp587
F0.002
aF0.008
aF0.013000000000000001
asba(i__main__
sensor_data_struct
p588
(dp589
g3
(lp590
I694
aI384
aI276
aI1145
aI2501
aF178.0
aI1342
aI563
aI453
aI1966
aI2245
aF121.0
asg5
I0
sg6
(lp591
I155
aI135
aI-1
aI146
aI225
aI-1
asg8
(lp592
I-1
aI-1
aI-1
aF-1.0
aF-1.0
aF-1.0
aI-1
aI-1
aI-1
aF-1.0
aF-1.0
aF-1.0
asg10
(lp593
F0.005
aF0.001
aF0.002
asba(i__main__
sensor_data_struct
p594
(dp595
g3
(lp596
I597
aI352
aI239
aI1031
aI2572
aF186.0
aI1283
aI497
aI408
aI1876
aI2242
aF69.0
asg5
I0
sg6
(lp597
I50
aI54
aI-1
aI144
aI205
aI-1
asg8
(lp598
I-1
aI-1
aI-1
aF-1.0
aF-1.0
aF-1.0
aI-1
aI-1
aI-1
aF-1.0
aF-1.0
aF-1.0
asg10
(lp599
F-0.002
aF0.008
aF0.006999999999999999
asba(i__main__
sensor_data_struct
p600
(dp601
g3
(lp602
I630
aI360
aI248
aI1071
aI2540
aF182.0
aI1214
aI571
aI441
aI1834
aI2307
aF184.0
asg5
I1
sg6
(lp603
I54
aI57
aI-1
aI123
aI156
aI-1
asg8
(lp604
I-1
aI-1
aI-1
aF-1.0
aF-1.0
aF-1.0
aI-1
aI-1
aI-1
aF-1.0
aF-1.0
aF-1.0
asg10
(lp605
F-0.001
aF0.005
aF0.01
asba.