(lp0
(i__main__
sensor_data_struct
p1
(dp2
S'color'
p3
(lp4
I570
aI342
aI229
aI1006
aI2618
aF187.0
aI854
aI483
aI332
aI1410
aI2457
aF242.0
asS'button'
p5
I1
sS'IR'
p6
(lp7
I12
aI19
aI-1
aI68
aI60
aI-1
asS'TOF'
p8
(lp9
I-1
aI-1
aI-1
aF-1.0
aF-1.0
aF-1.0
aI-1
aI-1
aI-1
aF-1.0
aF-1.0
aF-1.0
asS'pt'
p10
(lp11
F0.008
aF-0.01
aF0.015
asba(i__main__
sensor_data_struct
p12
(dp13
g3
(lp14
I636
aI379
aI258
aI1101
aI2582
aF202.0
aI1333
aI543
aI434
aI1979
aI2268
aF106.0
asg5
I1
sg6
(lp15
I39
aI34
aI-1
aI80
aI88
aI-1
asg8
(lp16
I-1
aI-1
aI-1
aF-1.0
aF-1.0
aF-1.0
aI-1
aI-1
aI-1
aF-1.0
aF-1.0
aF-1.0
asg10
(lp17
F0.002
aF0.006999999999999999
aF0.012
asba(i__main__
sensor_data_struct
p18
(dp19
g3
(lp20
I620
aI363
aI246
aI1075
aI2576
aF191.0
aI1026
aI541
aI393
aI1623
aI2390
aF233.0
asg5
I0
sg6
(lp21
I23
aI19
aI-1
aI92
aI101
aI-1
asg8
(lp22
I-1
aI-1
aI-1
aF-1.0
aF-1.0
aF-1.0
aI-1
aI-1
aI-1
aF-1.0
aF-1.0
aF-1.0
asg10
(lp23
F-0.008
aF-0.008
aF0.015
asba(i__main__
sensor_data_struct
p24
(dp25
g3
(lp26
I667
aI390
aI270
aI1137
aI2556
aF201.0
aI1346
aI572
aI462
aI1973
aI2254
aF127.0
asg5
I0
sg6
(lp27
I118
aI109
aI-1
aI163
aI221
aI-1
asg8
(lp28
I-1
aI-1
aI-1
aF-1.0
aF-1.0
aF-1.0
aI-1
aI-1
aI-1
aF-1.0
aF-1.0
aF-1.0
asg10
(lp29
F0.006999999999999999
aF-0.001
aF0.004
asba(i__main__
sensor_data_struct
p30
(dp31
g3
(lp32
I671
aI390
aI270
aI1142
aI2553
aF200.0
aI1210
aI585
aI445
aI1847
aI2326
aF204.0
asg5
I0
sg6
(lp33
I49
aI44
aI-1
aI108
aI127
aI-1
asg8
(lp34
I-1
aI-1
aI-1
aF-1.0
aF-1.0
aF-1.0
aI-1
aI-1
aI-1
aF-1.0
aF-1.0
aF-1.0
asg10
(lp35
F0.001
aF0.004
aF0.013000000000000001
asba(i__main__
sensor_data_struct
p36
(dp37
g3
(lp38
I745
aI426
aI297
aI1253
aI2525
aF213.0
aI915
aI482
aI375
aI1417
aI2413
aF189.0
asg5
I0
sg6
(lp39
I116
aI109
aI-1
aI150
aI188
aI-1
asg8
(lp40
I-1
aI-1
aI-1
aF-1.0
aF-1.0
aF-1.0
aI-1
aI-1
aI-1
aF-1.0
aF-1.0
aF-1.0
asg10
(lp41
F0.002
aF-0.004
aF0.008
asba(i__main__
sensor_data_struct
p42
(dp43
g3
(lp44
I633
aI372
aI251
aI1099
aI2578
aF197.0
aI873
aI490
aI334
aI1443
aI2448
aF245.0
asg5
I1
sg6
(lp45
I11
aI13
aI-1
aI59
aI58
aI-1
asg8
(lp46
I-1
aI-1
aI-1
aF-1.0
aF-1.0
aF-1.0
aI-1
aI-1
aI-1
aF-1.0
aF-1.0
aF-1.0
asg10
(lp47
F-0.001
aF-0.013000000000000001
aF0.015
asba(i__main__
sensor_data_struct
p48
(dp49
g3
(lp50
I641
aI382
aI259
aI1111
aI2583
aF205.0
aI1141
aI555
aI402
aI1801
aI2365
aF211.0
asg5
I1
sg6
(lp51
I16
aI6
aI-1
aI58
aI58
aI-1
asg8
(lp52
I-1
aI-1
aI-1
aF-1.0
aF-1.0
aF-1.0
aI-1
aI-1
aI-1
aF-1.0
aF-1.0
aF-1.0
asg10
(lp53
F-0.002
aF0.013000000000000001
aF0.013999999999999999
asba(i__main__
sensor_data_struct
p54
(dp55
g3
(lp56
I657
aI389
aI264
aI1138
aI2578
aF207.0
aI927
aI489
aI379
aI1431
aI2398
aF193.0
asg5
I0
sg6
(lp57
I54
aI229
aI-1
aI141
aI234
aI-1
asg8
(lp58
I-1
aI-1
aI-1
aF-1.0
aF-1.0
aF-1.0
aI-1
aI-1
aI-1
aF-1.0
aF-1.0
aF-1.0
asg10
(lp59
F-0.006
aF-0.001
aF0.003
asba(i__main__
sensor_data_struct
p60
(dp61
g3
(lp62
I669
aI388
aI266
aI1145
aI2553
aF200.0
aI1004
aI479
aI361
aI1565
aI2368
aF165.0
asg5
I1
sg6
(lp63
I30
aI16
aI-1
aI93
aI105
aI-1
asg8
(lp64
I-1
aI-1
aI-1
aF-1.0
aF-1.0
aF-1.0
aI-1
aI-1
aI-1
aF-1.0
aF-1.0
aF-1.0
asg10
(lp65
F0.0
aF0.008
aF0.015
asba(i__main__
sensor_data_struct
p66
(dp67
g3
(lp68
I749
aI427
aI297
aI1262
aI2526
aF213.0
aI708
aI403
aI286
aI1181
aI2521
aF196.0
asg5
I1
sg6
(lp69
I28
aI26
aI-1
aI92
aI101
aI-1
asg8
(lp70
I-1
aI-1
aI-1
aF-1.0
aF-1.0
aF-1.0
aI-1
aI-1
aI-1
aF-1.0
aF-1.0
aF-1.0
asg10
(lp71
F-0.002
aF-0.008
aF0.015
asba(i__main__
sensor_data_struct
p72
(dp73
g3
(lp74
I657
aI383
aI260
aI1133
aI2565
aF200.0
aI1124
aI541
aI416
aI1712
aI2331
aF184.0
asg5
I0
sg6
(lp75
I50
aI49
aI-1
aI131
aI168
aI-1
asg8
(lp76
I-1
aI-1
aI-1
aF-1.0
aF-1.0
aF-1.0
aI-1
aI-1
aI-1
aF-1.0
aF-1.0
aF-1.0
asg10
(lp77
F-0.004
aF0.001
aF0.01
asba(i__main__
sensor_data_struct
p78
(dp79
g3
(lp80
I672
aI391
aI270
aI1144
aI2551
aF201.0
aI1204
aI592
aI452
aI1827
aI2318
aF212.0
asg5
I0
sg6
(lp81
I90
aI97
aI-1
aI136
aI166
aI-1
asg8
(lp82
I-1
aI-1
aI-1
aF-1.0
aF-1.0
aF-1.0
aI-1
aI-1
aI-1
aF-1.0
aF-1.0
aF-1.0
asg10
(lp83
F0.002
aF-0.004
aF0.01
asba(i__main__
sensor_data_struct
p84
(dp85
g3
(lp86
I686
aI400
aI275
aI1171
aI2551
aF207.0
aI844
aI439
aI322
aI1354
aI2434
aF183.0
asg5
I1
sg6
(lp87
I30
aI17
aI-1
aI98
aI113
aI-1
asg8
(lp88
I-1
aI-1
aI-1
aF-1.0
aF-1.0
aF-1.0
aI-1
aI-1
aI-1
aF-1.0
aF-1.0
aF-1.0
asg10
(lp89
F-0.005
aF0.002
aF0.013999999999999999
asba(i__main__
sensor_data_struct
p90
(dp91
g3
(lp92
I675
aI393
aI266
aI1162
aI2555
aF206.0
aI840
aI460
aI333
aI1359
aI2453
aF209.0
asg5
I1
sg6
(lp93
I29
aI27
aI-1
aI100
aI114
aI-1
asg8
(lp94
I-1
aI-1
aI-1
aF-1.0
aF-1.0
aF-1.0
aI-1
aI-1
aI-1
aF-1.0
aF-1.0
aF-1.0
asg10
(lp95
F-0.003
aF-0.008
aF0.013999999999999999
asba(i__main__
sensor_data_struct
p96
(dp97
g3
(lp98
I701
aI406
aI283
aI1186
aI2542
aF206.0
aI1386
aI616
aI485
aI2055
aI2266
aF167.0
asg5
I0
sg6
(lp99
I59
aI64
aI-1
aI134
aI166
aI-1
asg8
(lp100
I-1
aI-1
aI-1
aF-1.0
aF-1.0
aF-1.0
aI-1
aI-1
aI-1
aF-1.0
aF-1.0
aF-1.0
asg10
(lp101
F0.004
aF0.003
aF0.01
asba(i__main__
sensor_data_struct
p102
(dp103
g3
(lp104
I726
aI417
aI292
aI1223
aI2534
aF208.0
aI779
aI431
aI317
aI1260
aI2476
aF195.0
asg5
I0
sg6
(lp105
I48
aI53
aI-1
aI126
aI150
aI-1
asg8
(lp106
I-1
aI-1
aI-1
aF-1.0
aF-1.0
aF-1.0
aI-1
aI-1
aI-1
aF-1.0
aF-1.0
aF-1.0
asg10
(lp107
F-0.005
aF-0.005
aF0.01
asba(i__main__
sensor_data_struct
p108
(dp109
g3
(lp110
I706
aI398
aI277
aI1188
aI2521
aF196.0
aI1290
aI594
aI465
aI1926
aI2287
aF178.0
asg5
I0
sg6
(lp111
I44
aI126
aI-1
aI145
aI233
aI-1
asg8
(lp112
I-1
aI-1
aI-1
aF-1.0
aF-1.0
aF-1.0
aI-1
aI-1
aI-1
aF-1.0
aF-1.0
aF-1.0
asg10
(lp113
F-0.006999999999999999
aF-0.001
aF0.004
asba(i__main__
sensor_data_struct
p114
(dp115
g3
(lp116
I687
aI412
aI288
aI1164
aI2561
aF216.0
aI1028
aI571
aI399
aI1655
aI2404
aF275.0
asg5
I1
sg6
(lp117
I7
aI251
aI-1
aI42
aI298
aI-1
asg8
(lp118
I-1
aI-1
aI-1
aF-1.0
aF-1.0
aF-1.0
aI-1
aI-1
aI-1
aF-1.0
aF-1.0
aF-1.0
asg10
(lp119
F0.01
aF-0.001
aF0.011000000000000001
asba(i__main__
sensor_data_struct
p120
(dp121
g3
(lp122
I649
aI386
aI261
aI1127
aI2584
aF207.0
aI918
aI488
aI381
aI1416
aI2409
aF193.0
asg5
I0
sg6
(lp123
I127
aI129
aI-1
aI160
aI206
aI-1
asg8
(lp124
I-1
aI-1
aI-1
aF-1.0
aF-1.0
aF-1.0
aI-1
aI-1
aI-1
aF-1.0
aF-1.0
aF-1.0
asg10
(lp125
F0.0
aF-0.004
aF0.006
asba(i__main__
sensor_data_struct
p126
(dp127
g3
(lp128
I794
aI432
aI317
aI1285
aI2468
aF192.0
aI1349
aI592
aI467
aI1996
aI2261
aF154.0
asg5
I0
sg6
(lp129
I63
aI408
aI-1
aI133
aI232
aI-1
asg8
(lp130
I-1
aI-1
aI-1
aF-1.0
aF-1.0
aF-1.0
aI-1
aI-1
aI-1
aF-1.0
aF-1.0
aF-1.0
asg10
(lp131
F-0.004
aF-0.001
aF0.0
asba(i__main__
sensor_data_struct
p132
(dp133
g3
(lp134
I628
aI375
aI253
aI1094
aI2589
aF202.0
aI926
aI490
aI369
aI1456
aI2416
aF202.0
asg5
I0
sg6
(lp135
I91
aI71
aI-1
aI142
aI169
aI-1
asg8
(lp136
I-1
aI-1
aI-1
aF-1.0
aF-1.0
aF-1.0
aI-1
aI-1
aI-1
aF-1.0
aF-1.0
aF-1.0
asg10
(lp137
F0.006999999999999999
aF-0.005
aF0.009000000000000001
asba(i__main__
sensor_data_struct
p138
(dp139
g3
(lp140
I824
aI447
aI334
aI1315
aI2451
aF193.0
aI1382
aI599
aI472
aI2041
aI2252
aF151.0
asg5
I0
sg6
(lp141
I194
aI175
aI-1
aI141
aI224
aI-1
asg8
(lp142
I-1
aI-1
aI-1
aF-1.0
aF-1.0
aF-1.0
aI-1
aI-1
aI-1
aF-1.0
aF-1.0
aF-1.0
asg10
(lp143
F0.001
aF-0.003
aF0.0
asba(i__main__
sensor_data_struct
p144
(dp145
g3
(lp146
I821
aI452
aI328
aI1335
aI2470
aF206.0
aI842
aI446
aI332
aI1346
aI2444
aF187.0
asg5
I1
sg6
(lp147
I48
aI55
aI-1
aI97
aI109
aI-1
asg8
(lp148
I-1
aI-1
aI-1
aF-1.0
aF-1.0
aF-1.0
aI-1
aI-1
aI-1
aF-1.0
aF-1.0
aF-1.0
asg10
(lp149
F0.0
aF0.0
aF0.013999999999999999
asba(i__main__
sensor_data_struct
p150
(dp151
g3
(lp152
I682
aI399
aI272
aI1168
aI2553
aF209.0
aI691
aI394
aI272
aI1173
aI2535
aF198.0
asg5
I1
sg6
(lp153
I14
aI5
aI-1
aI57
aI58
aI-1
asg8
(lp154
I-1
aI-1
aI-1
aF-1.0
aF-1.0
aF-1.0
aI-1
aI-1
aI-1
aF-1.0
aF-1.0
aF-1.0
asg10
(lp155
F-0.013000000000000001
aF0.002
aF0.013999999999999999
asba(i__main__
sensor_data_struct
p156
(dp157
g3
(lp158
I666
aI393
aI268
aI1147
aI2568
aF207.0
aI2048
aI647
aI576
aI2860
aI2157
aF65471.0
asg5
I0
sg6
(lp159
I64
aI88
aI-1
aI132
aI219
aI-1
asg8
(lp160
I-1
aI-1
aI-1
aF-1.0
aF-1.0
aF-1.0
aI-1
aI-1
aI-1
aF-1.0
aF-1.0
aF-1.0
asg10
(lp161
F0.001
aF0.005
aF0.001
asba(i__main__
sensor_data_struct
p162
(dp163
g3
(lp164
I697
aI401
aI282
aI1172
aI2534
aF200.0
aI1297
aI612
aI474
aI1941
aI2286
aF197.0
asg5
I0
sg6
(lp165
I172
aI68
aI-1
aI167
aI207
aI-1
asg8
(lp166
I-1
aI-1
aI-1
aF-1.0
aF-1.0
aF-1.0
aI-1
aI-1
aI-1
aF-1.0
aF-1.0
aF-1.0
asg10
(lp167
F0.002
aF-0.006999999999999999
aF0.005
asba(i__main__
sensor_data_struct
p168
(dp169
g3
(lp170
I644
aI382
aI258
aI1117
aI2579
aF205.0
aI981
aI518
aI381
aI1547
aI2396
aF220.0
asg5
I1
sg6
(lp171
I45
aI53
aI-1
aI108
aI123
aI-1
asg8
(lp172
I-1
aI-1
aI-1
aF-1.0
aF-1.0
aF-1.0
aI-1
aI-1
aI-1
aF-1.0
aF-1.0
aF-1.0
asg10
(lp173
F0.006999999999999999
aF-0.004
aF0.013000000000000001
asba(i__main__
sensor_data_struct
p174
(dp175
g3
(lp176
I652
aI381
aI259
aI1122
aI2560
aF200.0
aI1105
aI559
aI417
aI1715
aI2357
aF218.0
asg5
I0
sg6
(lp177
I32
aI20
aI-1
aI107
aI127
aI-1
asg8
(lp178
I-1
aI-1
aI-1
aF-1.0
aF-1.0
aF-1.0
aI-1
aI-1
aI-1
aF-1.0
aF-1.0
aF-1.0
asg10
(lp179
F-0.006
aF0.001
aF0.012
asba(i__main__
sensor_data_struct
p180
(dp181
g3
(lp182
I676
aI396
aI275
aI1149
aI2553
aF204.0
aI1281
aI605
aI464
aI1934
aI2300
aF199.0
asg5
I0
sg6
(lp183
I45
aI59
aI-1
aI124
aI146
aI-1
asg8
(lp184
I-1
aI-1
aI-1
aF-1.0
aF-1.0
aF-1.0
aI-1
aI-1
aI-1
aF-1.0
aF-1.0
aF-1.0
asg10
(lp185
F0.01
aF0.003
aF0.011000000000000001
asba(i__main__
sensor_data_struct
p186
(dp187
g3
(lp188
I641
aI382
aI259
aI1112
aI2583
aF205.0
aI774
aI434
aI322
aI1251
aI2489
aF198.0
asg5
I0
sg6
(lp189
I56
aI50
aI-1
aI129
aI156
aI-1
asg8
(lp190
I-1
aI-1
aI-1
aF-1.0
aF-1.0
aF-1.0
aI-1
aI-1
aI-1
aF-1.0
aF-1.0
aF-1.0
asg10
(lp191
F-0.003
aF-0.009000000000000001
aF0.01
asba(i__main__
sensor_data_struct
p192
(dp193
g3
(lp194
I635
aI375
aI252
aI1104
aI2576
aF201.0
aI918
aI484
aI348
aI1477
aI2423
aF211.0
asg5
I1
sg6
(lp195
I27
aI8
aI-1
aI87
aI94
aI-1
asg8
(lp196
I-1
aI-1
aI-1
aF-1.0
aF-1.0
aF-1.0
aI-1
aI-1
aI-1
aF-1.0
aF-1.0
aF-1.0
asg10
(lp197
F-0.008
aF0.006
aF0.015
asba(i__main__
sensor_data_struct
p198
(dp199
g3
(lp200
I646
aI380
aI257
aI1116
aI2568
aF201.0
aI969
aI486
aI382
aI1479
aI2370
aF172.0
asg5
I0
sg6
(lp201
I129
aI234
aI-1
aI140
aI230
aI-1
asg8
(lp202
I-1
aI-1
aI-1
aF-1.0
aF-1.0
aF-1.0
aI-1
aI-1
aI-1
aF-1.0
aF-1.0
aF-1.0
asg10
(lp203
F-0.002
aF-0.002
aF0.001
asba(i__main__
sensor_data_struct
p204
(dp205
g3
(lp206
I655
aI387
aI264
aI1126
aI2564
aF204.0
aI1382
aI530
aI430
aI2035
aI2249
aF73.0
asg5
I1
sg6
(lp207
I37
aI24
aI-1
aI75
aI84
aI-1
asg8
(lp208
I-1
aI-1
aI-1
aF-1.0
aF-1.0
aF-1.0
aI-1
aI-1
aI-1
aF-1.0
aF-1.0
aF-1.0
asg10
(lp209
F0.001
aF0.009000000000000001
aF0.011000000000000001
asba(i__main__
sensor_data_struct
p210
(dp211
g3
(lp212
I650
aI381
aI259
aI1119
aI2564
aF200.0
aI1016
aI506
aI395
aI1549
aI2357
aF179.0
asg5
I0
sg6
(lp213
I52
aI193
aI-1
aI140
aI227
aI-1
asg8
(lp214
I-1
aI-1
aI-1
aF-1.0
aF-1.0
aF-1.0
aI-1
aI-1
aI-1
aF-1.0
aF-1.0
aF-1.0
asg10
(lp215
F-0.006
aF0.001
aF0.003
asba(i__main__
sensor_data_struct
p216
(dp217
g3
(lp218
I667
aI392
aI272
aI1139
aI2565
aF203.0
aI854
aI449
aI336
aI1361
aI2440
aF185.0
asg5
I1
sg6
(lp219
I44
aI58
aI-1
aI105
aI119
aI-1
asg8
(lp220
I-1
aI-1
aI-1
aF-1.0
aF-1.0
aF-1.0
aI-1
aI-1
aI-1
aF-1.0
aF-1.0
aF-1.0
asg10
(lp221
F0.008
aF0.0
aF0.013000000000000001
asba(i__main__
sensor_data_struct
p222
(dp223
g3
(lp224
I725
aI411
aI291
aI1208
aI2516
aF200.0
aI1326
aI583
aI468
aI1952
aI2266
aF147.0
asg5
I0
sg6
(lp225
I159
aI190
aI-1
aI151
aI221
aI-1
asg8
(lp226
I-1
aI-1
aI-1
aF-1.0
aF-1.0
aF-1.0
aI-1
aI-1
aI-1
aF-1.0
aF-1.0
aF-1.0
asg10
(lp227
F0.001
aF0.0
aF0.003
asba(i__main__
sensor_data_struct
p228
(dp229
g3
(lp230
I658
aI391
aI269
aI1131
aI2577
aF206.0
aI1188
aI567
aI432
aI1813
aI2323
aF193.0
asg5
I1
sg6
(lp231
I41
aI46
aI-1
aI103
aI118
aI-1
asg8
(lp232
I-1
aI-1
aI-1
aF-1.0
aF-1.0
aF-1.0
aI-1
aI-1
aI-1
aF-1.0
aF-1.0
aF-1.0
asg10
(lp233
F0.005
aF0.006
aF0.013000000000000001
asba(i__main__
sensor_data_struct
p234
(dp235
g3
(lp236
I659
aI386
aI262
aI1135
aI2561
aF203.0
aI1078
aI539
aI403
aI1677
aI2365
aF205.0
asg5
I0
sg6
(lp237
I31
aI16
aI-1
aI112
aI137
aI-1
asg8
(lp238
I-1
aI-1
aI-1
aF-1.0
aF-1.0
aF-1.0
aI-1
aI-1
aI-1
aF-1.0
aF-1.0
aF-1.0
asg10
(lp239
F-0.008
aF0.005
aF0.011000000000000001
asba(i__main__
sensor_data_struct
p240
(dp241
g3
(lp242
I654
aI385
aI261
aI1130
aI2569
aF204.0
aI992
aI488
aI385
aI1502
aI2349
aF166.0
asg5
I0
sg6
(lp243
I86
aI331
aI-1
aI136
aI229
aI-1
asg8
(lp244
I-1
aI-1
aI-1
aF-1.0
aF-1.0
aF-1.0
aI-1
aI-1
aI-1
aF-1.0
aF-1.0
aF-1.0
asg10
(lp245
F-0.003
aF-0.001
aF0.0
asba(i__main__
sensor_data_struct
p246
(dp247
g3
(lp248
I641
aI379
aI257
aI1112
aI2583
aF201.0
aI809
aI452
aI330
aI1310
aI2473
aF209.0
asg5
I1
sg6
(lp249
I65
aI55
aI-1
aI115
aI74
aI-1
asg8
(lp250
I-1
aI-1
aI-1
aF-1.0
aF-1.0
aF-1.0
aI-1
aI-1
aI-1
aF-1.0
aF-1.0
aF-1.0
asg10
(lp251
F0.004
aF-0.006999999999999999
aF0.011000000000000001
asba(i__main__
sensor_data_struct
p252
(dp253
g3
(lp254
I671
aI397
aI268
aI1159
aI2567
aF212.0
aI1696
aI594
aI513
aI2408
aI2194
aF11.0
asg5
I0
sg6
(lp255
I71
aI75
aI-1
aI147
aI192
aI-1
asg8
(lp256
I-1
aI-1
aI-1
aF-1.0
aF-1.0
aF-1.0
aI-1
aI-1
aI-1
aF-1.0
aF-1.0
aF-1.0
asg10
(lp257
F0.002
aF0.005
aF0.006999999999999999
asba(i__main__
sensor_data_struct
p258
(dp259
g3
(lp260
I666
aI389
aI267
aI1142
aI2561
aF202.0
aI1162
aI578
aI440
aI1772
aI2329
aF213.0
asg5
I0
sg6
(lp261
I99
aI64
aI-1
aI154
aI184
aI-1
asg8
(lp262
I-1
aI-1
aI-1
aF-1.0
aF-1.0
aF-1.0
aI-1
aI-1
aI-1
aF-1.0
aF-1.0
aF-1.0
asg10
(lp263
F0.003
aF-0.006999999999999999
aF0.008
asba(i__main__
sensor_data_struct
p264
(dp265
g3
(lp266
I644
aI377
aI254
aI1115
aI2566
aF200.0
aI1046
aI550
aI403
aI1645
aI2381
aF233.0
asg5
I1
sg6
(lp267
I30
aI26
aI-1
aI99
aI112
aI-1
asg8
(lp268
I-1
aI-1
aI-1
aF-1.0
aF-1.0
aF-1.0
aI-1
aI-1
aI-1
aF-1.0
aF-1.0
aF-1.0
asg10
(lp269
F-0.005
aF-0.011000000000000001
aF0.013999999999999999
asba(i__main__
sensor_data_struct
p270
(dp271
g3
(lp272
I650
aI383
aI258
aI1128
aI2576
aF204.0
aI933
aI452
aI335
aI1485
aI2408
aF165.0
asg5
I1
sg6
(lp273
I21
aI9
aI-1
aI60
aI58
aI-1
asg8
(lp274
I-1
aI-1
aI-1
aF-1.0
aF-1.0
aF-1.0
aI-1
aI-1
aI-1
aF-1.0
aF-1.0
aF-1.0
asg10
(lp275
F-0.001
aF0.011000000000000001
aF0.015
asba(i__main__
sensor_data_struct
p276
(dp277
g3
(lp278
I672
aI397
aI269
aI1161
aI2571
aF211.0
aI1016
aI515
aI385
aI1587
aI2379
aF201.0
asg5
I0
sg6
(lp279
I33
aI25
aI-1
aI126
aI161
aI-1
asg8
(lp280
I-1
aI-1
aI-1
aF-1.0
aF-1.0
aF-1.0
aI-1
aI-1
aI-1
aF-1.0
aF-1.0
aF-1.0
asg10
(lp281
F-0.008
aF0.002
aF0.01
asba(i__main__
sensor_data_struct
p282
(dp283
g3
(lp284
I817
aI425
aI306
aI1331
aI2455
aF181.0
aI2447
aI743
aI669
aI3373
aI2127
aF65425.0
asg5
I1
sg6
(lp285
I42
aI31
aI-1
aI81
aI91
aI-1
asg8
(lp286
I-1
aI-1
aI-1
aF-1.0
aF-1.0
aF-1.0
aI-1
aI-1
aI-1
aF-1.0
aF-1.0
aF-1.0
asg10
(lp287
F-0.001
aF0.009000000000000001
aF0.006999999999999999
asba(i__main__
sensor_data_struct
p288
(dp289
g3
(lp290
I698
aI402
aI284
aI1173
aI2541
aF200.0
aI1263
aI560
aI445
aI1873
aI2277
aF148.0
asg5
I0
sg6
(lp291
I180
aI123
aI-1
aI152
aI217
aI-1
asg8
(lp292
I-1
aI-1
aI-1
aF-1.0
aF-1.0
aF-1.0
aI-1
aI-1
aI-1
aF-1.0
aF-1.0
aF-1.0
asg10
(lp293
F0.005
aF-0.002
aF0.002
asba(i__main__
sensor_data_struct
p294
(dp295
g3
(lp296
I631
aI373
aI251
aI1097
aI2578
aF200.0
aI892
aI484
aI347
aI1441
aI2436
aF220.0
asg5
I1
sg6
(lp297
I21
aI17
aI-1
aI87
aI93
aI-1
asg8
(lp298
I-1
aI-1
aI-1
aF-1.0
aF-1.0
aF-1.0
aI-1
aI-1
aI-1
aF-1.0
aF-1.0
aF-1.0
asg10
(lp299
F-0.009000000000000001
aF-0.009000000000000001
aF0.015
asba(i__main__
sensor_data_struct
p300
(dp301
g3
(lp302
I656
aI388
aI265
aI1129
aI2569
aF205.0
aI1439
aI541
aI456
aI2065
aI2214
aF52.0
asg5
I0
sg6
(lp303
I109
aI131
aI-1
aI138
aI217
aI-1
asg8
(lp304
I-1
aI-1
aI-1
aF-1.0
aF-1.0
aF-1.0
aI-1
aI-1
aI-1
aF-1.0
aF-1.0
aF-1.0
asg10
(lp305
F0.004
aF0.0
aF0.0
asba(i__main__
sensor_data_struct
p306
(dp307
g3
(lp308
I688
aI403
aI280
aI1169
aI2552
aF207.0
aI1024
aI484
aI368
aI1584
aI2354
aF162.0
asg5
I1
sg6
(lp309
I32
aI19
aI-1
aI97
aI109
aI-1
asg8
(lp310
I-1
aI-1
aI-1
aF-1.0
aF-1.0
aF-1.0
aI-1
aI-1
aI-1
aF-1.0
aF-1.0
aF-1.0
asg10
(lp311
F0.0
aF0.006999999999999999
aF0.013999999999999999
asba(i__main__
sensor_data_struct
p312
(dp313
g3
(lp314
I639
aI378
aI255
aI1110
aI2579
aF202.0
aI985
aI517
aI393
aI1529
aI2388
aF208.0
asg5
I0
sg6
(lp315
I90
aI64
aI-1
aI149
aI184
aI-1
asg8
(lp316
I-1
aI-1
aI-1
aF-1.0
aF-1.0
aF-1.0
aI-1
aI-1
aI-1
aF-1.0
aF-1.0
aF-1.0
asg10
(lp317
F0.0
aF-0.008
aF0.008
asba(i__main__
sensor_data_struct
p318
(dp319
g3
(lp320
I726
aI410
aI290
aI1211
aI2517
aF199.0
aI1389
aI564
aI460
aI2028
aI2244
aF102.0
asg5
I0
sg6
(lp321
I103
aI187
aI-1
aI131
aI225
aI-1
asg8
(lp322
I-1
aI-1
aI-1
aF-1.0
aF-1.0
aF-1.0
aI-1
aI-1
aI-1
aF-1.0
aF-1.0
aF-1.0
asg10
(lp323
F0.0
aF0.0
aF0.001
asba(i__main__
sensor_data_struct
p324
(dp325
g3
(lp326
I769
aI429
aI307
aI1270
aI2501
aF202.0
aI754
aI424
aI309
aI1234
aI2501
aF198.0
asg5
I1
sg6
(lp327
I43
aI42
aI-1
aI112
aI131
aI-1
asg8
(lp328
I-1
aI-1
aI-1
aF-1.0
aF-1.0
aF-1.0
aI-1
aI-1
aI-1
aF-1.0
aF-1.0
aF-1.0
asg10
(lp329
F-0.005
aF-0.009000000000000001
aF0.012
asba(i__main__
sensor_data_struct
p330
(dp331
g3
(lp332
I678
aI395
aI272
aI1156
aI2552
aF204.0
aI1184
aI573
aI447
aI1782
aI2315
aF192.0
asg5
I0
sg6
(lp333
I141
aI123
aI-1
aI155
aI195
aI-1
asg8
(lp334
I-1
aI-1
aI-1
aF-1.0
aF-1.0
aF-1.0
aI-1
aI-1
aI-1
aF-1.0
aF-1.0
aF-1.0
asg10
(lp335
F0.002
aF-0.004
aF0.006999999999999999
asba(i__main__
sensor_data_struct
p336
(dp337
g3
(lp338
I698
aI402
aI280
aI1178
aI2533
aF202.0
aI1224
aI577
aI455
aI1828
aI2300
aF180.0
asg5
I0
sg6
(lp339
I142
aI184
aI-1
aI158
aI220
aI-1
asg8
(lp340
I-1
aI-1
aI-1
aF-1.0
aF-1.0
aF-1.0
aI-1
aI-1
aI-1
aF-1.0
aF-1.0
aF-1.0
asg10
(lp341
F-0.001
aF-0.004
aF0.004
asba(i__main__
sensor_data_struct
p342
(dp343
g3
(lp344
I682
aI392
aI269
aI1161
aI2538
aF200.0
aI1203
aI545
aI431
aI1796
aI2294
aF154.0
asg5
I0
sg6
(lp345
I53
aI170
aI-1
aI133
aI227
aI-1
asg8
(lp346
I-1
aI-1
aI-1
aF-1.0
aF-1.0
aF-1.0
aI-1
aI-1
aI-1
aF-1.0
aF-1.0
aF-1.0
asg10
(lp347
F-0.006
aF0.003
aF0.003
asba(i__main__
sensor_data_struct
p348
(dp349
g3
(lp350
I641
aI382
aI259
aI1111
aI2583
aF205.0
aI945
aI485
aI364
aI1486
aI2402
aF192.0
asg5
I1
sg6
(lp351
I41
aI55
aI-1
aI102
aI114
aI-1
asg8
(lp352
I-1
aI-1
aI-1
aF-1.0
aF-1.0
aF-1.0
aI-1
aI-1
aI-1
aF-1.0
aF-1.0
aF-1.0
asg10
(lp353
F0.006
aF0.0
aF0.013999999999999999
asba(i__main__
sensor_data_struct
p354
(dp355
g3
(lp356
I657
aI389
aI264
aI1133
aI2569
aF207.0
aI1007
aI510
aI384
aI1568
aI2378
aF196.0
asg5
I0
sg6
(lp357
I45
aI42
aI-1
aI113
aI136
aI-1
asg8
(lp358
I-1
aI-1
aI-1
aF-1.0
aF-1.0
aF-1.0
aI-1
aI-1
aI-1
aF-1.0
aF-1.0
aF-1.0
asg10
(lp359
F-0.004
aF0.001
aF0.012
asba(i__main__
sensor_data_struct
p360
(dp361
g3
(lp362
I638
aI380
aI256
aI1110
aI2583
aF205.0
aI728
aI418
aI296
aI1215
aI2524
aF206.0
asg5
I1
sg6
(lp363
I23
aI26
aI-1
aI86
aI65
aI-1
asg8
(lp364
I-1
aI-1
aI-1
aF-1.0
aF-1.0
aF-1.0
aI-1
aI-1
aI-1
aF-1.0
aF-1.0
aF-1.0
asg10
(lp365
F0.006
aF-0.01
aF0.012
asba(i__main__
sensor_data_struct
p366
(dp367
g3
(lp368
I694
aI397
aI273
aI1179
aI2536
aF201.0
aI1235
aI581
aI450
aI1864
aI2308
aF186.0
asg5
I0
sg6
(lp369
I44
aI65
aI-1
aI139
aI198
aI-1
asg8
(lp370
I-1
aI-1
aI-1
aF-1.0
aF-1.0
aF-1.0
aI-1
aI-1
aI-1
aF-1.0
aF-1.0
aF-1.0
asg10
(lp371
F-0.006999999999999999
aF0.002
aF0.006999999999999999
asba(i__main__
sensor_data_struct
p372
(dp373
g3
(lp374
I640
aI376
aI253
aI1110
aI2572
aF200.0
aI1023
aI538
aI394
aI1613
aI2388
aF228.0
asg5
I1
sg6
(lp375
I33
aI31
aI-1
aI100
aI113
aI-1
asg8
(lp376
I-1
aI-1
aI-1
aF-1.0
aF-1.0
aF-1.0
aI-1
aI-1
aI-1
aF-1.0
aF-1.0
aF-1.0
asg10
(lp377
F-0.008
aF-0.008
aF0.013000000000000001
asba(i__main__
sensor_data_struct
p378
(dp379
g3
(lp380
I642
aI380
aI255
aI1118
aI2582
aF204.0
aI923
aI476
aI364
aI1440
aI2406
aF185.0
asg5
I0
sg6
(lp381
I107
aI95
aI-1
aI142
aI172
aI-1
asg8
(lp382
I-1
aI-1
aI-1
aF-1.0
aF-1.0
aF-1.0
aI-1
aI-1
aI-1
aF-1.0
aF-1.0
aF-1.0
asg10
(lp383
F0.005
aF-0.003
aF0.009000000000000001
asba(i__main__
sensor_data_struct
p384
(dp385
g3
(lp386
I648
aI387
aI263
aI1121
aI2581
aF207.0
aI1748
aI585
aI504
aI2480
aI2182
aF65523.0
asg5
I0
sg6
(lp387
I43
aI29
aI-1
aI138
aI182
aI-1
asg8
(lp388
I-1
aI-1
aI-1
aF-1.0
aF-1.0
aF-1.0
aI-1
aI-1
aI-1
aF-1.0
aF-1.0
aF-1.0
asg10
(lp389
F-0.002
aF0.009000000000000001
aF0.008
asba(i__main__
sensor_data_struct
p390
(dp391
g3
(lp392
I677
aI392
aI270
aI1155
aI2550
aF201.0
aI828
aI432
aI317
aI1331
aI2439
aF181.0
asg5
I1
sg6
(lp393
I35
aI25
aI-1
aI90
aI99
aI-1
asg8
(lp394
I-1
aI-1
aI-1
aF-1.0
aF-1.0
aF-1.0
aI-1
aI-1
aI-1
aF-1.0
aF-1.0
aF-1.0
asg10
(lp395
F-0.003
aF0.004
aF0.015
asba(i__main__
sensor_data_struct
p396
(dp397
g3
(lp398
I691
aI397
aI275
aI1173
aI2541
aF200.0
aI1160
aI586
aI440
aI1789
aI2349
aF226.0
asg5
I0
sg6
(lp399
I44
aI40
aI-1
aI111
aI131
aI-1
asg8
(lp400
I-1
aI-1
aI-1
aF-1.0
aF-1.0
aF-1.0
aI-1
aI-1
aI-1
aF-1.0
aF-1.0
aF-1.0
asg10
(lp401
F-0.005
aF0.0
aF0.012
asba(i__main__
sensor_data_struct
p402
(dp403
g3
(lp404
I680
aI395
aI270
aI1164
aI2553
aF205.0
aI1175
aI574
aI434
aI1808
aI2343
aF206.0
asg5
I0
sg6
(lp405
I32
aI17
aI-1
aI111
aI133
aI-1
asg8
(lp406
I-1
aI-1
aI-1
aF-1.0
aF-1.0
aF-1.0
aI-1
aI-1
aI-1
aF-1.0
aF-1.0
aF-1.0
asg10
(lp407
F-0.005
aF0.006999999999999999
aF0.012
asba(i__main__
sensor_data_struct
p408
(dp409
g3
(lp410
I643
aI384
aI261
aI1115
aI2588
aF206.0
aI982
aI504
aI385
aI1525
aI2389
aF194.0
asg5
I0
sg6
(lp411
I87
aI91
aI-1
aI127
aI152
aI-1
asg8
(lp412
I-1
aI-1
aI-1
aF-1.0
aF-1.0
aF-1.0
aI-1
aI-1
aI-1
aF-1.0
aF-1.0
aF-1.0
asg10
(lp413
F0.004
aF-0.002
aF0.011000000000000001
asba(i__main__
sensor_data_struct
p414
(dp415
g3
(lp416
I653
aI382
aI259
aI1126
aI2562
aF201.0
aI1064
aI541
aI402
aI1662
aI2373
aF214.0
asg5
I0
sg6
(lp417
I28
aI16
aI-1
aI112
aI134
aI-1
asg8
(lp418
I-1
aI-1
aI-1
aF-1.0
aF-1.0
aF-1.0
aI-1
aI-1
aI-1
aF-1.0
aF-1.0
aF-1.0
asg10
(lp419
F-0.008
aF0.001
aF0.012
asba(i__main__
sensor_data_struct
p420
(dp421
g3
(lp422
I674
aI393
aI270
aI1155
aI2560
aF203.0
aI1532
aI619
aI499
aI2242
aI2237
aF114.0
asg5
I0
sg6
(lp423
I40
aI29
aI-1
aI130
aI168
aI-1
asg8
(lp424
I-1
aI-1
aI-1
aF-1.0
aF-1.0
aF-1.0
aI-1
aI-1
aI-1
aF-1.0
aF-1.0
aF-1.0
asg10
(lp425
F-0.002
aF0.009000000000000001
aF0.009000000000000001
asba(i__main__
sensor_data_struct
p426
(dp427
g3
(lp428
I695
aI405
aI280
aI1186
aI2556
aF208.0
aI944
aI482
aI364
aI1480
aI2400
aF187.0
asg5
I1
sg6
(lp429
I45
aI49
aI-1
aI92
aI100
aI-1
asg8
(lp430
I-1
aI-1
aI-1
aF-1.0
aF-1.0
aF-1.0
aI-1
aI-1
aI-1
aF-1.0
aF-1.0
aF-1.0
asg10
(lp431
F0.003
aF0.003
aF0.015
asba(i__main__
sensor_data_struct
p432
(dp433
g3
(lp434
I679
aI402
aI277
aI1165
aI2573
aF211.0
aI1429
aI560
aI448
aI2106
aI2244
aF92.0
asg5
I1
sg6
(lp435
I38
aI22
aI-1
aI80
aI89
aI-1
asg8
(lp436
I-1
aI-1
aI-1
aF-1.0
aF-1.0
aF-1.0
aI-1
aI-1
aI-1
aF-1.0
aF-1.0
aF-1.0
asg10
(lp437
F0.0
aF0.009000000000000001
aF0.011000000000000001
asba(i__main__
sensor_data_struct
p438
(dp439
g3
(lp440
I710
aI400
aI280
aI1191
aI2519
aF195.0
aI1326
aI598
aI473
aI1968
aI2278
aF167.0
asg5
I0
sg6
(lp441
I66
aI100
aI-1
aI146
aI208
aI-1
asg8
(lp442
I-1
aI-1
aI-1
aF-1.0
aF-1.0
aF-1.0
aI-1
aI-1
aI-1
aF-1.0
aF-1.0
aF-1.0
asg10
(lp443
F-0.004
aF0.002
aF0.006
asba(i__main__
sensor_data_struct
p444
(dp445
g3
(lp446
I711
aI404
aI284
aI1194
aI2529
aF198.0
aI1489
aI592
aI483
aI2158
aI2220
aF97.0
asg5
I0
sg6
(lp447
I98
aI165
aI-1
aI136
aI222
aI-1
asg8
(lp448
I-1
aI-1
aI-1
aF-1.0
aF-1.0
aF-1.0
aI-1
aI-1
aI-1
aF-1.0
aF-1.0
aF-1.0
asg10
(lp449
F0.0
aF0.003
aF0.002
asba(i__main__
sensor_data_struct
p450
(dp451
g3
(lp452
I895
aI465
aI346
aI1429
aI2437
aF190.0
aI987
aI463
aI347
aI1564
aI2401
aF156.0
asg5
I1
sg6
(lp453
I19
aI15
aI-1
aI58
aI63
aI-1
asg8
(lp454
I-1
aI-1
aI-1
aF-1.0
aF-1.0
aF-1.0
aI-1
aI-1
aI-1
aF-1.0
aF-1.0
aF-1.0
asg10
(lp455
F0.005
aF0.011000000000000001
aF0.015
asba(i__main__
sensor_data_struct
p456
(dp457
g3
(lp458
I648
aI388
aI263
aI1124
aI2586
aF209.0
aI934
aI495
aI375
aI1461
aI2409
aF203.0
asg5
I0
sg6
(lp459
I114
aI87
aI-1
aI143
aI172
aI-1
asg8
(lp460
I-1
aI-1
aI-1
aF-1.0
aF-1.0
aF-1.0
aI-1
aI-1
aI-1
aF-1.0
aF-1.0
aF-1.0
asg10
(lp461
F0.004
aF-0.005
aF0.009000000000000001
asba(i__main__
sensor_data_struct
p462
(dp463
g3
(lp464
I672
aI396
aI273
aI1151
aI2566
aF207.0
aI1237
aI531
aI432
aI1819
aI2271
aF120.0
asg5
I0
sg6
(lp465
I135
aI125
aI-1
aI159
aI218
aI-1
asg8
(lp466
I-1
aI-1
aI-1
aF-1.0
aF-1.0
aF-1.0
aI-1
aI-1
aI-1
aF-1.0
aF-1.0
aF-1.0
asg10
(lp467
F0.004
aF-0.001
aF0.004
asba(i__main__
sensor_data_struct
p468
(dp469
g3
(lp470
I744
aI424
aI300
aI1243
aI2524
aF208.0
aI1250
aI510
aI408
aI1876
aI2295
aF100.0
asg5
I1
sg6
(lp471
I23
aI32
aI-1
aI58
aI63
aI-1
asg8
(lp472
I-1
aI-1
aI-1
aF-1.0
aF-1.0
aF-1.0
aI-1
aI-1
aI-1
aF-1.0
aF-1.0
aF-1.0
asg10
(lp473
F0.011000000000000001
aF0.005
aF0.012
asba(i__main__
sensor_data_struct
p474
(dp475
g3
(lp476
I701
aI420
aI287
aI1206
aI2572
aF225.0
aI1225
aI529
aI430
aI1811
aI2285
aF122.0
asg5
I0
sg6
(lp477
I102
aI108
aI-1
aI161
aI206
aI-1
asg8
(lp478
I-1
aI-1
aI-1
aF-1.0
aF-1.0
aF-1.0
aI-1
aI-1
aI-1
aF-1.0
aF-1.0
aF-1.0
asg10
(lp479
F0.005
aF0.0
aF0.006
asba(i__main__
sensor_data_struct
p480
(dp481
g3
(lp482
I662
aI391
aI267
aI1140
aI2569
aF206.0
aI881
aI478
aI366
aI1380
aI2433
aF200.0
asg5
I0
sg6
(lp483
I96
aI125
aI-1
aI153
aI198
aI-1
asg8
(lp484
I-1
aI-1
aI-1
aF-1.0
aF-1.0
aF-1.0
aI-1
aI-1
aI-1
aF-1.0
aF-1.0
aF-1.0
asg10
(lp485
F-0.003
aF-0.005
aF0.006999999999999999
asba(i__main__
sensor_data_struct
p486
(dp487
g3
(lp488
I668
aI392
aI266
aI1151
aI2564
aF207.0
aI874
aI444
aI327
aI1396
aI2422
aF177.0
asg5
I0
sg6
(lp489
I28
aI11
aI-1
aI109
aI131
aI-1
asg8
(lp490
I-1
aI-1
aI-1
aF-1.0
aF-1.0
aF-1.0
aI-1
aI-1
aI-1
aF-1.0
aF-1.0
aF-1.0
asg10
(lp491
F-0.008
aF0.006
aF0.012
asba(i__main__
sensor_data_struct
p492
(dp493
g3
(lp494
I643
aI383
aI260
aI1115
aI2585
aF205.0
aI1006
aI528
aI390
aI1582
aI2390
aF221.0
asg5
I1
sg6
(lp495
I51
aI60
aI-1
aI94
aI105
aI-1
asg8
(lp496
I-1
aI-1
aI-1
aF-1.0
aF-1.0
aF-1.0
aI-1
aI-1
aI-1
aF-1.0
aF-1.0
aF-1.0
asg10
(lp497
F0.002
aF-0.001
aF0.015
asba(i__main__
sensor_data_struct
p498
(dp499
g3
(lp500
I694
aI409
aI284
aI1184
aI2566
aF212.0
aI1242
aI571
aI444
aI1871
aI2302
aF173.0
asg5
I0
sg6
(lp501
I50
aI55
aI-1
aI116
aI138
aI-1
asg8
(lp502
I-1
aI-1
aI-1
aF-1.0
aF-1.0
aF-1.0
aI-1
aI-1
aI-1
aF-1.0
aF-1.0
aF-1.0
asg10
(lp503
F0.004
aF0.004
aF0.012
asba(i__main__
sensor_data_struct
p504
(dp505
g3
(lp506
I704
aI413
aI287
aI1197
aI2557
aF213.0
aI1147
aI529
aI417
aI1727
aI2315
aF157.0
asg5
I0
sg6
(lp507
I91
aI98
aI-1
aI148
aI186
aI-1
asg8
(lp508
I-1
aI-1
aI-1
aF-1.0
aF-1.0
aF-1.0
aI-1
aI-1
aI-1
aF-1.0
aF-1.0
aF-1.0
asg10
(lp509
F0.005
aF0.0
aF0.008
asba(i__main__
sensor_data_struct
p510
(dp511
g3
(lp512
I678
aI401
aI276
aI1161
aI2564
aF210.0
aI1951
aI619
aI548
aI2714
aI2144
aF65479.0
asg5
I0
sg6
(lp513
I67
aI76
aI-1
aI148
aI210
aI-1
asg8
(lp514
I-1
aI-1
aI-1
aF-1.0
aF-1.0
aF-1.0
aI-1
aI-1
aI-1
aF-1.0
aF-1.0
aF-1.0
asg10
(lp515
F0.001
aF0.006
aF0.005
asba(i__main__
sensor_data_struct
p516
(dp517
g3
(lp518
I693
aI402
aI278
aI1177
aI2543
aF206.0
aI1238
aI583
aI444
aI1887
aI2317
aF193.0
asg5
I0
sg6
(lp519
I31
aI16
aI-1
aI99
aI113
aI-1
asg8
(lp520
I-1
aI-1
aI-1
aF-1.0
aF-1.0
aF-1.0
aI-1
aI-1
aI-1
aF-1.0
aF-1.0
aF-1.0
asg10
(lp521
F-0.001
aF0.009000000000000001
aF0.013000000000000001
asba(i__main__
sensor_data_struct
p522
(dp523
g3
(lp524
I677
aI399
aI272
aI1166
aI2567
aF210.0
aI848
aI458
aI331
aI1374
aI2453
aF205.0
asg5
I0
sg6
(lp525
I23
aI15
aI-1
aI102
aI117
aI-1
asg8
(lp526
I-1
aI-1
aI-1
aF-1.0
aF-1.0
aF-1.0
aI-1
aI-1
aI-1
aF-1.0
aF-1.0
aF-1.0
asg10
(lp527
F-0.008
aF-0.001
aF0.013000000000000001
asba(i__main__
sensor_data_struct
p528
(dp529
g3
(lp530
I659
aI391
aI267
aI1136
aI2576
aF207.0
aI1177
aI557
aI432
aI1782
aI2319
aF180.0
asg5
I0
sg6
(lp531
I76
aI88
aI-1
aI120
aI145
aI-1
asg8
(lp532
I-1
aI-1
aI-1
aF-1.0
aF-1.0
aF-1.0
aI-1
aI-1
aI-1
aF-1.0
aF-1.0
aF-1.0
asg10
(lp533
F0.003
aF0.002
aF0.011000000000000001
asba(i__main__
sensor_data_struct
p534
(dp535
g3
(lp536
I718
aI419
aI292
aI1216
aI2548
aF214.0
aI1037
aI480
aI358
aI1629
aI2370
aF158.0
asg5
I1
sg6
(lp537
I21
aI12
aI-1
aI60
aI60
aI-1
asg8
(lp538
I-1
aI-1
aI-1
aF-1.0
aF-1.0
aF-1.0
aI-1
aI-1
aI-1
aF-1.0
aF-1.0
aF-1.0
asg10
(lp539
F0.003
aF0.011000000000000001
aF0.015
asba(i__main__
sensor_data_struct
p540
(dp541
g3
(lp542
I825
aI468
aI323
aI1383
aI2503
aF234.0
aI826
aI445
aI330
aI1331
aI2466
aF192.0
asg5
I1
sg6
(lp543
I38
aI51
aI-1
aI99
aI108
aI-1
asg8
(lp544
I-1
aI-1
aI-1
aF-1.0
aF-1.0
aF-1.0
aI-1
aI-1
aI-1
aF-1.0
aF-1.0
aF-1.0
asg10
(lp545
F0.009000000000000001
aF-0.001
aF0.013999999999999999
asba(i__main__
sensor_data_struct
p546
(dp547
g3
(lp548
I655
aI391
aI266
aI1131
aI2577
aF209.0
aI1364
aI557
aI452
aI2002
aI2253
aF105.0
asg5
I0
sg6
(lp549
I55
aI50
aI-1
aI129
aI163
aI-1
asg8
(lp550
I-1
aI-1
aI-1
aF-1.0
aF-1.0
aF-1.0
aI-1
aI-1
aI-1
aF-1.0
aF-1.0
aF-1.0
asg10
(lp551
F0.001
aF0.006
aF0.01
asba(i__main__
sensor_data_struct
p552
(dp553
g3
(lp554
I720
aI404
aI282
aI1208
aI2513
aF197.0
aI1315
aI603
aI471
aI1967
aI2288
aF180.0
asg5
I0
sg6
(lp555
I56
aI84
aI-1
aI143
aI197
aI-1
asg8
(lp556
I-1
aI-1
aI-1
aF-1.0
aF-1.0
aF-1.0
aI-1
aI-1
aI-1
aF-1.0
aF-1.0
aF-1.0
asg10
(lp557
F-0.005
aF0.003
aF0.006
asba(i__main__
sensor_data_struct
p558
(dp559
g3
(lp560
I636
aI382
aI259
aI1106
aI2594
aF206.0
aI1108
aI506
aI398
aI1679
aI2329
aF147.0
asg5
I0
sg6
(lp561
I55
aI68
aI-1
aI126
aI149
aI-1
asg8
(lp562
I-1
aI-1
aI-1
aF-1.0
aF-1.0
aF-1.0
aI-1
aI-1
aI-1
aF-1.0
aF-1.0
aF-1.0
asg10
(lp563
F0.008
aF0.002
aF0.011000000000000001
asba(i__main__
sensor_data_struct
p564
(dp565
g3
(lp566
I647
aI385
aI261
aI1120
aI2579
aF206.0
aI889
aI482
aI349
aI1430
aI2435
aF216.0
asg5
I1
sg6
(lp567
I37
aI35
aI-1
aI95
aI104
aI-1
asg8
(lp568
I-1
aI-1
aI-1
aF-1.0
aF-1.0
aF-1.0
aI-1
aI-1
aI-1
aF-1.0
aF-1.0
aF-1.0
asg10
(lp569
F-0.003
aF-0.005
aF0.015
asba(i__main__
sensor_data_struct
p570
(dp571
g3
(lp572
I676
aI398
aI270
aI1164
aI2561
aF211.0
aI1757
aI590
aI510
aI2472
aI2165
aF65524.0
asg5
I0
sg6
(lp573
I56
aI57
aI-1
aI141
aI216
aI-1
asg8
(lp574
I-1
aI-1
aI-1
aF-1.0
aF-1.0
aF-1.0
aI-1
aI-1
aI-1
aF-1.0
aF-1.0
aF-1.0
asg10
(lp575
F-0.001
aF0.006
aF0.004
asba(i__main__
sensor_data_struct
p576
(dp577
g3
(lp578
I669
aI396
aI275
aI1145
aI2576
aF206.0
aI1583
aI665
aI511
aI2375
aI2264
aF161.0
asg5
I1
sg6
(lp579
I24
aI33
aI-1
aI58
aI64
aI-1
asg8
(lp580
I-1
aI-1
aI-1
aF-1.0
aF-1.0
aF-1.0
aI-1
aI-1
aI-1
aF-1.0
aF-1.0
aF-1.0
asg10
(lp581
F0.01
aF0.005
aF0.012
asba(i__main__
sensor_data_struct
p582
(dp583
g3
(lp584
I675
aI395
aI271
aI1158
aI2565
aF205.0
aI1055
aI548
aI406
aI1649
aI2375
aF225.0
asg5
I1
sg6
(lp585
I53
aI59
aI-1
aI105
aI121
aI-1
asg8
(lp586
I-1
aI-1
aI-1
aF-1.0
aF-1.0
aF-1.0
aI-1
aI-1
aI-1
aF-1.0
aF-1.0
aF-1.0
asg10
(lp587
F-0.003
aF-0.002
aF0.013000000000000001
asba(i__main__
sensor_data_struct
p588
(dp589
g3
(lp590
I670
aI397
aI271
aI1155
aI2575
aF210.0
aI3162
aI821
aI791
aI4264
aI2093
aF65227.0
asg5
I1
sg6
(lp591
I43
aI35
aI-1
aI65
aI73
aI-1
asg8
(lp592
I-1
aI-1
aI-1
aF-1.0
aF-1.0
aF-1.0
aI-1
aI-1
aI-1
aF-1.0
aF-1.0
aF-1.0
asg10
(lp593
F0.003
aF0.008
aF0.006
asba(i__main__
sensor_data_struct
p594
(dp595
g3
(lp596
I670
aI402
aI277
aI1153
aI2583
aF214.0
aI1921
aI664
aI557
aI2758
aI2195
aF16.0
asg5
I1
sg6
(lp597
I31
aI38
aI-1
aI60
aI67
aI-1
asg8
(lp598
I-1
aI-1
aI-1
aF-1.0
aF-1.0
aF-1.0
aI-1
aI-1
aI-1
aF-1.0
aF-1.0
aF-1.0
asg10
(lp599
F0.006999999999999999
aF0.006
aF0.01
asba(i__main__
sensor_data_struct
p600
(dp601
g3
(lp602
I727
aI426
aI295
aI1238
aI2554
aF220.0
aI842
aI462
aI344
aI1346
aI2455
aF204.0
asg5
I0
sg6
(lp603
I63
aI64
aI-1
aI121
aI142
aI-1
asg8
(lp604
I-1
aI-1
aI-1
aF-1.0
aF-1.0
aF-1.0
aI-1
aI-1
aI-1
aF-1.0
aF-1.0
aF-1.0
asg10
(lp605
F0.004
aF-0.005
aF0.012
asba.