(lp0
(i__main__
sensor_data_struct
p1
(dp2
S'color'
p3
(lp4
I558
aI339
aI228
aI989
aI2635
aF187.0
aI815
aI432
aI328
aI1297
aI2456
aF177.0
asS'button'
p5
I0
sS'IR'
p6
(lp7
I54
aI64
aI-1
aI115
aI133
aI-1
asS'TOF'
p8
(lp9
I-1
aI-1
aI-1
aF-1.0
aF-1.0
aF-1.0
aI-1
aI-1
aI-1
aF-1.0
aF-1.0
aF-1.0
asS'pt'
p10
(lp11
F0.006
aF-0.003
aF0.013000000000000001
asba(i__main__
sensor_data_struct
p12
(dp13
g3
(lp14
I654
aI388
aI265
aI1126
aI2573
aF206.0
aI867
aI459
aI354
aI1356
aI2428
aF183.0
asg5
I0
sg6
(lp15
I74
aI115
aI-1
aI139
aI181
aI-1
asg8
(lp16
I-1
aI-1
aI-1
aF-1.0
aF-1.0
aF-1.0
aI-1
aI-1
aI-1
aF-1.0
aF-1.0
aF-1.0
asg10
(lp17
F-0.003
aF-0.003
aF0.009000000000000001
asba(i__main__
sensor_data_struct
p18
(dp19
g3
(lp20
I1025
aI528
aI391
aI1607
aI2382
aF214.0
aI765
aI419
aI308
aI1242
aI2480
aF187.0
asg5
I1
sg6
(lp21
I43
aI42
aI-1
aI102
aI116
aI-1
asg8
(lp22
I-1
aI-1
aI-1
aF-1.0
aF-1.0
aF-1.0
aI-1
aI-1
aI-1
aF-1.0
aF-1.0
aF-1.0
asg10
(lp23
F-0.003
aF-0.003
aF0.013999999999999999
asba(i__main__
sensor_data_struct
p24
(dp25
g3
(lp26
I760
aI432
aI300
aI1273
aI2508
aF215.0
aI707
aI394
aI279
aI1180
aI2514
aF188.0
asg5
I1
sg6
(lp27
I18
aI12
aI-1
aI59
aI55
aI-1
asg8
(lp28
I-1
aI-1
aI-1
aF-1.0
aF-1.0
aF-1.0
aI-1
aI-1
aI-1
aF-1.0
aF-1.0
aF-1.0
asg10
(lp29
F-0.009000000000000001
aF-0.004
aF0.013000000000000001
asba(i__main__
sensor_data_struct
p30
(dp31
g3
(lp32
I633
aI375
aI254
aI1097
aI2580
aF200.0
aI1103
aI528
aI402
aI1694
aI2341
aF181.0
asg5
I0
sg6
(lp33
I35
aI21
aI-1
aI108
aI128
aI-1
asg8
(lp34
I-1
aI-1
aI-1
aF-1.0
aF-1.0
aF-1.0
aI-1
aI-1
aI-1
aF-1.0
aF-1.0
aF-1.0
asg10
(lp35
F-0.002
aF0.005
aF0.013000000000000001
asba(i__main__
sensor_data_struct
p36
(dp37
g3
(lp38
I1020
aI536
aI389
aI1620
aI2399
aF230.0
aI969
aI467
aI359
aI1507
aI2383
aF159.0
asg5
I1
sg6
(lp39
I37
aI33
aI-1
aI78
aI85
aI-1
asg8
(lp40
I-1
aI-1
aI-1
aF-1.0
aF-1.0
aF-1.0
aI-1
aI-1
aI-1
aF-1.0
aF-1.0
aF-1.0
asg10
(lp41
F0.003
aF0.006
aF0.015
asba(i__main__
sensor_data_struct
p42
(dp43
g3
(lp44
I680
aI398
aI279
aI1153
aI2557
aF203.0
aI1595
aI623
aI516
aI2297
aI2215
aF87.0
asg5
I0
sg6
(lp45
I65
aI74
aI-1
aI154
aI201
aI-1
asg8
(lp46
I-1
aI-1
aI-1
aF-1.0
aF-1.0
aF-1.0
aI-1
aI-1
aI-1
aF-1.0
aF-1.0
aF-1.0
asg10
(lp47
F0.006999999999999999
aF0.003
aF0.006999999999999999
asba(i__main__
sensor_data_struct
p48
(dp49
g3
(lp50
I664
aI395
aI274
aI1134
aI2571
aF207.0
aI2305
aI677
aI622
aI3157
aI2121
aF65401.0
asg5
I1
sg6
(lp51
I54
aI52
aI-1
aI88
aI98
aI-1
asg8
(lp52
I-1
aI-1
aI-1
aF-1.0
aF-1.0
aF-1.0
aI-1
aI-1
aI-1
aF-1.0
aF-1.0
aF-1.0
asg10
(lp53
F0.004
aF0.006
aF0.006999999999999999
asba(i__main__
sensor_data_struct
p54
(dp55
g3
(lp56
I631
aI380
aI261
aI1092
aI2595
aF203.0
aI1151
aI563
aI409
aI1812
aI2362
aF215.0
asg5
I1
sg6
(lp57
I16
aI6
aI-1
aI59
aI59
aI-1
asg8
(lp58
I-1
aI-1
aI-1
aF-1.0
aF-1.0
aF-1.0
aI-1
aI-1
aI-1
aF-1.0
aF-1.0
aF-1.0
asg10
(lp59
F-0.001
aF0.013000000000000001
aF0.015
asba(i__main__
sensor_data_struct
p60
(dp61
g3
(lp62
I686
aI392
aI275
aI1157
aI2537
aF194.0
aI1225
aI600
aI458
aI1857
aI2313
aF214.0
asg5
I0
sg6
(lp63
I76
aI108
aI-1
aI132
aI165
aI-1
asg8
(lp64
I-1
aI-1
aI-1
aF-1.0
aF-1.0
aF-1.0
aI-1
aI-1
aI-1
aF-1.0
aF-1.0
aF-1.0
asg10
(lp65
F-0.003
aF-0.001
aF0.008
asba(i__main__
sensor_data_struct
p66
(dp67
g3
(lp68
I680
aI397
aI274
aI1160
aI2556
aF205.0
aI1020
aI513
aI386
aI1589
aI2375
aF196.0
asg5
I1
sg6
(lp69
I42
aI41
aI-1
aI94
aI101
aI-1
asg8
(lp70
I-1
aI-1
aI-1
aF-1.0
aF-1.0
aF-1.0
aI-1
aI-1
aI-1
aF-1.0
aF-1.0
aF-1.0
asg10
(lp71
F0.002
aF0.004
aF0.015
asba(i__main__
sensor_data_struct
p72
(dp73
g3
(lp74
I668
aI386
aI266
aI1139
aI2551
aF197.0
aI1142
aI562
aI433
aI1735
aI2330
aF199.0
asg5
I0
sg6
(lp75
I60
aI99
aI-1
aI147
aI194
aI-1
asg8
(lp76
I-1
aI-1
aI-1
aF-1.0
aF-1.0
aF-1.0
aI-1
aI-1
aI-1
aF-1.0
aF-1.0
aF-1.0
asg10
(lp77
F-0.005
aF-0.004
aF0.006
asba(i__main__
sensor_data_struct
p78
(dp79
g3
(lp80
I796
aI442
aI315
aI1309
aI2481
aF208.0
aI789
aI438
aI327
aI1268
aI2476
aF195.0
asg5
I0
sg6
(lp81
I41
aI41
aI-1
aI134
aI166
aI-1
asg8
(lp82
I-1
aI-1
aI-1
aF-1.0
aF-1.0
aF-1.0
aI-1
aI-1
aI-1
aF-1.0
aF-1.0
aF-1.0
asg10
(lp83
F-0.004
aF-0.006
aF0.01
asba(i__main__
sensor_data_struct
p84
(dp85
g3
(lp86
I654
aI383
aI261
aI1124
aI2560
aF201.0
aI1137
aI528
aI413
aI1717
aI2318
aF161.0
asg5
I0
sg6
(lp87
I64
aI79
aI-1
aI134
aI174
aI-1
asg8
(lp88
I-1
aI-1
aI-1
aF-1.0
aF-1.0
aF-1.0
aI-1
aI-1
aI-1
aF-1.0
aF-1.0
aF-1.0
asg10
(lp89
F-0.003
aF0.002
aF0.009000000000000001
asba(i__main__
sensor_data_struct
p90
(dp91
g3
(lp92
I738
aI406
aI287
aI1226
aI2499
aF191.0
aI1353
aI596
aI472
aI2004
aI2269
aF155.0
asg5
I0
sg6
(lp93
I51
aI180
aI-1
aI132
aI231
aI-1
asg8
(lp94
I-1
aI-1
aI-1
aF-1.0
aF-1.0
aF-1.0
aI-1
aI-1
aI-1
aF-1.0
aF-1.0
aF-1.0
asg10
(lp95
F-0.006
aF0.003
aF0.003
asba(i__main__
sensor_data_struct
p96
(dp97
g3
(lp98
I626
aI373
aI255
aI1086
aI2593
aF198.0
aI1042
aI537
aI404
aI1615
aI2367
aF213.0
asg5
I0
sg6
(lp99
I84
aI61
aI-1
aI150
aI178
aI-1
asg8
(lp100
I-1
aI-1
aI-1
aF-1.0
aF-1.0
aF-1.0
aI-1
aI-1
aI-1
aF-1.0
aF-1.0
aF-1.0
asg10
(lp101
F0.008
aF-0.006
aF0.009000000000000001
asba(i__main__
sensor_data_struct
p102
(dp103
g3
(lp104
I635
aI376
aI255
aI1099
aI2578
aF200.0
aI974
aI509
aI392
aI1504
aI2390
aF200.0
asg5
I0
sg6
(lp105
I100
aI106
aI-1
aI154
aI196
aI-1
asg8
(lp106
I-1
aI-1
aI-1
aF-1.0
aF-1.0
aF-1.0
aI-1
aI-1
aI-1
aF-1.0
aF-1.0
aF-1.0
asg10
(lp107
F0.0
aF-0.006
aF0.008
asba(i__main__
sensor_data_struct
p108
(dp109
g3
(lp110
I671
aI395
aI272
aI1149
aI2566
aF206.0
aI1319
aI532
aI439
aI1929
aI2257
aF90.0
asg5
I0
sg6
(lp111
I58
aI65
aI-1
aI134
aI167
aI-1
asg8
(lp112
I-1
aI-1
aI-1
aF-1.0
aF-1.0
aF-1.0
aI-1
aI-1
aI-1
aF-1.0
aF-1.0
aF-1.0
asg10
(lp113
F0.005
aF0.003
aF0.01
asba(i__main__
sensor_data_struct
p114
(dp115
g3
(lp116
I716
aI416
aI293
aI1206
aI2545
aF209.0
aI1881
aI604
aI535
aI2616
aI2146
aF65488.0
asg5
I0
sg6
(lp117
I84
aI98
aI-1
aI134
aI223
aI-1
asg8
(lp118
I-1
aI-1
aI-1
aF-1.0
aF-1.0
aF-1.0
aI-1
aI-1
aI-1
aF-1.0
aF-1.0
aF-1.0
asg10
(lp119
F0.004
aF0.002
aF0.001
asba(i__main__
sensor_data_struct
p120
(dp121
g3
(lp122
I675
aI396
aI275
aI1149
aI2559
aF204.0
aI794
aI433
aI322
aI1279
aI2472
aF189.0
asg5
I0
sg6
(lp123
I57
aI71
aI-1
aI108
aI124
aI-1
asg8
(lp124
I-1
aI-1
aI-1
aF-1.0
aF-1.0
aF-1.0
aI-1
aI-1
aI-1
aF-1.0
aF-1.0
aF-1.0
asg10
(lp125
F-0.004
aF-0.003
aF0.01
asba(i__main__
sensor_data_struct
p126
(dp127
g3
(lp128
I668
aI390
aI270
aI1139
aI2559
aF201.0
aI1173
aI593
aI444
aI1803
aI2337
aF230.0
asg5
I1
sg6
(lp129
I68
aI78
aI-1
aI113
aI132
aI-1
asg8
(lp130
I-1
aI-1
aI-1
aF-1.0
aF-1.0
aF-1.0
aI-1
aI-1
aI-1
aF-1.0
aF-1.0
aF-1.0
asg10
(lp131
F0.001
aF-0.003
aF0.013000000000000001
asba(i__main__
sensor_data_struct
p132
(dp133
g3
(lp134
I653
aI385
aI262
aI1125
aI2569
aF203.0
aI1093
aI519
aI397
aI1674
aI2337
aF173.0
asg5
I0
sg6
(lp135
I37
aI34
aI-1
aI129
aI166
aI-1
asg8
(lp136
I-1
aI-1
aI-1
aF-1.0
aF-1.0
aF-1.0
aI-1
aI-1
aI-1
aF-1.0
aF-1.0
aF-1.0
asg10
(lp137
F-0.005
aF0.004
aF0.01
asba(i__main__
sensor_data_struct
p138
(dp139
g3
(lp140
I654
aI389
aI265
aI1128
aI2573
aF207.0
aI1295
aI565
aI430
aI1971
aI2299
aF156.0
asg5
I1
sg6
(lp141
I26
aI13
aI-1
aI61
aI62
aI-1
asg8
(lp142
I-1
aI-1
aI-1
aF-1.0
aF-1.0
aF-1.0
aI-1
aI-1
aI-1
aF-1.0
aF-1.0
aF-1.0
asg10
(lp143
F0.002
aF0.01
aF0.012
asba(i__main__
sensor_data_struct
p144
(dp145
g3
(lp146
I701
aI415
aI286
aI1200
aI2565
aF218.0
aI1410
aI539
aI452
aI2048
aI2243
aF62.0
asg5
I0
sg6
(lp147
I41
aI52
aI-1
aI134
aI163
aI-1
asg8
(lp148
I-1
aI-1
aI-1
aF-1.0
aF-1.0
aF-1.0
aI-1
aI-1
aI-1
aF-1.0
aF-1.0
aF-1.0
asg10
(lp149
F0.009000000000000001
aF0.004
aF0.01
asba(i__main__
sensor_data_struct
p150
(dp151
g3
(lp152
I687
aI405
aI281
aI1173
aI2565
aF210.0
aI811
aI447
aI327
aI1312
aI2469
aF202.0
asg5
I1
sg6
(lp153
I46
aI48
aI-1
aI103
aI119
aI-1
asg8
(lp154
I-1
aI-1
aI-1
aF-1.0
aF-1.0
aF-1.0
aI-1
aI-1
aI-1
aF-1.0
aF-1.0
aF-1.0
asg10
(lp155
F-0.001
aF-0.005
aF0.013999999999999999
asba(i__main__
sensor_data_struct
p156
(dp157
g3
(lp158
I781
aI446
aI310
aI1309
aI2510
aF223.0
aI923
aI490
aI363
aI1462
aI2415
aF208.0
asg5
I1
sg6
(lp159
I54
aI64
aI-1
aI97
aI106
aI-1
asg8
(lp160
I-1
aI-1
aI-1
aF-1.0
aF-1.0
aF-1.0
aI-1
aI-1
aI-1
aF-1.0
aF-1.0
aF-1.0
asg10
(lp161
F0.003
aF-0.002
aF0.015
asba(i__main__
sensor_data_struct
p162
(dp163
g3
(lp164
I737
aI427
aI296
aI1247
aI2538
aF218.0
aI774
aI428
aI308
aI1266
aI2477
aF198.0
asg5
I1
sg6
(lp165
I35
aI31
aI-1
aI100
aI114
aI-1
asg8
(lp166
I-1
aI-1
aI-1
aF-1.0
aF-1.0
aF-1.0
aI-1
aI-1
aI-1
aF-1.0
aF-1.0
aF-1.0
asg10
(lp167
F-0.005
aF-0.004
aF0.013999999999999999
asba(i__main__
sensor_data_struct
p168
(dp169
g3
(lp170
I642
aI382
aI259
aI1114
aI2585
aF204.0
aI1053
aI543
aI407
aI1635
aI2368
aF217.0
asg5
I0
sg6
(lp171
I50
aI57
aI-1
aI124
aI145
aI-1
asg8
(lp172
I-1
aI-1
aI-1
aF-1.0
aF-1.0
aF-1.0
aI-1
aI-1
aI-1
aF-1.0
aF-1.0
aF-1.0
asg10
(lp173
F0.006
aF-0.005
aF0.012
asba(i__main__
sensor_data_struct
p174
(dp175
g3
(lp176
I660
aI387
aI265
aI1134
aI2565
aF202.0
aI1140
aI542
aI429
aI1708
aI2316
aF171.0
asg5
I0
sg6
(lp177
I97
aI172
aI-1
aI154
aI210
aI-1
asg8
(lp178
I-1
aI-1
aI-1
aF-1.0
aF-1.0
aF-1.0
aI-1
aI-1
aI-1
aF-1.0
aF-1.0
aF-1.0
asg10
(lp179
F-0.002
aF-0.001
aF0.006
asba(i__main__
sensor_data_struct
p180
(dp181
g3
(lp182
I708
aI407
aI284
aI1195
aI2535
aF204.0
aI865
aI452
aI330
aI1387
aI2427
aF191.0
asg5
I1
sg6
(lp183
I33
aI20
aI-1
aI101
aI116
aI-1
asg8
(lp184
I-1
aI-1
aI-1
aF-1.0
aF-1.0
aF-1.0
aI-1
aI-1
aI-1
aF-1.0
aF-1.0
aF-1.0
asg10
(lp185
F-0.006
aF0.002
aF0.013000000000000001
asba(i__main__
sensor_data_struct
p186
(dp187
g3
(lp188
I808
aI451
aI314
aI1342
aI2485
aF219.0
aI857
aI447
aI330
aI1368
aI2427
aF185.0
asg5
I1
sg6
(lp189
I38
aI32
aI-1
aI93
aI107
aI-1
asg8
(lp190
I-1
aI-1
aI-1
aF-1.0
aF-1.0
aF-1.0
aI-1
aI-1
aI-1
aF-1.0
aF-1.0
aF-1.0
asg10
(lp191
F-0.002
aF0.001
aF0.015
asba(i__main__
sensor_data_struct
p192
(dp193
g3
(lp194
I835
aI467
aI327
aI1379
aI2474
aF226.0
aI902
aI470
aI346
aI1435
aI2417
aF195.0
asg5
I1
sg6
(lp195
I35
aI24
aI-1
aI99
aI113
aI-1
asg8
(lp196
I-1
aI-1
aI-1
aF-1.0
aF-1.0
aF-1.0
aI-1
aI-1
aI-1
aF-1.0
aF-1.0
aF-1.0
asg10
(lp197
F-0.005
aF0.001
aF0.013999999999999999
asba(i__main__
sensor_data_struct
p198
(dp199
g3
(lp200
I722
aI416
aI285
aI1228
aI2537
aF213.0
aI911
aI485
aI360
aI1442
aI2416
aF206.0
asg5
I0
sg6
(lp201
I49
aI56
aI-1
aI122
aI148
aI-1
asg8
(lp202
I-1
aI-1
aI-1
aF-1.0
aF-1.0
aF-1.0
aI-1
aI-1
aI-1
aF-1.0
aF-1.0
aF-1.0
asg10
(lp203
F-0.005
aF-0.004
aF0.011000000000000001
asba(i__main__
sensor_data_struct
p204
(dp205
g3
(lp206
I665
aI389
aI265
aI1145
aI2564
aF204.0
aI1124
aI525
aI405
aI1711
aI2326
aF167.0
asg5
I0
sg6
(lp207
I46
aI39
aI-1
aI133
aI175
aI-1
asg8
(lp208
I-1
aI-1
aI-1
aF-1.0
aF-1.0
aF-1.0
aI-1
aI-1
aI-1
aF-1.0
aF-1.0
aF-1.0
asg10
(lp209
F-0.005
aF0.004
aF0.009000000000000001
asba(i__main__
sensor_data_struct
p210
(dp211
g3
(lp212
I655
aI388
aI264
aI1131
aI2573
aF206.0
aI1357
aI543
aI452
aI1973
aI2248
aF85.0
asg5
I0
sg6
(lp213
I68
aI77
aI-1
aI149
aI192
aI-1
asg8
(lp214
I-1
aI-1
aI-1
aF-1.0
aF-1.0
aF-1.0
aI-1
aI-1
aI-1
aF-1.0
aF-1.0
aF-1.0
asg10
(lp215
F0.006
aF0.002
aF0.008
asba(i__main__
sensor_data_struct
p216
(dp217
g3
(lp218
I654
aI380
aI259
aI1122
aI2556
aF197.0
aI1100
aI550
aI417
aI1692
aI2350
aF205.0
asg5
I0
sg6
(lp219
I31
aI34
aI-1
aI138
aI181
aI-1
asg8
(lp220
I-1
aI-1
aI-1
aF-1.0
aF-1.0
aF-1.0
aI-1
aI-1
aI-1
aF-1.0
aF-1.0
aF-1.0
asg10
(lp221
F-0.008
aF-0.002
aF0.009000000000000001
asba(i__main__
sensor_data_struct
p222
(dp223
g3
(lp224
I675
aI393
aI268
aI1157
aI2554
aF205.0
aI952
aI456
aI342
aI1522
aI2427
aF160.0
asg5
I1
sg6
(lp225
I15
aI15
aI-1
aI56
aI62
aI-1
asg8
(lp226
I-1
aI-1
aI-1
aF-1.0
aF-1.0
aF-1.0
aI-1
aI-1
aI-1
aF-1.0
aF-1.0
aF-1.0
asg10
(lp227
F0.006999999999999999
aF0.011000000000000001
aF0.015
asba(i__main__
sensor_data_struct
p228
(dp229
g3
(lp230
I754
aI440
aI303
aI1282
aI2545
aF227.0
aI853
aI450
aI337
aI1354
aI2432
aF186.0
asg5
I0
sg6
(lp231
I56
aI62
aI-1
aI110
aI128
aI-1
asg8
(lp232
I-1
aI-1
aI-1
aF-1.0
aF-1.0
aF-1.0
aI-1
aI-1
aI-1
aF-1.0
aF-1.0
aF-1.0
asg10
(lp233
F-0.002
aF0.0
aF0.013000000000000001
asba(i__main__
sensor_data_struct
p234
(dp235
g3
(lp236
I689
aI407
aI280
aI1181
aI2568
aF213.0
aI1446
aI575
aI469
aI2116
aI2244
aF94.0
asg5
I1
sg6
(lp237
I50
aI44
aI-1
aI93
aI103
aI-1
asg8
(lp238
I-1
aI-1
aI-1
aF-1.0
aF-1.0
aF-1.0
aI-1
aI-1
aI-1
aF-1.0
aF-1.0
aF-1.0
asg10
(lp239
F0.003
aF0.006
aF0.011000000000000001
asba(i__main__
sensor_data_struct
p240
(dp241
g3
(lp242
I660
aI392
aI269
aI1135
aI2573
aF207.0
aI728
aI404
aI285
aI1214
aI2509
aF192.0
asg5
I1
sg6
(lp243
I17
aI5
aI-1
aI56
aI57
aI-1
asg8
(lp244
I-1
aI-1
aI-1
aF-1.0
aF-1.0
aF-1.0
aI-1
aI-1
aI-1
aF-1.0
aF-1.0
aF-1.0
asg10
(lp245
F-0.011000000000000001
aF0.005
aF0.013999999999999999
asba(i__main__
sensor_data_struct
p246
(dp247
g3
(lp248
I659
aI391
aI263
aI1148
aI2586
aF210.0
aI800
aI450
aI333
aI1292
aI2484
aF206.0
asg5
I0
sg6
(lp249
I66
aI53
aI-1
aI135
aI162
aI-1
asg8
(lp250
I-1
aI-1
aI-1
aF-1.0
aF-1.0
aF-1.0
aI-1
aI-1
aI-1
aF-1.0
aF-1.0
aF-1.0
asg10
(lp251
F0.001
aF-0.008
aF0.01
asba(i__main__
sensor_data_struct
p252
(dp253
g3
(lp254
I732
aI406
aI285
aI1224
aI2510
aF194.0
aI1386
aI628
aI492
aI2064
aI2277
aF181.0
asg5
I0
sg6
(lp255
I47
aI41
aI-1
aI138
aI189
aI-1
asg8
(lp256
I-1
aI-1
aI-1
aF-1.0
aF-1.0
aF-1.0
aI-1
aI-1
aI-1
aF-1.0
aF-1.0
aF-1.0
asg10
(lp257
F-0.005
aF0.006
aF0.008
asba(i__main__
sensor_data_struct
p258
(dp259
g3
(lp260
I629
aI380
aI258
aI1097
aI2602
aF206.0
aI1065
aI491
aI388
aI1614
aI2335
aF145.0
asg5
I0
sg6
(lp261
I74
aI82
aI-1
aI145
aI177
aI-1
asg8
(lp262
I-1
aI-1
aI-1
aF-1.0
aF-1.0
aF-1.0
aI-1
aI-1
aI-1
aF-1.0
aF-1.0
aF-1.0
asg10
(lp263
F0.01
aF0.0
aF0.009000000000000001
asba(i__main__
sensor_data_struct
p264
(dp265
g3
(lp266
I812
aI428
aI312
aI1314
aI2452
aF183.0
aI1643
aI659
aI535
aI2374
aI2211
aF115.0
asg5
I0
sg6
(lp267
I63
aI67
aI-1
aI149
aI204
aI-1
asg8
(lp268
I-1
aI-1
aI-1
aF-1.0
aF-1.0
aF-1.0
aI-1
aI-1
aI-1
aF-1.0
aF-1.0
aF-1.0
asg10
(lp269
F0.001
aF0.006
aF0.006
asba(i__main__
sensor_data_struct
p270
(dp271
g3
(lp272
I702
aI406
aI283
aI1188
aI2544
aF205.0
aI771
aI431
aI313
aI1261
aI2491
aF200.0
asg5
I1
sg6
(lp273
I33
aI34
aI-1
aI102
aI116
aI-1
asg8
(lp274
I-1
aI-1
aI-1
aF-1.0
aF-1.0
aF-1.0
aI-1
aI-1
aI-1
aF-1.0
aF-1.0
aF-1.0
asg10
(lp275
F-0.001
aF-0.006
aF0.013999999999999999
asba(i__main__
sensor_data_struct
p276
(dp277
g3
(lp278
I715
aI411
aI290
aI1201
aI2537
aF204.0
aI1477
aI616
aI489
aI2177
aI2248
aF134.0
asg5
I1
sg6
(lp279
I42
aI38
aI-1
aI83
aI93
aI-1
asg8
(lp280
I-1
aI-1
aI-1
aF-1.0
aF-1.0
aF-1.0
aI-1
aI-1
aI-1
aF-1.0
aF-1.0
aF-1.0
asg10
(lp281
F0.004
aF0.006
aF0.012
asba(i__main__
sensor_data_struct
p282
(dp283
g3
(lp284
I1043
aI515
aI384
aI1632
aI2373
aF193.0
aI1221
aI497
aI391
aI1839
aI2289
aF101.0
asg5
I1
sg6
(lp285
I29
aI15
aI-1
aI62
aI64
aI-1
asg8
(lp286
I-1
aI-1
aI-1
aF-1.0
aF-1.0
aF-1.0
aI-1
aI-1
aI-1
aF-1.0
aF-1.0
aF-1.0
asg10
(lp287
F0.002
aF0.01
aF0.013000000000000001
asba(i__main__
sensor_data_struct
p288
(dp289
g3
(lp290
I684
aI409
aI281
aI1178
aI2580
aF217.0
aI1358
aI549
aI452
aI1988
aI2258
aF94.0
asg5
I0
sg6
(lp291
I53
aI60
aI-1
aI134
aI165
aI-1
asg8
(lp292
I-1
aI-1
aI-1
aF-1.0
aF-1.0
aF-1.0
aI-1
aI-1
aI-1
aF-1.0
aF-1.0
aF-1.0
asg10
(lp293
F0.006999999999999999
aF0.004
aF0.01
asba(i__main__
sensor_data_struct
p294
(dp295
g3
(lp296
I655
aI386
aI265
aI1125
aI2571
aF202.0
aI1034
aI530
aI409
aI1583
aI2362
aF201.0
asg5
I0
sg6
(lp297
I131
aI104
aI-1
aI158
aI202
aI-1
asg8
(lp298
I-1
aI-1
aI-1
aF-1.0
aF-1.0
aF-1.0
aI-1
aI-1
aI-1
aF-1.0
aF-1.0
aF-1.0
asg10
(lp299
F0.0
aF-0.006
aF0.006999999999999999
asba(i__main__
sensor_data_struct
p300
(dp301
g3
(lp302
I816
aI457
aI327
aI1341
aI2489
aF217.0
aI785
aI440
aI325
aI1270
aI2483
aF201.0
asg5
I0
sg6
(lp303
I65
aI63
aI-1
aI127
aI152
aI-1
asg8
(lp304
I-1
aI-1
aI-1
aF-1.0
aF-1.0
aF-1.0
aI-1
aI-1
aI-1
aF-1.0
aF-1.0
aF-1.0
asg10
(lp305
F-0.002
aF-0.008
aF0.011000000000000001
asba(i__main__
sensor_data_struct
p306
(dp307
g3
(lp308
I652
aI390
aI265
aI1130
aI2586
aF209.0
aI1115
aI542
aI410
aI1717
aI2343
aF193.0
asg5
I0
sg6
(lp309
I31
aI42
aI-1
aI101
aI113
aI-1
asg8
(lp310
I-1
aI-1
aI-1
aF-1.0
aF-1.0
aF-1.0
aI-1
aI-1
aI-1
aF-1.0
aF-1.0
aF-1.0
asg10
(lp311
F0.006999999999999999
aF0.004
aF0.013999999999999999
asba(i__main__
sensor_data_struct
p312
(dp313
g3
(lp314
I715
aI420
aI293
aI1212
aI2552
aF216.0
aI2161
aI665
aI602
aI2984
aI2137
aF65444.0
asg5
I0
sg6
(lp315
I72
aI78
aI-1
aI154
aI220
aI-1
asg8
(lp316
I-1
aI-1
aI-1
aF-1.0
aF-1.0
aF-1.0
aI-1
aI-1
aI-1
aF-1.0
aF-1.0
aF-1.0
asg10
(lp317
F0.005
aF0.004
aF0.004
asba(i__main__
sensor_data_struct
p318
(dp319
g3
(lp320
I666
aI397
aI275
aI1141
aI2578
aF209.0
aI1515
aI607
aI497
aI2202
aI2233
aF102.0
asg5
I0
sg6
(lp321
I53
aI61
aI-1
aI143
aI177
aI-1
asg8
(lp322
I-1
aI-1
aI-1
aF-1.0
aF-1.0
aF-1.0
aI-1
aI-1
aI-1
aF-1.0
aF-1.0
aF-1.0
asg10
(lp323
F0.009000000000000001
aF0.004
aF0.009000000000000001
asba(i__main__
sensor_data_struct
p324
(dp325
g3
(lp326
I643
aI381
aI259
aI1113
aI2579
aF203.0
aI957
aI492
aI373
aI1495
aI2398
aF192.0
asg5
I0
sg6
(lp327
I38
aI57
aI-1
aI141
aI215
aI-1
asg8
(lp328
I-1
aI-1
aI-1
aF-1.0
aF-1.0
aF-1.0
aI-1
aI-1
aI-1
aF-1.0
aF-1.0
aF-1.0
asg10
(lp329
F-0.008
aF0.003
aF0.006
asba(i__main__
sensor_data_struct
p330
(dp331
g3
(lp332
I634
aI380
aI258
aI1103
aI2596
aF205.0
aI1096
aI499
aI397
aI1654
aI2328
aF141.0
asg5
I0
sg6
(lp333
I76
aI81
aI-1
aI150
aI185
aI-1
asg8
(lp334
I-1
aI-1
aI-1
aF-1.0
aF-1.0
aF-1.0
aI-1
aI-1
aI-1
aF-1.0
aF-1.0
aF-1.0
asg10
(lp335
F0.009000000000000001
aF0.0
aF0.008
asba(i__main__
sensor_data_struct
p336
(dp337
g3
(lp338
I671
aI395
aI273
aI1148
aI2568
aF205.0
aI1187
aI577
aI447
aI1798
aI2326
aF198.0
asg5
I0
sg6
(lp339
I82
aI102
aI-1
aI135
aI169
aI-1
asg8
(lp340
I-1
aI-1
aI-1
aF-1.0
aF-1.0
aF-1.0
aI-1
aI-1
aI-1
aF-1.0
aF-1.0
aF-1.0
asg10
(lp341
F0.001
aF-0.001
aF0.01
asba(i__main__
sensor_data_struct
p342
(dp343
g3
(lp344
I700
aI408
aI283
aI1192
aI2557
aF209.0
aI875
aI487
aI374
aI1369
aI2442
aF210.0
asg5
I0
sg6
(lp345
I197
aI83
aI-1
aI168
aI213
aI-1
asg8
(lp346
I-1
aI-1
aI-1
aF-1.0
aF-1.0
aF-1.0
aI-1
aI-1
aI-1
aF-1.0
aF-1.0
aF-1.0
asg10
(lp347
F0.002
aF-0.006999999999999999
aF0.005
asba(i__main__
sensor_data_struct
p348
(dp349
g3
(lp350
I727
aI413
aI293
aI1210
aI2516
aF201.0
aI1495
aI599
aI489
aI2167
aI2222
aF102.0
asg5
I0
sg6
(lp351
I117
aI116
aI-1
aI147
aI224
aI-1
asg8
(lp352
I-1
aI-1
aI-1
aF-1.0
aF-1.0
aF-1.0
aI-1
aI-1
aI-1
aF-1.0
aF-1.0
aF-1.0
asg10
(lp353
F0.006
aF0.0
aF0.002
asba(i__main__
sensor_data_struct
p354
(dp355
g3
(lp356
I670
aI392
aI272
aI1142
aI2559
aF202.0
aI1176
aI569
aI441
aI1774
aI2314
aF193.0
asg5
I0
sg6
(lp357
I173
aI86
aI-1
aI169
aI215
aI-1
asg8
(lp358
I-1
aI-1
aI-1
aF-1.0
aF-1.0
aF-1.0
aI-1
aI-1
aI-1
aF-1.0
aF-1.0
aF-1.0
asg10
(lp359
F0.005
aF-0.006
aF0.005
asba(i__main__
sensor_data_struct
p360
(dp361
g3
(lp362
I771
aI438
aI311
aI1280
aI2508
aF213.0
aI725
aI414
aI295
aI1205
aI2519
aF202.0
asg5
I1
sg6
(lp363
I30
aI38
aI-1
aI78
aI61
aI-1
asg8
(lp364
I-1
aI-1
aI-1
aF-1.0
aF-1.0
aF-1.0
aI-1
aI-1
aI-1
aF-1.0
aF-1.0
aF-1.0
asg10
(lp365
F0.006999999999999999
aF-0.006999999999999999
aF0.015
asba(i__main__
sensor_data_struct
p366
(dp367
g3
(lp368
I677
aI396
aI269
aI1164
aI2557
aF208.0
aI1057
aI539
aI419
aI1609
aI2354
aF200.0
asg5
I0
sg6
(lp369
I167
aI127
aI-1
aI167
aI222
aI-1
asg8
(lp370
I-1
aI-1
aI-1
aF-1.0
aF-1.0
aF-1.0
aI-1
aI-1
aI-1
aF-1.0
aF-1.0
aF-1.0
asg10
(lp371
F0.0
aF-0.006
aF0.005
asba(i__main__
sensor_data_struct
p372
(dp373
g3
(lp374
I672
aI387
aI267
aI1143
aI2545
aF197.0
aI1209
aI586
aI453
aI1826
aI2314
aF200.0
asg5
I0
sg6
(lp375
I59
aI91
aI-1
aI149
aI199
aI-1
asg8
(lp376
I-1
aI-1
aI-1
aF-1.0
aF-1.0
aF-1.0
aI-1
aI-1
aI-1
aF-1.0
aF-1.0
aF-1.0
asg10
(lp377
F-0.006
aF-0.006
aF0.006
asba(i__main__
sensor_data_struct
p378
(dp379
g3
(lp380
I671
aI391
aI267
aI1149
aI2551
aF203.0
aI906
aI458
aI340
aI1435
aI2407
aF179.0
asg5
I1
sg6
(lp381
I40
aI17
aI-1
aI99
aI113
aI-1
asg8
(lp382
I-1
aI-1
aI-1
aF-1.0
aF-1.0
aF-1.0
aI-1
aI-1
aI-1
aF-1.0
aF-1.0
aF-1.0
asg10
(lp383
F-0.004
aF0.004
aF0.013999999999999999
asba(i__main__
sensor_data_struct
p384
(dp385
g3
(lp386
I806
aI452
aI315
aI1340
aI2489
aF221.0
aI1091
aI500
aI386
aI1664
aI2328
aF152.0
asg5
I0
sg6
(lp387
I40
aI26
aI-1
aI123
aI156
aI-1
asg8
(lp388
I-1
aI-1
aI-1
aF-1.0
aF-1.0
aF-1.0
aI-1
aI-1
aI-1
aF-1.0
aF-1.0
aF-1.0
asg10
(lp389
F-0.005
aF0.006999999999999999
aF0.01
asba(i__main__
sensor_data_struct
p390
(dp391
g3
(lp392
I642
aI387
aI266
aI1111
aI2596
aF207.0
aI1095
aI556
aI412
aI1706
aI2363
aF220.0
asg5
I1
sg6
(lp393
I28
aI41
aI-1
aI94
aI100
aI-1
asg8
(lp394
I-1
aI-1
aI-1
aF-1.0
aF-1.0
aF-1.0
aI-1
aI-1
aI-1
aF-1.0
aF-1.0
aF-1.0
asg10
(lp395
F0.009000000000000001
aF0.004
aF0.015
asba(i__main__
sensor_data_struct
p396
(dp397
g3
(lp398
I653
aI390
aI266
aI1127
aI2577
aF208.0
aI707
aI397
aI281
aI1179
aI2513
aF191.0
asg5
I1
sg6
(lp399
I22
aI17
aI-1
aI93
aI102
aI-1
asg8
(lp400
I-1
aI-1
aI-1
aF-1.0
aF-1.0
aF-1.0
aI-1
aI-1
aI-1
aF-1.0
aF-1.0
aF-1.0
asg10
(lp401
F-0.008
aF-0.006
aF0.015
asba(i__main__
sensor_data_struct
p402
(dp403
g3
(lp404
I672
aI398
aI276
aI1147
aI2567
aF208.0
aI1496
aI618
aI502
aI2181
aI2239
aF122.0
asg5
I0
sg6
(lp405
I56
aI66
aI-1
aI147
aI187
aI-1
asg8
(lp406
I-1
aI-1
aI-1
aF-1.0
aF-1.0
aF-1.0
aI-1
aI-1
aI-1
aF-1.0
aF-1.0
aF-1.0
asg10
(lp407
F0.006999999999999999
aF0.003
aF0.008
asba(i__main__
sensor_data_struct
p408
(dp409
g3
(lp410
I669
aI390
aI268
aI1142
aI2553
aF202.0
aI1141
aI572
aI431
aI1755
aI2344
aF216.0
asg5
I0
sg6
(lp411
I45
aI41
aI-1
aI114
aI137
aI-1
asg8
(lp412
I-1
aI-1
aI-1
aF-1.0
aF-1.0
aF-1.0
aI-1
aI-1
aI-1
aF-1.0
aF-1.0
aF-1.0
asg10
(lp413
F-0.004
aF0.0
aF0.012
asba(i__main__
sensor_data_struct
p414
(dp415
g3
(lp416
I706
aI408
aI281
aI1204
aI2550
aF209.0
aI817
aI453
aI322
aI1338
aI2467
aF214.0
asg5
I1
sg6
(lp417
I26
aI23
aI-1
aI86
aI91
aI-1
asg8
(lp418
I-1
aI-1
aI-1
aF-1.0
aF-1.0
aF-1.0
aI-1
aI-1
aI-1
aF-1.0
aF-1.0
aF-1.0
asg10
(lp419
F-0.005
aF-0.008
aF0.015
asba(i__main__
sensor_data_struct
p420
(dp421
g3
(lp422
I671
aI395
aI267
aI1161
aI2569
aF210.0
aI1018
aI523
aI400
aI1570
aI2374
aF202.0
asg5
I0
sg6
(lp423
I89
aI98
aI-1
aI137
aI168
aI-1
asg8
(lp424
I-1
aI-1
aI-1
aF-1.0
aF-1.0
aF-1.0
aI-1
aI-1
aI-1
aF-1.0
aF-1.0
aF-1.0
asg10
(lp425
F0.001
aF-0.004
aF0.01
asba(i__main__
sensor_data_struct
p426
(dp427
g3
(lp428
I755
aI421
aI302
aI1243
aI2495
aF198.0
aI1361
aI619
aI488
aI2014
aI2267
aF177.0
asg5
I0
sg6
(lp429
I116
aI213
aI-1
aI155
aI219
aI-1
asg8
(lp430
I-1
aI-1
aI-1
aF-1.0
aF-1.0
aF-1.0
aI-1
aI-1
aI-1
aF-1.0
aF-1.0
aF-1.0
asg10
(lp431
F-0.002
aF-0.002
aF0.005
asba(i__main__
sensor_data_struct
p432
(dp433
g3
(lp434
I729
aI415
aI292
aI1221
aI2524
aF204.0
aI873
aI472
aI343
aI1405
aI2442
aF210.0
asg5
I1
sg6
(lp435
I42
aI40
aI-1
aI93
aI103
aI-1
asg8
(lp436
I-1
aI-1
aI-1
aF-1.0
aF-1.0
aF-1.0
aI-1
aI-1
aI-1
aF-1.0
aF-1.0
aF-1.0
asg10
(lp437
F-0.004
aF-0.003
aF0.015
asba(i__main__
sensor_data_struct
p438
(dp439
g3
(lp440
I664
aI390
aI267
aI1140
aI2565
aF204.0
aI1137
aI571
aI435
aI1736
aI2337
aF213.0
asg5
I0
sg6
(lp441
I122
aI84
aI-1
aI147
aI179
aI-1
asg8
(lp442
I-1
aI-1
aI-1
aF-1.0
aF-1.0
aF-1.0
aI-1
aI-1
aI-1
aF-1.0
aF-1.0
aF-1.0
asg10
(lp443
F0.002
aF-0.006999999999999999
aF0.009000000000000001
asba(i__main__
sensor_data_struct
p444
(dp445
g3
(lp446
I652
aI385
aI260
aI1130
aI2576
aF205.0
aI706
aI396
aI274
aI1191
aI2520
aF195.0
asg5
I1
sg6
(lp447
I11
aI6
aI-1
aI56
aI59
aI-1
asg8
(lp448
I-1
aI-1
aI-1
aF-1.0
aF-1.0
aF-1.0
aI-1
aI-1
aI-1
aF-1.0
aF-1.0
aF-1.0
asg10
(lp449
F-0.012
aF-0.003
aF0.013000000000000001
asba(i__main__
sensor_data_struct
p450
(dp451
g3
(lp452
I626
aI378
aI255
aI1095
aI2602
aF206.0
aI728
aI429
aI286
aI1242
aI2519
aF231.0
asg5
I1
sg6
(lp453
I2
aI6
aI-1
aI26
aI21
aI-1
asg8
(lp454
I-1
aI-1
aI-1
aF-1.0
aF-1.0
aF-1.0
aI-1
aI-1
aI-1
aF-1.0
aF-1.0
aF-1.0
asg10
(lp455
F0.012
aF-0.001
aF0.013000000000000001
asba(i__main__
sensor_data_struct
p456
(dp457
g3
(lp458
I672
aI386
aI270
aI1146
aI2564
aF193.0
aI3663
aI909
aI883
aI4910
aI2077
aF65136.0
asg5
I1
sg6
(lp459
I51
aI53
aI-1
aI64
aI72
aI-1
asg8
(lp460
I-1
aI-1
aI-1
aF-1.0
aF-1.0
aF-1.0
aI-1
aI-1
aI-1
aF-1.0
aF-1.0
aF-1.0
asg10
(lp461
F0.004
aF0.008
aF0.006999999999999999
asba(i__main__
sensor_data_struct
p462
(dp463
g3
(lp464
I788
aI433
aI309
aI1305
aI2501
aF201.0
aI731
aI410
aI296
aI1206
aI2510
aF193.0
asg5
I1
sg6
(lp465
I45
aI41
aI-1
aI93
aI103
aI-1
asg8
(lp466
I-1
aI-1
aI-1
aF-1.0
aF-1.0
aF-1.0
aI-1
aI-1
aI-1
aF-1.0
aF-1.0
aF-1.0
asg10
(lp467
F-0.002
aF-0.004
aF0.015
asba(i__main__
sensor_data_struct
p468
(dp469
g3
(lp470
I720
aI413
aI290
aI1210
aI2532
aF205.0
aI2151
aI689
aI610
aI2987
aI2143
aF65479.0
asg5
I0
sg6
(lp471
I66
aI73
aI-1
aI145
aI219
aI-1
asg8
(lp472
I-1
aI-1
aI-1
aF-1.0
aF-1.0
aF-1.0
aI-1
aI-1
aI-1
aF-1.0
aF-1.0
aF-1.0
asg10
(lp473
F0.004
aF0.004
aF0.003
asba(i__main__
sensor_data_struct
p474
(dp475
g3
(lp476
I669
aI392
aI270
aI1143
aI2557
aF203.0
aI1203
aI560
aI435
aI1814
aI2306
aF174.0
asg5
I0
sg6
(lp477
I56
aI54
aI-1
aI125
aI156
aI-1
asg8
(lp478
I-1
aI-1
aI-1
aF-1.0
aF-1.0
aF-1.0
aI-1
aI-1
aI-1
aF-1.0
aF-1.0
aF-1.0
asg10
(lp479
F-0.002
aF0.003
aF0.01
asba(i__main__
sensor_data_struct
p480
(dp481
g3
(lp482
I656
aI392
aI270
aI1129
aI2584
aF208.0
aI1473
aI592
aI484
aI2145
aI2236
aF101.0
asg5
I0
sg6
(lp483
I51
aI59
aI-1
aI139
aI171
aI-1
asg8
(lp484
I-1
aI-1
aI-1
aF-1.0
aF-1.0
aF-1.0
aI-1
aI-1
aI-1
aF-1.0
aF-1.0
aF-1.0
asg10
(lp485
F0.008
aF0.004
aF0.009000000000000001
asba(i__main__
sensor_data_struct
p486
(dp487
g3
(lp488
I655
aI382
aI261
aI1124
aI2558
aF199.0
aI1131
aI560
aI435
aI1712
aI2331
aF198.0
asg5
I0
sg6
(lp489
I118
aI106
aI-1
aI163
aI207
aI-1
asg8
(lp490
I-1
aI-1
aI-1
aF-1.0
aF-1.0
aF-1.0
aI-1
aI-1
aI-1
aF-1.0
aF-1.0
aF-1.0
asg10
(lp491
F-0.002
aF-0.008
aF0.006
asba(i__main__
sensor_data_struct
p492
(dp493
g3
(lp494
I741
aI407
aI287
aI1232
aI2498
aF191.0
aI1406
aI588
aI471
aI2062
aI2244
aF126.0
asg5
I0
sg6
(lp495
I62
aI137
aI-1
aI131
aI227
aI-1
asg8
(lp496
I-1
aI-1
aI-1
aF-1.0
aF-1.0
aF-1.0
aI-1
aI-1
aI-1
aF-1.0
aF-1.0
aF-1.0
asg10
(lp497
F-0.004
aF0.005
aF0.003
asba(i__main__
sensor_data_struct
p498
(dp499
g3
(lp500
I682
aI393
aI270
aI1162
aI2544
aF201.0
aI859
aI459
aI337
aI1376
aI2438
aF198.0
asg5
I0
sg6
(lp501
I31
aI29
aI-1
aI130
aI167
aI-1
asg8
(lp502
I-1
aI-1
aI-1
aF-1.0
aF-1.0
aF-1.0
aI-1
aI-1
aI-1
aF-1.0
aF-1.0
aF-1.0
asg10
(lp503
F-0.008
aF-0.001
aF0.01
asba(i__main__
sensor_data_struct
p504
(dp505
g3
(lp506
I654
aI383
aI259
aI1129
aI2565
aF202.0
aI1026
aI525
aI398
aI1587
aI2369
aF204.0
asg5
I0
sg6
(lp507
I59
aI87
aI-1
aI138
aI175
aI-1
asg8
(lp508
I-1
aI-1
aI-1
aF-1.0
aF-1.0
aF-1.0
aI-1
aI-1
aI-1
aF-1.0
aF-1.0
aF-1.0
asg10
(lp509
F-0.006
aF-0.005
aF0.009000000000000001
asba(i__main__
sensor_data_struct
p510
(dp511
g3
(lp512
I664
aI388
aI264
aI1142
aI2559
aF203.0
aI1351
aI538
aI437
aI1981
aI2247
aF90.0
asg5
I0
sg6
(lp513
I52
aI47
aI-1
aI138
aI182
aI-1
asg8
(lp514
I-1
aI-1
aI-1
aF-1.0
aF-1.0
aF-1.0
aI-1
aI-1
aI-1
aF-1.0
aF-1.0
aF-1.0
asg10
(lp515
F-0.002
aF0.005
aF0.008
asba(i__main__
sensor_data_struct
p516
(dp517
g3
(lp518
I679
aI399
aI276
aI1161
aI2567
aF207.0
aI1510
aI634
aI492
aI2255
aI2262
aF150.0
asg5
I1
sg6
(lp519
I35
aI26
aI-1
aI63
aI69
aI-1
asg8
(lp520
I-1
aI-1
aI-1
aF-1.0
aF-1.0
aF-1.0
aI-1
aI-1
aI-1
aF-1.0
aF-1.0
aF-1.0
asg10
(lp521
F0.003
aF0.008
aF0.013000000000000001
asba(i__main__
sensor_data_struct
p522
(dp523
g3
(lp524
I649
aI387
aI261
aI1129
aI2584
aF209.0
aI814
aI457
aI323
aI1335
aI2470
aF220.0
asg5
I1
sg6
(lp525
I21
aI21
aI-1
aI91
aI68
aI-1
asg8
(lp526
I-1
aI-1
aI-1
aF-1.0
aF-1.0
aF-1.0
aI-1
aI-1
aI-1
aF-1.0
aF-1.0
aF-1.0
asg10
(lp527
F0.002
aF-0.01
aF0.013999999999999999
asba(i__main__
sensor_data_struct
p528
(dp529
g3
(lp530
I707
aI410
aI277
aI1208
aI2532
aF214.0
aI1185
aI592
aI447
aI1811
aI2328
aF222.0
asg5
I0
sg6
(lp531
I80
aI63
aI-1
aI140
aI167
aI-1
asg8
(lp532
I-1
aI-1
aI-1
aF-1.0
aF-1.0
aF-1.0
aI-1
aI-1
aI-1
aF-1.0
aF-1.0
aF-1.0
asg10
(lp533
F0.004
aF-0.006999999999999999
aF0.01
asba(i__main__
sensor_data_struct
p534
(dp535
g3
(lp536
I649
aI385
aI259
aI1126
aI2575
aF207.0
aI1097
aI493
aI382
aI1668
aI2318
aF142.0
asg5
I0
sg6
(lp537
I39
aI24
aI-1
aI125
aI159
aI-1
asg8
(lp538
I-1
aI-1
aI-1
aF-1.0
aF-1.0
aF-1.0
aI-1
aI-1
aI-1
aF-1.0
aF-1.0
aF-1.0
asg10
(lp539
F-0.006
aF0.008
aF0.01
asba(i__main__
sensor_data_struct
p540
(dp541
g3
(lp542
I673
aI393
aI272
aI1148
aI2557
aF202.0
aI1177
aI585
aI444
aI1796
aI2327
aF216.0
asg5
I0
sg6
(lp543
I86
aI87
aI-1
aI129
aI155
aI-1
asg8
(lp544
I-1
aI-1
aI-1
aF-1.0
aF-1.0
aF-1.0
aI-1
aI-1
aI-1
aF-1.0
aF-1.0
aF-1.0
asg10
(lp545
F0.003
aF-0.003
aF0.011000000000000001
asba(i__main__
sensor_data_struct
p546
(dp547
g3
(lp548
I653
aI385
aI260
aI1128
aI2564
aF205.0
aI1073
aI530
aI399
aI1662
aI2357
aF196.0
asg5
I0
sg6
(lp549
I29
aI16
aI-1
aI123
aI158
aI-1
asg8
(lp550
I-1
aI-1
aI-1
aF-1.0
aF-1.0
aF-1.0
aI-1
aI-1
aI-1
aF-1.0
aF-1.0
aF-1.0
asg10
(lp551
F-0.009000000000000001
aF0.005
aF0.01
asba(i__main__
sensor_data_struct
p552
(dp553
g3
(lp554
I646
aI388
aI264
aI1121
aI2592
aF209.0
aI1784
aI603
aI521
aI2526
aI2180
aF65528.0
asg5
I1
sg6
(lp555
I45
aI52
aI-1
aI84
aI95
aI-1
asg8
(lp556
I-1
aI-1
aI-1
aF-1.0
aF-1.0
aF-1.0
aI-1
aI-1
aI-1
aF-1.0
aF-1.0
aF-1.0
asg10
(lp557
F0.006999999999999999
aF0.006
aF0.009000000000000001
asba(i__main__
sensor_data_struct
p558
(dp559
g3
(lp560
I640
aI381
aI258
aI1109
aI2578
aF204.0
aI679
aI385
aI264
aI1155
aI2534
aF194.0
asg5
I1
sg6
(lp561
I9
aI4
aI-1
aI55
aI57
aI-1
asg8
(lp562
I-1
aI-1
aI-1
aF-1.0
aF-1.0
aF-1.0
aI-1
aI-1
aI-1
aF-1.0
aF-1.0
aF-1.0
asg10
(lp563
F-0.013000000000000001
aF-0.003
aF0.015
asba(i__main__
sensor_data_struct
p564
(dp565
g3
(lp566
I676
aI396
aI265
aI1174
aI2569
aF211.0
aI791
aI443
aI326
aI1279
aI2479
aF203.0
asg5
I0
sg6
(lp567
I64
aI62
aI-1
aI123
aI146
aI-1
asg8
(lp568
I-1
aI-1
aI-1
aF-1.0
aF-1.0
aF-1.0
aI-1
aI-1
aI-1
aF-1.0
aF-1.0
aF-1.0
asg10
(lp569
F-0.004
aF-0.01
aF0.011000000000000001
asba(i__main__
sensor_data_struct
p570
(dp571
g3
(lp572
I644
aI385
aI260
aI1119
aI2583
aF208.0
aI1175
aI553
aI414
aI1819
aI2341
aF188.0
asg5
I1
sg6
(lp573
I23
aI31
aI-1
aI58
aI64
aI-1
asg8
(lp574
I-1
aI-1
aI-1
aF-1.0
aF-1.0
aF-1.0
aI-1
aI-1
aI-1
aF-1.0
aF-1.0
aF-1.0
asg10
(lp575
F0.008
aF0.006
aF0.013999999999999999
asba(i__main__
sensor_data_struct
p576
(dp577
g3
(lp578
I705
aI420
aI287
aI1211
aI2568
aF223.0
aI1128
aI521
aI390
aI1750
aI2343
aF170.0
asg5
I1
sg6
(lp579
I26
aI25
aI-1
aI61
aI61
aI-1
asg8
(lp580
I-1
aI-1
aI-1
aF-1.0
aF-1.0
aF-1.0
aI-1
aI-1
aI-1
aF-1.0
aF-1.0
aF-1.0
asg10
(lp581
F0.002
aF0.01
aF0.015
asba(i__main__
sensor_data_struct
p582
(dp583
g3
(lp584
I659
aI387
aI261
aI1139
aI2563
aF205.0
aI1033
aI568
aI388
aI1673
aI2392
aF277.0
asg5
I1
sg6
(lp585
I15
aI6
aI-1
aI57
aI59
aI-1
asg8
(lp586
I-1
aI-1
aI-1
aF-1.0
aF-1.0
aF-1.0
aI-1
aI-1
aI-1
aF-1.0
aF-1.0
aF-1.0
asg10
(lp587
F-0.012
aF0.002
aF0.015
asba(i__main__
sensor_data_struct
p588
(dp589
g3
(lp590
I683
aI401
aI270
aI1182
aI2565
aF213.0
aI812
aI450
aI320
aI1330
aI2468
aF212.0
asg5
I1
sg6
(lp591
I34
aI32
aI-1
aI81
aI84
aI-1
asg8
(lp592
I-1
aI-1
aI-1
aF-1.0
aF-1.0
aF-1.0
aI-1
aI-1
aI-1
aF-1.0
aF-1.0
aF-1.0
asg10
(lp593
F-0.002
aF-0.003
aF0.015
asba(i__main__
sensor_data_struct
p594
(dp595
g3
(lp596
I742
aI429
aI293
aI1260
aI2528
aF221.0
aI983
aI488
aI379
aI1513
aI2377
aF173.0
asg5
I0
sg6
(lp597
I84
aI98
aI-1
aI126
aI152
aI-1
asg8
(lp598
I-1
aI-1
aI-1
aF-1.0
aF-1.0
aF-1.0
aI-1
aI-1
aI-1
aF-1.0
aF-1.0
aF-1.0
asg10
(lp599
F0.003
aF-0.001
aF0.011000000000000001
asba(i__main__
sensor_data_struct
p600
(dp601
g3
(lp602
I682
aI404
aI277
aI1170
aI2567
aF213.0
aI1179
aI522
aI396
aI1812
aI2324
aF151.0
asg5
I1
sg6
(lp603
I23
aI10
aI-1
aI61
aI59
aI-1
asg8
(lp604
I-1
aI-1
aI-1
aF-1.0
aF-1.0
aF-1.0
aI-1
aI-1
aI-1
aF-1.0
aF-1.0
aF-1.0
asg10
(lp605
F0.0
aF0.01
aF0.013999999999999999
asba.