(lp0
(i__main__
sensor_data_struct
p1
(dp2
S'color'
p3
(lp4
I542
aI324
aI215
aI966
aI2632
aF178.0
aI817
aI410
aI305
aI1307
aI2434
aF158.0
asS'button'
p5
I0
sS'IR'
p6
(lp7
I31
aI23
aI-1
aI131
aI176
aI-1
asS'TOF'
p8
(lp9
I-1
aI-1
aI-1
aF-1.0
aF-1.0
aF-1.0
aI-1
aI-1
aI-1
aF-1.0
aF-1.0
aF-1.0
asS'pt'
p10
(lp11
F-0.006999999999999999
aF0.006
aF0.009000000000000001
asba(i__main__
sensor_data_struct
p12
(dp13
g3
(lp14
I696
aI394
aI284
aI1156
aI2526
aF188.0
aI843
aI449
aI347
aI1319
aI2434
aF181.0
asg5
I0
sg6
(lp15
I294
aI82
aI-1
aI151
aI229
aI-1
asg8
(lp16
I-1
aI-1
aI-1
aF-1.0
aF-1.0
aF-1.0
aI-1
aI-1
aI-1
aF-1.0
aF-1.0
aF-1.0
asg10
(lp17
F0.001
aF-0.005
aF0.001
asba(i__main__
sensor_data_struct
p18
(dp19
g3
(lp20
I618
aI359
aI245
aI1072
aI2583
aF186.0
aI660
aI372
aI266
aI1106
aI2539
aF178.0
asg5
I1
sg6
(lp21
I24
aI22
aI-1
aI109
aI128
aI-1
asg8
(lp22
I-1
aI-1
aI-1
aF-1.0
aF-1.0
aF-1.0
aI-1
aI-1
aI-1
aF-1.0
aF-1.0
aF-1.0
asg10
(lp23
F-0.006
aF-0.008
aF0.012
asba(i__main__
sensor_data_struct
p24
(dp25
g3
(lp26
I583
aI347
aI229
aI1036
aI2617
aF190.0
aI794
aI445
aI315
aI1309
aI2485
aF214.0
asg5
I1
sg6
(lp27
I36
aI37
aI-1
aI82
aI63
aI-1
asg8
(lp28
I-1
aI-1
aI-1
aF-1.0
aF-1.0
aF-1.0
aI-1
aI-1
aI-1
aF-1.0
aF-1.0
aF-1.0
asg10
(lp29
F0.009000000000000001
aF-0.005
aF0.011000000000000001
asba(i__main__
sensor_data_struct
p30
(dp31
g3
(lp32
I597
aI357
aI239
aI1051
aI2607
aF194.0
aI958
aI462
aI342
aI1519
aI2396
aF167.0
asg5
I1
sg6
(lp33
I19
aI7
aI-1
aI85
aI96
aI-1
asg8
(lp34
I-1
aI-1
aI-1
aF-1.0
aF-1.0
aF-1.0
aI-1
aI-1
aI-1
aF-1.0
aF-1.0
aF-1.0
asg10
(lp35
F-0.002
aF0.013000000000000001
aF0.013999999999999999
asba(i__main__
sensor_data_struct
p36
(dp37
g3
(lp38
I615
aI364
aI247
aI1075
aI2604
aF194.0
aI1274
aI515
aI430
aI1856
aI2258
aF84.0
asg5
I0
sg6
(lp39
I119
aI178
aI-1
aI146
aI227
aI-1
asg8
(lp40
I-1
aI-1
aI-1
aF-1.0
aF-1.0
aF-1.0
aI-1
aI-1
aI-1
aF-1.0
aF-1.0
aF-1.0
asg10
(lp41
F0.001
aF0.005
aF0.003
asba(i__main__
sensor_data_struct
p42
(dp43
g3
(lp44
I644
aI366
aI251
aI1104
aI2555
aF184.0
aI795
aI423
aI314
aI1279
aI2461
aF179.0
asg5
I0
sg6
(lp45
I39
aI54
aI-1
aI134
aI178
aI-1
asg8
(lp46
I-1
aI-1
aI-1
aF-1.0
aF-1.0
aF-1.0
aI-1
aI-1
aI-1
aF-1.0
aF-1.0
aF-1.0
asg10
(lp47
F-0.006999999999999999
aF0.003
aF0.009000000000000001
asba(i__main__
sensor_data_struct
p48
(dp49
g3
(lp50
I599
aI351
aI235
aI1052
aI2599
aF187.0
aI1094
aI556
aI416
aI1693
aI2356
aF217.0
asg5
I0
sg6
(lp51
I33
aI31
aI-1
aI131
aI161
aI-1
asg8
(lp52
I-1
aI-1
aI-1
aF-1.0
aF-1.0
aF-1.0
aI-1
aI-1
aI-1
aF-1.0
aF-1.0
aF-1.0
asg10
(lp53
F-0.004
aF-0.006999999999999999
aF0.01
asba(i__main__
sensor_data_struct
p54
(dp55
g3
(lp56
I607
aI357
aI237
aI1069
aI2595
aF192.0
aI814
aI452
aI308
aI1358
aI2470
aF223.0
asg5
I1
sg6
(lp57
I10
aI5
aI-1
aI55
aI58
aI-1
asg8
(lp58
I-1
aI-1
aI-1
aF-1.0
aF-1.0
aF-1.0
aI-1
aI-1
aI-1
aF-1.0
aF-1.0
aF-1.0
asg10
(lp59
F-0.011000000000000001
aF-0.002
aF0.013999999999999999
asba(i__main__
sensor_data_struct
p60
(dp61
g3
(lp62
I586
aI348
aI232
aI1039
aI2622
aF189.0
aI628
aI364
aI249
aI1086
aI2580
aF188.0
asg5
I1
sg6
(lp63
I7
aI13
aI-1
aI67
aI60
aI-1
asg8
(lp64
I-1
aI-1
aI-1
aF-1.0
aF-1.0
aF-1.0
aI-1
aI-1
aI-1
aF-1.0
aF-1.0
aF-1.0
asg10
(lp65
F0.008
aF-0.009000000000000001
aF0.015
asba(i__main__
sensor_data_struct
p66
(dp67
g3
(lp68
I664
aI382
aI265
aI1133
aI2557
aF193.0
aI1494
aI602
aI489
aI2179
aI2235
aF107.0
asg5
I0
sg6
(lp69
I64
aI67
aI-1
aI142
aI188
aI-1
asg8
(lp70
I-1
aI-1
aI-1
aF-1.0
aF-1.0
aF-1.0
aI-1
aI-1
aI-1
aF-1.0
aF-1.0
aF-1.0
asg10
(lp71
F0.003
aF0.006999999999999999
aF0.008
asba(i__main__
sensor_data_struct
p72
(dp73
g3
(lp74
I672
aI387
aI269
aI1148
aI2562
aF195.0
aI1026
aI483
aI386
aI1551
aI2345
aF146.0
asg5
I0
sg6
(lp75
I165
aI154
aI-1
aI163
aI222
aI-1
asg8
(lp76
I-1
aI-1
aI-1
aF-1.0
aF-1.0
aF-1.0
aI-1
aI-1
aI-1
aF-1.0
aF-1.0
aF-1.0
asg10
(lp77
F0.003
aF0.001
aF0.005
asba(i__main__
sensor_data_struct
p78
(dp79
g3
(lp80
I623
aI365
aI249
aI1086
aI2600
aF191.0
aI610
aI348
aI233
aI1065
aI2575
aF180.0
asg5
I1
sg6
(lp81
I4
aI5
aI-1
aI56
aI57
aI-1
asg8
(lp82
I-1
aI-1
aI-1
aF-1.0
aF-1.0
aF-1.0
aI-1
aI-1
aI-1
aF-1.0
aF-1.0
aF-1.0
asg10
(lp83
F-0.001
aF-0.012
aF0.013000000000000001
asba(i__main__
sensor_data_struct
p84
(dp85
g3
(lp86
I638
aI370
aI252
aI1104
aI2574
aF192.0
aI1125
aI565
aI424
aI1734
aI2344
aF216.0
asg5
I0
sg6
(lp87
I73
aI77
aI-1
aI131
aI161
aI-1
asg8
(lp88
I-1
aI-1
aI-1
aF-1.0
aF-1.0
aF-1.0
aI-1
aI-1
aI-1
aF-1.0
aF-1.0
aF-1.0
asg10
(lp89
F0.001
aF-0.003
aF0.01
asba(i__main__
sensor_data_struct
p90
(dp91
g3
(lp92
I612
aI359
aI239
aI1074
aI2588
aF193.0
aI793
aI436
aI307
aI1309
aI2477
aF206.0
asg5
I1
sg6
(lp93
I15
aI15
aI-1
aI90
aI97
aI-1
asg8
(lp94
I-1
aI-1
aI-1
aF-1.0
aF-1.0
aF-1.0
aI-1
aI-1
aI-1
aF-1.0
aF-1.0
aF-1.0
asg10
(lp95
F-0.006
aF-0.011000000000000001
aF0.015
asba(i__main__
sensor_data_struct
p96
(dp97
g3
(lp98
I666
aI378
aI262
aI1134
aI2547
aF188.0
aI1165
aI577
aI430
aI1805
aI2349
aF217.0
asg5
I0
sg6
(lp99
I49
aI40
aI-1
aI103
aI119
aI-1
asg8
(lp100
I-1
aI-1
aI-1
aF-1.0
aF-1.0
aF-1.0
aI-1
aI-1
aI-1
aF-1.0
aF-1.0
aF-1.0
asg10
(lp101
F0.0
aF0.006999999999999999
aF0.013000000000000001
asba(i__main__
sensor_data_struct
p102
(dp103
g3
(lp104
I585
aI343
aI227
aI1037
aI2607
aF185.0
aI952
aI505
aI364
aI1520
aI2407
aF221.0
asg5
I1
sg6
(lp105
I20
aI18
aI-1
aI103
aI118
aI-1
asg8
(lp106
I-1
aI-1
aI-1
aF-1.0
aF-1.0
aF-1.0
aI-1
aI-1
aI-1
aF-1.0
aF-1.0
aF-1.0
asg10
(lp107
F-0.004
aF-0.011000000000000001
aF0.013000000000000001
asba(i__main__
sensor_data_struct
p108
(dp109
g3
(lp110
I630
aI365
aI247
aI1092
aI2571
aF190.0
aI1091
aI537
aI417
aI1659
aI2341
aF188.0
asg5
I0
sg6
(lp111
I129
aI107
aI-1
aI164
aI227
aI-1
asg8
(lp112
I-1
aI-1
aI-1
aF-1.0
aF-1.0
aF-1.0
aI-1
aI-1
aI-1
aF-1.0
aF-1.0
aF-1.0
asg10
(lp113
F-0.001
aF-0.005
aF0.004
asba(i__main__
sensor_data_struct
p114
(dp115
g3
(lp116
I644
aI373
aI257
aI1107
aI2572
aF191.0
aI1258
aI537
aI437
aI1854
aI2274
aF119.0
asg5
I0
sg6
(lp117
I120
aI195
aI-1
aI139
aI232
aI-1
asg8
(lp118
I-1
aI-1
aI-1
aF-1.0
aF-1.0
aF-1.0
aI-1
aI-1
aI-1
aF-1.0
aF-1.0
aF-1.0
asg10
(lp119
F0.0
aF0.002
aF0.002
asba(i__main__
sensor_data_struct
p120
(dp121
g3
(lp122
I598
aI358
aI241
aI1053
aI2615
aF194.0
aI780
aI438
aI315
aI1282
aI2496
aF207.0
asg5
I1
sg6
(lp123
I43
aI42
aI-1
aI83
aI64
aI-1
asg8
(lp124
I-1
aI-1
aI-1
aF-1.0
aF-1.0
aF-1.0
aI-1
aI-1
aI-1
aF-1.0
aF-1.0
aF-1.0
asg10
(lp125
F0.009000000000000001
aF-0.004
aF0.01
asba(i__main__
sensor_data_struct
p126
(dp127
g3
(lp128
I610
aI366
aI247
aI1071
aI2611
aF198.0
aI1053
aI473
aI371
aI1609
aI2342
aF133.0
asg5
I1
sg6
(lp129
I43
aI38
aI-1
aI99
aI116
aI-1
asg8
(lp130
I-1
aI-1
aI-1
aF-1.0
aF-1.0
aF-1.0
aI-1
aI-1
aI-1
aF-1.0
aF-1.0
aF-1.0
asg10
(lp131
F0.002
aF0.009000000000000001
aF0.013000000000000001
asba(i__main__
sensor_data_struct
p132
(dp133
g3
(lp134
I629
aI370
aI256
aI1086
aI2593
aF192.0
aI1151
aI575
aI429
aI1775
aI2338
aF219.0
asg5
I0
sg6
(lp135
I60
aI65
aI-1
aI126
aI146
aI-1
asg8
(lp136
I-1
aI-1
aI-1
aF-1.0
aF-1.0
aF-1.0
aI-1
aI-1
aI-1
aF-1.0
aF-1.0
aF-1.0
asg10
(lp137
F0.011000000000000001
aF0.0
aF0.011000000000000001
asba(i__main__
sensor_data_struct
p138
(dp139
g3
(lp140
I604
aI358
aI239
aI1066
aI2611
aF194.0
aI892
aI484
aI343
aI1448
aI2437
aF223.0
asg5
I1
sg6
(lp141
I27
aI29
aI-1
aI90
aI98
aI-1
asg8
(lp142
I-1
aI-1
aI-1
aF-1.0
aF-1.0
aF-1.0
aI-1
aI-1
aI-1
aF-1.0
aF-1.0
aF-1.0
asg10
(lp143
F0.002
aF-0.006
aF0.015
asba(i__main__
sensor_data_struct
p144
(dp145
g3
(lp146
I642
aI375
aI252
aI1118
aI2580
aF199.0
aI1020
aI534
aI389
aI1611
aI2385
aF226.0
asg5
I1
sg6
(lp147
I47
aI50
aI-1
aI101
aI116
aI-1
asg8
(lp148
I-1
aI-1
aI-1
aF-1.0
aF-1.0
aF-1.0
aI-1
aI-1
aI-1
aF-1.0
aF-1.0
aF-1.0
asg10
(lp149
F0.002
aF-0.003
aF0.013999999999999999
asba(i__main__
sensor_data_struct
p150
(dp151
g3
(lp152
I660
aI378
aI261
aI1129
aI2557
aF191.0
aI1258
aI596
aI460
aI1895
aI2302
aF195.0
asg5
I0
sg6
(lp153
I83
aI88
aI-1
aI159
aI209
aI-1
asg8
(lp154
I-1
aI-1
aI-1
aF-1.0
aF-1.0
aF-1.0
aI-1
aI-1
aI-1
aF-1.0
aF-1.0
aF-1.0
asg10
(lp155
F-0.002
aF-0.003
aF0.006
asba(i__main__
sensor_data_struct
p156
(dp157
g3
(lp158
I619
aI361
aI243
aI1080
aI2586
aF190.0
aI1052
aI530
aI410
aI1609
aI2360
aF194.0
asg5
I0
sg6
(lp159
I149
aI94
aI-1
aI169
aI222
aI-1
asg8
(lp160
I-1
aI-1
aI-1
aF-1.0
aF-1.0
aF-1.0
aI-1
aI-1
aI-1
aF-1.0
aF-1.0
aF-1.0
asg10
(lp161
F0.0
aF-0.005
aF0.004
asba(i__main__
sensor_data_struct
p162
(dp163
g3
(lp164
I623
aI361
aI244
aI1083
aI2580
aF188.0
aI1105
aI534
aI408
aI1695
aI2342
aF185.0
asg5
I0
sg6
(lp165
I56
aI71
aI-1
aI132
aI172
aI-1
asg8
(lp166
I-1
aI-1
aI-1
aF-1.0
aF-1.0
aF-1.0
aI-1
aI-1
aI-1
aF-1.0
aF-1.0
aF-1.0
asg10
(lp167
F-0.004
aF0.004
aF0.009000000000000001
asba(i__main__
sensor_data_struct
p168
(dp169
g3
(lp170
I590
aI356
aI240
aI1041
aI2626
aF194.0
aI954
aI505
aI366
aI1524
aI2414
aF219.0
asg5
I1
sg6
(lp171
I26
aI42
aI-1
aI99
aI95
aI-1
asg8
(lp172
I-1
aI-1
aI-1
aF-1.0
aF-1.0
aF-1.0
aI-1
aI-1
aI-1
aF-1.0
aF-1.0
aF-1.0
asg10
(lp173
F0.012
aF0.002
aF0.015
asba(i__main__
sensor_data_struct
p174
(dp175
g3
(lp176
I666
aI394
aI268
aI1153
aI2582
aF209.0
aI969
aI474
aI359
aI1516
aI2387
aF170.0
asg5
I1
sg6
(lp177
I32
aI35
aI-1
aI92
aI100
aI-1
asg8
(lp178
I-1
aI-1
aI-1
aF-1.0
aF-1.0
aF-1.0
aI-1
aI-1
aI-1
aF-1.0
aF-1.0
aF-1.0
asg10
(lp179
F0.005
aF0.008
aF0.015
asba(i__main__
sensor_data_struct
p180
(dp181
g3
(lp182
I590
aI351
aI234
aI1044
aI2617
aF191.0
aI893
aI499
aI343
aI1470
aI2447
aF246.0
asg5
I1
sg6
(lp183
I16
aI13
aI-1
aI74
aI61
aI-1
asg8
(lp184
I-1
aI-1
aI-1
aF-1.0
aF-1.0
aF-1.0
aI-1
aI-1
aI-1
aF-1.0
aF-1.0
aF-1.0
asg10
(lp185
F0.004
aF-0.01
aF0.011000000000000001
asba(i__main__
sensor_data_struct
p186
(dp187
g3
(lp188
I614
aI364
aI243
aI1078
aI2597
aF197.0
aI955
aI451
aI342
aI1495
aI2383
aF151.0
asg5
I1
sg6
(lp189
I30
aI15
aI-1
aI108
aI129
aI-1
asg8
(lp190
I-1
aI-1
aI-1
aF-1.0
aF-1.0
aF-1.0
aI-1
aI-1
aI-1
aF-1.0
aF-1.0
aF-1.0
asg10
(lp191
F-0.003
aF0.009000000000000001
aF0.012
asba(i__main__
sensor_data_struct
p192
(dp193
g3
(lp194
I646
aI376
aI260
aI1112
aI2579
aF193.0
aI1386
aI571
aI466
aI2022
aI2245
aF110.0
asg5
I0
sg6
(lp195
I98
aI150
aI-1
aI151
aI222
aI-1
asg8
(lp196
I-1
aI-1
aI-1
aF-1.0
aF-1.0
aF-1.0
aI-1
aI-1
aI-1
aF-1.0
aF-1.0
aF-1.0
asg10
(lp197
F0.0
aF0.005
aF0.004
asba(i__main__
sensor_data_struct
p198
(dp199
g3
(lp200
I648
aI381
aI263
aI1115
aI2581
aF198.0
aI1284
aI547
aI440
aI1905
aI2280
aF124.0
asg5
I0
sg6
(lp201
I62
aI68
aI-1
aI130
aI162
aI-1
asg8
(lp202
I-1
aI-1
aI-1
aF-1.0
aF-1.0
aF-1.0
aI-1
aI-1
aI-1
aF-1.0
aF-1.0
aF-1.0
asg10
(lp203
F0.004
aF0.006999999999999999
aF0.01
asba(i__main__
sensor_data_struct
p204
(dp205
g3
(lp206
I636
aI377
aI258
aI1104
aI2596
aF199.0
aI712
aI401
aI285
aI1190
aI2525
aF193.0
asg5
I1
sg6
(lp207
I20
aI19
aI-1
aI96
aI108
aI-1
asg8
(lp208
I-1
aI-1
aI-1
aF-1.0
aF-1.0
aF-1.0
aI-1
aI-1
aI-1
aF-1.0
aF-1.0
aF-1.0
asg10
(lp209
F-0.005
aF-0.008
aF0.013999999999999999
asba(i__main__
sensor_data_struct
p210
(dp211
g3
(lp212
I627
aI373
aI256
aI1089
aI2602
aF197.0
aI1151
aI556
aI422
aI1765
aI2334
aF195.0
asg5
I0
sg6
(lp213
I54
aI67
aI-1
aI120
aI143
aI-1
asg8
(lp214
I-1
aI-1
aI-1
aF-1.0
aF-1.0
aF-1.0
aI-1
aI-1
aI-1
aF-1.0
aF-1.0
aF-1.0
asg10
(lp215
F0.009000000000000001
aF0.003
aF0.011000000000000001
asba(i__main__
sensor_data_struct
p216
(dp217
g3
(lp218
I824
aI428
aI318
aI1323
aI2450
aF175.0
aI1378
aI536
aI451
aI1994
aI2240
aF68.0
asg5
I0
sg6
(lp219
I94
aI100
aI-1
aI160
aI218
aI-1
asg8
(lp220
I-1
aI-1
aI-1
aF-1.0
aF-1.0
aF-1.0
aI-1
aI-1
aI-1
aF-1.0
aF-1.0
aF-1.0
asg10
(lp221
F0.005
aF0.004
aF0.005
asba(i__main__
sensor_data_struct
p222
(dp223
g3
(lp224
I614
aI367
aI251
aI1072
aI2611
aF196.0
aI1087
aI534
aI408
aI1669
aI2348
aF191.0
asg5
I1
sg6
(lp225
I79
aI77
aI-1
aI144
aI173
aI-1
asg8
(lp226
I-1
aI-1
aI-1
aF-1.0
aF-1.0
aF-1.0
aI-1
aI-1
aI-1
aF-1.0
aF-1.0
aF-1.0
asg10
(lp227
F0.01
aF0.0
aF0.009000000000000001
asba(i__main__
sensor_data_struct
p228
(dp229
g3
(lp230
I627
aI373
aI253
aI1095
aI2600
aF199.0
aI761
aI432
aI314
aI1251
aI2510
aF204.0
asg5
I1
sg6
(lp231
I94
aI46
aI-1
aI127
aI66
aI-1
asg8
(lp232
I-1
aI-1
aI-1
aF-1.0
aF-1.0
aF-1.0
aI-1
aI-1
aI-1
aF-1.0
aF-1.0
aF-1.0
asg10
(lp233
F0.006
aF-0.006
aF0.006999999999999999
asba(i__main__
sensor_data_struct
p234
(dp235
g3
(lp236
I611
aI363
aI242
aI1075
aI2602
aF197.0
aI748
aI416
aI306
aI1221
aI2502
aF189.0
asg5
I0
sg6
(lp237
I40
aI47
aI-1
aI135
aI171
aI-1
asg8
(lp238
I-1
aI-1
aI-1
aF-1.0
aF-1.0
aF-1.0
aI-1
aI-1
aI-1
aF-1.0
aF-1.0
aF-1.0
asg10
(lp239
F-0.006999999999999999
aF-0.004
aF0.009000000000000001
asba(i__main__
sensor_data_struct
p240
(dp241
g3
(lp242
I703
aI396
aI281
aI1178
aI2530
aF191.0
aI1633
aI625
aI519
aI2347
aI2207
aF76.0
asg5
I0
sg6
(lp243
I83
aI92
aI-1
aI154
aI227
aI-1
asg8
(lp244
I-1
aI-1
aI-1
aF-1.0
aF-1.0
aF-1.0
aI-1
aI-1
aI-1
aF-1.0
aF-1.0
aF-1.0
asg10
(lp245
F0.004
aF0.005
aF0.004
asba(i__main__
sensor_data_struct
p246
(dp247
g3
(lp248
I635
aI375
aI258
aI1099
aI2594
aF196.0
aI618
aI357
aI241
aI1077
aI2584
aF186.0
asg5
I1
sg6
(lp249
I3
aI10
aI-1
aI59
aI57
aI-1
asg8
(lp250
I-1
aI-1
aI-1
aF-1.0
aF-1.0
aF-1.0
aI-1
aI-1
aI-1
aF-1.0
aF-1.0
aF-1.0
asg10
(lp251
F0.005
aF-0.012
aF0.013999999999999999
asba(i__main__
sensor_data_struct
p252
(dp253
g3
(lp254
I632
aI369
aI249
aI1098
aI2576
aF194.0
aI1068
aI536
aI404
aI1657
aI2368
aF203.0
asg5
I0
sg6
(lp255
I43
aI42
aI-1
aI128
aI163
aI-1
asg8
(lp256
I-1
aI-1
aI-1
aF-1.0
aF-1.0
aF-1.0
aI-1
aI-1
aI-1
aF-1.0
aF-1.0
aF-1.0
asg10
(lp257
F-0.006
aF0.002
aF0.01
asba(i__main__
sensor_data_struct
p258
(dp259
g3
(lp260
I615
aI367
aI249
aI1073
aI2599
aF197.0
aI1008
aI534
aI387
aI1601
aI2397
aF232.0
asg5
I1
sg6
(lp261
I36
aI48
aI-1
aI92
aI98
aI-1
asg8
(lp262
I-1
aI-1
aI-1
aF-1.0
aF-1.0
aF-1.0
aI-1
aI-1
aI-1
aF-1.0
aF-1.0
aF-1.0
asg10
(lp263
F0.006999999999999999
aF-0.001
aF0.015
asba(i__main__
sensor_data_struct
p264
(dp265
g3
(lp266
I622
aI371
aI250
aI1087
aI2595
aF200.0
aI1206
aI502
aI403
aI1794
aI2281
aF105.0
asg5
I0
sg6
(lp267
I53
aI56
aI-1
aI146
aI211
aI-1
asg8
(lp268
I-1
aI-1
aI-1
aF-1.0
aF-1.0
aF-1.0
aI-1
aI-1
aI-1
aF-1.0
aF-1.0
aF-1.0
asg10
(lp269
F-0.003
aF0.006999999999999999
aF0.006
asba(i__main__
sensor_data_struct
p270
(dp271
g3
(lp272
I645
aI374
aI257
aI1111
aI2575
aF192.0
aI1135
aI547
aI427
aI1719
aI2331
aF182.0
asg5
I0
sg6
(lp273
I94
aI180
aI-1
aI152
aI210
aI-1
asg8
(lp274
I-1
aI-1
aI-1
aF-1.0
aF-1.0
aF-1.0
aI-1
aI-1
aI-1
aF-1.0
aF-1.0
aF-1.0
asg10
(lp275
F-0.003
aF0.002
aF0.005
asba(i__main__
sensor_data_struct
p276
(dp277
g3
(lp278
I617
aI368
aI250
aI1077
aI2601
aF197.0
aI1223
aI520
aI424
aI1806
aI2282
aF113.0
asg5
I0
sg6
(lp279
I98
aI108
aI-1
aI155
aI205
aI-1
asg8
(lp280
I-1
aI-1
aI-1
aF-1.0
aF-1.0
aF-1.0
aI-1
aI-1
aI-1
aF-1.0
aF-1.0
aF-1.0
asg10
(lp281
F0.005
aF0.004
aF0.006999999999999999
asba(i__main__
sensor_data_struct
p282
(dp283
g3
(lp284
I739
aI409
aI297
aI1219
aI2510
aF188.0
aI1345
aI566
aI454
aI1978
aI2254
aF124.0
asg5
I0
sg6
(lp285
I159
aI138
aI-1
aI142
aI228
aI-1
asg8
(lp286
I-1
aI-1
aI-1
aF-1.0
aF-1.0
aF-1.0
aI-1
aI-1
aI-1
aF-1.0
aF-1.0
aF-1.0
asg10
(lp287
F0.004
aF0.002
aF0.001
asba(i__main__
sensor_data_struct
p288
(dp289
g3
(lp290
I698
aI398
aI282
aI1174
aI2541
aF195.0
aI773
aI434
aI323
aI1252
aI2496
aF197.0
asg5
I1
sg6
(lp291
I83
aI53
aI-1
aI159
aI78
aI-1
asg8
(lp292
I-1
aI-1
aI-1
aF-1.0
aF-1.0
aF-1.0
aI-1
aI-1
aI-1
aF-1.0
aF-1.0
aF-1.0
asg10
(lp293
F0.004
aF-0.005
aF0.008
asba(i__main__
sensor_data_struct
p294
(dp295
g3
(lp296
I627
aI370
aI247
aI1099
aI2592
aF199.0
aI739
aI405
aI289
aI1225
aI2501
aF187.0
asg5
I1
sg6
(lp297
I25
aI13
aI-1
aI94
aI106
aI-1
asg8
(lp298
I-1
aI-1
aI-1
aF-1.0
aF-1.0
aF-1.0
aI-1
aI-1
aI-1
aF-1.0
aF-1.0
aF-1.0
asg10
(lp299
F-0.006999999999999999
aF0.001
aF0.013999999999999999
asba(i__main__
sensor_data_struct
p300
(dp301
g3
(lp302
I743
aI405
aI290
aI1229
aI2500
aF185.0
aI1056
aI493
aI488
aI1593
aI2606
aF78.0
asg5
I0
sg6
(lp303
I79
aI165
aI-1
aI151
aI217
aI-1
asg8
(lp304
I-1
aI-1
aI-1
aF-1.0
aF-1.0
aF-1.0
aI-1
aI-1
aI-1
aF-1.0
aF-1.0
aF-1.0
asg10
(lp305
F-0.003
aF0.003
aF0.005
asba(i__main__
sensor_data_struct
p306
(dp307
g3
(lp308
I649
aI378
aI258
aI1120
aI2573
aF197.0
aI685
aI392
aI278
aI1154
aI2550
aF192.0
asg5
I1
sg6
(lp309
I23
aI29
aI-1
aI78
aI62
aI-1
asg8
(lp310
I-1
aI-1
aI-1
aF-1.0
aF-1.0
aF-1.0
aI-1
aI-1
aI-1
aF-1.0
aF-1.0
aF-1.0
asg10
(lp311
F0.005
aF-0.006
aF0.015
asba(i__main__
sensor_data_struct
p312
(dp313
g3
(lp314
I625
aI369
aI248
aI1091
aI2589
aF197.0
aI1028
aI507
aI377
aI1612
aI2376
aF190.0
asg5
I0
sg6
(lp315
I29
aI14
aI-1
aI113
aI142
aI-1
asg8
(lp316
I-1
aI-1
aI-1
aF-1.0
aF-1.0
aF-1.0
aI-1
aI-1
aI-1
aF-1.0
aF-1.0
aF-1.0
asg10
(lp317
F-0.006999999999999999
aF0.009000000000000001
aF0.011000000000000001
asba(i__main__
sensor_data_struct
p318
(dp319
g3
(lp320
I600
aI354
aI235
aI1058
aI2601
aF191.0
aI931
aI502
aI357
aI1502
aI2422
aF228.0
asg5
I1
sg6
(lp321
I18
aI19
aI-1
aI88
aI96
aI-1
asg8
(lp322
I-1
aI-1
aI-1
aF-1.0
aF-1.0
aF-1.0
aI-1
aI-1
aI-1
aF-1.0
aF-1.0
aF-1.0
asg10
(lp323
F-0.002
aF-0.006999999999999999
aF0.015
asba(i__main__
sensor_data_struct
p324
(dp325
g3
(lp326
I626
aI373
aI250
aI1097
aI2596
aF202.0
aI976
aI468
aI349
aI1552
aI2410
aF166.0
asg5
I1
sg6
(lp327
I19
aI21
aI-1
aI60
aI64
aI-1
asg8
(lp328
I-1
aI-1
aI-1
aF-1.0
aF-1.0
aF-1.0
aI-1
aI-1
aI-1
aF-1.0
aF-1.0
aF-1.0
asg10
(lp329
F0.006999999999999999
aF0.012
aF0.015
asba(i__main__
sensor_data_struct
p330
(dp331
g3
(lp332
I624
aI374
aI251
aI1095
aI2602
aF204.0
aI811
aI455
aI342
aI1301
aI2485
aF204.0
asg5
I1
sg6
(lp333
I100
aI55
aI-1
aI217
aI85
aI-1
asg8
(lp334
I-1
aI-1
aI-1
aF-1.0
aF-1.0
aF-1.0
aI-1
aI-1
aI-1
aF-1.0
aF-1.0
aF-1.0
asg10
(lp335
F0.003
aF-0.005
aF0.006
asba(i__main__
sensor_data_struct
p336
(dp337
g3
(lp338
I686
aI396
aI269
aI1182
aI2561
aF205.0
aI888
aI458
aI344
aI1411
aI2433
aF182.0
asg5
I0
sg6
(lp339
I85
aI75
aI-1
aI143
aI169
aI-1
asg8
(lp340
I-1
aI-1
aI-1
aF-1.0
aF-1.0
aF-1.0
aI-1
aI-1
aI-1
aF-1.0
aF-1.0
aF-1.0
asg10
(lp341
F0.008
aF-0.001
aF0.009000000000000001
asba(i__main__
sensor_data_struct
p342
(dp343
g3
(lp344
I601
aI356
aI238
aI1058
aI2606
aF192.0
aI818
aI441
aI321
aI1326
aI2460
aF195.0
asg5
I0
sg6
(lp345
I34
aI32
aI-1
aI111
aI132
aI-1
asg8
(lp346
I-1
aI-1
aI-1
aF-1.0
aF-1.0
aF-1.0
aI-1
aI-1
aI-1
aF-1.0
aF-1.0
aF-1.0
asg10
(lp347
F-0.005
aF-0.002
aF0.012
asba(i__main__
sensor_data_struct
p348
(dp349
g3
(lp350
I640
aI372
aI251
aI1111
aI2573
aF195.0
aI1171
aI541
aI427
aI1761
aI2314
aF161.0
asg5
I0
sg6
(lp351
I102
aI158
aI-1
aI151
aI203
aI-1
asg8
(lp352
I-1
aI-1
aI-1
aF-1.0
aF-1.0
aF-1.0
aI-1
aI-1
aI-1
aF-1.0
aF-1.0
aF-1.0
asg10
(lp353
F-0.001
aF0.002
aF0.006999999999999999
asba(i__main__
sensor_data_struct
p354
(dp355
g3
(lp356
I627
aI366
aI246
aI1094
aI2585
aF194.0
aI1034
aI529
aI389
aI1630
aI2386
aF214.0
asg5
I1
sg6
(lp357
I29
aI18
aI-1
aI107
aI128
aI-1
asg8
(lp358
I-1
aI-1
aI-1
aF-1.0
aF-1.0
aF-1.0
aI-1
aI-1
aI-1
aF-1.0
aF-1.0
aF-1.0
asg10
(lp359
F-0.006999999999999999
aF0.002
aF0.012
asba(i__main__
sensor_data_struct
p360
(dp361
g3
(lp362
I605
aI360
aI240
aI1068
aI2611
aF196.0
aI781
aI437
aI320
aI1275
aI2498
aF201.0
asg5
I1
sg6
(lp363
I91
aI61
aI-1
aI140
aI74
aI-1
asg8
(lp364
I-1
aI-1
aI-1
aF-1.0
aF-1.0
aF-1.0
aI-1
aI-1
aI-1
aF-1.0
aF-1.0
aF-1.0
asg10
(lp365
F0.005
aF-0.005
aF0.009000000000000001
asba(i__main__
sensor_data_struct
p366
(dp367
g3
(lp368
I612
aI363
aI242
aI1076
aI2600
aF197.0
aI805
aI422
aI309
aI1305
aI2462
aF178.0
asg5
I0
sg6
(lp369
I32
aI23
aI-1
aI115
aI142
aI-1
asg8
(lp370
I-1
aI-1
aI-1
aF-1.0
aF-1.0
aF-1.0
aI-1
aI-1
aI-1
aF-1.0
aF-1.0
aF-1.0
asg10
(lp371
F-0.006999999999999999
aF0.004
aF0.011000000000000001
asba(i__main__
sensor_data_struct
p372
(dp373
g3
(lp374
I637
aI372
aI248
aI1112
aI2577
aF198.0
aI794
aI440
aI332
aI1273
aI2484
aF193.0
asg5
I0
sg6
(lp375
I80
aI86
aI-1
aI156
aI198
aI-1
asg8
(lp376
I-1
aI-1
aI-1
aF-1.0
aF-1.0
aF-1.0
aI-1
aI-1
aI-1
aF-1.0
aF-1.0
aF-1.0
asg10
(lp377
F-0.004
aF-0.006
aF0.006999999999999999
asba(i__main__
sensor_data_struct
p378
(dp379
g3
(lp380
I695
aI390
aI272
aI1174
aI2532
aF190.0
aI1240
aI571
aI446
aI1859
aI2295
aF172.0
asg5
I0
sg6
(lp381
I80
aI222
aI-1
aI144
aI234
aI-1
asg8
(lp382
I-1
aI-1
aI-1
aF-1.0
aF-1.0
aF-1.0
aI-1
aI-1
aI-1
aF-1.0
aF-1.0
aF-1.0
asg10
(lp383
F-0.004
aF0.0
aF0.003
asba(i__main__
sensor_data_struct
p384
(dp385
g3
(lp386
I633
aI370
aI251
aI1099
aI2583
aF194.0
aI1060
aI494
aI392
aI1599
aI2331
aF148.0
asg5
I0
sg6
(lp387
I176
aI195
aI-1
aI144
aI231
aI-1
asg8
(lp388
I-1
aI-1
aI-1
aF-1.0
aF-1.0
aF-1.0
aI-1
aI-1
aI-1
aF-1.0
aF-1.0
aF-1.0
asg10
(lp389
F0.001
aF-0.001
aF0.001
asba(i__main__
sensor_data_struct
p390
(dp391
g3
(lp392
I606
aI359
aI239
aI1066
aI2597
aF194.0
aI939
aI516
aI352
aI1547
aI2436
aF251.0
asg5
I1
sg6
(lp393
I16
aI4
aI-1
aI55
aI56
aI-1
asg8
(lp394
I-1
aI-1
aI-1
aF-1.0
aF-1.0
aF-1.0
aI-1
aI-1
aI-1
aF-1.0
aF-1.0
aF-1.0
asg10
(lp395
F-0.011000000000000001
aF0.008
aF0.015
asba(i__main__
sensor_data_struct
p396
(dp397
g3
(lp398
I606
aI361
aI243
aI1065
aI2611
aF195.0
aI1050
aI492
aI387
aI1597
aI2343
aF152.0
asg5
I0
sg6
(lp399
I133
aI103
aI-1
aI170
aI218
aI-1
asg8
(lp400
I-1
aI-1
aI-1
aF-1.0
aF-1.0
aF-1.0
aI-1
aI-1
aI-1
aF-1.0
aF-1.0
aF-1.0
asg10
(lp401
F0.006999999999999999
aF0.001
aF0.005
asba(i__main__
sensor_data_struct
p402
(dp403
g3
(lp404
I638
aI376
aI258
aI1105
aI2592
aF197.0
aI1227
aI538
aI428
aI1833
aI2293
aF137.0
asg5
I0
sg6
(lp405
I86
aI92
aI-1
aI154
aI198
aI-1
asg8
(lp406
I-1
aI-1
aI-1
aF-1.0
aF-1.0
aF-1.0
aI-1
aI-1
aI-1
aF-1.0
aF-1.0
aF-1.0
asg10
(lp407
F0.006999999999999999
aF0.004
aF0.006999999999999999
asba(i__main__
sensor_data_struct
p408
(dp409
g3
(lp410
I611
aI362
aI243
aI1073
aI2604
aF195.0
aI877
aI471
aI347
aI1402
aI2438
aF204.0
asg5
I0
sg6
(lp411
I56
aI44
aI-1
aI135
aI162
aI-1
asg8
(lp412
I-1
aI-1
aI-1
aF-1.0
aF-1.0
aF-1.0
aI-1
aI-1
aI-1
aF-1.0
aF-1.0
aF-1.0
asg10
(lp413
F0.002
aF-0.005
aF0.01
asba(i__main__
sensor_data_struct
p414
(dp415
g3
(lp416
I598
aI352
aI233
aI1057
aI2601
aF190.0
aI929
aI515
aI348
aI1530
aI2427
aF256.0
asg5
I1
sg6
(lp417
I5
aI7
aI-1
aI63
aI58
aI-1
asg8
(lp418
I-1
aI-1
aI-1
aF-1.0
aF-1.0
aF-1.0
aI-1
aI-1
aI-1
aF-1.0
aF-1.0
aF-1.0
asg10
(lp419
F0.002
aF-0.011000000000000001
aF0.013999999999999999
asba(i__main__
sensor_data_struct
p420
(dp421
g3
(lp422
I656
aI381
aI251
aI1149
aI2572
aF204.0
aI811
aI443
aI329
aI1307
aI2472
aF195.0
asg5
I1
sg6
(lp423
I91
aI66
aI-1
aI172
aI103
aI-1
asg8
(lp424
I-1
aI-1
aI-1
aF-1.0
aF-1.0
aF-1.0
aI-1
aI-1
aI-1
aF-1.0
aF-1.0
aF-1.0
asg10
(lp425
F0.008
aF-0.003
aF0.008
asba(i__main__
sensor_data_struct
p426
(dp427
g3
(lp428
I639
aI377
aI252
aI1119
aI2591
aF203.0
aI991
aI491
aI370
aI1551
aI2387
aF182.0
asg5
I1
sg6
(lp429
I43
aI51
aI-1
aI99
aI111
aI-1
asg8
(lp430
I-1
aI-1
aI-1
aF-1.0
aF-1.0
aF-1.0
aI-1
aI-1
aI-1
aF-1.0
aF-1.0
aF-1.0
asg10
(lp431
F0.004
aF0.005
aF0.013999999999999999
asba(i__main__
sensor_data_struct
p432
(dp433
g3
(lp434
I917
aI449
aI342
aI1436
aI2395
aF160.0
aI1369
aI521
aI436
aI1977
aI2226
aF58.0
asg5
I0
sg6
(lp435
I119
aI148
aI-1
aI137
aI229
aI-1
asg8
(lp436
I-1
aI-1
aI-1
aF-1.0
aF-1.0
aF-1.0
aI-1
aI-1
aI-1
aF-1.0
aF-1.0
aF-1.0
asg10
(lp437
F0.003
aF0.003
aF0.001
asba(i__main__
sensor_data_struct
p438
(dp439
g3
(lp440
I681
aI390
aI271
aI1160
aI2553
aF196.0
aI711
aI398
aI287
aI1180
aI2521
aF187.0
asg5
I1
sg6
(lp441
I36
aI36
aI-1
aI117
aI141
aI-1
asg8
(lp442
I-1
aI-1
aI-1
aF-1.0
aF-1.0
aF-1.0
aI-1
aI-1
aI-1
aF-1.0
aF-1.0
aF-1.0
asg10
(lp443
F-0.006
aF-0.006
aF0.011000000000000001
asba(i__main__
sensor_data_struct
p444
(dp445
g3
(lp446
I621
aI363
aI242
aI1090
aI2589
aF194.0
aI972
aI460
aI356
aI1502
aI2369
aF149.0
asg5
I0
sg6
(lp447
I70
aI80
aI-1
aI119
aI144
aI-1
asg8
(lp448
I-1
aI-1
aI-1
aF-1.0
aF-1.0
aF-1.0
aI-1
aI-1
aI-1
aF-1.0
aF-1.0
aF-1.0
asg10
(lp449
F0.005
aF0.003
aF0.011000000000000001
asba(i__main__
sensor_data_struct
p450
(dp451
g3
(lp452
I618
aI363
aI243
aI1082
aI2589
aF194.0
aI959
aI481
aI370
aI1487
aI2388
aF177.0
asg5
I0
sg6
(lp453
I51
aI127
aI-1
aI144
aI230
aI-1
asg8
(lp454
I-1
aI-1
aI-1
aF-1.0
aF-1.0
aF-1.0
aI-1
aI-1
aI-1
aF-1.0
aF-1.0
aF-1.0
asg10
(lp455
F-0.006
aF0.002
aF0.004
asba(i__main__
sensor_data_struct
p456
(dp457
g3
(lp458
I620
aI362
aI244
aI1082
aI2586
aF191.0
aI1061
aI521
aI397
aI1635
aI2355
aF187.0
asg5
I0
sg6
(lp459
I72
aI97
aI-1
aI124
aI156
aI-1
asg8
(lp460
I-1
aI-1
aI-1
aF-1.0
aF-1.0
aF-1.0
aI-1
aI-1
aI-1
aF-1.0
aF-1.0
aF-1.0
asg10
(lp461
F-0.002
aF0.002
aF0.009000000000000001
asba(i__main__
sensor_data_struct
p462
(dp463
g3
(lp464
I644
aI374
aI253
aI1117
aI2573
aF196.0
aI1027
aI510
aI386
aI1595
aI2371
aF189.0
asg5
I0
sg6
(lp465
I56
aI79
aI-1
aI132
aI170
aI-1
asg8
(lp466
I-1
aI-1
aI-1
aF-1.0
aF-1.0
aF-1.0
aI-1
aI-1
aI-1
aF-1.0
aF-1.0
aF-1.0
asg10
(lp467
F-0.005
aF0.003
aF0.009000000000000001
asba(i__main__
sensor_data_struct
p468
(dp469
g3
(lp470
I623
aI366
aI245
aI1091
aI2591
aF196.0
aI737
aI410
aI296
aI1217
aI2508
aF191.0
asg5
I1
sg6
(lp471
I34
aI43
aI-1
aI99
aI111
aI-1
asg8
(lp472
I-1
aI-1
aI-1
aF-1.0
aF-1.0
aF-1.0
aI-1
aI-1
aI-1
aF-1.0
aF-1.0
aF-1.0
asg10
(lp473
F0.006
aF-0.003
aF0.013999999999999999
asba(i__main__
sensor_data_struct
p474
(dp475
g3
(lp476
I629
aI371
aI250
aI1100
aI2594
aF198.0
aI980
aI510
aI373
aI1555
aI2401
aF213.0
asg5
I1
sg6
(lp477
I48
aI55
aI-1
aI92
aI100
aI-1
asg8
(lp478
I-1
aI-1
aI-1
aF-1.0
aF-1.0
aF-1.0
aI-1
aI-1
aI-1
aF-1.0
aF-1.0
aF-1.0
asg10
(lp479
F0.002
aF0.003
aF0.015
asba(i__main__
sensor_data_struct
p480
(dp481
g3
(lp482
I611
aI356
aI237
aI1074
aI2591
aF190.0
aI971
aI529
aI380
aI1551
aI2410
aF241.0
asg5
I1
sg6
(lp483
I68
aI40
aI-1
aI156
aI76
aI-1
asg8
(lp484
I-1
aI-1
aI-1
aF-1.0
aF-1.0
aF-1.0
aI-1
aI-1
aI-1
aF-1.0
aF-1.0
aF-1.0
asg10
(lp485
F-0.001
aF-0.009000000000000001
aF0.008
asba(i__main__
sensor_data_struct
p486
(dp487
g3
(lp488
I655
aI377
aI253
aI1138
aI2569
aF197.0
aI1163
aI567
aI425
aI1796
aI2343
aF206.0
asg5
I0
sg6
(lp489
I33
aI20
aI-1
aI123
aI157
aI-1
asg8
(lp490
I-1
aI-1
aI-1
aF-1.0
aF-1.0
aF-1.0
aI-1
aI-1
aI-1
aF-1.0
aF-1.0
aF-1.0
asg10
(lp491
F-0.006
aF0.006
aF0.01
asba(i__main__
sensor_data_struct
p492
(dp493
g3
(lp494
I719
aI403
aI276
aI1222
aI2526
aF200.0
aI875
aI455
aI328
aI1415
aI2436
aF194.0
asg5
I1
sg6
(lp495
I28
aI17
aI-1
aI92
aI95
aI-1
asg8
(lp496
I-1
aI-1
aI-1
aF-1.0
aF-1.0
aF-1.0
aI-1
aI-1
aI-1
aF-1.0
aF-1.0
aF-1.0
asg10
(lp497
F-0.004
aF0.006999999999999999
aF0.015
asba(i__main__
sensor_data_struct
p498
(dp499
g3
(lp500
I688
aI395
aI266
aI1186
aI2552
aF205.0
aI693
aI388
aI275
aI1164
aI2533
aF186.0
asg5
I1
sg6
(lp501
I18
aI15
aI-1
aI103
aI118
aI-1
asg8
(lp502
I-1
aI-1
aI-1
aF-1.0
aF-1.0
aF-1.0
aI-1
aI-1
aI-1
aF-1.0
aF-1.0
aF-1.0
asg10
(lp503
F-0.006999999999999999
aF-0.004
aF0.013000000000000001
asba(i__main__
sensor_data_struct
p504
(dp505
g3
(lp506
I617
aI367
aI247
aI1081
aI2600
aF198.0
aI1249
aI556
aI429
aI1895
aI2308
aF158.0
asg5
I1
sg6
(lp507
I39
aI32
aI-1
aI79
aI90
aI-1
asg8
(lp508
I-1
aI-1
aI-1
aF-1.0
aF-1.0
aF-1.0
aI-1
aI-1
aI-1
aF-1.0
aF-1.0
aF-1.0
asg10
(lp509
F0.003
aF0.009000000000000001
aF0.013000000000000001
asba(i__main__
sensor_data_struct
p510
(dp511
g3
(lp512
I629
aI372
aI252
aI1098
aI2598
aF198.0
aI880
aI449
aI340
aI1388
aI2420
aF174.0
asg5
I0
sg6
(lp513
I43
aI73
aI-1
aI144
aI212
aI-1
asg8
(lp514
I-1
aI-1
aI-1
aF-1.0
aF-1.0
aF-1.0
aI-1
aI-1
aI-1
aF-1.0
aF-1.0
aF-1.0
asg10
(lp515
F-0.006999999999999999
aF0.004
aF0.006
asba(i__main__
sensor_data_struct
p516
(dp517
g3
(lp518
I624
aI367
aI250
aI1085
aI2591
aF193.0
aI748
aI415
aI301
aI1236
aI2514
aF191.0
asg5
I1
sg6
(lp519
I41
aI52
aI-1
aI93
aI101
aI-1
asg8
(lp520
I-1
aI-1
aI-1
aF-1.0
aF-1.0
aF-1.0
aI-1
aI-1
aI-1
aF-1.0
aF-1.0
aF-1.0
asg10
(lp521
F0.006
aF-0.001
aF0.015
asba(i__main__
sensor_data_struct
p522
(dp523
g3
(lp524
I649
aI383
aI260
aI1127
aI2587
aF203.0
aI1222
aI536
aI424
aI1833
aI2299
aF138.0
asg5
I0
sg6
(lp525
I64
aI72
aI-1
aI130
aI161
aI-1
asg8
(lp526
I-1
aI-1
aI-1
aF-1.0
aF-1.0
aF-1.0
aI-1
aI-1
aI-1
aF-1.0
aF-1.0
aF-1.0
asg10
(lp527
F0.005
aF0.006
aF0.01
asba(i__main__
sensor_data_struct
p528
(dp529
g3
(lp530
I619
aI362
aI243
aI1084
aI2591
aF192.0
aI907
aI485
aI352
aI1459
aI2436
aF213.0
asg5
I1
sg6
(lp531
I31
aI37
aI-1
aI63
aI110
aI-1
asg8
(lp532
I-1
aI-1
aI-1
aF-1.0
aF-1.0
aF-1.0
aI-1
aI-1
aI-1
aF-1.0
aF-1.0
aF-1.0
asg10
(lp533
F-0.008
aF0.002
aF0.008
asba(i__main__
sensor_data_struct
p534
(dp535
g3
(lp536
I603
aI355
aI236
aI1064
aI2601
aF191.0
aI978
aI518
aI372
aI1562
aI2402
aF227.0
asg5
I0
sg6
(lp537
I22
aI20
aI-1
aI98
aI111
aI-1
asg8
(lp538
I-1
aI-1
aI-1
aF-1.0
aF-1.0
aF-1.0
aI-1
aI-1
aI-1
aF-1.0
aF-1.0
aF-1.0
asg10
(lp539
F-0.002
aF-0.004
aF0.013999999999999999
asba(i__main__
sensor_data_struct
p540
(dp541
g3
(lp542
I633
aI369
aI246
aI1111
aI2591
aF196.0
aI810
aI441
aI316
aI1326
aI2473
aF201.0
asg5
I1
sg6
(lp543
I25
aI23
aI-1
aI106
aI122
aI-1
asg8
(lp544
I-1
aI-1
aI-1
aF-1.0
aF-1.0
aF-1.0
aI-1
aI-1
aI-1
aF-1.0
aF-1.0
aF-1.0
asg10
(lp545
F-0.009000000000000001
aF-0.008
aF0.012
asba(i__main__
sensor_data_struct
p546
(dp547
g3
(lp548
I614
aI360
aI239
aI1080
aI2593
aF193.0
aI834
aI426
aI308
aI1353
aI2444
aF176.0
asg5
I1
sg6
(lp549
I23
aI9
aI-1
aI97
aI108
aI-1
asg8
(lp550
I-1
aI-1
aI-1
aF-1.0
aF-1.0
aF-1.0
aI-1
aI-1
aI-1
aF-1.0
aF-1.0
aF-1.0
asg10
(lp551
F-0.005
aF0.008
aF0.013999999999999999
asba(i__main__
sensor_data_struct
p552
(dp553
g3
(lp554
I600
aI353
aI234
aI1061
aI2604
aF191.0
aI866
aI467
aI352
aI1374
aI2446
aF198.0
asg5
I0
sg6
(lp555
I91
aI78
aI-1
aI157
aI195
aI-1
asg8
(lp556
I-1
aI-1
aI-1
aF-1.0
aF-1.0
aF-1.0
aI-1
aI-1
aI-1
aF-1.0
aF-1.0
aF-1.0
asg10
(lp557
F-0.003
aF-0.006999999999999999
aF0.006999999999999999
asba(i__main__
sensor_data_struct
p558
(dp559
g3
(lp560
I628
aI367
aI248
aI1093
aI2582
aF193.0
aI1164
aI527
aI419
aI1742
aI2304
aF147.0
asg5
I0
sg6
(lp561
I108
aI146
aI-1
aI150
aI199
aI-1
asg8
(lp562
I-1
aI-1
aI-1
aF-1.0
aF-1.0
aF-1.0
aI-1
aI-1
aI-1
aF-1.0
aF-1.0
aF-1.0
asg10
(lp563
F0.001
aF0.002
aF0.006999999999999999
asba(i__main__
sensor_data_struct
p564
(dp565
g3
(lp566
I807
aI439
aI314
aI1326
aI2478
aF201.0
aI732
aI398
aI283
aI1214
aI2498
aF183.0
asg5
I1
sg6
(lp567
I31
aI21
aI-1
aI86
aI92
aI-1
asg8
(lp568
I-1
aI-1
aI-1
aF-1.0
aF-1.0
aF-1.0
aI-1
aI-1
aI-1
aF-1.0
aF-1.0
aF-1.0
asg10
(lp569
F-0.005
aF0.002
aF0.015
asba(i__main__
sensor_data_struct
p570
(dp571
g3
(lp572
I828
aI458
aI317
aI1379
aI2481
aF222.0
aI840
aI437
aI327
aI1339
aI2440
aF177.0
asg5
I0
sg6
(lp573
I55
aI64
aI-1
aI118
aI145
aI-1
asg8
(lp574
I-1
aI-1
aI-1
aF-1.0
aF-1.0
aF-1.0
aI-1
aI-1
aI-1
aF-1.0
aF-1.0
aF-1.0
asg10
(lp575
F-0.004
aF0.002
aF0.011000000000000001
asba(i__main__
sensor_data_struct
p576
(dp577
g3
(lp578
I611
aI358
aI239
aI1074
aI2595
aF191.0
aI1027
aI543
aI389
aI1139
aI12732
aF238.0
asg5
I1
sg6
(lp579
I22
aI22
aI-1
aI97
aI100
aI-1
asg8
(lp580
I-1
aI-1
aI-1
aF-1.0
aF-1.0
aF-1.0
aI-1
aI-1
aI-1
aF-1.0
aF-1.0
aF-1.0
asg10
(lp581
F-0.001
aF-0.006
aF0.015
asba(i__main__
sensor_data_struct
p582
(dp583
g3
(lp584
I631
aI369
aI246
aI1107
aI2590
aF197.0
aI839
aI464
aI342
aI1351
aI2464
aF209.0
asg5
I1
sg6
(lp585
I90
aI60
aI-1
aI166
aI89
aI-1
asg8
(lp586
I-1
aI-1
aI-1
aF-1.0
aF-1.0
aF-1.0
aI-1
aI-1
aI-1
aF-1.0
aF-1.0
aF-1.0
asg10
(lp587
F0.003
aF-0.005
aF0.008
asba(i__main__
sensor_data_struct
p588
(dp589
g3
(lp590
I634
aI371
aI246
aI1113
aI2584
aF199.0
aI967
aI504
aI372
aI1530
aI2405
aF209.0
asg5
I0
sg6
(lp591
I51
aI59
aI-1
aI120
aI146
aI-1
asg8
(lp592
I-1
aI-1
aI-1
aF-1.0
aF-1.0
aF-1.0
aI-1
aI-1
aI-1
aF-1.0
aF-1.0
aF-1.0
asg10
(lp593
F-0.003
aF-0.001
aF0.01
asba(i__main__
sensor_data_struct
p594
(dp595
g3
(lp596
I612
aI361
aI240
aI1077
aI2595
aF195.0
aI923
aI508
aI346
aI1518
aI2432
aF248.0
asg5
I1
sg6
(lp597
I15
aI5
aI-1
aI56
aI58
aI-1
asg8
(lp598
I-1
aI-1
aI-1
aF-1.0
aF-1.0
aF-1.0
aI-1
aI-1
aI-1
aF-1.0
aF-1.0
aF-1.0
asg10
(lp599
F-0.012
aF0.003
aF0.013000000000000001
asba(i__main__
sensor_data_struct
p600
(dp601
g3
(lp602
I633
aI369
aI247
aI1106
aI2584
aF196.0
aI1061
aI531
aI402
aI1641
aI2363
aF199.0
asg5
I0
sg6
(lp603
I45
aI56
aI-1
aI140
aI186
aI-1
asg8
(lp604
I-1
aI-1
aI-1
aF-1.0
aF-1.0
aF-1.0
aI-1
aI-1
aI-1
aF-1.0
aF-1.0
aF-1.0
asg10
(lp605
F-0.006
aF0.0
aF0.008
asba.