(lp0
(i__main__
sensor_data_struct
p1
(dp2
S'color'
p3
(lp4
I-1
aI-1
aI-1
aI-1
aI-1
aF-1.0
aI-1
aI-1
aI-1
aI-1
aI-1
aF-1.0
asS'button'
p5
I1
sS'IR'
p6
(lp7
I66
aI63
aI376
aI99
aI133
aI522
asS'TOF'
p8
(lp9
I-1
aI-1
aI-1
aF-1.0
aF-1.0
aF-1.0
aI-1
aI-1
aI-1
aF-1.0
aF-1.0
aF-1.0
asS'pt'
p10
(lp11
F0.003
aF-0.006999999999999999
aF0.005
asba(i__main__
sensor_data_struct
p12
(dp13
g3
(lp14
I-1
aI-1
aI-1
aI-1
aI-1
aF-1.0
aI-1
aI-1
aI-1
aI-1
aI-1
aF-1.0
asg5
I0
sg6
(lp15
I134
aI256
aI245
aI226
aI435
aI203
asg8
(lp16
I-1
aI-1
aI-1
aF-1.0
aF-1.0
aF-1.0
aI-1
aI-1
aI-1
aF-1.0
aF-1.0
aF-1.0
asg10
(lp17
F0.001
aF-0.001
aF0.006
asba(i__main__
sensor_data_struct
p18
(dp19
g3
(lp20
I-1
aI-1
aI-1
aI-1
aI-1
aF-1.0
aI-1
aI-1
aI-1
aI-1
aI-1
aF-1.0
asg5
I0
sg6
(lp21
I55
aI195
aI167
aI128
aI363
aI223
asg8
(lp22
I-1
aI-1
aI-1
aF-1.0
aF-1.0
aF-1.0
aI-1
aI-1
aI-1
aF-1.0
aF-1.0
aF-1.0
asg10
(lp23
F0.002
aF0.001
aF0.012
asba(i__main__
sensor_data_struct
p24
(dp25
g3
(lp26
I-1
aI-1
aI-1
aI-1
aI-1
aF-1.0
aI-1
aI-1
aI-1
aI-1
aI-1
aF-1.0
asg5
I1
sg6
(lp27
I12
aI54
aI24
aI75
aI145
aI109
asg8
(lp28
I-1
aI-1
aI-1
aF-1.0
aF-1.0
aF-1.0
aI-1
aI-1
aI-1
aF-1.0
aF-1.0
aF-1.0
asg10
(lp29
F-0.01
aF-0.003
aF0.013999999999999999
asba(i__main__
sensor_data_struct
p30
(dp31
g3
(lp32
I-1
aI-1
aI-1
aI-1
aI-1
aF-1.0
aI-1
aI-1
aI-1
aI-1
aI-1
aF-1.0
asg5
I1
sg6
(lp33
I14
aI41
aI32
aI117
aI343
aI207
asg8
(lp34
I-1
aI-1
aI-1
aF-1.0
aF-1.0
aF-1.0
aI-1
aI-1
aI-1
aF-1.0
aF-1.0
aF-1.0
asg10
(lp35
F-0.001
aF0.011000000000000001
aF0.012
asba(i__main__
sensor_data_struct
p36
(dp37
g3
(lp38
I-1
aI-1
aI-1
aI-1
aI-1
aF-1.0
aI-1
aI-1
aI-1
aI-1
aI-1
aF-1.0
asg5
I1
sg6
(lp39
I23
aI54
aI52
aI102
aI303
aI204
asg8
(lp40
I-1
aI-1
aI-1
aF-1.0
aF-1.0
aF-1.0
aI-1
aI-1
aI-1
aF-1.0
aF-1.0
aF-1.0
asg10
(lp41
F0.003
aF0.009000000000000001
aF0.013999999999999999
asba(i__main__
sensor_data_struct
p42
(dp43
g3
(lp44
I-1
aI-1
aI-1
aI-1
aI-1
aF-1.0
aI-1
aI-1
aI-1
aI-1
aI-1
aF-1.0
asg5
I1
sg6
(lp45
I19
aI43
aI61
aI78
aI148
aI162
asg8
(lp46
I-1
aI-1
aI-1
aF-1.0
aF-1.0
aF-1.0
aI-1
aI-1
aI-1
aF-1.0
aF-1.0
aF-1.0
asg10
(lp47
F0.004
aF-0.009000000000000001
aF0.015
asba(i__main__
sensor_data_struct
p48
(dp49
g3
(lp50
I-1
aI-1
aI-1
aI-1
aI-1
aF-1.0
aI-1
aI-1
aI-1
aI-1
aI-1
aF-1.0
asg5
I1
sg6
(lp51
I10
aI21
aI24
aI71
aI183
aI131
asg8
(lp52
I-1
aI-1
aI-1
aF-1.0
aF-1.0
aF-1.0
aI-1
aI-1
aI-1
aF-1.0
aF-1.0
aF-1.0
asg10
(lp53
F-0.002
aF0.013000000000000001
aF0.013999999999999999
asba(i__main__
sensor_data_struct
p54
(dp55
g3
(lp56
I-1
aI-1
aI-1
aI-1
aI-1
aF-1.0
aI-1
aI-1
aI-1
aI-1
aI-1
aF-1.0
asg5
I0
sg6
(lp57
I51
aI191
aI140
aI122
aI351
aI218
asg8
(lp58
I-1
aI-1
aI-1
aF-1.0
aF-1.0
aF-1.0
aI-1
aI-1
aI-1
aF-1.0
aF-1.0
aF-1.0
asg10
(lp59
F0.002
aF0.004
aF0.012
asba(i__main__
sensor_data_struct
p60
(dp61
g3
(lp62
I-1
aI-1
aI-1
aI-1
aI-1
aF-1.0
aI-1
aI-1
aI-1
aI-1
aI-1
aF-1.0
asg5
I1
sg6
(lp63
I9
aI56
aI24
aI75
aI146
aI109
asg8
(lp64
I-1
aI-1
aI-1
aF-1.0
aF-1.0
aF-1.0
aI-1
aI-1
aI-1
aF-1.0
aF-1.0
aF-1.0
asg10
(lp65
F-0.01
aF-0.002
aF0.012
asba(i__main__
sensor_data_struct
p66
(dp67
g3
(lp68
I-1
aI-1
aI-1
aI-1
aI-1
aF-1.0
aI-1
aI-1
aI-1
aI-1
aI-1
aF-1.0
asg5
I0
sg6
(lp69
I20
aI107
aI78
aI131
aI357
aI224
asg8
(lp70
I-1
aI-1
aI-1
aF-1.0
aF-1.0
aF-1.0
aI-1
aI-1
aI-1
aF-1.0
aF-1.0
aF-1.0
asg10
(lp71
F-0.006
aF-0.004
aF0.011000000000000001
asba(i__main__
sensor_data_struct
p72
(dp73
g3
(lp74
I-1
aI-1
aI-1
aI-1
aI-1
aF-1.0
aI-1
aI-1
aI-1
aI-1
aI-1
aF-1.0
asg5
I0
sg6
(lp75
I128
aI116
aI472
aI271
aI411
aI198
asg8
(lp76
I-1
aI-1
aI-1
aF-1.0
aF-1.0
aF-1.0
aI-1
aI-1
aI-1
aF-1.0
aF-1.0
aF-1.0
asg10
(lp77
F0.002
aF-0.005
aF0.003
asba(i__main__
sensor_data_struct
p78
(dp79
g3
(lp80
I-1
aI-1
aI-1
aI-1
aI-1
aF-1.0
aI-1
aI-1
aI-1
aI-1
aI-1
aF-1.0
asg5
I1
sg6
(lp81
I68
aI113
aI289
aI117
aI177
aI361
asg8
(lp82
I-1
aI-1
aI-1
aF-1.0
aF-1.0
aF-1.0
aI-1
aI-1
aI-1
aF-1.0
aF-1.0
aF-1.0
asg10
(lp83
F0.002
aF-0.006
aF0.009000000000000001
asba(i__main__
sensor_data_struct
p84
(dp85
g3
(lp86
I-1
aI-1
aI-1
aI-1
aI-1
aF-1.0
aI-1
aI-1
aI-1
aI-1
aI-1
aF-1.0
asg5
I0
sg6
(lp87
I35
aI160
aI91
aI145
aI394
aI214
asg8
(lp88
I-1
aI-1
aI-1
aF-1.0
aF-1.0
aF-1.0
aI-1
aI-1
aI-1
aF-1.0
aF-1.0
aF-1.0
asg10
(lp89
F-0.003
aF0.002
aF0.01
asba(i__main__
sensor_data_struct
p90
(dp91
g3
(lp92
I-1
aI-1
aI-1
aI-1
aI-1
aF-1.0
aI-1
aI-1
aI-1
aI-1
aI-1
aF-1.0
asg5
I0
sg6
(lp93
I42
aI113
aI180
aI112
aI318
aI230
asg8
(lp94
I-1
aI-1
aI-1
aF-1.0
aF-1.0
aF-1.0
aI-1
aI-1
aI-1
aF-1.0
aF-1.0
aF-1.0
asg10
(lp95
F0.001
aF-0.005
aF0.013000000000000001
asba(i__main__
sensor_data_struct
p96
(dp97
g3
(lp98
I-1
aI-1
aI-1
aI-1
aI-1
aF-1.0
aI-1
aI-1
aI-1
aI-1
aI-1
aF-1.0
asg5
I1
sg6
(lp99
I19
aI73
aI88
aI87
aI248
aI209
asg8
(lp100
I-1
aI-1
aI-1
aF-1.0
aF-1.0
aF-1.0
aI-1
aI-1
aI-1
aF-1.0
aF-1.0
aF-1.0
asg10
(lp101
F-0.003
aF-0.01
aF0.015
asba(i__main__
sensor_data_struct
p102
(dp103
g3
(lp104
I-1
aI-1
aI-1
aI-1
aI-1
aF-1.0
aI-1
aI-1
aI-1
aI-1
aI-1
aF-1.0
asg5
I0
sg6
(lp105
I95
aI165
aI234
aI153
aI403
aI237
asg8
(lp106
I-1
aI-1
aI-1
aF-1.0
aF-1.0
aF-1.0
aI-1
aI-1
aI-1
aF-1.0
aF-1.0
aF-1.0
asg10
(lp107
F0.006
aF-0.001
aF0.01
asba(i__main__
sensor_data_struct
p108
(dp109
g3
(lp110
I-1
aI-1
aI-1
aI-1
aI-1
aF-1.0
aI-1
aI-1
aI-1
aI-1
aI-1
aF-1.0
asg5
I0
sg6
(lp111
I31
aI160
aI77
aI139
aI385
aI209
asg8
(lp112
I-1
aI-1
aI-1
aF-1.0
aF-1.0
aF-1.0
aI-1
aI-1
aI-1
aF-1.0
aF-1.0
aF-1.0
asg10
(lp113
F-0.002
aF0.005
aF0.011000000000000001
asba(i__main__
sensor_data_struct
p114
(dp115
g3
(lp116
I-1
aI-1
aI-1
aI-1
aI-1
aF-1.0
aI-1
aI-1
aI-1
aI-1
aI-1
aF-1.0
asg5
I1
sg6
(lp117
I10
aI66
aI31
aI64
aI142
aI97
asg8
(lp118
I-1
aI-1
aI-1
aF-1.0
aF-1.0
aF-1.0
aI-1
aI-1
aI-1
aF-1.0
aF-1.0
aF-1.0
asg10
(lp119
F-0.009000000000000001
aF-0.001
aF0.012
asba(i__main__
sensor_data_struct
p120
(dp121
g3
(lp122
I-1
aI-1
aI-1
aI-1
aI-1
aF-1.0
aI-1
aI-1
aI-1
aI-1
aI-1
aF-1.0
asg5
I1
sg6
(lp123
I40
aI144
aI151
aI92
aI263
aI207
asg8
(lp124
I-1
aI-1
aI-1
aF-1.0
aF-1.0
aF-1.0
aI-1
aI-1
aI-1
aF-1.0
aF-1.0
aF-1.0
asg10
(lp125
F0.002
aF0.001
aF0.015
asba(i__main__
sensor_data_struct
p126
(dp127
g3
(lp128
I-1
aI-1
aI-1
aI-1
aI-1
aF-1.0
aI-1
aI-1
aI-1
aI-1
aI-1
aF-1.0
asg5
I1
sg6
(lp129
I11
aI31
aI31
aI97
aI286
aI200
asg8
(lp130
I-1
aI-1
aI-1
aF-1.0
aF-1.0
aF-1.0
aI-1
aI-1
aI-1
aF-1.0
aF-1.0
aF-1.0
asg10
(lp131
F0.0
aF0.011000000000000001
aF0.013999999999999999
asba(i__main__
sensor_data_struct
p132
(dp133
g3
(lp134
I-1
aI-1
aI-1
aI-1
aI-1
aF-1.0
aI-1
aI-1
aI-1
aI-1
aI-1
aF-1.0
asg5
I1
sg6
(lp135
I35
aI114
aI155
aI102
aI299
aI224
asg8
(lp136
I-1
aI-1
aI-1
aF-1.0
aF-1.0
aF-1.0
aI-1
aI-1
aI-1
aF-1.0
aF-1.0
aF-1.0
asg10
(lp137
F0.0
aF-0.004
aF0.013000000000000001
asba(i__main__
sensor_data_struct
p138
(dp139
g3
(lp140
I-1
aI-1
aI-1
aI-1
aI-1
aF-1.0
aI-1
aI-1
aI-1
aI-1
aI-1
aF-1.0
asg5
I1
sg6
(lp141
I13
aI81
aI39
aI125
aI355
aI214
asg8
(lp142
I-1
aI-1
aI-1
aF-1.0
aF-1.0
aF-1.0
aI-1
aI-1
aI-1
aF-1.0
aF-1.0
aF-1.0
asg10
(lp143
F-0.008
aF-0.001
aF0.011000000000000001
asba(i__main__
sensor_data_struct
p144
(dp145
g3
(lp146
I-1
aI-1
aI-1
aI-1
aI-1
aF-1.0
aI-1
aI-1
aI-1
aI-1
aI-1
aF-1.0
asg5
I1
sg6
(lp147
I18
aI48
aI53
aI101
aI298
aI207
asg8
(lp148
I-1
aI-1
aI-1
aF-1.0
aF-1.0
aF-1.0
aI-1
aI-1
aI-1
aF-1.0
aF-1.0
aF-1.0
asg10
(lp149
F0.002
aF0.006999999999999999
aF0.013999999999999999
asba(i__main__
sensor_data_struct
p150
(dp151
g3
(lp152
I-1
aI-1
aI-1
aI-1
aI-1
aF-1.0
aI-1
aI-1
aI-1
aI-1
aI-1
aF-1.0
asg5
I0
sg6
(lp153
I84
aI143
aI218
aI224
aI422
aI212
asg8
(lp154
I-1
aI-1
aI-1
aF-1.0
aF-1.0
aF-1.0
aI-1
aI-1
aI-1
aF-1.0
aF-1.0
aF-1.0
asg10
(lp155
F-0.003
aF-0.006
aF0.006
asba(i__main__
sensor_data_struct
p156
(dp157
g3
(lp158
I-1
aI-1
aI-1
aI-1
aI-1
aF-1.0
aI-1
aI-1
aI-1
aI-1
aI-1
aF-1.0
asg5
I1
sg6
(lp159
I47
aI77
aI224
aI82
aI141
aI156
asg8
(lp160
I-1
aI-1
aI-1
aF-1.0
aF-1.0
aF-1.0
aI-1
aI-1
aI-1
aF-1.0
aF-1.0
aF-1.0
asg10
(lp161
F-0.002
aF-0.01
aF0.009000000000000001
asba(i__main__
sensor_data_struct
p162
(dp163
g3
(lp164
I-1
aI-1
aI-1
aI-1
aI-1
aF-1.0
aI-1
aI-1
aI-1
aI-1
aI-1
aF-1.0
asg5
I1
sg6
(lp165
I126
aI111
aI508
aI150
aI149
aI549
asg8
(lp166
I-1
aI-1
aI-1
aF-1.0
aF-1.0
aF-1.0
aI-1
aI-1
aI-1
aF-1.0
aF-1.0
aF-1.0
asg10
(lp167
F0.003
aF-0.005
aF0.002
asba(i__main__
sensor_data_struct
p168
(dp169
g3
(lp170
I-1
aI-1
aI-1
aI-1
aI-1
aF-1.0
aI-1
aI-1
aI-1
aI-1
aI-1
aF-1.0
asg5
I1
sg6
(lp171
I19
aI53
aI37
aI104
aI310
aI204
asg8
(lp172
I-1
aI-1
aI-1
aF-1.0
aF-1.0
aF-1.0
aI-1
aI-1
aI-1
aF-1.0
aF-1.0
aF-1.0
asg10
(lp173
F-0.004
aF0.008
aF0.013000000000000001
asba(i__main__
sensor_data_struct
p174
(dp175
g3
(lp176
I-1
aI-1
aI-1
aI-1
aI-1
aF-1.0
aI-1
aI-1
aI-1
aI-1
aI-1
aF-1.0
asg5
I0
sg6
(lp177
I78
aI114
aI128
aI140
aI384
aI236
asg8
(lp178
I-1
aI-1
aI-1
aF-1.0
aF-1.0
aF-1.0
aI-1
aI-1
aI-1
aF-1.0
aF-1.0
aF-1.0
asg10
(lp179
F0.01
aF0.003
aF0.011000000000000001
asba(i__main__
sensor_data_struct
p180
(dp181
g3
(lp182
I-1
aI-1
aI-1
aI-1
aI-1
aF-1.0
aI-1
aI-1
aI-1
aI-1
aI-1
aF-1.0
asg5
I1
sg6
(lp183
I52
aI107
aI202
aI116
aI327
aI235
asg8
(lp184
I-1
aI-1
aI-1
aF-1.0
aF-1.0
aF-1.0
aI-1
aI-1
aI-1
aF-1.0
aF-1.0
aF-1.0
asg10
(lp185
F0.003
aF-0.004
aF0.013000000000000001
asba(i__main__
sensor_data_struct
p186
(dp187
g3
(lp188
I-1
aI-1
aI-1
aI-1
aI-1
aF-1.0
aI-1
aI-1
aI-1
aI-1
aI-1
aF-1.0
asg5
I0
sg6
(lp189
I153
aI251
aI324
aI226
aI439
aI212
asg8
(lp190
I-1
aI-1
aI-1
aF-1.0
aF-1.0
aF-1.0
aI-1
aI-1
aI-1
aF-1.0
aF-1.0
aF-1.0
asg10
(lp191
F0.003
aF-0.001
aF0.006
asba(i__main__
sensor_data_struct
p192
(dp193
g3
(lp194
I-1
aI-1
aI-1
aI-1
aI-1
aF-1.0
aI-1
aI-1
aI-1
aI-1
aI-1
aF-1.0
asg5
I1
sg6
(lp195
I34
aI163
aI75
aI129
aI368
aI212
asg8
(lp196
I-1
aI-1
aI-1
aF-1.0
aF-1.0
aF-1.0
aI-1
aI-1
aI-1
aF-1.0
aF-1.0
aF-1.0
asg10
(lp197
F-0.001
aF0.006
aF0.011000000000000001
asba(i__main__
sensor_data_struct
p198
(dp199
g3
(lp200
I-1
aI-1
aI-1
aI-1
aI-1
aF-1.0
aI-1
aI-1
aI-1
aI-1
aI-1
aF-1.0
asg5
I0
sg6
(lp201
I37
aI95
aI165
aI141
aI374
aI241
asg8
(lp202
I-1
aI-1
aI-1
aF-1.0
aF-1.0
aF-1.0
aI-1
aI-1
aI-1
aF-1.0
aF-1.0
aF-1.0
asg10
(lp203
F-0.003
aF-0.01
aF0.01
asba(i__main__
sensor_data_struct
p204
(dp205
g3
(lp206
I-1
aI-1
aI-1
aI-1
aI-1
aF-1.0
aI-1
aI-1
aI-1
aI-1
aI-1
aF-1.0
asg5
I1
sg6
(lp207
I10
aI73
aI42
aI79
aI227
aI197
asg8
(lp208
I-1
aI-1
aI-1
aF-1.0
aF-1.0
aF-1.0
aI-1
aI-1
aI-1
aF-1.0
aF-1.0
aF-1.0
asg10
(lp209
F-0.01
aF-0.009000000000000001
aF0.015
asba(i__main__
sensor_data_struct
p210
(dp211
g3
(lp212
I-1
aI-1
aI-1
aI-1
aI-1
aF-1.0
aI-1
aI-1
aI-1
aI-1
aI-1
aF-1.0
asg5
I1
sg6
(lp213
I11
aI51
aI23
aI75
aI143
aI108
asg8
(lp214
I-1
aI-1
aI-1
aF-1.0
aF-1.0
aF-1.0
aI-1
aI-1
aI-1
aF-1.0
aF-1.0
aF-1.0
asg10
(lp215
F-0.01
aF-0.004
aF0.013999999999999999
asba(i__main__
sensor_data_struct
p216
(dp217
g3
(lp218
I-1
aI-1
aI-1
aI-1
aI-1
aF-1.0
aI-1
aI-1
aI-1
aI-1
aI-1
aF-1.0
asg5
I0
sg6
(lp219
I91
aI176
aI198
aI155
aI405
aI234
asg8
(lp220
I-1
aI-1
aI-1
aF-1.0
aF-1.0
aF-1.0
aI-1
aI-1
aI-1
aF-1.0
aF-1.0
aF-1.0
asg10
(lp221
F0.006
aF0.001
aF0.01
asba(i__main__
sensor_data_struct
p222
(dp223
g3
(lp224
I-1
aI-1
aI-1
aI-1
aI-1
aF-1.0
aI-1
aI-1
aI-1
aI-1
aI-1
aF-1.0
asg5
I0
sg6
(lp225
I33
aI154
aI58
aI160
aI416
aI211
asg8
(lp226
I-1
aI-1
aI-1
aF-1.0
aF-1.0
aF-1.0
aI-1
aI-1
aI-1
aF-1.0
aF-1.0
aF-1.0
asg10
(lp227
F-0.001
aF0.008
aF0.009000000000000001
asba(i__main__
sensor_data_struct
p228
(dp229
g3
(lp230
I-1
aI-1
aI-1
aI-1
aI-1
aF-1.0
aI-1
aI-1
aI-1
aI-1
aI-1
aF-1.0
asg5
I0
sg6
(lp231
I85
aI146
aI214
aI219
aI426
aI212
asg8
(lp232
I-1
aI-1
aI-1
aF-1.0
aF-1.0
aF-1.0
aI-1
aI-1
aI-1
aF-1.0
aF-1.0
aF-1.0
asg10
(lp233
F-0.003
aF-0.005
aF0.006
asba(i__main__
sensor_data_struct
p234
(dp235
g3
(lp236
I-1
aI-1
aI-1
aI-1
aI-1
aF-1.0
aI-1
aI-1
aI-1
aI-1
aI-1
aF-1.0
asg5
I0
sg6
(lp237
I86
aI233
aI239
aI153
aI403
aI231
asg8
(lp238
I-1
aI-1
aI-1
aF-1.0
aF-1.0
aF-1.0
aI-1
aI-1
aI-1
aF-1.0
aF-1.0
aF-1.0
asg10
(lp239
F0.003
aF0.0
aF0.01
asba(i__main__
sensor_data_struct
p240
(dp241
g3
(lp242
I-1
aI-1
aI-1
aI-1
aI-1
aF-1.0
aI-1
aI-1
aI-1
aI-1
aI-1
aF-1.0
asg5
I1
sg6
(lp243
I10
aI37
aI32
aI97
aI286
aI196
asg8
(lp244
I-1
aI-1
aI-1
aF-1.0
aF-1.0
aF-1.0
aI-1
aI-1
aI-1
aF-1.0
aF-1.0
aF-1.0
asg10
(lp245
F-0.005
aF0.009000000000000001
aF0.013999999999999999
asba(i__main__
sensor_data_struct
p246
(dp247
g3
(lp248
I-1
aI-1
aI-1
aI-1
aI-1
aF-1.0
aI-1
aI-1
aI-1
aI-1
aI-1
aF-1.0
asg5
I0
sg6
(lp249
I78
aI173
aI82
aI232
aI427
aI180
asg8
(lp250
I-1
aI-1
aI-1
aF-1.0
aF-1.0
aF-1.0
aI-1
aI-1
aI-1
aF-1.0
aF-1.0
aF-1.0
asg10
(lp251
F-0.005
aF0.001
aF0.005
asba(i__main__
sensor_data_struct
p252
(dp253
g3
(lp254
I-1
aI-1
aI-1
aI-1
aI-1
aF-1.0
aI-1
aI-1
aI-1
aI-1
aI-1
aF-1.0
asg5
I1
sg6
(lp255
I19
aI95
aI89
aI103
aI298
aI222
asg8
(lp256
I-1
aI-1
aI-1
aF-1.0
aF-1.0
aF-1.0
aI-1
aI-1
aI-1
aF-1.0
aF-1.0
aF-1.0
asg10
(lp257
F-0.006
aF-0.009000000000000001
aF0.013000000000000001
asba(i__main__
sensor_data_struct
p258
(dp259
g3
(lp260
I-1
aI-1
aI-1
aI-1
aI-1
aF-1.0
aI-1
aI-1
aI-1
aI-1
aI-1
aF-1.0
asg5
I0
sg6
(lp261
I97
aI206
aI223
aI133
aI370
aI233
asg8
(lp262
I-1
aI-1
aI-1
aF-1.0
aF-1.0
aF-1.0
aI-1
aI-1
aI-1
aF-1.0
aF-1.0
aF-1.0
asg10
(lp263
F0.005
aF0.0
aF0.011000000000000001
asba(i__main__
sensor_data_struct
p264
(dp265
g3
(lp266
I-1
aI-1
aI-1
aI-1
aI-1
aF-1.0
aI-1
aI-1
aI-1
aI-1
aI-1
aF-1.0
asg5
I1
sg6
(lp267
I51
aI146
aI161
aI101
aI292
aI217
asg8
(lp268
I-1
aI-1
aI-1
aF-1.0
aF-1.0
aF-1.0
aI-1
aI-1
aI-1
aF-1.0
aF-1.0
aF-1.0
asg10
(lp269
F0.003
aF0.001
aF0.013999999999999999
asba(i__main__
sensor_data_struct
p270
(dp271
g3
(lp272
I-1
aI-1
aI-1
aI-1
aI-1
aF-1.0
aI-1
aI-1
aI-1
aI-1
aI-1
aF-1.0
asg5
I1
sg6
(lp273
I16
aI68
aI40
aI118
aI353
aI209
asg8
(lp274
I-1
aI-1
aI-1
aF-1.0
aF-1.0
aF-1.0
aI-1
aI-1
aI-1
aF-1.0
aF-1.0
aF-1.0
asg10
(lp275
F-0.003
aF0.011000000000000001
aF0.011000000000000001
asba(i__main__
sensor_data_struct
p276
(dp277
g3
(lp278
I-1
aI-1
aI-1
aI-1
aI-1
aF-1.0
aI-1
aI-1
aI-1
aI-1
aI-1
aF-1.0
asg5
I1
sg6
(lp279
I15
aI98
aI67
aI96
aI280
aI202
asg8
(lp280
I-1
aI-1
aI-1
aF-1.0
aF-1.0
aF-1.0
aI-1
aI-1
aI-1
aF-1.0
aF-1.0
aF-1.0
asg10
(lp281
F-0.005
aF0.003
aF0.013999999999999999
asba(i__main__
sensor_data_struct
p282
(dp283
g3
(lp284
I-1
aI-1
aI-1
aI-1
aI-1
aF-1.0
aI-1
aI-1
aI-1
aI-1
aI-1
aF-1.0
asg5
I1
sg6
(lp285
I28
aI21
aI43
aI78
aI139
aI140
asg8
(lp286
I-1
aI-1
aI-1
aF-1.0
aF-1.0
aF-1.0
aI-1
aI-1
aI-1
aF-1.0
aF-1.0
aF-1.0
asg10
(lp287
F0.01
aF-0.004
aF0.015
asba(i__main__
sensor_data_struct
p288
(dp289
g3
(lp290
I-1
aI-1
aI-1
aI-1
aI-1
aF-1.0
aI-1
aI-1
aI-1
aI-1
aI-1
aF-1.0
asg5
I1
sg6
(lp291
I32
aI93
aI143
aI115
aI325
aI234
asg8
(lp292
I-1
aI-1
aI-1
aF-1.0
aF-1.0
aF-1.0
aI-1
aI-1
aI-1
aF-1.0
aF-1.0
aF-1.0
asg10
(lp293
F0.0
aF-0.006999999999999999
aF0.012
asba(i__main__
sensor_data_struct
p294
(dp295
g3
(lp296
I-1
aI-1
aI-1
aI-1
aI-1
aF-1.0
aI-1
aI-1
aI-1
aI-1
aI-1
aF-1.0
asg5
I1
sg6
(lp297
I10
aI37
aI30
aI84
aI244
aI186
asg8
(lp298
I-1
aI-1
aI-1
aF-1.0
aF-1.0
aF-1.0
aI-1
aI-1
aI-1
aF-1.0
aF-1.0
aF-1.0
asg10
(lp299
F-0.006
aF0.008
aF0.015
asba(i__main__
sensor_data_struct
p300
(dp301
g3
(lp302
I-1
aI-1
aI-1
aI-1
aI-1
aF-1.0
aI-1
aI-1
aI-1
aI-1
aI-1
aF-1.0
asg5
I0
sg6
(lp303
I131
aI262
aI65
aI313
aI390
aI146
asg8
(lp304
I-1
aI-1
aI-1
aF-1.0
aF-1.0
aF-1.0
aI-1
aI-1
aI-1
aF-1.0
aF-1.0
aF-1.0
asg10
(lp305
F-0.002
aF0.005
aF0.001
asba(i__main__
sensor_data_struct
p306
(dp307
g3
(lp308
I-1
aI-1
aI-1
aI-1
aI-1
aF-1.0
aI-1
aI-1
aI-1
aI-1
aI-1
aF-1.0
asg5
I0
sg6
(lp309
I28
aI109
aI103
aI137
aI368
aI234
asg8
(lp310
I-1
aI-1
aI-1
aF-1.0
aF-1.0
aF-1.0
aI-1
aI-1
aI-1
aF-1.0
aF-1.0
aF-1.0
asg10
(lp311
F-0.006999999999999999
aF-0.008
aF0.01
asba(i__main__
sensor_data_struct
p312
(dp313
g3
(lp314
I-1
aI-1
aI-1
aI-1
aI-1
aF-1.0
aI-1
aI-1
aI-1
aI-1
aI-1
aF-1.0
asg5
I1
sg6
(lp315
I11
aI40
aI30
aI95
aI279
aI194
asg8
(lp316
I-1
aI-1
aI-1
aF-1.0
aF-1.0
aF-1.0
aI-1
aI-1
aI-1
aF-1.0
aF-1.0
aF-1.0
asg10
(lp317
F-0.006999999999999999
aF0.006999999999999999
aF0.013999999999999999
asba(i__main__
sensor_data_struct
p318
(dp319
g3
(lp320
I-1
aI-1
aI-1
aI-1
aI-1
aF-1.0
aI-1
aI-1
aI-1
aI-1
aI-1
aF-1.0
asg5
I1
sg6
(lp321
I45
aI46
aI175
aI92
aI143
aI292
asg8
(lp322
I-1
aI-1
aI-1
aF-1.0
aF-1.0
aF-1.0
aI-1
aI-1
aI-1
aF-1.0
aF-1.0
aF-1.0
asg10
(lp323
F0.005
aF-0.008
aF0.009000000000000001
asba(i__main__
sensor_data_struct
p324
(dp325
g3
(lp326
I-1
aI-1
aI-1
aI-1
aI-1
aF-1.0
aI-1
aI-1
aI-1
aI-1
aI-1
aF-1.0
asg5
I0
sg6
(lp327
I166
aI168
aI264
aI313
aI373
aI169
asg8
(lp328
I-1
aI-1
aI-1
aF-1.0
aF-1.0
aF-1.0
aI-1
aI-1
aI-1
aF-1.0
aF-1.0
aF-1.0
asg10
(lp329
F0.0
aF-0.003
aF0.001
asba(i__main__
sensor_data_struct
p330
(dp331
g3
(lp332
I-1
aI-1
aI-1
aI-1
aI-1
aF-1.0
aI-1
aI-1
aI-1
aI-1
aI-1
aF-1.0
asg5
I0
sg6
(lp333
I134
aI130
aI428
aI241
aI434
aI218
asg8
(lp334
I-1
aI-1
aI-1
aF-1.0
aF-1.0
aF-1.0
aI-1
aI-1
aI-1
aF-1.0
aF-1.0
aF-1.0
asg10
(lp335
F0.004
aF-0.004
aF0.005
asba(i__main__
sensor_data_struct
p336
(dp337
g3
(lp338
I-1
aI-1
aI-1
aI-1
aI-1
aF-1.0
aI-1
aI-1
aI-1
aI-1
aI-1
aF-1.0
asg5
I0
sg6
(lp339
I58
aI111
aI237
aI163
aI404
aI239
asg8
(lp340
I-1
aI-1
aI-1
aF-1.0
aF-1.0
aF-1.0
aI-1
aI-1
aI-1
aF-1.0
aF-1.0
aF-1.0
asg10
(lp341
F-0.001
aF-0.006999999999999999
aF0.009000000000000001
asba(i__main__
sensor_data_struct
p342
(dp343
g3
(lp344
I-1
aI-1
aI-1
aI-1
aI-1
aF-1.0
aI-1
aI-1
aI-1
aI-1
aI-1
aF-1.0
asg5
I0
sg6
(lp345
I35
aI112
aI139
aI144
aI382
aI238
asg8
(lp346
I-1
aI-1
aI-1
aF-1.0
aF-1.0
aF-1.0
aI-1
aI-1
aI-1
aF-1.0
aF-1.0
aF-1.0
asg10
(lp347
F-0.004
aF-0.008
aF0.01
asba(i__main__
sensor_data_struct
p348
(dp349
g3
(lp350
I-1
aI-1
aI-1
aI-1
aI-1
aF-1.0
aI-1
aI-1
aI-1
aI-1
aI-1
aF-1.0
asg5
I1
sg6
(lp351
I69
aI111
aI194
aI113
aI321
aI233
asg8
(lp352
I-1
aI-1
aI-1
aF-1.0
aF-1.0
aF-1.0
aI-1
aI-1
aI-1
aF-1.0
aF-1.0
aF-1.0
asg10
(lp353
F0.006
aF-0.002
aF0.013000000000000001
asba(i__main__
sensor_data_struct
p354
(dp355
g3
(lp356
I-1
aI-1
aI-1
aI-1
aI-1
aF-1.0
aI-1
aI-1
aI-1
aI-1
aI-1
aF-1.0
asg5
I1
sg6
(lp357
I33
aI118
aI143
aI124
aI345
aI231
asg8
(lp358
I-1
aI-1
aI-1
aF-1.0
aF-1.0
aF-1.0
aI-1
aI-1
aI-1
aF-1.0
aF-1.0
aF-1.0
asg10
(lp359
F-0.001
aF-0.005
aF0.012
asba(i__main__
sensor_data_struct
p360
(dp361
g3
(lp362
I-1
aI-1
aI-1
aI-1
aI-1
aF-1.0
aI-1
aI-1
aI-1
aI-1
aI-1
aF-1.0
asg5
I1
sg6
(lp363
I39
aI39
aI70
aI97
aI282
aI220
asg8
(lp364
I-1
aI-1
aI-1
aF-1.0
aF-1.0
aF-1.0
aI-1
aI-1
aI-1
aF-1.0
aF-1.0
aF-1.0
asg10
(lp365
F0.011000000000000001
aF0.003
aF0.013999999999999999
asba(i__main__
sensor_data_struct
p366
(dp367
g3
(lp368
I-1
aI-1
aI-1
aI-1
aI-1
aF-1.0
aI-1
aI-1
aI-1
aI-1
aI-1
aF-1.0
asg5
I1
sg6
(lp369
I69
aI147
aI221
aI124
aI348
aI233
asg8
(lp370
I-1
aI-1
aI-1
aF-1.0
aF-1.0
aF-1.0
aI-1
aI-1
aI-1
aF-1.0
aF-1.0
aF-1.0
asg10
(lp371
F0.004
aF-0.002
aF0.012
asba(i__main__
sensor_data_struct
p372
(dp373
g3
(lp374
I-1
aI-1
aI-1
aI-1
aI-1
aF-1.0
aI-1
aI-1
aI-1
aI-1
aI-1
aF-1.0
asg5
I0
sg6
(lp375
I61
aI146
aI212
aI188
aI425
aI225
asg8
(lp376
I-1
aI-1
aI-1
aF-1.0
aF-1.0
aF-1.0
aI-1
aI-1
aI-1
aF-1.0
aF-1.0
aF-1.0
asg10
(lp377
F-0.001
aF-0.004
aF0.008
asba(i__main__
sensor_data_struct
p378
(dp379
g3
(lp380
I-1
aI-1
aI-1
aI-1
aI-1
aF-1.0
aI-1
aI-1
aI-1
aI-1
aI-1
aF-1.0
asg5
I1
sg6
(lp381
I26
aI119
aI120
aI117
aI336
aI226
asg8
(lp382
I-1
aI-1
aI-1
aF-1.0
aF-1.0
aF-1.0
aI-1
aI-1
aI-1
aF-1.0
aF-1.0
aF-1.0
asg10
(lp383
F-0.002
aF-0.003
aF0.012
asba(i__main__
sensor_data_struct
p384
(dp385
g3
(lp386
I-1
aI-1
aI-1
aI-1
aI-1
aF-1.0
aI-1
aI-1
aI-1
aI-1
aI-1
aF-1.0
asg5
I0
sg6
(lp387
I50
aI199
aI63
aI198
aI436
aI192
asg8
(lp388
I-1
aI-1
aI-1
aF-1.0
aF-1.0
aF-1.0
aI-1
aI-1
aI-1
aF-1.0
aF-1.0
aF-1.0
asg10
(lp389
F-0.003
aF0.006
aF0.006999999999999999
asba(i__main__
sensor_data_struct
p390
(dp391
g3
(lp392
I-1
aI-1
aI-1
aI-1
aI-1
aF-1.0
aI-1
aI-1
aI-1
aI-1
aI-1
aF-1.0
asg5
I0
sg6
(lp393
I108
aI185
aI167
aI189
aI432
aI228
asg8
(lp394
I-1
aI-1
aI-1
aF-1.0
aF-1.0
aF-1.0
aI-1
aI-1
aI-1
aF-1.0
aF-1.0
aF-1.0
asg10
(lp395
F0.008
aF0.002
aF0.008
asba(i__main__
sensor_data_struct
p396
(dp397
g3
(lp398
I-1
aI-1
aI-1
aI-1
aI-1
aF-1.0
aI-1
aI-1
aI-1
aI-1
aI-1
aF-1.0
asg5
I1
sg6
(lp399
I21
aI88
aI38
aI87
aI164
aI100
asg8
(lp400
I-1
aI-1
aI-1
aF-1.0
aF-1.0
aF-1.0
aI-1
aI-1
aI-1
aF-1.0
aF-1.0
aF-1.0
asg10
(lp401
F-0.008
aF0.0
aF0.006
asba(i__main__
sensor_data_struct
p402
(dp403
g3
(lp404
I-1
aI-1
aI-1
aI-1
aI-1
aF-1.0
aI-1
aI-1
aI-1
aI-1
aI-1
aF-1.0
asg5
I1
sg6
(lp405
I17
aI24
aI38
aI80
aI157
aI115
asg8
(lp406
I-1
aI-1
aI-1
aF-1.0
aF-1.0
aF-1.0
aI-1
aI-1
aI-1
aF-1.0
aF-1.0
aF-1.0
asg10
(lp407
F0.005
aF0.011000000000000001
aF0.015
asba(i__main__
sensor_data_struct
p408
(dp409
g3
(lp410
I-1
aI-1
aI-1
aI-1
aI-1
aF-1.0
aI-1
aI-1
aI-1
aI-1
aI-1
aF-1.0
asg5
I0
sg6
(lp411
I159
aI158
aI237
aI308
aI368
aI176
asg8
(lp412
I-1
aI-1
aI-1
aF-1.0
aF-1.0
aF-1.0
aI-1
aI-1
aI-1
aF-1.0
aF-1.0
aF-1.0
asg10
(lp413
F-0.002
aF-0.004
aF0.001
asba(i__main__
sensor_data_struct
p414
(dp415
g3
(lp416
I-1
aI-1
aI-1
aI-1
aI-1
aF-1.0
aI-1
aI-1
aI-1
aI-1
aI-1
aF-1.0
asg5
I0
sg6
(lp417
I61
aI125
aI223
aI167
aI410
aI233
asg8
(lp418
I-1
aI-1
aI-1
aF-1.0
aF-1.0
aF-1.0
aI-1
aI-1
aI-1
aF-1.0
aF-1.0
aF-1.0
asg10
(lp419
F-0.001
aF-0.005
aF0.009000000000000001
asba(i__main__
sensor_data_struct
p420
(dp421
g3
(lp422
I-1
aI-1
aI-1
aI-1
aI-1
aF-1.0
aI-1
aI-1
aI-1
aI-1
aI-1
aF-1.0
asg5
I1
sg6
(lp423
I28
aI57
aI103
aI83
aI146
aI195
asg8
(lp424
I-1
aI-1
aI-1
aF-1.0
aF-1.0
aF-1.0
aI-1
aI-1
aI-1
aF-1.0
aF-1.0
aF-1.0
asg10
(lp425
F0.003
aF-0.009000000000000001
aF0.012
asba(i__main__
sensor_data_struct
p426
(dp427
g3
(lp428
I-1
aI-1
aI-1
aI-1
aI-1
aF-1.0
aI-1
aI-1
aI-1
aI-1
aI-1
aF-1.0
asg5
I1
sg6
(lp429
I11
aI58
aI26
aI75
aI146
aI110
asg8
(lp430
I-1
aI-1
aI-1
aF-1.0
aF-1.0
aF-1.0
aI-1
aI-1
aI-1
aF-1.0
aF-1.0
aF-1.0
asg10
(lp431
F-0.01
aF-0.003
aF0.012
asba(i__main__
sensor_data_struct
p432
(dp433
g3
(lp434
I-1
aI-1
aI-1
aI-1
aI-1
aF-1.0
aI-1
aI-1
aI-1
aI-1
aI-1
aF-1.0
asg5
I1
sg6
(lp435
I39
aI58
aI77
aI90
aI263
aI206
asg8
(lp436
I-1
aI-1
aI-1
aF-1.0
aF-1.0
aF-1.0
aI-1
aI-1
aI-1
aF-1.0
aF-1.0
aF-1.0
asg10
(lp437
F0.006999999999999999
aF0.005
aF0.015
asba(i__main__
sensor_data_struct
p438
(dp439
g3
(lp440
I-1
aI-1
aI-1
aI-1
aI-1
aF-1.0
aI-1
aI-1
aI-1
aI-1
aI-1
aF-1.0
asg5
I0
sg6
(lp441
I27
aI116
aI79
aI153
aI396
aI222
asg8
(lp442
I-1
aI-1
aI-1
aF-1.0
aF-1.0
aF-1.0
aI-1
aI-1
aI-1
aF-1.0
aF-1.0
aF-1.0
asg10
(lp443
F-0.006
aF-0.003
aF0.009000000000000001
asba(i__main__
sensor_data_struct
p444
(dp445
g3
(lp446
I-1
aI-1
aI-1
aI-1
aI-1
aF-1.0
aI-1
aI-1
aI-1
aI-1
aI-1
aF-1.0
asg5
I1
sg6
(lp447
I68
aI65
aI304
aI101
aI141
aI387
asg8
(lp448
I-1
aI-1
aI-1
aF-1.0
aF-1.0
aF-1.0
aI-1
aI-1
aI-1
aF-1.0
aF-1.0
aF-1.0
asg10
(lp449
F0.005
aF-0.006999999999999999
aF0.006999999999999999
asba(i__main__
sensor_data_struct
p450
(dp451
g3
(lp452
I-1
aI-1
aI-1
aI-1
aI-1
aF-1.0
aI-1
aI-1
aI-1
aI-1
aI-1
aF-1.0
asg5
I1
sg6
(lp453
I11
aI36
aI33
aI97
aI286
aI198
asg8
(lp454
I-1
aI-1
aI-1
aF-1.0
aF-1.0
aF-1.0
aI-1
aI-1
aI-1
aF-1.0
aF-1.0
aF-1.0
asg10
(lp455
F-0.002
aF0.01
aF0.013999999999999999
asba(i__main__
sensor_data_struct
p456
(dp457
g3
(lp458
I-1
aI-1
aI-1
aI-1
aI-1
aF-1.0
aI-1
aI-1
aI-1
aI-1
aI-1
aF-1.0
asg5
I0
sg6
(lp459
I23
aI99
aI103
aI145
aI377
aI237
asg8
(lp460
I-1
aI-1
aI-1
aF-1.0
aF-1.0
aF-1.0
aI-1
aI-1
aI-1
aF-1.0
aF-1.0
aF-1.0
asg10
(lp461
F-0.005
aF-0.009000000000000001
aF0.01
asba(i__main__
sensor_data_struct
p462
(dp463
g3
(lp464
I-1
aI-1
aI-1
aI-1
aI-1
aF-1.0
aI-1
aI-1
aI-1
aI-1
aI-1
aF-1.0
asg5
I1
sg6
(lp465
I52
aI98
aI122
aI91
aI263
aI210
asg8
(lp466
I-1
aI-1
aI-1
aF-1.0
aF-1.0
aF-1.0
aI-1
aI-1
aI-1
aF-1.0
aF-1.0
aF-1.0
asg10
(lp467
F0.006
aF0.002
aF0.015
asba(i__main__
sensor_data_struct
p468
(dp469
g3
(lp470
I-1
aI-1
aI-1
aI-1
aI-1
aF-1.0
aI-1
aI-1
aI-1
aI-1
aI-1
aF-1.0
asg5
I1
sg6
(lp471
I18
aI112
aI78
aI107
aI312
aI214
asg8
(lp472
I-1
aI-1
aI-1
aF-1.0
aF-1.0
aF-1.0
aI-1
aI-1
aI-1
aF-1.0
aF-1.0
aF-1.0
asg10
(lp473
F-0.005
aF-0.002
aF0.013000000000000001
asba(i__main__
sensor_data_struct
p474
(dp475
g3
(lp476
I-1
aI-1
aI-1
aI-1
aI-1
aF-1.0
aI-1
aI-1
aI-1
aI-1
aI-1
aF-1.0
asg5
I1
sg6
(lp477
I23
aI86
aI48
aI99
aI293
aI141
asg8
(lp478
I-1
aI-1
aI-1
aF-1.0
aF-1.0
aF-1.0
aI-1
aI-1
aI-1
aF-1.0
aF-1.0
aF-1.0
asg10
(lp479
F0.001
aF0.01
aF0.01
asba(i__main__
sensor_data_struct
p480
(dp481
g3
(lp482
I-1
aI-1
aI-1
aI-1
aI-1
aF-1.0
aI-1
aI-1
aI-1
aI-1
aI-1
aF-1.0
asg5
I1
sg6
(lp483
I49
aI118
aI203
aI121
aI339
aI233
asg8
(lp484
I-1
aI-1
aI-1
aF-1.0
aF-1.0
aF-1.0
aI-1
aI-1
aI-1
aF-1.0
aF-1.0
aF-1.0
asg10
(lp485
F0.002
aF-0.004
aF0.012
asba(i__main__
sensor_data_struct
p486
(dp487
g3
(lp488
I-1
aI-1
aI-1
aI-1
aI-1
aF-1.0
aI-1
aI-1
aI-1
aI-1
aI-1
aF-1.0
asg5
I1
sg6
(lp489
I33
aI161
aI107
aI119
aI346
aI218
asg8
(lp490
I-1
aI-1
aI-1
aF-1.0
aF-1.0
aF-1.0
aI-1
aI-1
aI-1
aF-1.0
aF-1.0
aF-1.0
asg10
(lp491
F-0.001
aF0.002
aF0.012
asba(i__main__
sensor_data_struct
p492
(dp493
g3
(lp494
I-1
aI-1
aI-1
aI-1
aI-1
aF-1.0
aI-1
aI-1
aI-1
aI-1
aI-1
aF-1.0
asg5
I1
sg6
(lp495
I10
aI48
aI38
aI93
aI275
aI196
asg8
(lp496
I-1
aI-1
aI-1
aF-1.0
aF-1.0
aF-1.0
aI-1
aI-1
aI-1
aF-1.0
aF-1.0
aF-1.0
asg10
(lp497
F-0.005
aF0.006
aF0.013999999999999999
asba(i__main__
sensor_data_struct
p498
(dp499
g3
(lp500
I-1
aI-1
aI-1
aI-1
aI-1
aF-1.0
aI-1
aI-1
aI-1
aI-1
aI-1
aF-1.0
asg5
I1
sg6
(lp501
I10
aI39
aI29
aI92
aI273
aI192
asg8
(lp502
I-1
aI-1
aI-1
aF-1.0
aF-1.0
aF-1.0
aI-1
aI-1
aI-1
aF-1.0
aF-1.0
aF-1.0
asg10
(lp503
F-0.006999999999999999
aF0.009000000000000001
aF0.013999999999999999
asba(i__main__
sensor_data_struct
p504
(dp505
g3
(lp506
I-1
aI-1
aI-1
aI-1
aI-1
aF-1.0
aI-1
aI-1
aI-1
aI-1
aI-1
aF-1.0
asg5
I1
sg6
(lp507
I48
aI40
aI95
aI82
aI139
aI144
asg8
(lp508
I-1
aI-1
aI-1
aF-1.0
aF-1.0
aF-1.0
aI-1
aI-1
aI-1
aF-1.0
aF-1.0
aF-1.0
asg10
(lp509
F0.011000000000000001
aF-0.002
aF0.012
asba(i__main__
sensor_data_struct
p510
(dp511
g3
(lp512
I-1
aI-1
aI-1
aI-1
aI-1
aF-1.0
aI-1
aI-1
aI-1
aI-1
aI-1
aF-1.0
asg5
I1
sg6
(lp513
I12
aI59
aI24
aI77
aI150
aI110
asg8
(lp514
I-1
aI-1
aI-1
aF-1.0
aF-1.0
aF-1.0
aI-1
aI-1
aI-1
aF-1.0
aF-1.0
aF-1.0
asg10
(lp515
F-0.01
aF0.0
aF0.009000000000000001
asba(i__main__
sensor_data_struct
p516
(dp517
g3
(lp518
I-1
aI-1
aI-1
aI-1
aI-1
aF-1.0
aI-1
aI-1
aI-1
aI-1
aI-1
aF-1.0
asg5
I0
sg6
(lp519
I43
aI126
aI80
aI210
aI420
aI203
asg8
(lp520
I-1
aI-1
aI-1
aF-1.0
aF-1.0
aF-1.0
aI-1
aI-1
aI-1
aF-1.0
aF-1.0
aF-1.0
asg10
(lp521
F-0.006999999999999999
aF-0.003
aF0.006
asba(i__main__
sensor_data_struct
p522
(dp523
g3
(lp524
I-1
aI-1
aI-1
aI-1
aI-1
aF-1.0
aI-1
aI-1
aI-1
aI-1
aI-1
aF-1.0
asg5
I1
sg6
(lp525
I30
aI44
aI81
aI79
aI150
aI188
asg8
(lp526
I-1
aI-1
aI-1
aF-1.0
aF-1.0
aF-1.0
aI-1
aI-1
aI-1
aF-1.0
aF-1.0
aF-1.0
asg10
(lp527
F0.005
aF-0.006999999999999999
aF0.015
asba(i__main__
sensor_data_struct
p528
(dp529
g3
(lp530
I-1
aI-1
aI-1
aI-1
aI-1
aF-1.0
aI-1
aI-1
aI-1
aI-1
aI-1
aF-1.0
asg5
I0
sg6
(lp531
I196
aI168
aI108
aI309
aI380
aI158
asg8
(lp532
I-1
aI-1
aI-1
aF-1.0
aF-1.0
aF-1.0
aI-1
aI-1
aI-1
aF-1.0
aF-1.0
aF-1.0
asg10
(lp533
F-0.003
aF-0.001
aF0.001
asba(i__main__
sensor_data_struct
p534
(dp535
g3
(lp536
I-1
aI-1
aI-1
aI-1
aI-1
aF-1.0
aI-1
aI-1
aI-1
aI-1
aI-1
aF-1.0
asg5
I0
sg6
(lp537
I82
aI285
aI125
aI167
aI424
aI213
asg8
(lp538
I-1
aI-1
aI-1
aF-1.0
aF-1.0
aF-1.0
aI-1
aI-1
aI-1
aF-1.0
aF-1.0
aF-1.0
asg10
(lp539
F0.003
aF0.005
aF0.009000000000000001
asba(i__main__
sensor_data_struct
p540
(dp541
g3
(lp542
I-1
aI-1
aI-1
aI-1
aI-1
aF-1.0
aI-1
aI-1
aI-1
aI-1
aI-1
aF-1.0
asg5
I1
sg6
(lp543
I61
aI75
aI300
aI91
aI133
aI279
asg8
(lp544
I-1
aI-1
aI-1
aF-1.0
aF-1.0
aF-1.0
aI-1
aI-1
aI-1
aF-1.0
aF-1.0
aF-1.0
asg10
(lp545
F0.0
aF-0.008
aF0.006
asba(i__main__
sensor_data_struct
p546
(dp547
g3
(lp548
I-1
aI-1
aI-1
aI-1
aI-1
aF-1.0
aI-1
aI-1
aI-1
aI-1
aI-1
aF-1.0
asg5
I0
sg6
(lp549
I41
aI171
aI107
aI115
aI339
aI215
asg8
(lp550
I-1
aI-1
aI-1
aF-1.0
aF-1.0
aF-1.0
aI-1
aI-1
aI-1
aF-1.0
aF-1.0
aF-1.0
asg10
(lp551
F0.002
aF0.005
aF0.012
asba(i__main__
sensor_data_struct
p552
(dp553
g3
(lp554
I-1
aI-1
aI-1
aI-1
aI-1
aF-1.0
aI-1
aI-1
aI-1
aI-1
aI-1
aF-1.0
asg5
I0
sg6
(lp555
I95
aI276
aI118
aI218
aI437
aI189
asg8
(lp556
I-1
aI-1
aI-1
aF-1.0
aF-1.0
aF-1.0
aI-1
aI-1
aI-1
aF-1.0
aF-1.0
aF-1.0
asg10
(lp557
F-0.002
aF0.003
aF0.006
asba(i__main__
sensor_data_struct
p558
(dp559
g3
(lp560
I-1
aI-1
aI-1
aI-1
aI-1
aF-1.0
aI-1
aI-1
aI-1
aI-1
aI-1
aF-1.0
asg5
I0
sg6
(lp561
I39
aI121
aI139
aI177
aI416
aI228
asg8
(lp562
I-1
aI-1
aI-1
aF-1.0
aF-1.0
aF-1.0
aI-1
aI-1
aI-1
aF-1.0
aF-1.0
aF-1.0
asg10
(lp563
F-0.004
aF-0.005
aF0.008
asba(i__main__
sensor_data_struct
p564
(dp565
g3
(lp566
I-1
aI-1
aI-1
aI-1
aI-1
aF-1.0
aI-1
aI-1
aI-1
aI-1
aI-1
aF-1.0
asg5
I0
sg6
(lp567
I63
aI183
aI143
aI177
aI423
aI216
asg8
(lp568
I-1
aI-1
aI-1
aF-1.0
aF-1.0
aF-1.0
aI-1
aI-1
aI-1
aF-1.0
aF-1.0
aF-1.0
asg10
(lp569
F-0.003
aF-0.001
aF0.008
asba(i__main__
sensor_data_struct
p570
(dp571
g3
(lp572
I-1
aI-1
aI-1
aI-1
aI-1
aF-1.0
aI-1
aI-1
aI-1
aI-1
aI-1
aF-1.0
asg5
I0
sg6
(lp573
I113
aI160
aI270
aI189
aI436
aI230
asg8
(lp574
I-1
aI-1
aI-1
aF-1.0
aF-1.0
aF-1.0
aI-1
aI-1
aI-1
aF-1.0
aF-1.0
aF-1.0
asg10
(lp575
F0.006
aF-0.001
aF0.008
asba(i__main__
sensor_data_struct
p576
(dp577
g3
(lp578
I-1
aI-1
aI-1
aI-1
aI-1
aF-1.0
aI-1
aI-1
aI-1
aI-1
aI-1
aF-1.0
asg5
I0
sg6
(lp579
I128
aI129
aI301
aI228
aI437
aI228
asg8
(lp580
I-1
aI-1
aI-1
aF-1.0
aF-1.0
aF-1.0
aI-1
aI-1
aI-1
aF-1.0
aF-1.0
aF-1.0
asg10
(lp581
F0.008
aF-0.002
aF0.006
asba(i__main__
sensor_data_struct
p582
(dp583
g3
(lp584
I-1
aI-1
aI-1
aI-1
aI-1
aF-1.0
aI-1
aI-1
aI-1
aI-1
aI-1
aF-1.0
asg5
I1
sg6
(lp585
I28
aI91
aI66
aI107
aI314
aI210
asg8
(lp586
I-1
aI-1
aI-1
aF-1.0
aF-1.0
aF-1.0
aI-1
aI-1
aI-1
aF-1.0
aF-1.0
aF-1.0
asg10
(lp587
F0.003
aF0.008
aF0.013000000000000001
asba(i__main__
sensor_data_struct
p588
(dp589
g3
(lp590
I-1
aI-1
aI-1
aI-1
aI-1
aF-1.0
aI-1
aI-1
aI-1
aI-1
aI-1
aF-1.0
asg5
I0
sg6
(lp591
I39
aI132
aI99
aI177
aI421
aI214
asg8
(lp592
I-1
aI-1
aI-1
aF-1.0
aF-1.0
aF-1.0
aI-1
aI-1
aI-1
aF-1.0
aF-1.0
aF-1.0
asg10
(lp593
F-0.005
aF-0.001
aF0.008
asba(i__main__
sensor_data_struct
p594
(dp595
g3
(lp596
I-1
aI-1
aI-1
aI-1
aI-1
aF-1.0
aI-1
aI-1
aI-1
aI-1
aI-1
aF-1.0
asg5
I1
sg6
(lp597
I18
aI59
aI50
aI95
aI279
aI200
asg8
(lp598
I-1
aI-1
aI-1
aF-1.0
aF-1.0
aF-1.0
aI-1
aI-1
aI-1
aF-1.0
aF-1.0
aF-1.0
asg10
(lp599
F0.001
aF0.009000000000000001
aF0.013999999999999999
asba(i__main__
sensor_data_struct
p600
(dp601
g3
(lp602
I-1
aI-1
aI-1
aI-1
aI-1
aF-1.0
aI-1
aI-1
aI-1
aI-1
aI-1
aF-1.0
asg5
I0
sg6
(lp603
I32
aI149
aI57
aI153
aI409
aI209
asg8
(lp604
I-1
aI-1
aI-1
aF-1.0
aF-1.0
aF-1.0
aI-1
aI-1
aI-1
aF-1.0
aF-1.0
aF-1.0
asg10
(lp605
F0.0
aF0.009000000000000001
aF0.009000000000000001
asba.