(lp0
(i__main__
sensor_data_struct
p1
(dp2
S'color'
p3
(lp4
I-1
aI-1
aI-1
aI-1
aI-1
aF-1.0
aI-1
aI-1
aI-1
aI-1
aI-1
aF-1.0
asS'button'
p5
I1
sS'IR'
p6
(lp7
I60
aI99
aI213
aI91
aI151
aI256
asS'TOF'
p8
(lp9
I-1
aI-1
aI-1
aF-1.0
aF-1.0
aF-1.0
aI-1
aI-1
aI-1
aF-1.0
aF-1.0
aF-1.0
asS'pt'
p10
(lp11
F0.005
aF-0.006999999999999999
aF0.011000000000000001
asba(i__main__
sensor_data_struct
p12
(dp13
g3
(lp14
I-1
aI-1
aI-1
aI-1
aI-1
aF-1.0
aI-1
aI-1
aI-1
aI-1
aI-1
aF-1.0
asg5
I1
sg6
(lp15
I21
aI21
aI32
aI84
aI148
aI110
asg8
(lp16
I-1
aI-1
aI-1
aF-1.0
aF-1.0
aF-1.0
aI-1
aI-1
aI-1
aF-1.0
aF-1.0
aF-1.0
asg10
(lp17
F0.006999999999999999
aF0.009000000000000001
aF0.012
asba(i__main__
sensor_data_struct
p18
(dp19
g3
(lp20
I-1
aI-1
aI-1
aI-1
aI-1
aF-1.0
aI-1
aI-1
aI-1
aI-1
aI-1
aF-1.0
asg5
I0
sg6
(lp21
I90
aI364
aI88
aI242
aI413
aI171
asg8
(lp22
I-1
aI-1
aI-1
aF-1.0
aF-1.0
aF-1.0
aI-1
aI-1
aI-1
aF-1.0
aF-1.0
aF-1.0
asg10
(lp23
F0.001
aF0.005
aF0.004
asba(i__main__
sensor_data_struct
p24
(dp25
g3
(lp26
I-1
aI-1
aI-1
aI-1
aI-1
aF-1.0
aI-1
aI-1
aI-1
aI-1
aI-1
aF-1.0
asg5
I1
sg6
(lp27
I75
aI104
aI263
aI98
aI151
aI302
asg8
(lp28
I-1
aI-1
aI-1
aF-1.0
aF-1.0
aF-1.0
aI-1
aI-1
aI-1
aF-1.0
aF-1.0
aF-1.0
asg10
(lp29
F0.005
aF-0.006999999999999999
aF0.009000000000000001
asba(i__main__
sensor_data_struct
p30
(dp31
g3
(lp32
I-1
aI-1
aI-1
aI-1
aI-1
aF-1.0
aI-1
aI-1
aI-1
aI-1
aI-1
aF-1.0
asg5
I0
sg6
(lp33
I15
aI75
aI44
aI122
aI344
aI196
asg8
(lp34
I-1
aI-1
aI-1
aF-1.0
aF-1.0
aF-1.0
aI-1
aI-1
aI-1
aF-1.0
aF-1.0
aF-1.0
asg10
(lp35
F-0.006
aF0.002
aF0.011000000000000001
asba(i__main__
sensor_data_struct
p36
(dp37
g3
(lp38
I-1
aI-1
aI-1
aI-1
aI-1
aF-1.0
aI-1
aI-1
aI-1
aI-1
aI-1
aF-1.0
asg5
I1
sg6
(lp39
I20
aI65
aI68
aI90
aI150
aI157
asg8
(lp40
I-1
aI-1
aI-1
aF-1.0
aF-1.0
aF-1.0
aI-1
aI-1
aI-1
aF-1.0
aF-1.0
aF-1.0
asg10
(lp41
F0.001
aF-0.011000000000000001
aF0.015
asba(i__main__
sensor_data_struct
p42
(dp43
g3
(lp44
I-1
aI-1
aI-1
aI-1
aI-1
aF-1.0
aI-1
aI-1
aI-1
aI-1
aI-1
aF-1.0
asg5
I0
sg6
(lp45
I16
aI64
aI35
aI164
aI397
aI189
asg8
(lp46
I-1
aI-1
aI-1
aF-1.0
aF-1.0
aF-1.0
aI-1
aI-1
aI-1
aF-1.0
aF-1.0
aF-1.0
asg10
(lp47
F-0.006
aF0.006
aF0.008
asba(i__main__
sensor_data_struct
p48
(dp49
g3
(lp50
I-1
aI-1
aI-1
aI-1
aI-1
aF-1.0
aI-1
aI-1
aI-1
aI-1
aI-1
aF-1.0
asg5
I0
sg6
(lp51
I50
aI106
aI180
aI203
aI411
aI221
asg8
(lp52
I-1
aI-1
aI-1
aF-1.0
aF-1.0
aF-1.0
aI-1
aI-1
aI-1
aF-1.0
aF-1.0
aF-1.0
asg10
(lp53
F-0.001
aF-0.008
aF0.006
asba(i__main__
sensor_data_struct
p54
(dp55
g3
(lp56
I-1
aI-1
aI-1
aI-1
aI-1
aF-1.0
aI-1
aI-1
aI-1
aI-1
aI-1
aF-1.0
asg5
I1
sg6
(lp57
I28
aI125
aI108
aI91
aI261
aI197
asg8
(lp58
I-1
aI-1
aI-1
aF-1.0
aF-1.0
aF-1.0
aI-1
aI-1
aI-1
aF-1.0
aF-1.0
aF-1.0
asg10
(lp59
F-0.001
aF-0.001
aF0.013999999999999999
asba(i__main__
sensor_data_struct
p60
(dp61
g3
(lp62
I-1
aI-1
aI-1
aI-1
aI-1
aF-1.0
aI-1
aI-1
aI-1
aI-1
aI-1
aF-1.0
asg5
I1
sg6
(lp63
I16
aI48
aI35
aI113
aI330
aI194
asg8
(lp64
I-1
aI-1
aI-1
aF-1.0
aF-1.0
aF-1.0
aI-1
aI-1
aI-1
aF-1.0
aF-1.0
aF-1.0
asg10
(lp65
F-0.002
aF0.009000000000000001
aF0.011000000000000001
asba(i__main__
sensor_data_struct
p66
(dp67
g3
(lp68
I-1
aI-1
aI-1
aI-1
aI-1
aF-1.0
aI-1
aI-1
aI-1
aI-1
aI-1
aF-1.0
asg5
I1
sg6
(lp69
I47
aI129
aI110
aI109
aI318
aI208
asg8
(lp70
I-1
aI-1
aI-1
aF-1.0
aF-1.0
aF-1.0
aI-1
aI-1
aI-1
aF-1.0
aF-1.0
aF-1.0
asg10
(lp71
F0.004
aF0.004
aF0.012
asba(i__main__
sensor_data_struct
p72
(dp73
g3
(lp74
I-1
aI-1
aI-1
aI-1
aI-1
aF-1.0
aI-1
aI-1
aI-1
aI-1
aI-1
aF-1.0
asg5
I1
sg6
(lp75
I45
aI65
aI80
aI93
aI271
aI208
asg8
(lp76
I-1
aI-1
aI-1
aF-1.0
aF-1.0
aF-1.0
aI-1
aI-1
aI-1
aF-1.0
aF-1.0
aF-1.0
asg10
(lp77
F0.01
aF0.005
aF0.013000000000000001
asba(i__main__
sensor_data_struct
p78
(dp79
g3
(lp80
I-1
aI-1
aI-1
aI-1
aI-1
aF-1.0
aI-1
aI-1
aI-1
aI-1
aI-1
aF-1.0
asg5
I0
sg6
(lp81
I151
aI454
aI82
aI294
aI391
aI153
asg8
(lp82
I-1
aI-1
aI-1
aF-1.0
aF-1.0
aF-1.0
aI-1
aI-1
aI-1
aF-1.0
aF-1.0
aF-1.0
asg10
(lp83
F0.001
aF0.004
aF0.001
asba(i__main__
sensor_data_struct
p84
(dp85
g3
(lp86
I-1
aI-1
aI-1
aI-1
aI-1
aF-1.0
aI-1
aI-1
aI-1
aI-1
aI-1
aF-1.0
asg5
I1
sg6
(lp87
I20
aI80
aI79
aI97
aI278
aI216
asg8
(lp88
I-1
aI-1
aI-1
aF-1.0
aF-1.0
aF-1.0
aI-1
aI-1
aI-1
aF-1.0
aF-1.0
aF-1.0
asg10
(lp89
F-0.003
aF-0.011000000000000001
aF0.013000000000000001
asba(i__main__
sensor_data_struct
p90
(dp91
g3
(lp92
I-1
aI-1
aI-1
aI-1
aI-1
aF-1.0
aI-1
aI-1
aI-1
aI-1
aI-1
aF-1.0
asg5
I0
sg6
(lp93
I113
aI209
aI289
aI181
aI408
aI223
asg8
(lp94
I-1
aI-1
aI-1
aF-1.0
aF-1.0
aF-1.0
aI-1
aI-1
aI-1
aF-1.0
aF-1.0
aF-1.0
asg10
(lp95
F0.002
aF-0.005
aF0.006999999999999999
asba(i__main__
sensor_data_struct
p96
(dp97
g3
(lp98
I-1
aI-1
aI-1
aI-1
aI-1
aF-1.0
aI-1
aI-1
aI-1
aI-1
aI-1
aF-1.0
asg5
I1
sg6
(lp99
I55
aI171
aI150
aI99
aI290
aI210
asg8
(lp100
I-1
aI-1
aI-1
aF-1.0
aF-1.0
aF-1.0
aI-1
aI-1
aI-1
aF-1.0
aF-1.0
aF-1.0
asg10
(lp101
F0.003
aF0.0
aF0.013000000000000001
asba(i__main__
sensor_data_struct
p102
(dp103
g3
(lp104
I-1
aI-1
aI-1
aI-1
aI-1
aF-1.0
aI-1
aI-1
aI-1
aI-1
aI-1
aF-1.0
asg5
I1
sg6
(lp105
I27
aI52
aI61
aI83
aI242
aI189
asg8
(lp106
I-1
aI-1
aI-1
aF-1.0
aF-1.0
aF-1.0
aI-1
aI-1
aI-1
aF-1.0
aF-1.0
aF-1.0
asg10
(lp107
F0.004
aF0.005
aF0.015
asba(i__main__
sensor_data_struct
p108
(dp109
g3
(lp110
I-1
aI-1
aI-1
aI-1
aI-1
aF-1.0
aI-1
aI-1
aI-1
aI-1
aI-1
aF-1.0
asg5
I1
sg6
(lp111
I31
aI95
aI120
aI120
aI331
aI230
asg8
(lp112
I-1
aI-1
aI-1
aF-1.0
aF-1.0
aF-1.0
aI-1
aI-1
aI-1
aF-1.0
aF-1.0
aF-1.0
asg10
(lp113
F-0.002
aF-0.01
aF0.011000000000000001
asba(i__main__
sensor_data_struct
p114
(dp115
g3
(lp116
I-1
aI-1
aI-1
aI-1
aI-1
aF-1.0
aI-1
aI-1
aI-1
aI-1
aI-1
aF-1.0
asg5
I1
sg6
(lp117
I46
aI69
aI153
aI90
aI154
aI250
asg8
(lp118
I-1
aI-1
aI-1
aF-1.0
aF-1.0
aF-1.0
aI-1
aI-1
aI-1
aF-1.0
aF-1.0
aF-1.0
asg10
(lp119
F0.005
aF-0.009000000000000001
aF0.011000000000000001
asba(i__main__
sensor_data_struct
p120
(dp121
g3
(lp122
I-1
aI-1
aI-1
aI-1
aI-1
aF-1.0
aI-1
aI-1
aI-1
aI-1
aI-1
aF-1.0
asg5
I1
sg6
(lp123
I54
aI47
aI115
aI90
aI146
aI216
asg8
(lp124
I-1
aI-1
aI-1
aF-1.0
aF-1.0
aF-1.0
aI-1
aI-1
aI-1
aF-1.0
aF-1.0
aF-1.0
asg10
(lp125
F0.009000000000000001
aF-0.006999999999999999
aF0.011000000000000001
asba(i__main__
sensor_data_struct
p126
(dp127
g3
(lp128
I-1
aI-1
aI-1
aI-1
aI-1
aF-1.0
aI-1
aI-1
aI-1
aI-1
aI-1
aF-1.0
asg5
I0
sg6
(lp129
I42
aI166
aI62
aI203
aI414
aI181
asg8
(lp130
I-1
aI-1
aI-1
aF-1.0
aF-1.0
aF-1.0
aI-1
aI-1
aI-1
aF-1.0
aF-1.0
aF-1.0
asg10
(lp131
F-0.003
aF0.004
aF0.006
asba(i__main__
sensor_data_struct
p132
(dp133
g3
(lp134
I-1
aI-1
aI-1
aI-1
aI-1
aF-1.0
aI-1
aI-1
aI-1
aI-1
aI-1
aF-1.0
asg5
I1
sg6
(lp135
I47
aI67
aI132
aI85
aI153
aI216
asg8
(lp136
I-1
aI-1
aI-1
aF-1.0
aF-1.0
aF-1.0
aI-1
aI-1
aI-1
aF-1.0
aF-1.0
aF-1.0
asg10
(lp137
F0.006
aF-0.006999999999999999
aF0.013000000000000001
asba(i__main__
sensor_data_struct
p138
(dp139
g3
(lp140
I-1
aI-1
aI-1
aI-1
aI-1
aF-1.0
aI-1
aI-1
aI-1
aI-1
aI-1
aF-1.0
asg5
I1
sg6
(lp141
I14
aI33
aI33
aI92
aI272
aI186
asg8
(lp142
I-1
aI-1
aI-1
aF-1.0
aF-1.0
aF-1.0
aI-1
aI-1
aI-1
aF-1.0
aF-1.0
aF-1.0
asg10
(lp143
F-0.002
aF0.009000000000000001
aF0.013000000000000001
asba(i__main__
sensor_data_struct
p144
(dp145
g3
(lp146
I-1
aI-1
aI-1
aI-1
aI-1
aF-1.0
aI-1
aI-1
aI-1
aI-1
aI-1
aF-1.0
asg5
I0
sg6
(lp147
I219
aI243
aI299
aI291
aI384
aI173
asg8
(lp148
I-1
aI-1
aI-1
aF-1.0
aF-1.0
aF-1.0
aI-1
aI-1
aI-1
aF-1.0
aF-1.0
aF-1.0
asg10
(lp149
F0.004
aF-0.002
aF0.001
asba(i__main__
sensor_data_struct
p150
(dp151
g3
(lp152
I-1
aI-1
aI-1
aI-1
aI-1
aF-1.0
aI-1
aI-1
aI-1
aI-1
aI-1
aF-1.0
asg5
I0
sg6
(lp153
I78
aI191
aI237
aI140
aI369
aI229
asg8
(lp154
I-1
aI-1
aI-1
aF-1.0
aF-1.0
aF-1.0
aI-1
aI-1
aI-1
aF-1.0
aF-1.0
aF-1.0
asg10
(lp155
F0.003
aF-0.003
aF0.01
asba(i__main__
sensor_data_struct
p156
(dp157
g3
(lp158
I-1
aI-1
aI-1
aI-1
aI-1
aF-1.0
aI-1
aI-1
aI-1
aI-1
aI-1
aF-1.0
asg5
I1
sg6
(lp159
I31
aI99
aI138
aI93
aI265
aI210
asg8
(lp160
I-1
aI-1
aI-1
aF-1.0
aF-1.0
aF-1.0
aI-1
aI-1
aI-1
aF-1.0
aF-1.0
aF-1.0
asg10
(lp161
F0.001
aF-0.006999999999999999
aF0.013999999999999999
asba(i__main__
sensor_data_struct
p162
(dp163
g3
(lp164
I-1
aI-1
aI-1
aI-1
aI-1
aF-1.0
aI-1
aI-1
aI-1
aI-1
aI-1
aF-1.0
asg5
I0
sg6
(lp165
I90
aI190
aI181
aI192
aI414
aI214
asg8
(lp166
I-1
aI-1
aI-1
aF-1.0
aF-1.0
aF-1.0
aI-1
aI-1
aI-1
aF-1.0
aF-1.0
aF-1.0
asg10
(lp167
F-0.001
aF-0.004
aF0.006999999999999999
asba(i__main__
sensor_data_struct
p168
(dp169
g3
(lp170
I-1
aI-1
aI-1
aI-1
aI-1
aF-1.0
aI-1
aI-1
aI-1
aI-1
aI-1
aF-1.0
asg5
I1
sg6
(lp171
I39
aI137
aI84
aI115
aI334
aI207
asg8
(lp172
I-1
aI-1
aI-1
aF-1.0
aF-1.0
aF-1.0
aI-1
aI-1
aI-1
aF-1.0
aF-1.0
aF-1.0
asg10
(lp173
F0.002
aF0.005
aF0.011000000000000001
asba(i__main__
sensor_data_struct
p174
(dp175
g3
(lp176
I-1
aI-1
aI-1
aI-1
aI-1
aF-1.0
aI-1
aI-1
aI-1
aI-1
aI-1
aF-1.0
asg5
I1
sg6
(lp177
I24
aI75
aI90
aI101
aI289
aI221
asg8
(lp178
I-1
aI-1
aI-1
aF-1.0
aF-1.0
aF-1.0
aI-1
aI-1
aI-1
aF-1.0
aF-1.0
aF-1.0
asg10
(lp179
F-0.002
aF-0.012
aF0.012
asba(i__main__
sensor_data_struct
p180
(dp181
g3
(lp182
I-1
aI-1
aI-1
aI-1
aI-1
aF-1.0
aI-1
aI-1
aI-1
aI-1
aI-1
aF-1.0
asg5
I1
sg6
(lp183
I23
aI54
aI73
aI84
aI150
aI183
asg8
(lp184
I-1
aI-1
aI-1
aF-1.0
aF-1.0
aF-1.0
aI-1
aI-1
aI-1
aF-1.0
aF-1.0
aF-1.0
asg10
(lp185
F0.003
aF-0.011000000000000001
aF0.012
asba(i__main__
sensor_data_struct
p186
(dp187
g3
(lp188
I-1
aI-1
aI-1
aI-1
aI-1
aF-1.0
aI-1
aI-1
aI-1
aI-1
aI-1
aF-1.0
asg5
I1
sg6
(lp189
I15
aI53
aI26
aI78
aI146
aI111
asg8
(lp190
I-1
aI-1
aI-1
aF-1.0
aF-1.0
aF-1.0
aI-1
aI-1
aI-1
aF-1.0
aF-1.0
aF-1.0
asg10
(lp191
F-0.01
aF-0.002
aF0.011000000000000001
asba(i__main__
sensor_data_struct
p192
(dp193
g3
(lp194
I-1
aI-1
aI-1
aI-1
aI-1
aF-1.0
aI-1
aI-1
aI-1
aI-1
aI-1
aF-1.0
asg5
I0
sg6
(lp195
I130
aI228
aI237
aI198
aI413
aI219
asg8
(lp196
I-1
aI-1
aI-1
aF-1.0
aF-1.0
aF-1.0
aI-1
aI-1
aI-1
aF-1.0
aF-1.0
aF-1.0
asg10
(lp197
F0.006999999999999999
aF-0.001
aF0.006
asba(i__main__
sensor_data_struct
p198
(dp199
g3
(lp200
I-1
aI-1
aI-1
aI-1
aI-1
aF-1.0
aI-1
aI-1
aI-1
aI-1
aI-1
aF-1.0
asg5
I0
sg6
(lp201
I238
aI329
aI173
aI300
aI378
aI160
asg8
(lp202
I-1
aI-1
aI-1
aF-1.0
aF-1.0
aF-1.0
aI-1
aI-1
aI-1
aF-1.0
aF-1.0
aF-1.0
asg10
(lp203
F0.001
aF-0.001
aF0.001
asba(i__main__
sensor_data_struct
p204
(dp205
g3
(lp206
I-1
aI-1
aI-1
aI-1
aI-1
aF-1.0
aI-1
aI-1
aI-1
aI-1
aI-1
aF-1.0
asg5
I1
sg6
(lp207
I13
aI56
aI29
aI78
aI145
aI110
asg8
(lp208
I-1
aI-1
aI-1
aF-1.0
aF-1.0
aF-1.0
aI-1
aI-1
aI-1
aF-1.0
aF-1.0
aF-1.0
asg10
(lp209
F-0.01
aF-0.003
aF0.012
asba(i__main__
sensor_data_struct
p210
(dp211
g3
(lp212
I-1
aI-1
aI-1
aI-1
aI-1
aF-1.0
aI-1
aI-1
aI-1
aI-1
aI-1
aF-1.0
asg5
I1
sg6
(lp213
I63
aI123
aI162
aI109
aI311
aI221
asg8
(lp214
I-1
aI-1
aI-1
aF-1.0
aF-1.0
aF-1.0
aI-1
aI-1
aI-1
aF-1.0
aF-1.0
aF-1.0
asg10
(lp215
F0.006999999999999999
aF-0.001
aF0.012
asba(i__main__
sensor_data_struct
p216
(dp217
g3
(lp218
I-1
aI-1
aI-1
aI-1
aI-1
aF-1.0
aI-1
aI-1
aI-1
aI-1
aI-1
aF-1.0
asg5
I1
sg6
(lp219
I12
aI20
aI17
aI77
aI139
aI105
asg8
(lp220
I-1
aI-1
aI-1
aF-1.0
aF-1.0
aF-1.0
aI-1
aI-1
aI-1
aF-1.0
aF-1.0
aF-1.0
asg10
(lp221
F-0.011000000000000001
aF0.006
aF0.013999999999999999
asba(i__main__
sensor_data_struct
p222
(dp223
g3
(lp224
I-1
aI-1
aI-1
aI-1
aI-1
aF-1.0
aI-1
aI-1
aI-1
aI-1
aI-1
aF-1.0
asg5
I1
sg6
(lp225
I13
aI37
aI29
aI102
aI296
aI187
asg8
(lp226
I-1
aI-1
aI-1
aF-1.0
aF-1.0
aF-1.0
aI-1
aI-1
aI-1
aF-1.0
aF-1.0
aF-1.0
asg10
(lp227
F-0.008
aF0.006
aF0.012
asba(i__main__
sensor_data_struct
p228
(dp229
g3
(lp230
I-1
aI-1
aI-1
aI-1
aI-1
aF-1.0
aI-1
aI-1
aI-1
aI-1
aI-1
aF-1.0
asg5
I0
sg6
(lp231
I26
aI107
aI61
aI122
aI348
aI201
asg8
(lp232
I-1
aI-1
aI-1
aF-1.0
aF-1.0
aF-1.0
aI-1
aI-1
aI-1
aF-1.0
aF-1.0
aF-1.0
asg10
(lp233
F-0.002
aF0.005
aF0.011000000000000001
asba(i__main__
sensor_data_struct
p234
(dp235
g3
(lp236
I-1
aI-1
aI-1
aI-1
aI-1
aF-1.0
aI-1
aI-1
aI-1
aI-1
aI-1
aF-1.0
asg5
I1
sg6
(lp237
I20
aI9
aI22
aI79
aI147
aI108
asg8
(lp238
I-1
aI-1
aI-1
aF-1.0
aF-1.0
aF-1.0
aI-1
aI-1
aI-1
aF-1.0
aF-1.0
aF-1.0
asg10
(lp239
F0.005
aF0.013000000000000001
aF0.015
asba(i__main__
sensor_data_struct
p240
(dp241
g3
(lp242
I-1
aI-1
aI-1
aI-1
aI-1
aF-1.0
aI-1
aI-1
aI-1
aI-1
aI-1
aF-1.0
asg5
I1
sg6
(lp243
I16
aI64
aI53
aI80
aI230
aI180
asg8
(lp244
I-1
aI-1
aI-1
aF-1.0
aF-1.0
aF-1.0
aI-1
aI-1
aI-1
aF-1.0
aF-1.0
aF-1.0
asg10
(lp245
F-0.005
aF0.004
aF0.015
asba(i__main__
sensor_data_struct
p246
(dp247
g3
(lp248
I-1
aI-1
aI-1
aI-1
aI-1
aF-1.0
aI-1
aI-1
aI-1
aI-1
aI-1
aF-1.0
asg5
I0
sg6
(lp249
I56
aI168
aI85
aI98
aI316
aI124
asg8
(lp250
I-1
aI-1
aI-1
aF-1.0
aF-1.0
aF-1.0
aI-1
aI-1
aI-1
aF-1.0
aF-1.0
aF-1.0
asg10
(lp251
F0.005
aF0.006999999999999999
aF0.008
asba(i__main__
sensor_data_struct
p252
(dp253
g3
(lp254
I-1
aI-1
aI-1
aI-1
aI-1
aF-1.0
aI-1
aI-1
aI-1
aI-1
aI-1
aF-1.0
asg5
I0
sg6
(lp255
I25
aI98
aI46
aI160
aI402
aI190
asg8
(lp256
I-1
aI-1
aI-1
aF-1.0
aF-1.0
aF-1.0
aI-1
aI-1
aI-1
aF-1.0
aF-1.0
aF-1.0
asg10
(lp257
F-0.001
aF0.009000000000000001
aF0.008
asba(i__main__
sensor_data_struct
p258
(dp259
g3
(lp260
I-1
aI-1
aI-1
aI-1
aI-1
aF-1.0
aI-1
aI-1
aI-1
aI-1
aI-1
aF-1.0
asg5
I0
sg6
(lp261
I82
aI232
aI137
aI149
aI391
aI214
asg8
(lp262
I-1
aI-1
aI-1
aF-1.0
aF-1.0
aF-1.0
aI-1
aI-1
aI-1
aF-1.0
aF-1.0
aF-1.0
asg10
(lp263
F0.005
aF0.004
aF0.009000000000000001
asba(i__main__
sensor_data_struct
p264
(dp265
g3
(lp266
I-1
aI-1
aI-1
aI-1
aI-1
aF-1.0
aI-1
aI-1
aI-1
aI-1
aI-1
aF-1.0
asg5
I1
sg6
(lp267
I41
aI108
aI150
aI91
aI262
aI206
asg8
(lp268
I-1
aI-1
aI-1
aF-1.0
aF-1.0
aF-1.0
aI-1
aI-1
aI-1
aF-1.0
aF-1.0
aF-1.0
asg10
(lp269
F0.003
aF-0.004
aF0.013999999999999999
asba(i__main__
sensor_data_struct
p270
(dp271
g3
(lp272
I-1
aI-1
aI-1
aI-1
aI-1
aF-1.0
aI-1
aI-1
aI-1
aI-1
aI-1
aF-1.0
asg5
I0
sg6
(lp273
I47
aI197
aI85
aI145
aI386
aI204
asg8
(lp274
I-1
aI-1
aI-1
aF-1.0
aF-1.0
aF-1.0
aI-1
aI-1
aI-1
aF-1.0
aF-1.0
aF-1.0
asg10
(lp275
F0.001
aF0.005
aF0.009000000000000001
asba(i__main__
sensor_data_struct
p276
(dp277
g3
(lp278
I-1
aI-1
aI-1
aI-1
aI-1
aF-1.0
aI-1
aI-1
aI-1
aI-1
aI-1
aF-1.0
asg5
I1
sg6
(lp279
I12
aI48
aI20
aI77
aI142
aI107
asg8
(lp280
I-1
aI-1
aI-1
aF-1.0
aF-1.0
aF-1.0
aI-1
aI-1
aI-1
aF-1.0
aF-1.0
aF-1.0
asg10
(lp281
F-0.011000000000000001
aF-0.005
aF0.013000000000000001
asba(i__main__
sensor_data_struct
p282
(dp283
g3
(lp284
I-1
aI-1
aI-1
aI-1
aI-1
aF-1.0
aI-1
aI-1
aI-1
aI-1
aI-1
aF-1.0
asg5
I1
sg6
(lp285
I14
aI75
aI64
aI78
aI221
aI187
asg8
(lp286
I-1
aI-1
aI-1
aF-1.0
aF-1.0
aF-1.0
aI-1
aI-1
aI-1
aF-1.0
aF-1.0
aF-1.0
asg10
(lp287
F-0.006999999999999999
aF-0.01
aF0.015
asba(i__main__
sensor_data_struct
p288
(dp289
g3
(lp290
I-1
aI-1
aI-1
aI-1
aI-1
aF-1.0
aI-1
aI-1
aI-1
aI-1
aI-1
aF-1.0
asg5
I0
sg6
(lp291
I45
aI130
aI64
aI215
aI402
aI185
asg8
(lp292
I-1
aI-1
aI-1
aF-1.0
aF-1.0
aF-1.0
aI-1
aI-1
aI-1
aF-1.0
aF-1.0
aF-1.0
asg10
(lp293
F-0.006
aF-0.003
aF0.005
asba(i__main__
sensor_data_struct
p294
(dp295
g3
(lp296
I-1
aI-1
aI-1
aI-1
aI-1
aF-1.0
aI-1
aI-1
aI-1
aI-1
aI-1
aF-1.0
asg5
I1
sg6
(lp297
I28
aI63
aI50
aI85
aI157
aI113
asg8
(lp298
I-1
aI-1
aI-1
aF-1.0
aF-1.0
aF-1.0
aI-1
aI-1
aI-1
aF-1.0
aF-1.0
aF-1.0
asg10
(lp299
F0.004
aF0.008
aF0.01
asba(i__main__
sensor_data_struct
p300
(dp301
g3
(lp302
I-1
aI-1
aI-1
aI-1
aI-1
aF-1.0
aI-1
aI-1
aI-1
aI-1
aI-1
aF-1.0
asg5
I0
sg6
(lp303
I129
aI191
aI273
aI202
aI414
aI219
asg8
(lp304
I-1
aI-1
aI-1
aF-1.0
aF-1.0
aF-1.0
aI-1
aI-1
aI-1
aF-1.0
aF-1.0
aF-1.0
asg10
(lp305
F0.006999999999999999
aF-0.002
aF0.006
asba(i__main__
sensor_data_struct
p306
(dp307
g3
(lp308
I-1
aI-1
aI-1
aI-1
aI-1
aF-1.0
aI-1
aI-1
aI-1
aI-1
aI-1
aF-1.0
asg5
I0
sg6
(lp309
I89
aI356
aI89
aI217
aI419
aI187
asg8
(lp310
I-1
aI-1
aI-1
aF-1.0
aF-1.0
aF-1.0
aI-1
aI-1
aI-1
aF-1.0
aF-1.0
aF-1.0
asg10
(lp311
F0.005
aF0.005
aF0.005
asba(i__main__
sensor_data_struct
p312
(dp313
g3
(lp314
I-1
aI-1
aI-1
aI-1
aI-1
aF-1.0
aI-1
aI-1
aI-1
aI-1
aI-1
aF-1.0
asg5
I0
sg6
(lp315
I118
aI321
aI83
aI272
aI399
aI156
asg8
(lp316
I-1
aI-1
aI-1
aF-1.0
aF-1.0
aF-1.0
aI-1
aI-1
aI-1
aF-1.0
aF-1.0
aF-1.0
asg10
(lp317
F-0.001
aF0.003
aF0.002
asba(i__main__
sensor_data_struct
p318
(dp319
g3
(lp320
I-1
aI-1
aI-1
aI-1
aI-1
aF-1.0
aI-1
aI-1
aI-1
aI-1
aI-1
aF-1.0
asg5
I0
sg6
(lp321
I147
aI520
aI113
aI269
aI400
aI163
asg8
(lp322
I-1
aI-1
aI-1
aF-1.0
aF-1.0
aF-1.0
aI-1
aI-1
aI-1
aF-1.0
aF-1.0
aF-1.0
asg10
(lp323
F0.003
aF0.004
aF0.002
asba(i__main__
sensor_data_struct
p324
(dp325
g3
(lp326
I-1
aI-1
aI-1
aI-1
aI-1
aF-1.0
aI-1
aI-1
aI-1
aI-1
aI-1
aF-1.0
asg5
I1
sg6
(lp327
I17
aI62
aI40
aI109
aI318
aI196
asg8
(lp328
I-1
aI-1
aI-1
aF-1.0
aF-1.0
aF-1.0
aI-1
aI-1
aI-1
aF-1.0
aF-1.0
aF-1.0
asg10
(lp329
F-0.003
aF0.006999999999999999
aF0.011000000000000001
asba(i__main__
sensor_data_struct
p330
(dp331
g3
(lp332
I-1
aI-1
aI-1
aI-1
aI-1
aF-1.0
aI-1
aI-1
aI-1
aI-1
aI-1
aF-1.0
asg5
I1
sg6
(lp333
I13
aI40
aI34
aI103
aI301
aI191
asg8
(lp334
I-1
aI-1
aI-1
aF-1.0
aF-1.0
aF-1.0
aI-1
aI-1
aI-1
aF-1.0
aF-1.0
aF-1.0
asg10
(lp335
F-0.005
aF0.006
aF0.012
asba(i__main__
sensor_data_struct
p336
(dp337
g3
(lp338
I-1
aI-1
aI-1
aI-1
aI-1
aF-1.0
aI-1
aI-1
aI-1
aI-1
aI-1
aF-1.0
asg5
I1
sg6
(lp339
I14
aI76
aI42
aI94
aI270
aI201
asg8
(lp340
I-1
aI-1
aI-1
aF-1.0
aF-1.0
aF-1.0
aI-1
aI-1
aI-1
aF-1.0
aF-1.0
aF-1.0
asg10
(lp341
F-0.006999999999999999
aF-0.006
aF0.013000000000000001
asba(i__main__
sensor_data_struct
p342
(dp343
g3
(lp344
I-1
aI-1
aI-1
aI-1
aI-1
aF-1.0
aI-1
aI-1
aI-1
aI-1
aI-1
aF-1.0
asg5
I0
sg6
(lp345
I93
aI204
aI110
aI226
aI406
aI186
asg8
(lp346
I-1
aI-1
aI-1
aF-1.0
aF-1.0
aF-1.0
aI-1
aI-1
aI-1
aF-1.0
aF-1.0
aF-1.0
asg10
(lp347
F-0.003
aF-0.002
aF0.005
asba(i__main__
sensor_data_struct
p348
(dp349
g3
(lp350
I-1
aI-1
aI-1
aI-1
aI-1
aF-1.0
aI-1
aI-1
aI-1
aI-1
aI-1
aF-1.0
asg5
I0
sg6
(lp351
I18
aI67
aI39
aI169
aI405
aI186
asg8
(lp352
I-1
aI-1
aI-1
aF-1.0
aF-1.0
aF-1.0
aI-1
aI-1
aI-1
aF-1.0
aF-1.0
aF-1.0
asg10
(lp353
F-0.004
aF0.008
aF0.008
asba(i__main__
sensor_data_struct
p354
(dp355
g3
(lp356
I-1
aI-1
aI-1
aI-1
aI-1
aF-1.0
aI-1
aI-1
aI-1
aI-1
aI-1
aF-1.0
asg5
I0
sg6
(lp357
I115
aI338
aI133
aI220
aI415
aI187
asg8
(lp358
I-1
aI-1
aI-1
aF-1.0
aF-1.0
aF-1.0
aI-1
aI-1
aI-1
aF-1.0
aF-1.0
aF-1.0
asg10
(lp359
F0.0
aF0.002
aF0.005
asba(i__main__
sensor_data_struct
p360
(dp361
g3
(lp362
I-1
aI-1
aI-1
aI-1
aI-1
aF-1.0
aI-1
aI-1
aI-1
aI-1
aI-1
aF-1.0
asg5
I1
sg6
(lp363
I13
aI49
aI25
aI60
aI136
aI104
asg8
(lp364
I-1
aI-1
aI-1
aF-1.0
aF-1.0
aF-1.0
aI-1
aI-1
aI-1
aF-1.0
aF-1.0
aF-1.0
asg10
(lp365
F-0.01
aF-0.003
aF0.013999999999999999
asba(i__main__
sensor_data_struct
p366
(dp367
g3
(lp368
I-1
aI-1
aI-1
aI-1
aI-1
aF-1.0
aI-1
aI-1
aI-1
aI-1
aI-1
aF-1.0
asg5
I0
sg6
(lp369
I27
aI106
aI75
aI116
aI333
aI205
asg8
(lp370
I-1
aI-1
aI-1
aF-1.0
aF-1.0
aF-1.0
aI-1
aI-1
aI-1
aF-1.0
aF-1.0
aF-1.0
asg10
(lp371
F0.0
aF0.004
aF0.011000000000000001
asba(i__main__
sensor_data_struct
p372
(dp373
g3
(lp374
I-1
aI-1
aI-1
aI-1
aI-1
aF-1.0
aI-1
aI-1
aI-1
aI-1
aI-1
aF-1.0
asg5
I0
sg6
(lp375
I88
aI143
aI290
aI205
aI415
aI219
asg8
(lp376
I-1
aI-1
aI-1
aF-1.0
aF-1.0
aF-1.0
aI-1
aI-1
aI-1
aF-1.0
aF-1.0
aF-1.0
asg10
(lp377
F0.001
aF-0.006
aF0.006
asba(i__main__
sensor_data_struct
p378
(dp379
g3
(lp380
I-1
aI-1
aI-1
aI-1
aI-1
aF-1.0
aI-1
aI-1
aI-1
aI-1
aI-1
aF-1.0
asg5
I1
sg6
(lp381
I19
aI88
aI80
aI96
aI278
aI210
asg8
(lp382
I-1
aI-1
aI-1
aF-1.0
aF-1.0
aF-1.0
aI-1
aI-1
aI-1
aF-1.0
aF-1.0
aF-1.0
asg10
(lp383
F-0.003
aF-0.009000000000000001
aF0.013000000000000001
asba(i__main__
sensor_data_struct
p384
(dp385
g3
(lp386
I-1
aI-1
aI-1
aI-1
aI-1
aF-1.0
aI-1
aI-1
aI-1
aI-1
aI-1
aF-1.0
asg5
I1
sg6
(lp387
I35
aI67
aI81
aI80
aI235
aI190
asg8
(lp388
I-1
aI-1
aI-1
aF-1.0
aF-1.0
aF-1.0
aI-1
aI-1
aI-1
aF-1.0
aF-1.0
aF-1.0
asg10
(lp389
F0.005
aF0.003
aF0.015
asba(i__main__
sensor_data_struct
p390
(dp391
g3
(lp392
I-1
aI-1
aI-1
aI-1
aI-1
aF-1.0
aI-1
aI-1
aI-1
aI-1
aI-1
aF-1.0
asg5
I0
sg6
(lp393
I157
aI546
aI69
aI323
aI376
aI145
asg8
(lp394
I-1
aI-1
aI-1
aF-1.0
aF-1.0
aF-1.0
aI-1
aI-1
aI-1
aF-1.0
aF-1.0
aF-1.0
asg10
(lp395
F0.002
aF0.004
aF0.0
asba(i__main__
sensor_data_struct
p396
(dp397
g3
(lp398
I-1
aI-1
aI-1
aI-1
aI-1
aF-1.0
aI-1
aI-1
aI-1
aI-1
aI-1
aF-1.0
asg5
I0
sg6
(lp399
I71
aI137
aI113
aI226
aI405
aI191
asg8
(lp400
I-1
aI-1
aI-1
aF-1.0
aF-1.0
aF-1.0
aI-1
aI-1
aI-1
aF-1.0
aF-1.0
aF-1.0
asg10
(lp401
F-0.004
aF-0.005
aF0.005
asba(i__main__
sensor_data_struct
p402
(dp403
g3
(lp404
I-1
aI-1
aI-1
aI-1
aI-1
aF-1.0
aI-1
aI-1
aI-1
aI-1
aI-1
aF-1.0
asg5
I0
sg6
(lp405
I52
aI124
aI70
aI222
aI404
aI186
asg8
(lp406
I-1
aI-1
aI-1
aF-1.0
aF-1.0
aF-1.0
aI-1
aI-1
aI-1
aF-1.0
aF-1.0
aF-1.0
asg10
(lp407
F-0.005
aF-0.003
aF0.005
asba(i__main__
sensor_data_struct
p408
(dp409
g3
(lp410
I-1
aI-1
aI-1
aI-1
aI-1
aF-1.0
aI-1
aI-1
aI-1
aI-1
aI-1
aF-1.0
asg5
I1
sg6
(lp411
I18
aI88
aI49
aI127
aI348
aI210
asg8
(lp412
I-1
aI-1
aI-1
aF-1.0
aF-1.0
aF-1.0
aI-1
aI-1
aI-1
aF-1.0
aF-1.0
aF-1.0
asg10
(lp413
F-0.006999999999999999
aF-0.003
aF0.01
asba(i__main__
sensor_data_struct
p414
(dp415
g3
(lp416
I-1
aI-1
aI-1
aI-1
aI-1
aF-1.0
aI-1
aI-1
aI-1
aI-1
aI-1
aF-1.0
asg5
I1
sg6
(lp417
I14
aI28
aI31
aI103
aI301
aI191
asg8
(lp418
I-1
aI-1
aI-1
aF-1.0
aF-1.0
aF-1.0
aI-1
aI-1
aI-1
aF-1.0
aF-1.0
aF-1.0
asg10
(lp419
F-0.002
aF0.011000000000000001
aF0.012
asba(i__main__
sensor_data_struct
p420
(dp421
g3
(lp422
I-1
aI-1
aI-1
aI-1
aI-1
aF-1.0
aI-1
aI-1
aI-1
aI-1
aI-1
aF-1.0
asg5
I0
sg6
(lp423
I179
aI207
aI360
aI277
aI390
aI182
asg8
(lp424
I-1
aI-1
aI-1
aF-1.0
aF-1.0
aF-1.0
aI-1
aI-1
aI-1
aF-1.0
aF-1.0
aF-1.0
asg10
(lp425
F0.004
aF-0.003
aF0.002
asba(i__main__
sensor_data_struct
p426
(dp427
g3
(lp428
I-1
aI-1
aI-1
aI-1
aI-1
aF-1.0
aI-1
aI-1
aI-1
aI-1
aI-1
aF-1.0
asg5
I0
sg6
(lp429
I202
aI149
aI132
aI329
aI344
aI157
asg8
(lp430
I-1
aI-1
aI-1
aF-1.0
aF-1.0
aF-1.0
aI-1
aI-1
aI-1
aF-1.0
aF-1.0
aF-1.0
asg10
(lp431
F-0.002
aF-0.004
aF0.0
asba(i__main__
sensor_data_struct
p432
(dp433
g3
(lp434
I-1
aI-1
aI-1
aI-1
aI-1
aF-1.0
aI-1
aI-1
aI-1
aI-1
aI-1
aF-1.0
asg5
I0
sg6
(lp435
I40
aI134
aI96
aI153
aI387
aI214
asg8
(lp436
I-1
aI-1
aI-1
aF-1.0
aF-1.0
aF-1.0
aI-1
aI-1
aI-1
aF-1.0
aF-1.0
aF-1.0
asg10
(lp437
F-0.004
aF-0.003
aF0.009000000000000001
asba(i__main__
sensor_data_struct
p438
(dp439
g3
(lp440
I-1
aI-1
aI-1
aI-1
aI-1
aF-1.0
aI-1
aI-1
aI-1
aI-1
aI-1
aF-1.0
asg5
I1
sg6
(lp441
I13
aI32
aI31
aI79
aI229
aI177
asg8
(lp442
I-1
aI-1
aI-1
aF-1.0
aF-1.0
aF-1.0
aI-1
aI-1
aI-1
aF-1.0
aF-1.0
aF-1.0
asg10
(lp443
F-0.006
aF0.006
aF0.013999999999999999
asba(i__main__
sensor_data_struct
p444
(dp445
g3
(lp446
I-1
aI-1
aI-1
aI-1
aI-1
aF-1.0
aI-1
aI-1
aI-1
aI-1
aI-1
aF-1.0
asg5
I0
sg6
(lp447
I37
aI146
aI85
aI147
aI383
aI208
asg8
(lp448
I-1
aI-1
aI-1
aF-1.0
aF-1.0
aF-1.0
aI-1
aI-1
aI-1
aF-1.0
aF-1.0
aF-1.0
asg10
(lp449
F-0.004
aF0.0
aF0.009000000000000001
asba(i__main__
sensor_data_struct
p450
(dp451
g3
(lp452
I-1
aI-1
aI-1
aI-1
aI-1
aF-1.0
aI-1
aI-1
aI-1
aI-1
aI-1
aF-1.0
asg5
I1
sg6
(lp453
I15
aI37
aI39
aI80
aI230
aI178
asg8
(lp454
I-1
aI-1
aI-1
aF-1.0
aF-1.0
aF-1.0
aI-1
aI-1
aI-1
aF-1.0
aF-1.0
aF-1.0
asg10
(lp455
F-0.002
aF0.006999999999999999
aF0.015
asba(i__main__
sensor_data_struct
p456
(dp457
g3
(lp458
I-1
aI-1
aI-1
aI-1
aI-1
aF-1.0
aI-1
aI-1
aI-1
aI-1
aI-1
aF-1.0
asg5
I0
sg6
(lp459
I33
aI130
aI50
aI177
aI410
aI183
asg8
(lp460
I-1
aI-1
aI-1
aF-1.0
aF-1.0
aF-1.0
aI-1
aI-1
aI-1
aF-1.0
aF-1.0
aF-1.0
asg10
(lp461
F-0.004
aF0.006
aF0.006999999999999999
asba(i__main__
sensor_data_struct
p462
(dp463
g3
(lp464
I-1
aI-1
aI-1
aI-1
aI-1
aF-1.0
aI-1
aI-1
aI-1
aI-1
aI-1
aF-1.0
asg5
I0
sg6
(lp465
I108
aI143
aI270
aI246
aI406
aI194
asg8
(lp466
I-1
aI-1
aI-1
aF-1.0
aF-1.0
aF-1.0
aI-1
aI-1
aI-1
aF-1.0
aF-1.0
aF-1.0
asg10
(lp467
F0.0
aF-0.006
aF0.004
asba(i__main__
sensor_data_struct
p468
(dp469
g3
(lp470
I-1
aI-1
aI-1
aI-1
aI-1
aF-1.0
aI-1
aI-1
aI-1
aI-1
aI-1
aF-1.0
asg5
I1
sg6
(lp471
I16
aI91
aI55
aI107
aI305
aI209
asg8
(lp472
I-1
aI-1
aI-1
aF-1.0
aF-1.0
aF-1.0
aI-1
aI-1
aI-1
aF-1.0
aF-1.0
aF-1.0
asg10
(lp473
F-0.005
aF-0.004
aF0.012
asba(i__main__
sensor_data_struct
p474
(dp475
g3
(lp476
I-1
aI-1
aI-1
aI-1
aI-1
aF-1.0
aI-1
aI-1
aI-1
aI-1
aI-1
aF-1.0
asg5
I0
sg6
(lp477
I63
aI119
aI173
aI183
aI406
aI221
asg8
(lp478
I-1
aI-1
aI-1
aF-1.0
aF-1.0
aF-1.0
aI-1
aI-1
aI-1
aF-1.0
aF-1.0
aF-1.0
asg10
(lp479
F-0.003
aF-0.008
aF0.006999999999999999
asba(i__main__
sensor_data_struct
p480
(dp481
g3
(lp482
I-1
aI-1
aI-1
aI-1
aI-1
aF-1.0
aI-1
aI-1
aI-1
aI-1
aI-1
aF-1.0
asg5
I1
sg6
(lp483
I72
aI90
aI174
aI114
aI324
aI232
asg8
(lp484
I-1
aI-1
aI-1
aF-1.0
aF-1.0
aF-1.0
aI-1
aI-1
aI-1
aF-1.0
aF-1.0
aF-1.0
asg10
(lp485
F0.009000000000000001
aF-0.004
aF0.011000000000000001
asba(i__main__
sensor_data_struct
p486
(dp487
g3
(lp488
I-1
aI-1
aI-1
aI-1
aI-1
aF-1.0
aI-1
aI-1
aI-1
aI-1
aI-1
aF-1.0
asg5
I1
sg6
(lp489
I12
aI47
aI23
aI78
aI141
aI107
asg8
(lp490
I-1
aI-1
aI-1
aF-1.0
aF-1.0
aF-1.0
aI-1
aI-1
aI-1
aF-1.0
aF-1.0
aF-1.0
asg10
(lp491
F-0.011000000000000001
aF-0.005
aF0.015
asba(i__main__
sensor_data_struct
p492
(dp493
g3
(lp494
I-1
aI-1
aI-1
aI-1
aI-1
aF-1.0
aI-1
aI-1
aI-1
aI-1
aI-1
aF-1.0
asg5
I1
sg6
(lp495
I73
aI95
aI184
aI119
aI334
aI233
asg8
(lp496
I-1
aI-1
aI-1
aF-1.0
aF-1.0
aF-1.0
aI-1
aI-1
aI-1
aF-1.0
aF-1.0
aF-1.0
asg10
(lp497
F0.008
aF-0.004
aF0.011000000000000001
asba(i__main__
sensor_data_struct
p498
(dp499
g3
(lp500
I-1
aI-1
aI-1
aI-1
aI-1
aF-1.0
aI-1
aI-1
aI-1
aI-1
aI-1
aF-1.0
asg5
I0
sg6
(lp501
I84
aI148
aI176
aI128
aI355
aI231
asg8
(lp502
I-1
aI-1
aI-1
aF-1.0
aF-1.0
aF-1.0
aI-1
aI-1
aI-1
aF-1.0
aF-1.0
aF-1.0
asg10
(lp503
F0.008
aF-0.001
aF0.01
asba(i__main__
sensor_data_struct
p504
(dp505
g3
(lp506
I-1
aI-1
aI-1
aI-1
aI-1
aF-1.0
aI-1
aI-1
aI-1
aI-1
aI-1
aF-1.0
asg5
I1
sg6
(lp507
I42
aI50
aI96
aI77
aI226
aI196
asg8
(lp508
I-1
aI-1
aI-1
aF-1.0
aF-1.0
aF-1.0
aI-1
aI-1
aI-1
aF-1.0
aF-1.0
aF-1.0
asg10
(lp509
F0.009000000000000001
aF-0.004
aF0.015
asba(i__main__
sensor_data_struct
p510
(dp511
g3
(lp512
I-1
aI-1
aI-1
aI-1
aI-1
aF-1.0
aI-1
aI-1
aI-1
aI-1
aI-1
aF-1.0
asg5
I1
sg6
(lp513
I50
aI118
aI109
aI98
aI291
aI209
asg8
(lp514
I-1
aI-1
aI-1
aF-1.0
aF-1.0
aF-1.0
aI-1
aI-1
aI-1
aF-1.0
aF-1.0
aF-1.0
asg10
(lp515
F0.005
aF0.003
aF0.013000000000000001
asba(i__main__
sensor_data_struct
p516
(dp517
g3
(lp518
I-1
aI-1
aI-1
aI-1
aI-1
aF-1.0
aI-1
aI-1
aI-1
aI-1
aI-1
aF-1.0
asg5
I1
sg6
(lp519
I12
aI22
aI28
aI79
aI226
aI172
asg8
(lp520
I-1
aI-1
aI-1
aF-1.0
aF-1.0
aF-1.0
aI-1
aI-1
aI-1
aF-1.0
aF-1.0
aF-1.0
asg10
(lp521
F-0.003
aF0.012
aF0.015
asba(i__main__
sensor_data_struct
p522
(dp523
g3
(lp524
I-1
aI-1
aI-1
aI-1
aI-1
aF-1.0
aI-1
aI-1
aI-1
aI-1
aI-1
aF-1.0
asg5
I0
sg6
(lp525
I23
aI82
aI37
aI181
aI401
aI178
asg8
(lp526
I-1
aI-1
aI-1
aF-1.0
aF-1.0
aF-1.0
aI-1
aI-1
aI-1
aF-1.0
aF-1.0
aF-1.0
asg10
(lp527
F-0.006999999999999999
aF0.005
aF0.006999999999999999
asba(i__main__
sensor_data_struct
p528
(dp529
g3
(lp530
I-1
aI-1
aI-1
aI-1
aI-1
aF-1.0
aI-1
aI-1
aI-1
aI-1
aI-1
aF-1.0
asg5
I0
sg6
(lp531
I138
aI199
aI284
aI247
aI408
aI193
asg8
(lp532
I-1
aI-1
aI-1
aF-1.0
aF-1.0
aF-1.0
aI-1
aI-1
aI-1
aF-1.0
aF-1.0
aF-1.0
asg10
(lp533
F0.001
aF-0.004
aF0.004
asba(i__main__
sensor_data_struct
p534
(dp535
g3
(lp536
I-1
aI-1
aI-1
aI-1
aI-1
aF-1.0
aI-1
aI-1
aI-1
aI-1
aI-1
aF-1.0
asg5
I0
sg6
(lp537
I77
aI195
aI71
aI274
aI390
aI156
asg8
(lp538
I-1
aI-1
aI-1
aF-1.0
aF-1.0
aF-1.0
aI-1
aI-1
aI-1
aF-1.0
aF-1.0
aF-1.0
asg10
(lp539
F-0.003
aF0.001
aF0.002
asba(i__main__
sensor_data_struct
p540
(dp541
g3
(lp542
I-1
aI-1
aI-1
aI-1
aI-1
aF-1.0
aI-1
aI-1
aI-1
aI-1
aI-1
aF-1.0
asg5
I1
sg6
(lp543
I13
aI23
aI20
aI77
aI140
aI105
asg8
(lp544
I-1
aI-1
aI-1
aF-1.0
aF-1.0
aF-1.0
aI-1
aI-1
aI-1
aF-1.0
aF-1.0
aF-1.0
asg10
(lp545
F-0.011000000000000001
aF0.004
aF0.013999999999999999
asba(i__main__
sensor_data_struct
p546
(dp547
g3
(lp548
I-1
aI-1
aI-1
aI-1
aI-1
aF-1.0
aI-1
aI-1
aI-1
aI-1
aI-1
aF-1.0
asg5
I1
sg6
(lp549
I49
aI130
aI187
aI109
aI312
aI220
asg8
(lp550
I-1
aI-1
aI-1
aF-1.0
aF-1.0
aF-1.0
aI-1
aI-1
aI-1
aF-1.0
aF-1.0
aF-1.0
asg10
(lp551
F0.002
aF-0.005
aF0.012
asba(i__main__
sensor_data_struct
p552
(dp553
g3
(lp554
I-1
aI-1
aI-1
aI-1
aI-1
aF-1.0
aI-1
aI-1
aI-1
aI-1
aI-1
aF-1.0
asg5
I1
sg6
(lp555
I13
aI38
aI33
aI81
aI235
aI178
asg8
(lp556
I-1
aI-1
aI-1
aF-1.0
aF-1.0
aF-1.0
aI-1
aI-1
aI-1
aF-1.0
aF-1.0
aF-1.0
asg10
(lp557
F-0.006
aF0.005
aF0.015
asba(i__main__
sensor_data_struct
p558
(dp559
g3
(lp560
I-1
aI-1
aI-1
aI-1
aI-1
aF-1.0
aI-1
aI-1
aI-1
aI-1
aI-1
aF-1.0
asg5
I0
sg6
(lp561
I61
aI197
aI61
aI207
aI413
aI175
asg8
(lp562
I-1
aI-1
aI-1
aF-1.0
aF-1.0
aF-1.0
aI-1
aI-1
aI-1
aF-1.0
aF-1.0
aF-1.0
asg10
(lp563
F-0.003
aF0.004
aF0.005
asba(i__main__
sensor_data_struct
p564
(dp565
g3
(lp566
I-1
aI-1
aI-1
aI-1
aI-1
aF-1.0
aI-1
aI-1
aI-1
aI-1
aI-1
aF-1.0
asg5
I1
sg6
(lp567
I90
aI113
aI324
aI107
aI146
aI400
asg8
(lp568
I-1
aI-1
aI-1
aF-1.0
aF-1.0
aF-1.0
aI-1
aI-1
aI-1
aF-1.0
aF-1.0
aF-1.0
asg10
(lp569
F0.004
aF-0.006999999999999999
aF0.006
asba(i__main__
sensor_data_struct
p570
(dp571
g3
(lp572
I-1
aI-1
aI-1
aI-1
aI-1
aF-1.0
aI-1
aI-1
aI-1
aI-1
aI-1
aF-1.0
asg5
I1
sg6
(lp573
I48
aI102
aI184
aI96
aI153
aI286
asg8
(lp574
I-1
aI-1
aI-1
aF-1.0
aF-1.0
aF-1.0
aI-1
aI-1
aI-1
aF-1.0
aF-1.0
aF-1.0
asg10
(lp575
F0.002
aF-0.008
aF0.01
asba(i__main__
sensor_data_struct
p576
(dp577
g3
(lp578
I-1
aI-1
aI-1
aI-1
aI-1
aF-1.0
aI-1
aI-1
aI-1
aI-1
aI-1
aF-1.0
asg5
I1
sg6
(lp579
I63
aI120
aI183
aI109
aI310
aI223
asg8
(lp580
I-1
aI-1
aI-1
aF-1.0
aF-1.0
aF-1.0
aI-1
aI-1
aI-1
aF-1.0
aF-1.0
aF-1.0
asg10
(lp581
F0.005
aF-0.004
aF0.012
asba(i__main__
sensor_data_struct
p582
(dp583
g3
(lp584
I-1
aI-1
aI-1
aI-1
aI-1
aF-1.0
aI-1
aI-1
aI-1
aI-1
aI-1
aF-1.0
asg5
I1
sg6
(lp585
I48
aI64
aI111
aI78
aI226
aI195
asg8
(lp586
I-1
aI-1
aI-1
aF-1.0
aF-1.0
aF-1.0
aI-1
aI-1
aI-1
aF-1.0
aF-1.0
aF-1.0
asg10
(lp587
F0.008
aF-0.002
aF0.015
asba(i__main__
sensor_data_struct
p588
(dp589
g3
(lp590
I-1
aI-1
aI-1
aI-1
aI-1
aF-1.0
aI-1
aI-1
aI-1
aI-1
aI-1
aF-1.0
asg5
I0
sg6
(lp591
I38
aI143
aI93
aI162
aI397
aI212
asg8
(lp592
I-1
aI-1
aI-1
aF-1.0
aF-1.0
aF-1.0
aI-1
aI-1
aI-1
aF-1.0
aF-1.0
aF-1.0
asg10
(lp593
F-0.004
aF-0.003
aF0.008
asba(i__main__
sensor_data_struct
p594
(dp595
g3
(lp596
I-1
aI-1
aI-1
aI-1
aI-1
aF-1.0
aI-1
aI-1
aI-1
aI-1
aI-1
aF-1.0
asg5
I1
sg6
(lp597
I14
aI72
aI46
aI77
aI219
aI186
asg8
(lp598
I-1
aI-1
aI-1
aF-1.0
aF-1.0
aF-1.0
aI-1
aI-1
aI-1
aF-1.0
aF-1.0
aF-1.0
asg10
(lp599
F-0.008
aF-0.011000000000000001
aF0.015
asba(i__main__
sensor_data_struct
p600
(dp601
g3
(lp602
I-1
aI-1
aI-1
aI-1
aI-1
aF-1.0
aI-1
aI-1
aI-1
aI-1
aI-1
aF-1.0
asg5
I0
sg6
(lp603
I20
aI101
aI58
aI121
aI338
aI207
asg8
(lp604
I-1
aI-1
aI-1
aF-1.0
aF-1.0
aF-1.0
aI-1
aI-1
aI-1
aF-1.0
aF-1.0
aF-1.0
asg10
(lp605
F-0.006
aF-0.002
aF0.011000000000000001
asba.