(lp0
(i__main__
sensor_data_struct
p1
(dp2
S'color'
p3
(lp4
I-1
aI-1
aI-1
aI-1
aI-1
aF-1.0
aI-1
aI-1
aI-1
aI-1
aI-1
aF-1.0
asS'button'
p5
I1
sS'IR'
p6
(lp7
I23
aI74
aI104
aI123
aI339
aI236
asS'TOF'
p8
(lp9
I-1
aI-1
aI-1
aF-1.0
aF-1.0
aF-1.0
aI-1
aI-1
aI-1
aF-1.0
aF-1.0
aF-1.0
asS'pt'
p10
(lp11
F-0.003
aF-0.011000000000000001
aF0.012
asba(i__main__
sensor_data_struct
p12
(dp13
g3
(lp14
I-1
aI-1
aI-1
aI-1
aI-1
aF-1.0
aI-1
aI-1
aI-1
aI-1
aI-1
aF-1.0
asg5
I0
sg6
(lp15
I132
aI355
aI208
aI196
aI432
aI214
asg8
(lp16
I-1
aI-1
aI-1
aF-1.0
aF-1.0
aF-1.0
aI-1
aI-1
aI-1
aF-1.0
aF-1.0
aF-1.0
asg10
(lp17
F0.004
aF0.002
aF0.009000000000000001
asba(i__main__
sensor_data_struct
p18
(dp19
g3
(lp20
I-1
aI-1
aI-1
aI-1
aI-1
aF-1.0
aI-1
aI-1
aI-1
aI-1
aI-1
aF-1.0
asg5
I0
sg6
(lp21
I155
aI306
aI188
aI227
aI439
aI207
asg8
(lp22
I-1
aI-1
aI-1
aF-1.0
aF-1.0
aF-1.0
aI-1
aI-1
aI-1
aF-1.0
aF-1.0
aF-1.0
asg10
(lp23
F0.008
aF0.003
aF0.006999999999999999
asba(i__main__
sensor_data_struct
p24
(dp25
g3
(lp26
I-1
aI-1
aI-1
aI-1
aI-1
aF-1.0
aI-1
aI-1
aI-1
aI-1
aI-1
aF-1.0
asg5
I0
sg6
(lp27
I220
aI197
aI175
aI337
aI355
aI156
asg8
(lp28
I-1
aI-1
aI-1
aF-1.0
aF-1.0
aF-1.0
aI-1
aI-1
aI-1
aF-1.0
aF-1.0
aF-1.0
asg10
(lp29
F0.001
aF-0.001
aF0.001
asba(i__main__
sensor_data_struct
p30
(dp31
g3
(lp32
I-1
aI-1
aI-1
aI-1
aI-1
aF-1.0
aI-1
aI-1
aI-1
aI-1
aI-1
aF-1.0
asg5
I0
sg6
(lp33
I126
aI204
aI202
aI187
aI428
aI231
asg8
(lp34
I-1
aI-1
aI-1
aF-1.0
aF-1.0
aF-1.0
aI-1
aI-1
aI-1
aF-1.0
aF-1.0
aF-1.0
asg10
(lp35
F0.009000000000000001
aF0.002
aF0.009000000000000001
asba(i__main__
sensor_data_struct
p36
(dp37
g3
(lp38
I-1
aI-1
aI-1
aI-1
aI-1
aF-1.0
aI-1
aI-1
aI-1
aI-1
aI-1
aF-1.0
asg5
I1
sg6
(lp39
I9
aI41
aI14
aI75
aI144
aI108
asg8
(lp40
I-1
aI-1
aI-1
aF-1.0
aF-1.0
aF-1.0
aI-1
aI-1
aI-1
aF-1.0
aF-1.0
aF-1.0
asg10
(lp41
F-0.01
aF-0.004
aF0.013000000000000001
asba(i__main__
sensor_data_struct
p42
(dp43
g3
(lp44
I-1
aI-1
aI-1
aI-1
aI-1
aF-1.0
aI-1
aI-1
aI-1
aI-1
aI-1
aF-1.0
asg5
I1
sg6
(lp45
I14
aI42
aI43
aI75
aI139
aI114
asg8
(lp46
I-1
aI-1
aI-1
aF-1.0
aF-1.0
aF-1.0
aI-1
aI-1
aI-1
aF-1.0
aF-1.0
aF-1.0
asg10
(lp47
F0.0
aF-0.011000000000000001
aF0.015
asba(i__main__
sensor_data_struct
p48
(dp49
g3
(lp50
I-1
aI-1
aI-1
aI-1
aI-1
aF-1.0
aI-1
aI-1
aI-1
aI-1
aI-1
aF-1.0
asg5
I0
sg6
(lp51
I73
aI101
aI200
aI139
aI375
aI240
asg8
(lp52
I-1
aI-1
aI-1
aF-1.0
aF-1.0
aF-1.0
aI-1
aI-1
aI-1
aF-1.0
aF-1.0
aF-1.0
asg10
(lp53
F0.008
aF-0.002
aF0.012
asba(i__main__
sensor_data_struct
p54
(dp55
g3
(lp56
I-1
aI-1
aI-1
aI-1
aI-1
aF-1.0
aI-1
aI-1
aI-1
aI-1
aI-1
aF-1.0
asg5
I1
sg6
(lp57
I43
aI65
aI126
aI82
aI149
aI200
asg8
(lp58
I-1
aI-1
aI-1
aF-1.0
aF-1.0
aF-1.0
aI-1
aI-1
aI-1
aF-1.0
aF-1.0
aF-1.0
asg10
(lp59
F0.006999999999999999
aF-0.005
aF0.015
asba(i__main__
sensor_data_struct
p60
(dp61
g3
(lp62
I-1
aI-1
aI-1
aI-1
aI-1
aF-1.0
aI-1
aI-1
aI-1
aI-1
aI-1
aF-1.0
asg5
I0
sg6
(lp63
I93
aI154
aI157
aI236
aI424
aI202
asg8
(lp64
I-1
aI-1
aI-1
aF-1.0
aF-1.0
aF-1.0
aI-1
aI-1
aI-1
aF-1.0
aF-1.0
aF-1.0
asg10
(lp65
F-0.002
aF-0.004
aF0.006
asba(i__main__
sensor_data_struct
p66
(dp67
g3
(lp68
I-1
aI-1
aI-1
aI-1
aI-1
aF-1.0
aI-1
aI-1
aI-1
aI-1
aI-1
aF-1.0
asg5
I0
sg6
(lp69
I46
aI176
aI64
aI172
aI423
aI203
asg8
(lp70
I-1
aI-1
aI-1
aF-1.0
aF-1.0
aF-1.0
aI-1
aI-1
aI-1
aF-1.0
aF-1.0
aF-1.0
asg10
(lp71
F-0.002
aF0.005
aF0.009000000000000001
asba(i__main__
sensor_data_struct
p72
(dp73
g3
(lp74
I-1
aI-1
aI-1
aI-1
aI-1
aF-1.0
aI-1
aI-1
aI-1
aI-1
aI-1
aF-1.0
asg5
I1
sg6
(lp75
I33
aI103
aI140
aI121
aI335
aI232
asg8
(lp76
I-1
aI-1
aI-1
aF-1.0
aF-1.0
aF-1.0
aI-1
aI-1
aI-1
aF-1.0
aF-1.0
aF-1.0
asg10
(lp77
F0.0
aF-0.006
aF0.013000000000000001
asba(i__main__
sensor_data_struct
p78
(dp79
g3
(lp80
I-1
aI-1
aI-1
aI-1
aI-1
aF-1.0
aI-1
aI-1
aI-1
aI-1
aI-1
aF-1.0
asg5
I0
sg6
(lp81
I76
aI211
aI206
aI129
aI361
aI226
asg8
(lp82
I-1
aI-1
aI-1
aF-1.0
aF-1.0
aF-1.0
aI-1
aI-1
aI-1
aF-1.0
aF-1.0
aF-1.0
asg10
(lp83
F0.005
aF0.001
aF0.013000000000000001
asba(i__main__
sensor_data_struct
p84
(dp85
g3
(lp86
I-1
aI-1
aI-1
aI-1
aI-1
aF-1.0
aI-1
aI-1
aI-1
aI-1
aI-1
aF-1.0
asg5
I0
sg6
(lp87
I100
aI192
aI84
aI261
aI414
aI169
asg8
(lp88
I-1
aI-1
aI-1
aF-1.0
aF-1.0
aF-1.0
aI-1
aI-1
aI-1
aF-1.0
aF-1.0
aF-1.0
asg10
(lp89
F-0.003
aF0.001
aF0.004
asba(i__main__
sensor_data_struct
p90
(dp91
g3
(lp92
I-1
aI-1
aI-1
aI-1
aI-1
aF-1.0
aI-1
aI-1
aI-1
aI-1
aI-1
aF-1.0
asg5
I0
sg6
(lp93
I181
aI207
aI313
aI252
aI438
aI204
asg8
(lp94
I-1
aI-1
aI-1
aF-1.0
aF-1.0
aF-1.0
aI-1
aI-1
aI-1
aF-1.0
aF-1.0
aF-1.0
asg10
(lp95
F0.006999999999999999
aF-0.001
aF0.005
asba(i__main__
sensor_data_struct
p96
(dp97
g3
(lp98
I-1
aI-1
aI-1
aI-1
aI-1
aF-1.0
aI-1
aI-1
aI-1
aI-1
aI-1
aF-1.0
asg5
I0
sg6
(lp99
I22
aI110
aI54
aI139
aI386
aI207
asg8
(lp100
I-1
aI-1
aI-1
aF-1.0
aF-1.0
aF-1.0
aI-1
aI-1
aI-1
aF-1.0
aF-1.0
aF-1.0
asg10
(lp101
F-0.004
aF0.005
aF0.011000000000000001
asba(i__main__
sensor_data_struct
p102
(dp103
g3
(lp104
I-1
aI-1
aI-1
aI-1
aI-1
aF-1.0
aI-1
aI-1
aI-1
aI-1
aI-1
aF-1.0
asg5
I1
sg6
(lp105
I27
aI44
aI120
aI87
aI144
aI210
asg8
(lp106
I-1
aI-1
aI-1
aF-1.0
aF-1.0
aF-1.0
aI-1
aI-1
aI-1
aF-1.0
aF-1.0
aF-1.0
asg10
(lp107
F0.005
aF-0.009000000000000001
aF0.011000000000000001
asba(i__main__
sensor_data_struct
p108
(dp109
g3
(lp110
I-1
aI-1
aI-1
aI-1
aI-1
aF-1.0
aI-1
aI-1
aI-1
aI-1
aI-1
aF-1.0
asg5
I0
sg6
(lp111
I63
aI102
aI261
aI180
aI414
aI235
asg8
(lp112
I-1
aI-1
aI-1
aF-1.0
aF-1.0
aF-1.0
aI-1
aI-1
aI-1
aF-1.0
aF-1.0
aF-1.0
asg10
(lp113
F-0.001
aF-0.009000000000000001
aF0.009000000000000001
asba(i__main__
sensor_data_struct
p114
(dp115
g3
(lp116
I-1
aI-1
aI-1
aI-1
aI-1
aF-1.0
aI-1
aI-1
aI-1
aI-1
aI-1
aF-1.0
asg5
I1
sg6
(lp117
I21
aI101
aI71
aI96
aI281
aI203
asg8
(lp118
I-1
aI-1
aI-1
aF-1.0
aF-1.0
aF-1.0
aI-1
aI-1
aI-1
aF-1.0
aF-1.0
aF-1.0
asg10
(lp119
F0.001
aF0.006999999999999999
aF0.015
asba(i__main__
sensor_data_struct
p120
(dp121
g3
(lp122
I-1
aI-1
aI-1
aI-1
aI-1
aF-1.0
aI-1
aI-1
aI-1
aI-1
aI-1
aF-1.0
asg5
I0
sg6
(lp123
I170
aI188
aI390
aI269
aI422
aI192
asg8
(lp124
I-1
aI-1
aI-1
aF-1.0
aF-1.0
aF-1.0
aI-1
aI-1
aI-1
aF-1.0
aF-1.0
aF-1.0
asg10
(lp125
F0.005
aF-0.001
aF0.004
asba(i__main__
sensor_data_struct
p126
(dp127
g3
(lp128
I-1
aI-1
aI-1
aI-1
aI-1
aF-1.0
aI-1
aI-1
aI-1
aI-1
aI-1
aF-1.0
asg5
I1
sg6
(lp129
I14
aI64
aI42
aI117
aI344
aI208
asg8
(lp130
I-1
aI-1
aI-1
aF-1.0
aF-1.0
aF-1.0
aI-1
aI-1
aI-1
aF-1.0
aF-1.0
aF-1.0
asg10
(lp131
F0.0
aF0.01
aF0.013000000000000001
asba(i__main__
sensor_data_struct
p132
(dp133
g3
(lp134
I-1
aI-1
aI-1
aI-1
aI-1
aF-1.0
aI-1
aI-1
aI-1
aI-1
aI-1
aF-1.0
asg5
I0
sg6
(lp135
I109
aI147
aI173
aI261
aI402
aI191
asg8
(lp136
I-1
aI-1
aI-1
aF-1.0
aF-1.0
aF-1.0
aI-1
aI-1
aI-1
aF-1.0
aF-1.0
aF-1.0
asg10
(lp137
F-0.004
aF-0.006
aF0.004
asba(i__main__
sensor_data_struct
p138
(dp139
g3
(lp140
I-1
aI-1
aI-1
aI-1
aI-1
aF-1.0
aI-1
aI-1
aI-1
aI-1
aI-1
aF-1.0
asg5
I0
sg6
(lp141
I12
aI58
aI30
aI157
aI403
aI199
asg8
(lp142
I-1
aI-1
aI-1
aF-1.0
aF-1.0
aF-1.0
aI-1
aI-1
aI-1
aF-1.0
aF-1.0
aF-1.0
asg10
(lp143
F-0.006999999999999999
aF0.008
aF0.01
asba(i__main__
sensor_data_struct
p144
(dp145
g3
(lp146
I-1
aI-1
aI-1
aI-1
aI-1
aF-1.0
aI-1
aI-1
aI-1
aI-1
aI-1
aF-1.0
asg5
I1
sg6
(lp147
I49
aI68
aI253
aI91
aI137
aI259
asg8
(lp148
I-1
aI-1
aI-1
aF-1.0
aF-1.0
aF-1.0
aI-1
aI-1
aI-1
aF-1.0
aF-1.0
aF-1.0
asg10
(lp149
F0.002
aF-0.008
aF0.008
asba(i__main__
sensor_data_struct
p150
(dp151
g3
(lp152
I-1
aI-1
aI-1
aI-1
aI-1
aF-1.0
aI-1
aI-1
aI-1
aI-1
aI-1
aF-1.0
asg5
I1
sg6
(lp153
I22
aI29
aI38
aI82
aI151
aI113
asg8
(lp154
I-1
aI-1
aI-1
aF-1.0
aF-1.0
aF-1.0
aI-1
aI-1
aI-1
aF-1.0
aF-1.0
aF-1.0
asg10
(lp155
F0.008
aF0.011000000000000001
aF0.015
asba(i__main__
sensor_data_struct
p156
(dp157
g3
(lp158
I-1
aI-1
aI-1
aI-1
aI-1
aF-1.0
aI-1
aI-1
aI-1
aI-1
aI-1
aF-1.0
asg5
I0
sg6
(lp159
I146
aI144
aI297
aI277
aI393
aI187
asg8
(lp160
I-1
aI-1
aI-1
aF-1.0
aF-1.0
aF-1.0
aI-1
aI-1
aI-1
aF-1.0
aF-1.0
aF-1.0
asg10
(lp161
F-0.001
aF-0.006
aF0.003
asba(i__main__
sensor_data_struct
p162
(dp163
g3
(lp164
I-1
aI-1
aI-1
aI-1
aI-1
aF-1.0
aI-1
aI-1
aI-1
aI-1
aI-1
aF-1.0
asg5
I0
sg6
(lp165
I244
aI432
aI105
aI330
aI377
aI145
asg8
(lp166
I-1
aI-1
aI-1
aF-1.0
aF-1.0
aF-1.0
aI-1
aI-1
aI-1
aF-1.0
aF-1.0
aF-1.0
asg10
(lp167
F0.002
aF0.004
aF0.0
asba(i__main__
sensor_data_struct
p168
(dp169
g3
(lp170
I-1
aI-1
aI-1
aI-1
aI-1
aF-1.0
aI-1
aI-1
aI-1
aI-1
aI-1
aF-1.0
asg5
I1
sg6
(lp171
I13
aI87
aI56
aI93
aI273
aI199
asg8
(lp172
I-1
aI-1
aI-1
aF-1.0
aF-1.0
aF-1.0
aI-1
aI-1
aI-1
aF-1.0
aF-1.0
aF-1.0
asg10
(lp173
F-0.004
aF0.003
aF0.015
asba(i__main__
sensor_data_struct
p174
(dp175
g3
(lp176
I-1
aI-1
aI-1
aI-1
aI-1
aF-1.0
aI-1
aI-1
aI-1
aI-1
aI-1
aF-1.0
asg5
I0
sg6
(lp177
I135
aI148
aI106
aI285
aI386
aI174
asg8
(lp178
I-1
aI-1
aI-1
aF-1.0
aF-1.0
aF-1.0
aI-1
aI-1
aI-1
aF-1.0
aF-1.0
aF-1.0
asg10
(lp179
F-0.004
aF-0.004
aF0.003
asba(i__main__
sensor_data_struct
p180
(dp181
g3
(lp182
I-1
aI-1
aI-1
aI-1
aI-1
aF-1.0
aI-1
aI-1
aI-1
aI-1
aI-1
aF-1.0
asg5
I0
sg6
(lp183
I43
aI86
aI33
aI258
aI407
aI161
asg8
(lp184
I-1
aI-1
aI-1
aF-1.0
aF-1.0
aF-1.0
aI-1
aI-1
aI-1
aF-1.0
aF-1.0
aF-1.0
asg10
(lp185
F-0.006
aF0.002
aF0.004
asba(i__main__
sensor_data_struct
p186
(dp187
g3
(lp188
I-1
aI-1
aI-1
aI-1
aI-1
aF-1.0
aI-1
aI-1
aI-1
aI-1
aI-1
aF-1.0
asg5
I0
sg6
(lp189
I56
aI116
aI143
aI169
aI405
aI232
asg8
(lp190
I-1
aI-1
aI-1
aF-1.0
aF-1.0
aF-1.0
aI-1
aI-1
aI-1
aF-1.0
aF-1.0
aF-1.0
asg10
(lp191
F-0.006
aF-0.008
aF0.009000000000000001
asba(i__main__
sensor_data_struct
p192
(dp193
g3
(lp194
I-1
aI-1
aI-1
aI-1
aI-1
aF-1.0
aI-1
aI-1
aI-1
aI-1
aI-1
aF-1.0
asg5
I1
sg6
(lp195
I46
aI89
aI190
aI91
aI151
aI285
asg8
(lp196
I-1
aI-1
aI-1
aF-1.0
aF-1.0
aF-1.0
aI-1
aI-1
aI-1
aF-1.0
aF-1.0
aF-1.0
asg10
(lp197
F0.005
aF-0.005
aF0.012
asba(i__main__
sensor_data_struct
p198
(dp199
g3
(lp200
I-1
aI-1
aI-1
aI-1
aI-1
aF-1.0
aI-1
aI-1
aI-1
aI-1
aI-1
aF-1.0
asg5
I0
sg6
(lp201
I161
aI142
aI396
aI267
aI425
aI198
asg8
(lp202
I-1
aI-1
aI-1
aF-1.0
aF-1.0
aF-1.0
aI-1
aI-1
aI-1
aF-1.0
aF-1.0
aF-1.0
asg10
(lp203
F0.006999999999999999
aF-0.002
aF0.004
asba(i__main__
sensor_data_struct
p204
(dp205
g3
(lp206
I-1
aI-1
aI-1
aI-1
aI-1
aF-1.0
aI-1
aI-1
aI-1
aI-1
aI-1
aF-1.0
asg5
I1
sg6
(lp207
I77
aI154
aI239
aI133
aI367
aI239
asg8
(lp208
I-1
aI-1
aI-1
aF-1.0
aF-1.0
aF-1.0
aI-1
aI-1
aI-1
aF-1.0
aF-1.0
aF-1.0
asg10
(lp209
F0.006
aF-0.001
aF0.012
asba(i__main__
sensor_data_struct
p210
(dp211
g3
(lp212
I-1
aI-1
aI-1
aI-1
aI-1
aF-1.0
aI-1
aI-1
aI-1
aI-1
aI-1
aF-1.0
asg5
I1
sg6
(lp213
I39
aI169
aI131
aI115
aI333
aI221
asg8
(lp214
I-1
aI-1
aI-1
aF-1.0
aF-1.0
aF-1.0
aI-1
aI-1
aI-1
aF-1.0
aF-1.0
aF-1.0
asg10
(lp215
F0.0
aF0.001
aF0.013000000000000001
asba(i__main__
sensor_data_struct
p216
(dp217
g3
(lp218
I-1
aI-1
aI-1
aI-1
aI-1
aF-1.0
aI-1
aI-1
aI-1
aI-1
aI-1
aF-1.0
asg5
I1
sg6
(lp219
I32
aI142
aI106
aI101
aI296
aI208
asg8
(lp220
I-1
aI-1
aI-1
aF-1.0
aF-1.0
aF-1.0
aI-1
aI-1
aI-1
aF-1.0
aF-1.0
aF-1.0
asg10
(lp221
F0.001
aF0.003
aF0.015
asba(i__main__
sensor_data_struct
p222
(dp223
g3
(lp224
I-1
aI-1
aI-1
aI-1
aI-1
aF-1.0
aI-1
aI-1
aI-1
aI-1
aI-1
aF-1.0
asg5
I0
sg6
(lp225
I136
aI155
aI179
aI277
aI391
aI185
asg8
(lp226
I-1
aI-1
aI-1
aF-1.0
aF-1.0
aF-1.0
aI-1
aI-1
aI-1
aF-1.0
aF-1.0
aF-1.0
asg10
(lp227
F-0.003
aF-0.006
aF0.003
asba(i__main__
sensor_data_struct
p228
(dp229
g3
(lp230
I-1
aI-1
aI-1
aI-1
aI-1
aF-1.0
aI-1
aI-1
aI-1
aI-1
aI-1
aF-1.0
asg5
I0
sg6
(lp231
I55
aI185
aI74
aI189
aI428
aI200
asg8
(lp232
I-1
aI-1
aI-1
aF-1.0
aF-1.0
aF-1.0
aI-1
aI-1
aI-1
aF-1.0
aF-1.0
aF-1.0
asg10
(lp233
F-0.003
aF0.003
aF0.008
asba(i__main__
sensor_data_struct
p234
(dp235
g3
(lp236
I-1
aI-1
aI-1
aI-1
aI-1
aF-1.0
aI-1
aI-1
aI-1
aI-1
aI-1
aF-1.0
asg5
I1
sg6
(lp237
I22
aI111
aI111
aI92
aI263
aI211
asg8
(lp238
I-1
aI-1
aI-1
aF-1.0
aF-1.0
aF-1.0
aI-1
aI-1
aI-1
aF-1.0
aF-1.0
aF-1.0
asg10
(lp239
F-0.001
aF-0.004
aF0.015
asba(i__main__
sensor_data_struct
p240
(dp241
g3
(lp242
I-1
aI-1
aI-1
aI-1
aI-1
aF-1.0
aI-1
aI-1
aI-1
aI-1
aI-1
aF-1.0
asg5
I1
sg6
(lp243
I9
aI34
aI13
aI75
aI144
aI109
asg8
(lp244
I-1
aI-1
aI-1
aF-1.0
aF-1.0
aF-1.0
aI-1
aI-1
aI-1
aF-1.0
aF-1.0
aF-1.0
asg10
(lp245
F-0.011000000000000001
aF-0.002
aF0.015
asba(i__main__
sensor_data_struct
p246
(dp247
g3
(lp248
I-1
aI-1
aI-1
aI-1
aI-1
aF-1.0
aI-1
aI-1
aI-1
aI-1
aI-1
aF-1.0
asg5
I0
sg6
(lp249
I10
aI48
aI27
aI130
aI369
aI201
asg8
(lp250
I-1
aI-1
aI-1
aF-1.0
aF-1.0
aF-1.0
aI-1
aI-1
aI-1
aF-1.0
aF-1.0
aF-1.0
asg10
(lp251
F-0.006999999999999999
aF0.005
aF0.012
asba(i__main__
sensor_data_struct
p252
(dp253
g3
(lp254
I-1
aI-1
aI-1
aI-1
aI-1
aF-1.0
aI-1
aI-1
aI-1
aI-1
aI-1
aF-1.0
asg5
I0
sg6
(lp255
I16
aI73
aI33
aI174
aI415
aI191
asg8
(lp256
I-1
aI-1
aI-1
aF-1.0
aF-1.0
aF-1.0
aI-1
aI-1
aI-1
aF-1.0
aF-1.0
aF-1.0
asg10
(lp257
F-0.006999999999999999
aF0.004
aF0.009000000000000001
asba(i__main__
sensor_data_struct
p258
(dp259
g3
(lp260
I-1
aI-1
aI-1
aI-1
aI-1
aF-1.0
aI-1
aI-1
aI-1
aI-1
aI-1
aF-1.0
asg5
I0
sg6
(lp261
I163
aI284
aI289
aI223
aI438
aI207
asg8
(lp262
I-1
aI-1
aI-1
aF-1.0
aF-1.0
aF-1.0
aI-1
aI-1
aI-1
aF-1.0
aF-1.0
aF-1.0
asg10
(lp263
F0.003
aF0.0
aF0.006999999999999999
asba(i__main__
sensor_data_struct
p264
(dp265
g3
(lp266
I-1
aI-1
aI-1
aI-1
aI-1
aF-1.0
aI-1
aI-1
aI-1
aI-1
aI-1
aF-1.0
asg5
I1
sg6
(lp267
I11
aI31
aI27
aI102
aI308
aI201
asg8
(lp268
I-1
aI-1
aI-1
aF-1.0
aF-1.0
aF-1.0
aI-1
aI-1
aI-1
aF-1.0
aF-1.0
aF-1.0
asg10
(lp269
F-0.002
aF0.013000000000000001
aF0.013999999999999999
asba(i__main__
sensor_data_struct
p270
(dp271
g3
(lp272
I-1
aI-1
aI-1
aI-1
aI-1
aF-1.0
aI-1
aI-1
aI-1
aI-1
aI-1
aF-1.0
asg5
I1
sg6
(lp273
I11
aI40
aI16
aI77
aI148
aI110
asg8
(lp274
I-1
aI-1
aI-1
aF-1.0
aF-1.0
aF-1.0
aI-1
aI-1
aI-1
aF-1.0
aF-1.0
aF-1.0
asg10
(lp275
F-0.011000000000000001
aF0.001
aF0.011000000000000001
asba(i__main__
sensor_data_struct
p276
(dp277
g3
(lp278
I-1
aI-1
aI-1
aI-1
aI-1
aF-1.0
aI-1
aI-1
aI-1
aI-1
aI-1
aF-1.0
asg5
I0
sg6
(lp279
I23
aI107
aI92
aI125
aI348
aI230
asg8
(lp280
I-1
aI-1
aI-1
aF-1.0
aF-1.0
aF-1.0
aI-1
aI-1
aI-1
aF-1.0
aF-1.0
aF-1.0
asg10
(lp281
F-0.005
aF-0.005
aF0.012
asba(i__main__
sensor_data_struct
p282
(dp283
g3
(lp284
I-1
aI-1
aI-1
aI-1
aI-1
aF-1.0
aI-1
aI-1
aI-1
aI-1
aI-1
aF-1.0
asg5
I0
sg6
(lp285
I103
aI260
aI232
aI183
aI424
aI219
asg8
(lp286
I-1
aI-1
aI-1
aF-1.0
aF-1.0
aF-1.0
aI-1
aI-1
aI-1
aF-1.0
aF-1.0
aF-1.0
asg10
(lp287
F0.002
aF0.0
aF0.009000000000000001
asba(i__main__
sensor_data_struct
p288
(dp289
g3
(lp290
I-1
aI-1
aI-1
aI-1
aI-1
aF-1.0
aI-1
aI-1
aI-1
aI-1
aI-1
aF-1.0
asg5
I0
sg6
(lp291
I56
aI144
aI80
aI232
aI425
aI187
asg8
(lp292
I-1
aI-1
aI-1
aF-1.0
aF-1.0
aF-1.0
aI-1
aI-1
aI-1
aF-1.0
aF-1.0
aF-1.0
asg10
(lp293
F-0.004
aF-0.001
aF0.006
asba(i__main__
sensor_data_struct
p294
(dp295
g3
(lp296
I-1
aI-1
aI-1
aI-1
aI-1
aF-1.0
aI-1
aI-1
aI-1
aI-1
aI-1
aF-1.0
asg5
I1
sg6
(lp297
I26
aI87
aI117
aI108
aI309
aI229
asg8
(lp298
I-1
aI-1
aI-1
aF-1.0
aF-1.0
aF-1.0
aI-1
aI-1
aI-1
aF-1.0
aF-1.0
aF-1.0
asg10
(lp299
F0.001
aF-0.006999999999999999
aF0.013999999999999999
asba(i__main__
sensor_data_struct
p300
(dp301
g3
(lp302
I-1
aI-1
aI-1
aI-1
aI-1
aF-1.0
aI-1
aI-1
aI-1
aI-1
aI-1
aF-1.0
asg5
I1
sg6
(lp303
I33
aI64
aI135
aI82
aI146
aI218
asg8
(lp304
I-1
aI-1
aI-1
aF-1.0
aF-1.0
aF-1.0
aI-1
aI-1
aI-1
aF-1.0
aF-1.0
aF-1.0
asg10
(lp305
F0.004
aF-0.008
aF0.012
asba(i__main__
sensor_data_struct
p306
(dp307
g3
(lp308
I-1
aI-1
aI-1
aI-1
aI-1
aF-1.0
aI-1
aI-1
aI-1
aI-1
aI-1
aF-1.0
asg5
I0
sg6
(lp309
I103
aI123
aI365
aI235
aI423
aI217
asg8
(lp310
I-1
aI-1
aI-1
aF-1.0
aF-1.0
aF-1.0
aI-1
aI-1
aI-1
aF-1.0
aF-1.0
aF-1.0
asg10
(lp311
F0.001
aF-0.006
aF0.006
asba(i__main__
sensor_data_struct
p312
(dp313
g3
(lp314
I-1
aI-1
aI-1
aI-1
aI-1
aF-1.0
aI-1
aI-1
aI-1
aI-1
aI-1
aF-1.0
asg5
I1
sg6
(lp315
I24
aI128
aI79
aI130
aI365
aI217
asg8
(lp316
I-1
aI-1
aI-1
aF-1.0
aF-1.0
aF-1.0
aI-1
aI-1
aI-1
aF-1.0
aF-1.0
aF-1.0
asg10
(lp317
F-0.003
aF0.001
aF0.012
asba(i__main__
sensor_data_struct
p318
(dp319
g3
(lp320
I-1
aI-1
aI-1
aI-1
aI-1
aF-1.0
aI-1
aI-1
aI-1
aI-1
aI-1
aF-1.0
asg5
I1
sg6
(lp321
I50
aI54
aI92
aI92
aI265
aI219
asg8
(lp322
I-1
aI-1
aI-1
aF-1.0
aF-1.0
aF-1.0
aI-1
aI-1
aI-1
aF-1.0
aF-1.0
aF-1.0
asg10
(lp323
F0.013000000000000001
aF0.003
aF0.015
asba(i__main__
sensor_data_struct
p324
(dp325
g3
(lp326
I-1
aI-1
aI-1
aI-1
aI-1
aF-1.0
aI-1
aI-1
aI-1
aI-1
aI-1
aF-1.0
asg5
I1
sg6
(lp327
I65
aI78
aI325
aI97
aI137
aI429
asg8
(lp328
I-1
aI-1
aI-1
aF-1.0
aF-1.0
aF-1.0
aI-1
aI-1
aI-1
aF-1.0
aF-1.0
aF-1.0
asg10
(lp329
F0.004
aF-0.006
aF0.006999999999999999
asba(i__main__
sensor_data_struct
p330
(dp331
g3
(lp332
I-1
aI-1
aI-1
aI-1
aI-1
aF-1.0
aI-1
aI-1
aI-1
aI-1
aI-1
aF-1.0
asg5
I1
sg6
(lp333
I11
aI79
aI52
aI85
aI245
aI204
asg8
(lp334
I-1
aI-1
aI-1
aF-1.0
aF-1.0
aF-1.0
aI-1
aI-1
aI-1
aF-1.0
aF-1.0
aF-1.0
asg10
(lp335
F-0.008
aF-0.009000000000000001
aF0.015
asba(i__main__
sensor_data_struct
p336
(dp337
g3
(lp338
I-1
aI-1
aI-1
aI-1
aI-1
aF-1.0
aI-1
aI-1
aI-1
aI-1
aI-1
aF-1.0
asg5
I0
sg6
(lp339
I141
aI522
aI113
aI246
aI440
aI180
asg8
(lp340
I-1
aI-1
aI-1
aF-1.0
aF-1.0
aF-1.0
aI-1
aI-1
aI-1
aF-1.0
aF-1.0
aF-1.0
asg10
(lp341
F0.004
aF0.005
aF0.005
asba(i__main__
sensor_data_struct
p342
(dp343
g3
(lp344
I-1
aI-1
aI-1
aI-1
aI-1
aF-1.0
aI-1
aI-1
aI-1
aI-1
aI-1
aF-1.0
asg5
I1
sg6
(lp345
I11
aI53
aI22
aI77
aI152
aI111
asg8
(lp346
I-1
aI-1
aI-1
aF-1.0
aF-1.0
aF-1.0
aI-1
aI-1
aI-1
aF-1.0
aF-1.0
aF-1.0
asg10
(lp347
F-0.009000000000000001
aF0.0
aF0.008
asba(i__main__
sensor_data_struct
p348
(dp349
g3
(lp350
I-1
aI-1
aI-1
aI-1
aI-1
aF-1.0
aI-1
aI-1
aI-1
aI-1
aI-1
aF-1.0
asg5
I0
sg6
(lp351
I246
aI197
aI125
aI330
aI366
aI153
asg8
(lp352
I-1
aI-1
aI-1
aF-1.0
aF-1.0
aF-1.0
aI-1
aI-1
aI-1
aF-1.0
aF-1.0
aF-1.0
asg10
(lp353
F0.0
aF0.001
aF0.001
asba(i__main__
sensor_data_struct
p354
(dp355
g3
(lp356
I-1
aI-1
aI-1
aI-1
aI-1
aF-1.0
aI-1
aI-1
aI-1
aI-1
aI-1
aF-1.0
asg5
I1
sg6
(lp357
I10
aI78
aI42
aI102
aI295
aI209
asg8
(lp358
I-1
aI-1
aI-1
aF-1.0
aF-1.0
aF-1.0
aI-1
aI-1
aI-1
aF-1.0
aF-1.0
aF-1.0
asg10
(lp359
F-0.006
aF-0.001
aF0.013999999999999999
asba(i__main__
sensor_data_struct
p360
(dp361
g3
(lp362
I-1
aI-1
aI-1
aI-1
aI-1
aF-1.0
aI-1
aI-1
aI-1
aI-1
aI-1
aF-1.0
asg5
I0
sg6
(lp363
I236
aI97
aI39
aI339
aI346
aI146
asg8
(lp364
I-1
aI-1
aI-1
aF-1.0
aF-1.0
aF-1.0
aI-1
aI-1
aI-1
aF-1.0
aF-1.0
aF-1.0
asg10
(lp365
F-0.005
aF0.0
aF0.001
asba(i__main__
sensor_data_struct
p366
(dp367
g3
(lp368
I-1
aI-1
aI-1
aI-1
aI-1
aF-1.0
aI-1
aI-1
aI-1
aI-1
aI-1
aF-1.0
asg5
I1
sg6
(lp369
I13
aI79
aI38
aI152
aI388
aI227
asg8
(lp370
I-1
aI-1
aI-1
aF-1.0
aF-1.0
aF-1.0
aI-1
aI-1
aI-1
aF-1.0
aF-1.0
aF-1.0
asg10
(lp371
F-0.008
aF-0.006
aF0.01
asba(i__main__
sensor_data_struct
p372
(dp373
g3
(lp374
I-1
aI-1
aI-1
aI-1
aI-1
aF-1.0
aI-1
aI-1
aI-1
aI-1
aI-1
aF-1.0
asg5
I0
sg6
(lp375
I68
aI172
aI228
aI166
aI412
aI235
asg8
(lp376
I-1
aI-1
aI-1
aF-1.0
aF-1.0
aF-1.0
aI-1
aI-1
aI-1
aF-1.0
aF-1.0
aF-1.0
asg10
(lp377
F0.002
aF-0.002
aF0.01
asba(i__main__
sensor_data_struct
p378
(dp379
g3
(lp380
I-1
aI-1
aI-1
aI-1
aI-1
aF-1.0
aI-1
aI-1
aI-1
aI-1
aI-1
aF-1.0
asg5
I1
sg6
(lp381
I32
aI26
aI61
aI82
aI141
aI183
asg8
(lp382
I-1
aI-1
aI-1
aF-1.0
aF-1.0
aF-1.0
aI-1
aI-1
aI-1
aF-1.0
aF-1.0
aF-1.0
asg10
(lp383
F0.01
aF-0.006999999999999999
aF0.013000000000000001
asba(i__main__
sensor_data_struct
p384
(dp385
g3
(lp386
I-1
aI-1
aI-1
aI-1
aI-1
aF-1.0
aI-1
aI-1
aI-1
aI-1
aI-1
aF-1.0
asg5
I0
sg6
(lp387
I199
aI262
aI312
aI254
aI430
aI193
asg8
(lp388
I-1
aI-1
aI-1
aF-1.0
aF-1.0
aF-1.0
aI-1
aI-1
aI-1
aF-1.0
aF-1.0
aF-1.0
asg10
(lp389
F0.004
aF0.0
aF0.005
asba(i__main__
sensor_data_struct
p390
(dp391
g3
(lp392
I-1
aI-1
aI-1
aI-1
aI-1
aF-1.0
aI-1
aI-1
aI-1
aI-1
aI-1
aF-1.0
asg5
I1
sg6
(lp393
I111
aI110
aI402
aI130
aI141
aI494
asg8
(lp394
I-1
aI-1
aI-1
aF-1.0
aF-1.0
aF-1.0
aI-1
aI-1
aI-1
aF-1.0
aF-1.0
aF-1.0
asg10
(lp395
F0.006
aF-0.004
aF0.006
asba(i__main__
sensor_data_struct
p396
(dp397
g3
(lp398
I-1
aI-1
aI-1
aI-1
aI-1
aF-1.0
aI-1
aI-1
aI-1
aI-1
aI-1
aF-1.0
asg5
I1
sg6
(lp399
I10
aI25
aI13
aI74
aI138
aI109
asg8
(lp400
I-1
aI-1
aI-1
aF-1.0
aF-1.0
aF-1.0
aI-1
aI-1
aI-1
aF-1.0
aF-1.0
aF-1.0
asg10
(lp401
F0.0
aF-0.013000000000000001
aF0.015
asba(i__main__
sensor_data_struct
p402
(dp403
g3
(lp404
I-1
aI-1
aI-1
aI-1
aI-1
aF-1.0
aI-1
aI-1
aI-1
aI-1
aI-1
aF-1.0
asg5
I0
sg6
(lp405
I35
aI116
aI133
aI139
aI374
aI236
asg8
(lp406
I-1
aI-1
aI-1
aF-1.0
aF-1.0
aF-1.0
aI-1
aI-1
aI-1
aF-1.0
aF-1.0
aF-1.0
asg10
(lp407
F-0.003
aF-0.006999999999999999
aF0.011000000000000001
asba(i__main__
sensor_data_struct
p408
(dp409
g3
(lp410
I-1
aI-1
aI-1
aI-1
aI-1
aF-1.0
aI-1
aI-1
aI-1
aI-1
aI-1
aF-1.0
asg5
I1
sg6
(lp411
I60
aI138
aI178
aI104
aI302
aI223
asg8
(lp412
I-1
aI-1
aI-1
aF-1.0
aF-1.0
aF-1.0
aI-1
aI-1
aI-1
aF-1.0
aF-1.0
aF-1.0
asg10
(lp413
F0.006
aF0.0
aF0.015
asba(i__main__
sensor_data_struct
p414
(dp415
g3
(lp416
I-1
aI-1
aI-1
aI-1
aI-1
aF-1.0
aI-1
aI-1
aI-1
aI-1
aI-1
aF-1.0
asg5
I0
sg6
(lp417
I29
aI145
aI84
aI132
aI372
aI213
asg8
(lp418
I-1
aI-1
aI-1
aF-1.0
aF-1.0
aF-1.0
aI-1
aI-1
aI-1
aF-1.0
aF-1.0
aF-1.0
asg10
(lp419
F0.0
aF0.005
aF0.012
asba(i__main__
sensor_data_struct
p420
(dp421
g3
(lp422
I-1
aI-1
aI-1
aI-1
aI-1
aF-1.0
aI-1
aI-1
aI-1
aI-1
aI-1
aF-1.0
asg5
I0
sg6
(lp423
I31
aI137
aI51
aI200
aI435
aI190
asg8
(lp424
I-1
aI-1
aI-1
aF-1.0
aF-1.0
aF-1.0
aI-1
aI-1
aI-1
aF-1.0
aF-1.0
aF-1.0
asg10
(lp425
F-0.002
aF0.008
aF0.008
asba(i__main__
sensor_data_struct
p426
(dp427
g3
(lp428
I-1
aI-1
aI-1
aI-1
aI-1
aF-1.0
aI-1
aI-1
aI-1
aI-1
aI-1
aF-1.0
asg5
I0
sg6
(lp429
I34
aI134
aI95
aI133
aI370
aI222
asg8
(lp430
I-1
aI-1
aI-1
aF-1.0
aF-1.0
aF-1.0
aI-1
aI-1
aI-1
aF-1.0
aF-1.0
aF-1.0
asg10
(lp431
F-0.003
aF0.0
aF0.011000000000000001
asba(i__main__
sensor_data_struct
p432
(dp433
g3
(lp434
I-1
aI-1
aI-1
aI-1
aI-1
aF-1.0
aI-1
aI-1
aI-1
aI-1
aI-1
aF-1.0
asg5
I0
sg6
(lp435
I15
aI70
aI31
aI173
aI418
aI190
asg8
(lp436
I-1
aI-1
aI-1
aF-1.0
aF-1.0
aF-1.0
aI-1
aI-1
aI-1
aF-1.0
aF-1.0
aF-1.0
asg10
(lp437
F-0.006999999999999999
aF0.006999999999999999
aF0.009000000000000001
asba(i__main__
sensor_data_struct
p438
(dp439
g3
(lp440
I-1
aI-1
aI-1
aI-1
aI-1
aF-1.0
aI-1
aI-1
aI-1
aI-1
aI-1
aF-1.0
asg5
I0
sg6
(lp441
I44
aI126
aI164
aI161
aI407
aI231
asg8
(lp442
I-1
aI-1
aI-1
aF-1.0
aF-1.0
aF-1.0
aI-1
aI-1
aI-1
aF-1.0
aF-1.0
aF-1.0
asg10
(lp443
F0.0
aF-0.003
aF0.01
asba(i__main__
sensor_data_struct
p444
(dp445
g3
(lp446
I-1
aI-1
aI-1
aI-1
aI-1
aF-1.0
aI-1
aI-1
aI-1
aI-1
aI-1
aF-1.0
asg5
I1
sg6
(lp447
I10
aI44
aI18
aI77
aI151
aI112
asg8
(lp448
I-1
aI-1
aI-1
aF-1.0
aF-1.0
aF-1.0
aI-1
aI-1
aI-1
aF-1.0
aF-1.0
aF-1.0
asg10
(lp449
F-0.01
aF0.001
aF0.009000000000000001
asba(i__main__
sensor_data_struct
p450
(dp451
g3
(lp452
I-1
aI-1
aI-1
aI-1
aI-1
aF-1.0
aI-1
aI-1
aI-1
aI-1
aI-1
aF-1.0
asg5
I0
sg6
(lp453
I77
aI203
aI60
aI258
aI423
aI160
asg8
(lp454
I-1
aI-1
aI-1
aF-1.0
aF-1.0
aF-1.0
aI-1
aI-1
aI-1
aF-1.0
aF-1.0
aF-1.0
asg10
(lp455
F-0.002
aF0.006
aF0.004
asba(i__main__
sensor_data_struct
p456
(dp457
g3
(lp458
I-1
aI-1
aI-1
aI-1
aI-1
aF-1.0
aI-1
aI-1
aI-1
aI-1
aI-1
aF-1.0
asg5
I1
sg6
(lp459
I50
aI65
aI161
aI86
aI151
aI237
asg8
(lp460
I-1
aI-1
aI-1
aF-1.0
aF-1.0
aF-1.0
aI-1
aI-1
aI-1
aF-1.0
aF-1.0
aF-1.0
asg10
(lp461
F0.006999999999999999
aF-0.005
aF0.013000000000000001
asba(i__main__
sensor_data_struct
p462
(dp463
g3
(lp464
I-1
aI-1
aI-1
aI-1
aI-1
aF-1.0
aI-1
aI-1
aI-1
aI-1
aI-1
aF-1.0
asg5
I0
sg6
(lp465
I32
aI115
aI41
aI212
aI431
aI173
asg8
(lp466
I-1
aI-1
aI-1
aF-1.0
aF-1.0
aF-1.0
aI-1
aI-1
aI-1
aF-1.0
aF-1.0
aF-1.0
asg10
(lp467
F-0.005
aF0.006999999999999999
aF0.006999999999999999
asba(i__main__
sensor_data_struct
p468
(dp469
g3
(lp470
I-1
aI-1
aI-1
aI-1
aI-1
aF-1.0
aI-1
aI-1
aI-1
aI-1
aI-1
aF-1.0
asg5
I1
sg6
(lp471
I18
aI51
aI68
aI77
aI145
aI131
asg8
(lp472
I-1
aI-1
aI-1
aF-1.0
aF-1.0
aF-1.0
aI-1
aI-1
aI-1
aF-1.0
aF-1.0
aF-1.0
asg10
(lp473
F0.001
aF-0.01
aF0.013999999999999999
asba(i__main__
sensor_data_struct
p474
(dp475
g3
(lp476
I-1
aI-1
aI-1
aI-1
aI-1
aF-1.0
aI-1
aI-1
aI-1
aI-1
aI-1
aF-1.0
asg5
I0
sg6
(lp477
I65
aI104
aI283
aI180
aI415
aI239
asg8
(lp478
I-1
aI-1
aI-1
aF-1.0
aF-1.0
aF-1.0
aI-1
aI-1
aI-1
aF-1.0
aF-1.0
aF-1.0
asg10
(lp479
F0.001
aF-0.006999999999999999
aF0.009000000000000001
asba(i__main__
sensor_data_struct
p480
(dp481
g3
(lp482
I-1
aI-1
aI-1
aI-1
aI-1
aF-1.0
aI-1
aI-1
aI-1
aI-1
aI-1
aF-1.0
asg5
I1
sg6
(lp483
I9
aI6
aI5
aI71
aI130
aI104
asg8
(lp484
I-1
aI-1
aI-1
aF-1.0
aF-1.0
aF-1.0
aI-1
aI-1
aI-1
aF-1.0
aF-1.0
aF-1.0
asg10
(lp485
F-0.006999999999999999
aF-0.006
aF0.009000000000000001
asba(i__main__
sensor_data_struct
p486
(dp487
g3
(lp488
I-1
aI-1
aI-1
aI-1
aI-1
aF-1.0
aI-1
aI-1
aI-1
aI-1
aI-1
aF-1.0
asg5
I1
sg6
(lp489
I13
aI73
aI61
aI90
aI256
aI212
asg8
(lp490
I-1
aI-1
aI-1
aF-1.0
aF-1.0
aF-1.0
aI-1
aI-1
aI-1
aF-1.0
aF-1.0
aF-1.0
asg10
(lp491
F-0.006
aF-0.012
aF0.015
asba(i__main__
sensor_data_struct
p492
(dp493
g3
(lp494
I-1
aI-1
aI-1
aI-1
aI-1
aF-1.0
aI-1
aI-1
aI-1
aI-1
aI-1
aF-1.0
asg5
I1
sg6
(lp495
I20
aI92
aI85
aI118
aI330
aI233
asg8
(lp496
I-1
aI-1
aI-1
aF-1.0
aF-1.0
aF-1.0
aI-1
aI-1
aI-1
aF-1.0
aF-1.0
aF-1.0
asg10
(lp497
F-0.006
aF-0.01
aF0.012
asba(i__main__
sensor_data_struct
p498
(dp499
g3
(lp500
I-1
aI-1
aI-1
aI-1
aI-1
aF-1.0
aI-1
aI-1
aI-1
aI-1
aI-1
aF-1.0
asg5
I1
sg6
(lp501
I20
aI55
aI41
aI86
aI164
aI118
asg8
(lp502
I-1
aI-1
aI-1
aF-1.0
aF-1.0
aF-1.0
aI-1
aI-1
aI-1
aF-1.0
aF-1.0
aF-1.0
asg10
(lp503
F0.004
aF0.011000000000000001
aF0.012
asba(i__main__
sensor_data_struct
p504
(dp505
g3
(lp506
I-1
aI-1
aI-1
aI-1
aI-1
aF-1.0
aI-1
aI-1
aI-1
aI-1
aI-1
aF-1.0
asg5
I0
sg6
(lp507
I290
aI263
aI107
aI332
aI367
aI149
asg8
(lp508
I-1
aI-1
aI-1
aF-1.0
aF-1.0
aF-1.0
aI-1
aI-1
aI-1
aF-1.0
aF-1.0
aF-1.0
asg10
(lp509
F0.0
aF0.003
aF0.001
asba(i__main__
sensor_data_struct
p510
(dp511
g3
(lp512
I-1
aI-1
aI-1
aI-1
aI-1
aF-1.0
aI-1
aI-1
aI-1
aI-1
aI-1
aF-1.0
asg5
I0
sg6
(lp513
I213
aI352
aI244
aI265
aI427
aI189
asg8
(lp514
I-1
aI-1
aI-1
aF-1.0
aF-1.0
aF-1.0
aI-1
aI-1
aI-1
aF-1.0
aF-1.0
aF-1.0
asg10
(lp515
F0.004
aF0.002
aF0.004
asba(i__main__
sensor_data_struct
p516
(dp517
g3
(lp518
I-1
aI-1
aI-1
aI-1
aI-1
aF-1.0
aI-1
aI-1
aI-1
aI-1
aI-1
aF-1.0
asg5
I0
sg6
(lp519
I42
aI201
aI86
aI168
aI423
aI204
asg8
(lp520
I-1
aI-1
aI-1
aF-1.0
aF-1.0
aF-1.0
aI-1
aI-1
aI-1
aF-1.0
aF-1.0
aF-1.0
asg10
(lp521
F0.0
aF0.006999999999999999
aF0.01
asba(i__main__
sensor_data_struct
p522
(dp523
g3
(lp524
I-1
aI-1
aI-1
aI-1
aI-1
aF-1.0
aI-1
aI-1
aI-1
aI-1
aI-1
aF-1.0
asg5
I1
sg6
(lp525
I138
aI129
aI467
aI148
aI160
aI508
asg8
(lp526
I-1
aI-1
aI-1
aF-1.0
aF-1.0
aF-1.0
aI-1
aI-1
aI-1
aF-1.0
aF-1.0
aF-1.0
asg10
(lp527
F0.004
aF-0.003
aF0.005
asba(i__main__
sensor_data_struct
p528
(dp529
g3
(lp530
I-1
aI-1
aI-1
aI-1
aI-1
aF-1.0
aI-1
aI-1
aI-1
aI-1
aI-1
aF-1.0
asg5
I1
sg6
(lp531
I11
aI45
aI22
aI77
aI150
aI110
asg8
(lp532
I-1
aI-1
aI-1
aF-1.0
aF-1.0
aF-1.0
aI-1
aI-1
aI-1
aF-1.0
aF-1.0
aF-1.0
asg10
(lp533
F-0.009000000000000001
aF0.003
aF0.008
asba(i__main__
sensor_data_struct
p534
(dp535
g3
(lp536
I-1
aI-1
aI-1
aI-1
aI-1
aF-1.0
aI-1
aI-1
aI-1
aI-1
aI-1
aF-1.0
asg5
I0
sg6
(lp537
I32
aI118
aI61
aI199
aI427
aI198
asg8
(lp538
I-1
aI-1
aI-1
aF-1.0
aF-1.0
aF-1.0
aI-1
aI-1
aI-1
aF-1.0
aF-1.0
aF-1.0
asg10
(lp539
F-0.005
aF0.0
aF0.008
asba(i__main__
sensor_data_struct
p540
(dp541
g3
(lp542
I-1
aI-1
aI-1
aI-1
aI-1
aF-1.0
aI-1
aI-1
aI-1
aI-1
aI-1
aF-1.0
asg5
I0
sg6
(lp543
I172
aI168
aI249
aI322
aI369
aI166
asg8
(lp544
I-1
aI-1
aI-1
aF-1.0
aF-1.0
aF-1.0
aI-1
aI-1
aI-1
aF-1.0
aF-1.0
aF-1.0
asg10
(lp545
F0.001
aF-0.002
aF0.001
asba(i__main__
sensor_data_struct
p546
(dp547
g3
(lp548
I-1
aI-1
aI-1
aI-1
aI-1
aF-1.0
aI-1
aI-1
aI-1
aI-1
aI-1
aF-1.0
asg5
I1
sg6
(lp549
I23
aI32
aI57
aI79
aI145
aI172
asg8
(lp550
I-1
aI-1
aI-1
aF-1.0
aF-1.0
aF-1.0
aI-1
aI-1
aI-1
aF-1.0
aF-1.0
aF-1.0
asg10
(lp551
F0.006999999999999999
aF-0.009000000000000001
aF0.015
asba(i__main__
sensor_data_struct
p552
(dp553
g3
(lp554
I-1
aI-1
aI-1
aI-1
aI-1
aF-1.0
aI-1
aI-1
aI-1
aI-1
aI-1
aF-1.0
asg5
I0
sg6
(lp555
I30
aI132
aI106
aI153
aI403
aI223
asg8
(lp556
I-1
aI-1
aI-1
aF-1.0
aF-1.0
aF-1.0
aI-1
aI-1
aI-1
aF-1.0
aF-1.0
aF-1.0
asg10
(lp557
F-0.003
aF-0.002
aF0.01
asba(i__main__
sensor_data_struct
p558
(dp559
g3
(lp560
I-1
aI-1
aI-1
aI-1
aI-1
aF-1.0
aI-1
aI-1
aI-1
aI-1
aI-1
aF-1.0
asg5
I1
sg6
(lp561
I29
aI25
aI51
aI81
aI143
aI180
asg8
(lp562
I-1
aI-1
aI-1
aF-1.0
aF-1.0
aF-1.0
aI-1
aI-1
aI-1
aF-1.0
aF-1.0
aF-1.0
asg10
(lp563
F0.009000000000000001
aF-0.008
aF0.013999999999999999
asba(i__main__
sensor_data_struct
p564
(dp565
g3
(lp566
I-1
aI-1
aI-1
aI-1
aI-1
aF-1.0
aI-1
aI-1
aI-1
aI-1
aI-1
aF-1.0
asg5
I0
sg6
(lp567
I87
aI283
aI176
aI168
aI422
aI220
asg8
(lp568
I-1
aI-1
aI-1
aF-1.0
aF-1.0
aF-1.0
aI-1
aI-1
aI-1
aF-1.0
aF-1.0
aF-1.0
asg10
(lp569
F0.004
aF0.003
aF0.01
asba(i__main__
sensor_data_struct
p570
(dp571
g3
(lp572
I-1
aI-1
aI-1
aI-1
aI-1
aF-1.0
aI-1
aI-1
aI-1
aI-1
aI-1
aF-1.0
asg5
I0
sg6
(lp573
I14
aI59
aI28
aI171
aI411
aI190
asg8
(lp574
I-1
aI-1
aI-1
aF-1.0
aF-1.0
aF-1.0
aI-1
aI-1
aI-1
aF-1.0
aF-1.0
aF-1.0
asg10
(lp575
F-0.008
aF0.006
aF0.009000000000000001
asba(i__main__
sensor_data_struct
p576
(dp577
g3
(lp578
I-1
aI-1
aI-1
aI-1
aI-1
aF-1.0
aI-1
aI-1
aI-1
aI-1
aI-1
aF-1.0
asg5
I0
sg6
(lp579
I52
aI128
aI77
aI216
aI420
aI200
asg8
(lp580
I-1
aI-1
aI-1
aF-1.0
aF-1.0
aF-1.0
aI-1
aI-1
aI-1
aF-1.0
aF-1.0
aF-1.0
asg10
(lp581
F-0.006
aF-0.003
aF0.006999999999999999
asba(i__main__
sensor_data_struct
p582
(dp583
g3
(lp584
I-1
aI-1
aI-1
aI-1
aI-1
aF-1.0
aI-1
aI-1
aI-1
aI-1
aI-1
aF-1.0
asg5
I1
sg6
(lp585
I14
aI33
aI38
aI78
aI144
aI128
asg8
(lp586
I-1
aI-1
aI-1
aF-1.0
aF-1.0
aF-1.0
aI-1
aI-1
aI-1
aF-1.0
aF-1.0
aF-1.0
asg10
(lp587
F0.001
aF-0.012
aF0.012
asba(i__main__
sensor_data_struct
p588
(dp589
g3
(lp590
I-1
aI-1
aI-1
aI-1
aI-1
aF-1.0
aI-1
aI-1
aI-1
aI-1
aI-1
aF-1.0
asg5
I1
sg6
(lp591
I9
aI6
aI5
aI73
aI131
aI103
asg8
(lp592
I-1
aI-1
aI-1
aF-1.0
aF-1.0
aF-1.0
aI-1
aI-1
aI-1
aF-1.0
aF-1.0
aF-1.0
asg10
(lp593
F-0.009000000000000001
aF0.008
aF0.013000000000000001
asba(i__main__
sensor_data_struct
p594
(dp595
g3
(lp596
I-1
aI-1
aI-1
aI-1
aI-1
aF-1.0
aI-1
aI-1
aI-1
aI-1
aI-1
aF-1.0
asg5
I0
sg6
(lp597
I90
aI169
aI297
aI169
aI418
aI236
asg8
(lp598
I-1
aI-1
aI-1
aF-1.0
aF-1.0
aF-1.0
aI-1
aI-1
aI-1
aF-1.0
aF-1.0
aF-1.0
asg10
(lp599
F0.003
aF-0.002
aF0.01
asba(i__main__
sensor_data_struct
p600
(dp601
g3
(lp602
I-1
aI-1
aI-1
aI-1
aI-1
aF-1.0
aI-1
aI-1
aI-1
aI-1
aI-1
aF-1.0
asg5
I1
sg6
(lp603
I43
aI85
aI86
aI114
aI334
aI217
asg8
(lp604
I-1
aI-1
aI-1
aF-1.0
aF-1.0
aF-1.0
aI-1
aI-1
aI-1
aF-1.0
aF-1.0
aF-1.0
asg10
(lp605
F0.006
aF0.006
aF0.013999999999999999
asba.