(lp0
(i__main__
sensor_data_struct
p1
(dp2
S'color'
p3
(lp4
I-1
aI-1
aI-1
aI-1
aI-1
aF-1.0
aI-1
aI-1
aI-1
aI-1
aI-1
aF-1.0
asS'button'
p5
S'plant'
p6
sS'IR'
p7
(lp8
I14
aI32
aI38
aI-1
aI-1
aI-1
asS'TOF'
p9
(lp10
I-1
aI-1
aI-1
aF-1.0
aF-1.0
aF-1.0
aI-1
aI-1
aI-1
aF-1.0
aF-1.0
aF-1.0
asS'pt'
p11
(lp12
I-1
aI-1
aI-1
asba(i__main__
sensor_data_struct
p13
(dp14
g3
(lp15
I-1
aI-1
aI-1
aI-1
aI-1
aF-1.0
aI-1
aI-1
aI-1
aI-1
aI-1
aF-1.0
asg5
g6
sg7
(lp16
I67
aI26
aI103
aI-1
aI-1
aI-1
asg9
(lp17
I-1
aI-1
aI-1
aF-1.0
aF-1.0
aF-1.0
aI-1
aI-1
aI-1
aF-1.0
aF-1.0
aF-1.0
asg11
g12
sba(i__main__
sensor_data_struct
p18
(dp19
g3
(lp20
I-1
aI-1
aI-1
aI-1
aI-1
aF-1.0
aI-1
aI-1
aI-1
aI-1
aI-1
aF-1.0
asg5
g6
sg7
(lp21
I63
aI57
aI64
aI-1
aI-1
aI-1
asg9
(lp22
I-1
aI-1
aI-1
aF-1.0
aF-1.0
aF-1.0
aI-1
aI-1
aI-1
aF-1.0
aF-1.0
aF-1.0
asg11
g12
sba(i__main__
sensor_data_struct
p23
(dp24
g3
(lp25
I-1
aI-1
aI-1
aI-1
aI-1
aF-1.0
aI-1
aI-1
aI-1
aI-1
aI-1
aF-1.0
asg5
g6
sg7
(lp26
I10
aI5
aI1
aI-1
aI-1
aI-1
asg9
(lp27
I-1
aI-1
aI-1
aF-1.0
aF-1.0
aF-1.0
aI-1
aI-1
aI-1
aF-1.0
aF-1.0
aF-1.0
asg11
g12
sba(i__main__
sensor_data_struct
p28
(dp29
g3
(lp30
I-1
aI-1
aI-1
aI-1
aI-1
aF-1.0
aI-1
aI-1
aI-1
aI-1
aI-1
aF-1.0
asg5
g6
sg7
(lp31
I34
aI116
aI163
aI-1
aI-1
aI-1
asg9
(lp32
I-1
aI-1
aI-1
aF-1.0
aF-1.0
aF-1.0
aI-1
aI-1
aI-1
aF-1.0
aF-1.0
aF-1.0
asg11
g12
sba(i__main__
sensor_data_struct
p33
(dp34
g3
(lp35
I-1
aI-1
aI-1
aI-1
aI-1
aF-1.0
aI-1
aI-1
aI-1
aI-1
aI-1
aF-1.0
asg5
g6
sg7
(lp36
I55
aI138
aI195
aI-1
aI-1
aI-1
asg9
(lp37
I-1
aI-1
aI-1
aF-1.0
aF-1.0
aF-1.0
aI-1
aI-1
aI-1
aF-1.0
aF-1.0
aF-1.0
asg11
g12
sba(i__main__
sensor_data_struct
p38
(dp39
g3
(lp40
I-1
aI-1
aI-1
aI-1
aI-1
aF-1.0
aI-1
aI-1
aI-1
aI-1
aI-1
aF-1.0
asg5
g6
sg7
(lp41
I94
aI197
aI152
aI-1
aI-1
aI-1
asg9
(lp42
I-1
aI-1
aI-1
aF-1.0
aF-1.0
aF-1.0
aI-1
aI-1
aI-1
aF-1.0
aF-1.0
aF-1.0
asg11
g12
sba(i__main__
sensor_data_struct
p43
(dp44
g3
(lp45
I-1
aI-1
aI-1
aI-1
aI-1
aF-1.0
aI-1
aI-1
aI-1
aI-1
aI-1
aF-1.0
asg5
g6
sg7
(lp46
I123
aI206
aI110
aI-1
aI-1
aI-1
asg9
(lp47
I-1
aI-1
aI-1
aF-1.0
aF-1.0
aF-1.0
aI-1
aI-1
aI-1
aF-1.0
aF-1.0
aF-1.0
asg11
g12
sba(i__main__
sensor_data_struct
p48
(dp49
g3
(lp50
I-1
aI-1
aI-1
aI-1
aI-1
aF-1.0
aI-1
aI-1
aI-1
aI-1
aI-1
aF-1.0
asg5
g6
sg7
(lp51
I93
aI275
aI287
aI-1
aI-1
aI-1
asg9
(lp52
I-1
aI-1
aI-1
aF-1.0
aF-1.0
aF-1.0
aI-1
aI-1
aI-1
aF-1.0
aF-1.0
aF-1.0
asg11
g12
sba(i__main__
sensor_data_struct
p53
(dp54
g3
(lp55
I-1
aI-1
aI-1
aI-1
aI-1
aF-1.0
aI-1
aI-1
aI-1
aI-1
aI-1
aF-1.0
asg5
g6
sg7
(lp56
I90
aI163
aI34
aI-1
aI-1
aI-1
asg9
(lp57
I-1
aI-1
aI-1
aF-1.0
aF-1.0
aF-1.0
aI-1
aI-1
aI-1
aF-1.0
aF-1.0
aF-1.0
asg11
g12
sba(i__main__
sensor_data_struct
p58
(dp59
g3
(lp60
I-1
aI-1
aI-1
aI-1
aI-1
aF-1.0
aI-1
aI-1
aI-1
aI-1
aI-1
aF-1.0
asg5
g6
sg7
(lp61
I36
aI15
aI11
aI-1
aI-1
aI-1
asg9
(lp62
I-1
aI-1
aI-1
aF-1.0
aF-1.0
aF-1.0
aI-1
aI-1
aI-1
aF-1.0
aF-1.0
aF-1.0
asg11
g12
sba(i__main__
sensor_data_struct
p63
(dp64
g3
(lp65
I-1
aI-1
aI-1
aI-1
aI-1
aF-1.0
aI-1
aI-1
aI-1
aI-1
aI-1
aF-1.0
asg5
g6
sg7
(lp66
I62
aI63
aI64
aI-1
aI-1
aI-1
asg9
(lp67
I-1
aI-1
aI-1
aF-1.0
aF-1.0
aF-1.0
aI-1
aI-1
aI-1
aF-1.0
aF-1.0
aF-1.0
asg11
g12
sba(i__main__
sensor_data_struct
p68
(dp69
g3
(lp70
I-1
aI-1
aI-1
aI-1
aI-1
aF-1.0
aI-1
aI-1
aI-1
aI-1
aI-1
aF-1.0
asg5
g6
sg7
(lp71
I59
aI118
aI21
aI-1
aI-1
aI-1
asg9
(lp72
I-1
aI-1
aI-1
aF-1.0
aF-1.0
aF-1.0
aI-1
aI-1
aI-1
aF-1.0
aF-1.0
aF-1.0
asg11
g12
sba(i__main__
sensor_data_struct
p73
(dp74
g3
(lp75
I-1
aI-1
aI-1
aI-1
aI-1
aF-1.0
aI-1
aI-1
aI-1
aI-1
aI-1
aF-1.0
asg5
g6
sg7
(lp76
I13
aI76
aI31
aI-1
aI-1
aI-1
asg9
(lp77
I-1
aI-1
aI-1
aF-1.0
aF-1.0
aF-1.0
aI-1
aI-1
aI-1
aF-1.0
aF-1.0
aF-1.0
asg11
g12
sba(i__main__
sensor_data_struct
p78
(dp79
g3
(lp80
I-1
aI-1
aI-1
aI-1
aI-1
aF-1.0
aI-1
aI-1
aI-1
aI-1
aI-1
aF-1.0
asg5
g6
sg7
(lp81
I31
aI24
aI1
aI-1
aI-1
aI-1
asg9
(lp82
I-1
aI-1
aI-1
aF-1.0
aF-1.0
aF-1.0
aI-1
aI-1
aI-1
aF-1.0
aF-1.0
aF-1.0
asg11
g12
sba(i__main__
sensor_data_struct
p83
(dp84
g3
(lp85
I-1
aI-1
aI-1
aI-1
aI-1
aF-1.0
aI-1
aI-1
aI-1
aI-1
aI-1
aF-1.0
asg5
g6
sg7
(lp86
I72
aI48
aI5
aI-1
aI-1
aI-1
asg9
(lp87
I-1
aI-1
aI-1
aF-1.0
aF-1.0
aF-1.0
aI-1
aI-1
aI-1
aF-1.0
aF-1.0
aF-1.0
asg11
g12
sba(i__main__
sensor_data_struct
p88
(dp89
g3
(lp90
I-1
aI-1
aI-1
aI-1
aI-1
aF-1.0
aI-1
aI-1
aI-1
aI-1
aI-1
aF-1.0
asg5
g6
sg7
(lp91
I20
aI99
aI82
aI-1
aI-1
aI-1
asg9
(lp92
I-1
aI-1
aI-1
aF-1.0
aF-1.0
aF-1.0
aI-1
aI-1
aI-1
aF-1.0
aF-1.0
aF-1.0
asg11
g12
sba(i__main__
sensor_data_struct
p93
(dp94
g3
(lp95
I-1
aI-1
aI-1
aI-1
aI-1
aF-1.0
aI-1
aI-1
aI-1
aI-1
aI-1
aF-1.0
asg5
g6
sg7
(lp96
I64
aI211
aI9
aI-1
aI-1
aI-1
asg9
(lp97
I-1
aI-1
aI-1
aF-1.0
aF-1.0
aF-1.0
aI-1
aI-1
aI-1
aF-1.0
aF-1.0
aF-1.0
asg11
g12
sba(i__main__
sensor_data_struct
p98
(dp99
g3
(lp100
I-1
aI-1
aI-1
aI-1
aI-1
aF-1.0
aI-1
aI-1
aI-1
aI-1
aI-1
aF-1.0
asg5
g6
sg7
(lp101
I63
aI48
aI32
aI-1
aI-1
aI-1
asg9
(lp102
I-1
aI-1
aI-1
aF-1.0
aF-1.0
aF-1.0
aI-1
aI-1
aI-1
aF-1.0
aF-1.0
aF-1.0
asg11
g12
sba(i__main__
sensor_data_struct
p103
(dp104
g3
(lp105
I-1
aI-1
aI-1
aI-1
aI-1
aF-1.0
aI-1
aI-1
aI-1
aI-1
aI-1
aF-1.0
asg5
g6
sg7
(lp106
I46
aI146
aI3
aI-1
aI-1
aI-1
asg9
(lp107
I-1
aI-1
aI-1
aF-1.0
aF-1.0
aF-1.0
aI-1
aI-1
aI-1
aF-1.0
aF-1.0
aF-1.0
asg11
g12
sba(i__main__
sensor_data_struct
p108
(dp109
g3
(lp110
I-1
aI-1
aI-1
aI-1
aI-1
aF-1.0
aI-1
aI-1
aI-1
aI-1
aI-1
aF-1.0
asg5
g6
sg7
(lp111
I17
aI85
aI30
aI-1
aI-1
aI-1
asg9
(lp112
I-1
aI-1
aI-1
aF-1.0
aF-1.0
aF-1.0
aI-1
aI-1
aI-1
aF-1.0
aF-1.0
aF-1.0
asg11
g12
sba(i__main__
sensor_data_struct
p113
(dp114
g3
(lp115
I-1
aI-1
aI-1
aI-1
aI-1
aF-1.0
aI-1
aI-1
aI-1
aI-1
aI-1
aF-1.0
asg5
g6
sg7
(lp116
I24
aI112
aI5
aI-1
aI-1
aI-1
asg9
(lp117
I-1
aI-1
aI-1
aF-1.0
aF-1.0
aF-1.0
aI-1
aI-1
aI-1
aF-1.0
aF-1.0
aF-1.0
asg11
g12
sba(i__main__
sensor_data_struct
p118
(dp119
g3
(lp120
I-1
aI-1
aI-1
aI-1
aI-1
aF-1.0
aI-1
aI-1
aI-1
aI-1
aI-1
aF-1.0
asg5
g6
sg7
(lp121
I62
aI95
aI278
aI-1
aI-1
aI-1
asg9
(lp122
I-1
aI-1
aI-1
aF-1.0
aF-1.0
aF-1.0
aI-1
aI-1
aI-1
aF-1.0
aF-1.0
aF-1.0
asg11
g12
sba(i__main__
sensor_data_struct
p123
(dp124
g3
(lp125
I-1
aI-1
aI-1
aI-1
aI-1
aF-1.0
aI-1
aI-1
aI-1
aI-1
aI-1
aF-1.0
asg5
g6
sg7
(lp126
I41
aI157
aI218
aI-1
aI-1
aI-1
asg9
(lp127
I-1
aI-1
aI-1
aF-1.0
aF-1.0
aF-1.0
aI-1
aI-1
aI-1
aF-1.0
aF-1.0
aF-1.0
asg11
g12
sba(i__main__
sensor_data_struct
p128
(dp129
g3
(lp130
I-1
aI-1
aI-1
aI-1
aI-1
aF-1.0
aI-1
aI-1
aI-1
aI-1
aI-1
aF-1.0
asg5
g6
sg7
(lp131
I17
aI13
aI90
aI-1
aI-1
aI-1
asg9
(lp132
I-1
aI-1
aI-1
aF-1.0
aF-1.0
aF-1.0
aI-1
aI-1
aI-1
aF-1.0
aF-1.0
aF-1.0
asg11
g12
sba(i__main__
sensor_data_struct
p133
(dp134
g3
(lp135
I-1
aI-1
aI-1
aI-1
aI-1
aF-1.0
aI-1
aI-1
aI-1
aI-1
aI-1
aF-1.0
asg5
g6
sg7
(lp136
I12
aI57
aI28
aI-1
aI-1
aI-1
asg9
(lp137
I-1
aI-1
aI-1
aF-1.0
aF-1.0
aF-1.0
aI-1
aI-1
aI-1
aF-1.0
aF-1.0
aF-1.0
asg11
g12
sba(i__main__
sensor_data_struct
p138
(dp139
g3
(lp140
I-1
aI-1
aI-1
aI-1
aI-1
aF-1.0
aI-1
aI-1
aI-1
aI-1
aI-1
aF-1.0
asg5
g6
sg7
(lp141
I9
aI85
aI20
aI-1
aI-1
aI-1
asg9
(lp142
I-1
aI-1
aI-1
aF-1.0
aF-1.0
aF-1.0
aI-1
aI-1
aI-1
aF-1.0
aF-1.0
aF-1.0
asg11
g12
sba(i__main__
sensor_data_struct
p143
(dp144
g3
(lp145
I-1
aI-1
aI-1
aI-1
aI-1
aF-1.0
aI-1
aI-1
aI-1
aI-1
aI-1
aF-1.0
asg5
g6
sg7
(lp146
I153
aI370
aI2
aI-1
aI-1
aI-1
asg9
(lp147
I-1
aI-1
aI-1
aF-1.0
aF-1.0
aF-1.0
aI-1
aI-1
aI-1
aF-1.0
aF-1.0
aF-1.0
asg11
g12
sba(i__main__
sensor_data_struct
p148
(dp149
g3
(lp150
I-1
aI-1
aI-1
aI-1
aI-1
aF-1.0
aI-1
aI-1
aI-1
aI-1
aI-1
aF-1.0
asg5
g6
sg7
(lp151
I77
aI254
aI4
aI-1
aI-1
aI-1
asg9
(lp152
I-1
aI-1
aI-1
aF-1.0
aF-1.0
aF-1.0
aI-1
aI-1
aI-1
aF-1.0
aF-1.0
aF-1.0
asg11
g12
sba(i__main__
sensor_data_struct
p153
(dp154
g3
(lp155
I-1
aI-1
aI-1
aI-1
aI-1
aF-1.0
aI-1
aI-1
aI-1
aI-1
aI-1
aF-1.0
asg5
g6
sg7
(lp156
I71
aI43
aI40
aI-1
aI-1
aI-1
asg9
(lp157
I-1
aI-1
aI-1
aF-1.0
aF-1.0
aF-1.0
aI-1
aI-1
aI-1
aF-1.0
aF-1.0
aF-1.0
asg11
g12
sba(i__main__
sensor_data_struct
p158
(dp159
g3
(lp160
I-1
aI-1
aI-1
aI-1
aI-1
aF-1.0
aI-1
aI-1
aI-1
aI-1
aI-1
aF-1.0
asg5
g6
sg7
(lp161
I23
aI68
aI174
aI-1
aI-1
aI-1
asg9
(lp162
I-1
aI-1
aI-1
aF-1.0
aF-1.0
aF-1.0
aI-1
aI-1
aI-1
aF-1.0
aF-1.0
aF-1.0
asg11
g12
sba(i__main__
sensor_data_struct
p163
(dp164
g3
(lp165
I-1
aI-1
aI-1
aI-1
aI-1
aF-1.0
aI-1
aI-1
aI-1
aI-1
aI-1
aF-1.0
asg5
g6
sg7
(lp166
I7
aI5
aI6
aI-1
aI-1
aI-1
asg9
(lp167
I-1
aI-1
aI-1
aF-1.0
aF-1.0
aF-1.0
aI-1
aI-1
aI-1
aF-1.0
aF-1.0
aF-1.0
asg11
g12
sba(i__main__
sensor_data_struct
p168
(dp169
g3
(lp170
I-1
aI-1
aI-1
aI-1
aI-1
aF-1.0
aI-1
aI-1
aI-1
aI-1
aI-1
aF-1.0
asg5
g6
sg7
(lp171
I24
aI61
aI21
aI-1
aI-1
aI-1
asg9
(lp172
I-1
aI-1
aI-1
aF-1.0
aF-1.0
aF-1.0
aI-1
aI-1
aI-1
aF-1.0
aF-1.0
aF-1.0
asg11
g12
sba(i__main__
sensor_data_struct
p173
(dp174
g3
(lp175
I-1
aI-1
aI-1
aI-1
aI-1
aF-1.0
aI-1
aI-1
aI-1
aI-1
aI-1
aF-1.0
asg5
g6
sg7
(lp176
I16
aI78
aI43
aI-1
aI-1
aI-1
asg9
(lp177
I-1
aI-1
aI-1
aF-1.0
aF-1.0
aF-1.0
aI-1
aI-1
aI-1
aF-1.0
aF-1.0
aF-1.0
asg11
g12
sba(i__main__
sensor_data_struct
p178
(dp179
g3
(lp180
I-1
aI-1
aI-1
aI-1
aI-1
aF-1.0
aI-1
aI-1
aI-1
aI-1
aI-1
aF-1.0
asg5
g6
sg7
(lp181
I46
aI43
aI52
aI-1
aI-1
aI-1
asg9
(lp182
I-1
aI-1
aI-1
aF-1.0
aF-1.0
aF-1.0
aI-1
aI-1
aI-1
aF-1.0
aF-1.0
aF-1.0
asg11
g12
sba(i__main__
sensor_data_struct
p183
(dp184
g3
(lp185
I-1
aI-1
aI-1
aI-1
aI-1
aF-1.0
aI-1
aI-1
aI-1
aI-1
aI-1
aF-1.0
asg5
g6
sg7
(lp186
I21
aI159
aI10
aI-1
aI-1
aI-1
asg9
(lp187
I-1
aI-1
aI-1
aF-1.0
aF-1.0
aF-1.0
aI-1
aI-1
aI-1
aF-1.0
aF-1.0
aF-1.0
asg11
g12
sba(i__main__
sensor_data_struct
p188
(dp189
g3
(lp190
I-1
aI-1
aI-1
aI-1
aI-1
aF-1.0
aI-1
aI-1
aI-1
aI-1
aI-1
aF-1.0
asg5
g6
sg7
(lp191
I16
aI15
aI142
aI-1
aI-1
aI-1
asg9
(lp192
I-1
aI-1
aI-1
aF-1.0
aF-1.0
aF-1.0
aI-1
aI-1
aI-1
aF-1.0
aF-1.0
aF-1.0
asg11
g12
sba(i__main__
sensor_data_struct
p193
(dp194
g3
(lp195
I-1
aI-1
aI-1
aI-1
aI-1
aF-1.0
aI-1
aI-1
aI-1
aI-1
aI-1
aF-1.0
asg5
g6
sg7
(lp196
I41
aI62
aI29
aI-1
aI-1
aI-1
asg9
(lp197
I-1
aI-1
aI-1
aF-1.0
aF-1.0
aF-1.0
aI-1
aI-1
aI-1
aF-1.0
aF-1.0
aF-1.0
asg11
g12
sba(i__main__
sensor_data_struct
p198
(dp199
g3
(lp200
I-1
aI-1
aI-1
aI-1
aI-1
aF-1.0
aI-1
aI-1
aI-1
aI-1
aI-1
aF-1.0
asg5
g6
sg7
(lp201
I8
aI11
aI15
aI-1
aI-1
aI-1
asg9
(lp202
I-1
aI-1
aI-1
aF-1.0
aF-1.0
aF-1.0
aI-1
aI-1
aI-1
aF-1.0
aF-1.0
aF-1.0
asg11
g12
sba(i__main__
sensor_data_struct
p203
(dp204
g3
(lp205
I-1
aI-1
aI-1
aI-1
aI-1
aF-1.0
aI-1
aI-1
aI-1
aI-1
aI-1
aF-1.0
asg5
g6
sg7
(lp206
I17
aI26
aI52
aI-1
aI-1
aI-1
asg9
(lp207
I-1
aI-1
aI-1
aF-1.0
aF-1.0
aF-1.0
aI-1
aI-1
aI-1
aF-1.0
aF-1.0
aF-1.0
asg11
g12
sba(i__main__
sensor_data_struct
p208
(dp209
g3
(lp210
I-1
aI-1
aI-1
aI-1
aI-1
aF-1.0
aI-1
aI-1
aI-1
aI-1
aI-1
aF-1.0
asg5
g6
sg7
(lp211
I57
aI39
aI34
aI-1
aI-1
aI-1
asg9
(lp212
I-1
aI-1
aI-1
aF-1.0
aF-1.0
aF-1.0
aI-1
aI-1
aI-1
aF-1.0
aF-1.0
aF-1.0
asg11
g12
sba(i__main__
sensor_data_struct
p213
(dp214
g3
(lp215
I-1
aI-1
aI-1
aI-1
aI-1
aF-1.0
aI-1
aI-1
aI-1
aI-1
aI-1
aF-1.0
asg5
g6
sg7
(lp216
I100
aI22
aI102
aI-1
aI-1
aI-1
asg9
(lp217
I-1
aI-1
aI-1
aF-1.0
aF-1.0
aF-1.0
aI-1
aI-1
aI-1
aF-1.0
aF-1.0
aF-1.0
asg11
g12
sba(i__main__
sensor_data_struct
p218
(dp219
g3
(lp220
I-1
aI-1
aI-1
aI-1
aI-1
aF-1.0
aI-1
aI-1
aI-1
aI-1
aI-1
aF-1.0
asg5
g6
sg7
(lp221
I39
aI81
aI93
aI-1
aI-1
aI-1
asg9
(lp222
I-1
aI-1
aI-1
aF-1.0
aF-1.0
aF-1.0
aI-1
aI-1
aI-1
aF-1.0
aF-1.0
aF-1.0
asg11
g12
sba(i__main__
sensor_data_struct
p223
(dp224
g3
(lp225
I-1
aI-1
aI-1
aI-1
aI-1
aF-1.0
aI-1
aI-1
aI-1
aI-1
aI-1
aF-1.0
asg5
g6
sg7
(lp226
I68
aI236
aI2
aI-1
aI-1
aI-1
asg9
(lp227
I-1
aI-1
aI-1
aF-1.0
aF-1.0
aF-1.0
aI-1
aI-1
aI-1
aF-1.0
aF-1.0
aF-1.0
asg11
g12
sba(i__main__
sensor_data_struct
p228
(dp229
g3
(lp230
I-1
aI-1
aI-1
aI-1
aI-1
aF-1.0
aI-1
aI-1
aI-1
aI-1
aI-1
aF-1.0
asg5
g6
sg7
(lp231
I78
aI180
aI1
aI-1
aI-1
aI-1
asg9
(lp232
I-1
aI-1
aI-1
aF-1.0
aF-1.0
aF-1.0
aI-1
aI-1
aI-1
aF-1.0
aF-1.0
aF-1.0
asg11
g12
sba(i__main__
sensor_data_struct
p233
(dp234
g3
(lp235
I-1
aI-1
aI-1
aI-1
aI-1
aF-1.0
aI-1
aI-1
aI-1
aI-1
aI-1
aF-1.0
asg5
g6
sg7
(lp236
I76
aI167
aI313
aI-1
aI-1
aI-1
asg9
(lp237
I-1
aI-1
aI-1
aF-1.0
aF-1.0
aF-1.0
aI-1
aI-1
aI-1
aF-1.0
aF-1.0
aF-1.0
asg11
g12
sba(i__main__
sensor_data_struct
p238
(dp239
g3
(lp240
I-1
aI-1
aI-1
aI-1
aI-1
aF-1.0
aI-1
aI-1
aI-1
aI-1
aI-1
aF-1.0
asg5
g6
sg7
(lp241
I47
aI54
aI84
aI-1
aI-1
aI-1
asg9
(lp242
I-1
aI-1
aI-1
aF-1.0
aF-1.0
aF-1.0
aI-1
aI-1
aI-1
aF-1.0
aF-1.0
aF-1.0
asg11
g12
sba(i__main__
sensor_data_struct
p243
(dp244
g3
(lp245
I-1
aI-1
aI-1
aI-1
aI-1
aF-1.0
aI-1
aI-1
aI-1
aI-1
aI-1
aF-1.0
asg5
g6
sg7
(lp246
I48
aI12
aI5
aI-1
aI-1
aI-1
asg9
(lp247
I-1
aI-1
aI-1
aF-1.0
aF-1.0
aF-1.0
aI-1
aI-1
aI-1
aF-1.0
aF-1.0
aF-1.0
asg11
g12
sba(i__main__
sensor_data_struct
p248
(dp249
g3
(lp250
I-1
aI-1
aI-1
aI-1
aI-1
aF-1.0
aI-1
aI-1
aI-1
aI-1
aI-1
aF-1.0
asg5
g6
sg7
(lp251
I46
aI112
aI4
aI-1
aI-1
aI-1
asg9
(lp252
I-1
aI-1
aI-1
aF-1.0
aF-1.0
aF-1.0
aI-1
aI-1
aI-1
aF-1.0
aF-1.0
aF-1.0
asg11
g12
sba(i__main__
sensor_data_struct
p253
(dp254
g3
(lp255
I-1
aI-1
aI-1
aI-1
aI-1
aF-1.0
aI-1
aI-1
aI-1
aI-1
aI-1
aF-1.0
asg5
g6
sg7
(lp256
I56
aI61
aI113
aI-1
aI-1
aI-1
asg9
(lp257
I-1
aI-1
aI-1
aF-1.0
aF-1.0
aF-1.0
aI-1
aI-1
aI-1
aF-1.0
aF-1.0
aF-1.0
asg11
g12
sba(i__main__
sensor_data_struct
p258
(dp259
g3
(lp260
I-1
aI-1
aI-1
aI-1
aI-1
aF-1.0
aI-1
aI-1
aI-1
aI-1
aI-1
aF-1.0
asg5
g6
sg7
(lp261
I3
aI245
aI2
aI-1
aI-1
aI-1
asg9
(lp262
I-1
aI-1
aI-1
aF-1.0
aF-1.0
aF-1.0
aI-1
aI-1
aI-1
aF-1.0
aF-1.0
aF-1.0
asg11
g12
sba(i__main__
sensor_data_struct
p263
(dp264
g3
(lp265
I-1
aI-1
aI-1
aI-1
aI-1
aF-1.0
aI-1
aI-1
aI-1
aI-1
aI-1
aF-1.0
asg5
g6
sg7
(lp266
I68
aI160
aI173
aI-1
aI-1
aI-1
asg9
(lp267
I-1
aI-1
aI-1
aF-1.0
aF-1.0
aF-1.0
aI-1
aI-1
aI-1
aF-1.0
aF-1.0
aF-1.0
asg11
g12
sba(i__main__
sensor_data_struct
p268
(dp269
g3
(lp270
I-1
aI-1
aI-1
aI-1
aI-1
aF-1.0
aI-1
aI-1
aI-1
aI-1
aI-1
aF-1.0
asg5
g6
sg7
(lp271
I56
aI126
aI111
aI-1
aI-1
aI-1
asg9
(lp272
I-1
aI-1
aI-1
aF-1.0
aF-1.0
aF-1.0
aI-1
aI-1
aI-1
aF-1.0
aF-1.0
aF-1.0
asg11
g12
sba(i__main__
sensor_data_struct
p273
(dp274
g3
(lp275
I-1
aI-1
aI-1
aI-1
aI-1
aF-1.0
aI-1
aI-1
aI-1
aI-1
aI-1
aF-1.0
asg5
g6
sg7
(lp276
I17
aI80
aI57
aI-1
aI-1
aI-1
asg9
(lp277
I-1
aI-1
aI-1
aF-1.0
aF-1.0
aF-1.0
aI-1
aI-1
aI-1
aF-1.0
aF-1.0
aF-1.0
asg11
g12
sba(i__main__
sensor_data_struct
p278
(dp279
g3
(lp280
I-1
aI-1
aI-1
aI-1
aI-1
aF-1.0
aI-1
aI-1
aI-1
aI-1
aI-1
aF-1.0
asg5
g6
sg7
(lp281
I25
aI82
aI41
aI-1
aI-1
aI-1
asg9
(lp282
I-1
aI-1
aI-1
aF-1.0
aF-1.0
aF-1.0
aI-1
aI-1
aI-1
aF-1.0
aF-1.0
aF-1.0
asg11
g12
sba(i__main__
sensor_data_struct
p283
(dp284
g3
(lp285
I-1
aI-1
aI-1
aI-1
aI-1
aF-1.0
aI-1
aI-1
aI-1
aI-1
aI-1
aF-1.0
asg5
g6
sg7
(lp286
I77
aI86
aI141
aI-1
aI-1
aI-1
asg9
(lp287
I-1
aI-1
aI-1
aF-1.0
aF-1.0
aF-1.0
aI-1
aI-1
aI-1
aF-1.0
aF-1.0
aF-1.0
asg11
g12
sba(i__main__
sensor_data_struct
p288
(dp289
g3
(lp290
I-1
aI-1
aI-1
aI-1
aI-1
aF-1.0
aI-1
aI-1
aI-1
aI-1
aI-1
aF-1.0
asg5
g6
sg7
(lp291
I26
aI112
aI34
aI-1
aI-1
aI-1
asg9
(lp292
I-1
aI-1
aI-1
aF-1.0
aF-1.0
aF-1.0
aI-1
aI-1
aI-1
aF-1.0
aF-1.0
aF-1.0
asg11
g12
sba(i__main__
sensor_data_struct
p293
(dp294
g3
(lp295
I-1
aI-1
aI-1
aI-1
aI-1
aF-1.0
aI-1
aI-1
aI-1
aI-1
aI-1
aF-1.0
asg5
g6
sg7
(lp296
I16
aI52
aI37
aI-1
aI-1
aI-1
asg9
(lp297
I-1
aI-1
aI-1
aF-1.0
aF-1.0
aF-1.0
aI-1
aI-1
aI-1
aF-1.0
aF-1.0
aF-1.0
asg11
g12
sba(i__main__
sensor_data_struct
p298
(dp299
g3
(lp300
I-1
aI-1
aI-1
aI-1
aI-1
aF-1.0
aI-1
aI-1
aI-1
aI-1
aI-1
aF-1.0
asg5
g6
sg7
(lp301
I16
aI33
aI59
aI-1
aI-1
aI-1
asg9
(lp302
I-1
aI-1
aI-1
aF-1.0
aF-1.0
aF-1.0
aI-1
aI-1
aI-1
aF-1.0
aF-1.0
aF-1.0
asg11
g12
sba(i__main__
sensor_data_struct
p303
(dp304
g3
(lp305
I-1
aI-1
aI-1
aI-1
aI-1
aF-1.0
aI-1
aI-1
aI-1
aI-1
aI-1
aF-1.0
asg5
g6
sg7
(lp306
I33
aI47
aI55
aI-1
aI-1
aI-1
asg9
(lp307
I-1
aI-1
aI-1
aF-1.0
aF-1.0
aF-1.0
aI-1
aI-1
aI-1
aF-1.0
aF-1.0
aF-1.0
asg11
g12
sba(i__main__
sensor_data_struct
p308
(dp309
g3
(lp310
I-1
aI-1
aI-1
aI-1
aI-1
aF-1.0
aI-1
aI-1
aI-1
aI-1
aI-1
aF-1.0
asg5
g6
sg7
(lp311
I14
aI32
aI20
aI-1
aI-1
aI-1
asg9
(lp312
I-1
aI-1
aI-1
aF-1.0
aF-1.0
aF-1.0
aI-1
aI-1
aI-1
aF-1.0
aF-1.0
aF-1.0
asg11
g12
sba(i__main__
sensor_data_struct
p313
(dp314
g3
(lp315
I-1
aI-1
aI-1
aI-1
aI-1
aF-1.0
aI-1
aI-1
aI-1
aI-1
aI-1
aF-1.0
asg5
g6
sg7
(lp316
I13
aI38
aI36
aI-1
aI-1
aI-1
asg9
(lp317
I-1
aI-1
aI-1
aF-1.0
aF-1.0
aF-1.0
aI-1
aI-1
aI-1
aF-1.0
aF-1.0
aF-1.0
asg11
g12
sba(i__main__
sensor_data_struct
p318
(dp319
g3
(lp320
I-1
aI-1
aI-1
aI-1
aI-1
aF-1.0
aI-1
aI-1
aI-1
aI-1
aI-1
aF-1.0
asg5
g6
sg7
(lp321
I60
aI88
aI72
aI-1
aI-1
aI-1
asg9
(lp322
I-1
aI-1
aI-1
aF-1.0
aF-1.0
aF-1.0
aI-1
aI-1
aI-1
aF-1.0
aF-1.0
aF-1.0
asg11
g12
sba(i__main__
sensor_data_struct
p323
(dp324
g3
(lp325
I-1
aI-1
aI-1
aI-1
aI-1
aF-1.0
aI-1
aI-1
aI-1
aI-1
aI-1
aF-1.0
asg5
g6
sg7
(lp326
I71
aI179
aI27
aI-1
aI-1
aI-1
asg9
(lp327
I-1
aI-1
aI-1
aF-1.0
aF-1.0
aF-1.0
aI-1
aI-1
aI-1
aF-1.0
aF-1.0
aF-1.0
asg11
g12
sba(i__main__
sensor_data_struct
p328
(dp329
g3
(lp330
I-1
aI-1
aI-1
aI-1
aI-1
aF-1.0
aI-1
aI-1
aI-1
aI-1
aI-1
aF-1.0
asg5
g6
sg7
(lp331
I42
aI26
aI30
aI-1
aI-1
aI-1
asg9
(lp332
I-1
aI-1
aI-1
aF-1.0
aF-1.0
aF-1.0
aI-1
aI-1
aI-1
aF-1.0
aF-1.0
aF-1.0
asg11
g12
sba(i__main__
sensor_data_struct
p333
(dp334
g3
(lp335
I-1
aI-1
aI-1
aI-1
aI-1
aF-1.0
aI-1
aI-1
aI-1
aI-1
aI-1
aF-1.0
asg5
g6
sg7
(lp336
I43
aI19
aI26
aI-1
aI-1
aI-1
asg9
(lp337
I-1
aI-1
aI-1
aF-1.0
aF-1.0
aF-1.0
aI-1
aI-1
aI-1
aF-1.0
aF-1.0
aF-1.0
asg11
g12
sba(i__main__
sensor_data_struct
p338
(dp339
g3
(lp340
I-1
aI-1
aI-1
aI-1
aI-1
aF-1.0
aI-1
aI-1
aI-1
aI-1
aI-1
aF-1.0
asg5
g6
sg7
(lp341
I54
aI54
aI17
aI-1
aI-1
aI-1
asg9
(lp342
I-1
aI-1
aI-1
aF-1.0
aF-1.0
aF-1.0
aI-1
aI-1
aI-1
aF-1.0
aF-1.0
aF-1.0
asg11
g12
sba(i__main__
sensor_data_struct
p343
(dp344
g3
(lp345
I-1
aI-1
aI-1
aI-1
aI-1
aF-1.0
aI-1
aI-1
aI-1
aI-1
aI-1
aF-1.0
asg5
g6
sg7
(lp346
I19
aI44
aI37
aI-1
aI-1
aI-1
asg9
(lp347
I-1
aI-1
aI-1
aF-1.0
aF-1.0
aF-1.0
aI-1
aI-1
aI-1
aF-1.0
aF-1.0
aF-1.0
asg11
g12
sba(i__main__
sensor_data_struct
p348
(dp349
g3
(lp350
I-1
aI-1
aI-1
aI-1
aI-1
aF-1.0
aI-1
aI-1
aI-1
aI-1
aI-1
aF-1.0
asg5
g6
sg7
(lp351
I16
aI23
aI42
aI-1
aI-1
aI-1
asg9
(lp352
I-1
aI-1
aI-1
aF-1.0
aF-1.0
aF-1.0
aI-1
aI-1
aI-1
aF-1.0
aF-1.0
aF-1.0
asg11
g12
sba(i__main__
sensor_data_struct
p353
(dp354
g3
(lp355
I-1
aI-1
aI-1
aI-1
aI-1
aF-1.0
aI-1
aI-1
aI-1
aI-1
aI-1
aF-1.0
asg5
g6
sg7
(lp356
I27
aI66
aI21
aI-1
aI-1
aI-1
asg9
(lp357
I-1
aI-1
aI-1
aF-1.0
aF-1.0
aF-1.0
aI-1
aI-1
aI-1
aF-1.0
aF-1.0
aF-1.0
asg11
g12
sba(i__main__
sensor_data_struct
p358
(dp359
g3
(lp360
I-1
aI-1
aI-1
aI-1
aI-1
aF-1.0
aI-1
aI-1
aI-1
aI-1
aI-1
aF-1.0
asg5
g6
sg7
(lp361
I12
aI20
aI34
aI-1
aI-1
aI-1
asg9
(lp362
I-1
aI-1
aI-1
aF-1.0
aF-1.0
aF-1.0
aI-1
aI-1
aI-1
aF-1.0
aF-1.0
aF-1.0
asg11
g12
sba(i__main__
sensor_data_struct
p363
(dp364
g3
(lp365
I-1
aI-1
aI-1
aI-1
aI-1
aF-1.0
aI-1
aI-1
aI-1
aI-1
aI-1
aF-1.0
asg5
g6
sg7
(lp366
I85
aI20
aI128
aI-1
aI-1
aI-1
asg9
(lp367
I-1
aI-1
aI-1
aF-1.0
aF-1.0
aF-1.0
aI-1
aI-1
aI-1
aF-1.0
aF-1.0
aF-1.0
asg11
g12
sba(i__main__
sensor_data_struct
p368
(dp369
g3
(lp370
I-1
aI-1
aI-1
aI-1
aI-1
aF-1.0
aI-1
aI-1
aI-1
aI-1
aI-1
aF-1.0
asg5
g6
sg7
(lp371
I47
aI85
aI120
aI-1
aI-1
aI-1
asg9
(lp372
I-1
aI-1
aI-1
aF-1.0
aF-1.0
aF-1.0
aI-1
aI-1
aI-1
aF-1.0
aF-1.0
aF-1.0
asg11
g12
sba(i__main__
sensor_data_struct
p373
(dp374
g3
(lp375
I-1
aI-1
aI-1
aI-1
aI-1
aF-1.0
aI-1
aI-1
aI-1
aI-1
aI-1
aF-1.0
asg5
g6
sg7
(lp376
I24
aI37
aI69
aI-1
aI-1
aI-1
asg9
(lp377
I-1
aI-1
aI-1
aF-1.0
aF-1.0
aF-1.0
aI-1
aI-1
aI-1
aF-1.0
aF-1.0
aF-1.0
asg11
g12
sba(i__main__
sensor_data_struct
p378
(dp379
g3
(lp380
I-1
aI-1
aI-1
aI-1
aI-1
aF-1.0
aI-1
aI-1
aI-1
aI-1
aI-1
aF-1.0
asg5
g6
sg7
(lp381
I44
aI94
aI8
aI-1
aI-1
aI-1
asg9
(lp382
I-1
aI-1
aI-1
aF-1.0
aF-1.0
aF-1.0
aI-1
aI-1
aI-1
aF-1.0
aF-1.0
aF-1.0
asg11
g12
sba(i__main__
sensor_data_struct
p383
(dp384
g3
(lp385
I-1
aI-1
aI-1
aI-1
aI-1
aF-1.0
aI-1
aI-1
aI-1
aI-1
aI-1
aF-1.0
asg5
g6
sg7
(lp386
I58
aI36
aI58
aI-1
aI-1
aI-1
asg9
(lp387
I-1
aI-1
aI-1
aF-1.0
aF-1.0
aF-1.0
aI-1
aI-1
aI-1
aF-1.0
aF-1.0
aF-1.0
asg11
g12
sba(i__main__
sensor_data_struct
p388
(dp389
g3
(lp390
I-1
aI-1
aI-1
aI-1
aI-1
aF-1.0
aI-1
aI-1
aI-1
aI-1
aI-1
aF-1.0
asg5
g6
sg7
(lp391
I44
aI188
aI52
aI-1
aI-1
aI-1
asg9
(lp392
I-1
aI-1
aI-1
aF-1.0
aF-1.0
aF-1.0
aI-1
aI-1
aI-1
aF-1.0
aF-1.0
aF-1.0
asg11
g12
sba(i__main__
sensor_data_struct
p393
(dp394
g3
(lp395
I-1
aI-1
aI-1
aI-1
aI-1
aF-1.0
aI-1
aI-1
aI-1
aI-1
aI-1
aF-1.0
asg5
g6
sg7
(lp396
I38
aI114
aI75
aI-1
aI-1
aI-1
asg9
(lp397
I-1
aI-1
aI-1
aF-1.0
aF-1.0
aF-1.0
aI-1
aI-1
aI-1
aF-1.0
aF-1.0
aF-1.0
asg11
g12
sba(i__main__
sensor_data_struct
p398
(dp399
g3
(lp400
I-1
aI-1
aI-1
aI-1
aI-1
aF-1.0
aI-1
aI-1
aI-1
aI-1
aI-1
aF-1.0
asg5
g6
sg7
(lp401
I74
aI91
aI130
aI-1
aI-1
aI-1
asg9
(lp402
I-1
aI-1
aI-1
aF-1.0
aF-1.0
aF-1.0
aI-1
aI-1
aI-1
aF-1.0
aF-1.0
aF-1.0
asg11
g12
sba(i__main__
sensor_data_struct
p403
(dp404
g3
(lp405
I-1
aI-1
aI-1
aI-1
aI-1
aF-1.0
aI-1
aI-1
aI-1
aI-1
aI-1
aF-1.0
asg5
g6
sg7
(lp406
I39
aI84
aI13
aI-1
aI-1
aI-1
asg9
(lp407
I-1
aI-1
aI-1
aF-1.0
aF-1.0
aF-1.0
aI-1
aI-1
aI-1
aF-1.0
aF-1.0
aF-1.0
asg11
g12
sba(i__main__
sensor_data_struct
p408
(dp409
g3
(lp410
I-1
aI-1
aI-1
aI-1
aI-1
aF-1.0
aI-1
aI-1
aI-1
aI-1
aI-1
aF-1.0
asg5
g6
sg7
(lp411
I96
aI37
aI180
aI-1
aI-1
aI-1
asg9
(lp412
I-1
aI-1
aI-1
aF-1.0
aF-1.0
aF-1.0
aI-1
aI-1
aI-1
aF-1.0
aF-1.0
aF-1.0
asg11
g12
sba(i__main__
sensor_data_struct
p413
(dp414
g3
(lp415
I-1
aI-1
aI-1
aI-1
aI-1
aF-1.0
aI-1
aI-1
aI-1
aI-1
aI-1
aF-1.0
asg5
g6
sg7
(lp416
I72
aI120
aI125
aI-1
aI-1
aI-1
asg9
(lp417
I-1
aI-1
aI-1
aF-1.0
aF-1.0
aF-1.0
aI-1
aI-1
aI-1
aF-1.0
aF-1.0
aF-1.0
asg11
g12
sba(i__main__
sensor_data_struct
p418
(dp419
g3
(lp420
I-1
aI-1
aI-1
aI-1
aI-1
aF-1.0
aI-1
aI-1
aI-1
aI-1
aI-1
aF-1.0
asg5
g6
sg7
(lp421
I86
aI79
aI142
aI-1
aI-1
aI-1
asg9
(lp422
I-1
aI-1
aI-1
aF-1.0
aF-1.0
aF-1.0
aI-1
aI-1
aI-1
aF-1.0
aF-1.0
aF-1.0
asg11
g12
sba(i__main__
sensor_data_struct
p423
(dp424
g3
(lp425
I-1
aI-1
aI-1
aI-1
aI-1
aF-1.0
aI-1
aI-1
aI-1
aI-1
aI-1
aF-1.0
asg5
g6
sg7
(lp426
I75
aI178
aI124
aI-1
aI-1
aI-1
asg9
(lp427
I-1
aI-1
aI-1
aF-1.0
aF-1.0
aF-1.0
aI-1
aI-1
aI-1
aF-1.0
aF-1.0
aF-1.0
asg11
g12
sba(i__main__
sensor_data_struct
p428
(dp429
g3
(lp430
I-1
aI-1
aI-1
aI-1
aI-1
aF-1.0
aI-1
aI-1
aI-1
aI-1
aI-1
aF-1.0
asg5
g6
sg7
(lp431
I33
aI50
aI54
aI-1
aI-1
aI-1
asg9
(lp432
I-1
aI-1
aI-1
aF-1.0
aF-1.0
aF-1.0
aI-1
aI-1
aI-1
aF-1.0
aF-1.0
aF-1.0
asg11
g12
sba(i__main__
sensor_data_struct
p433
(dp434
g3
(lp435
I-1
aI-1
aI-1
aI-1
aI-1
aF-1.0
aI-1
aI-1
aI-1
aI-1
aI-1
aF-1.0
asg5
g6
sg7
(lp436
I38
aI94
aI6
aI-1
aI-1
aI-1
asg9
(lp437
I-1
aI-1
aI-1
aF-1.0
aF-1.0
aF-1.0
aI-1
aI-1
aI-1
aF-1.0
aF-1.0
aF-1.0
asg11
g12
sba(i__main__
sensor_data_struct
p438
(dp439
g3
(lp440
I-1
aI-1
aI-1
aI-1
aI-1
aF-1.0
aI-1
aI-1
aI-1
aI-1
aI-1
aF-1.0
asg5
g6
sg7
(lp441
I44
aI44
aI82
aI-1
aI-1
aI-1
asg9
(lp442
I-1
aI-1
aI-1
aF-1.0
aF-1.0
aF-1.0
aI-1
aI-1
aI-1
aF-1.0
aF-1.0
aF-1.0
asg11
g12
sba(i__main__
sensor_data_struct
p443
(dp444
g3
(lp445
I-1
aI-1
aI-1
aI-1
aI-1
aF-1.0
aI-1
aI-1
aI-1
aI-1
aI-1
aF-1.0
asg5
g6
sg7
(lp446
I18
aI133
aI5
aI-1
aI-1
aI-1
asg9
(lp447
I-1
aI-1
aI-1
aF-1.0
aF-1.0
aF-1.0
aI-1
aI-1
aI-1
aF-1.0
aF-1.0
aF-1.0
asg11
g12
sba(i__main__
sensor_data_struct
p448
(dp449
g3
(lp450
I-1
aI-1
aI-1
aI-1
aI-1
aF-1.0
aI-1
aI-1
aI-1
aI-1
aI-1
aF-1.0
asg5
g6
sg7
(lp451
I24
aI81
aI83
aI-1
aI-1
aI-1
asg9
(lp452
I-1
aI-1
aI-1
aF-1.0
aF-1.0
aF-1.0
aI-1
aI-1
aI-1
aF-1.0
aF-1.0
aF-1.0
asg11
g12
sba(i__main__
sensor_data_struct
p453
(dp454
g3
(lp455
I-1
aI-1
aI-1
aI-1
aI-1
aF-1.0
aI-1
aI-1
aI-1
aI-1
aI-1
aF-1.0
asg5
g6
sg7
(lp456
I33
aI100
aI22
aI-1
aI-1
aI-1
asg9
(lp457
I-1
aI-1
aI-1
aF-1.0
aF-1.0
aF-1.0
aI-1
aI-1
aI-1
aF-1.0
aF-1.0
aF-1.0
asg11
g12
sba(i__main__
sensor_data_struct
p458
(dp459
g3
(lp460
I-1
aI-1
aI-1
aI-1
aI-1
aF-1.0
aI-1
aI-1
aI-1
aI-1
aI-1
aF-1.0
asg5
g6
sg7
(lp461
I30
aI100
aI12
aI-1
aI-1
aI-1
asg9
(lp462
I-1
aI-1
aI-1
aF-1.0
aF-1.0
aF-1.0
aI-1
aI-1
aI-1
aF-1.0
aF-1.0
aF-1.0
asg11
g12
sba(i__main__
sensor_data_struct
p463
(dp464
g3
(lp465
I-1
aI-1
aI-1
aI-1
aI-1
aF-1.0
aI-1
aI-1
aI-1
aI-1
aI-1
aF-1.0
asg5
g6
sg7
(lp466
I55
aI20
aI7
aI-1
aI-1
aI-1
asg9
(lp467
I-1
aI-1
aI-1
aF-1.0
aF-1.0
aF-1.0
aI-1
aI-1
aI-1
aF-1.0
aF-1.0
aF-1.0
asg11
g12
sba(i__main__
sensor_data_struct
p468
(dp469
g3
(lp470
I-1
aI-1
aI-1
aI-1
aI-1
aF-1.0
aI-1
aI-1
aI-1
aI-1
aI-1
aF-1.0
asg5
g6
sg7
(lp471
I25
aI77
aI25
aI-1
aI-1
aI-1
asg9
(lp472
I-1
aI-1
aI-1
aF-1.0
aF-1.0
aF-1.0
aI-1
aI-1
aI-1
aF-1.0
aF-1.0
aF-1.0
asg11
g12
sba(i__main__
sensor_data_struct
p473
(dp474
g3
(lp475
I-1
aI-1
aI-1
aI-1
aI-1
aF-1.0
aI-1
aI-1
aI-1
aI-1
aI-1
aF-1.0
asg5
g6
sg7
(lp476
I12
aI56
aI15
aI-1
aI-1
aI-1
asg9
(lp477
I-1
aI-1
aI-1
aF-1.0
aF-1.0
aF-1.0
aI-1
aI-1
aI-1
aF-1.0
aF-1.0
aF-1.0
asg11
g12
sba(i__main__
sensor_data_struct
p478
(dp479
g3
(lp480
I-1
aI-1
aI-1
aI-1
aI-1
aF-1.0
aI-1
aI-1
aI-1
aI-1
aI-1
aF-1.0
asg5
g6
sg7
(lp481
I8
aI27
aI4
aI-1
aI-1
aI-1
asg9
(lp482
I-1
aI-1
aI-1
aF-1.0
aF-1.0
aF-1.0
aI-1
aI-1
aI-1
aF-1.0
aF-1.0
aF-1.0
asg11
g12
sba(i__main__
sensor_data_struct
p483
(dp484
g3
(lp485
I-1
aI-1
aI-1
aI-1
aI-1
aF-1.0
aI-1
aI-1
aI-1
aI-1
aI-1
aF-1.0
asg5
g6
sg7
(lp486
I23
aI36
aI91
aI-1
aI-1
aI-1
asg9
(lp487
I-1
aI-1
aI-1
aF-1.0
aF-1.0
aF-1.0
aI-1
aI-1
aI-1
aF-1.0
aF-1.0
aF-1.0
asg11
g12
sba(i__main__
sensor_data_struct
p488
(dp489
g3
(lp490
I-1
aI-1
aI-1
aI-1
aI-1
aF-1.0
aI-1
aI-1
aI-1
aI-1
aI-1
aF-1.0
asg5
g6
sg7
(lp491
I24
aI9
aI6
aI-1
aI-1
aI-1
asg9
(lp492
I-1
aI-1
aI-1
aF-1.0
aF-1.0
aF-1.0
aI-1
aI-1
aI-1
aF-1.0
aF-1.0
aF-1.0
asg11
g12
sba(i__main__
sensor_data_struct
p493
(dp494
g3
(lp495
I-1
aI-1
aI-1
aI-1
aI-1
aF-1.0
aI-1
aI-1
aI-1
aI-1
aI-1
aF-1.0
asg5
g6
sg7
(lp496
I10
aI7
aI39
aI-1
aI-1
aI-1
asg9
(lp497
I-1
aI-1
aI-1
aF-1.0
aF-1.0
aF-1.0
aI-1
aI-1
aI-1
aF-1.0
aF-1.0
aF-1.0
asg11
g12
sba(i__main__
sensor_data_struct
p498
(dp499
g3
(lp500
I-1
aI-1
aI-1
aI-1
aI-1
aF-1.0
aI-1
aI-1
aI-1
aI-1
aI-1
aF-1.0
asg5
g6
sg7
(lp501
I31
aI33
aI15
aI-1
aI-1
aI-1
asg9
(lp502
I-1
aI-1
aI-1
aF-1.0
aF-1.0
aF-1.0
aI-1
aI-1
aI-1
aF-1.0
aF-1.0
aF-1.0
asg11
g12
sba(i__main__
sensor_data_struct
p503
(dp504
g3
(lp505
I-1
aI-1
aI-1
aI-1
aI-1
aF-1.0
aI-1
aI-1
aI-1
aI-1
aI-1
aF-1.0
asg5
g6
sg7
(lp506
I28
aI12
aI5
aI-1
aI-1
aI-1
asg9
(lp507
I-1
aI-1
aI-1
aF-1.0
aF-1.0
aF-1.0
aI-1
aI-1
aI-1
aF-1.0
aF-1.0
aF-1.0
asg11
g12
sba.