(lp0
(i__main__
sensor_data_struct
p1
(dp2
S'color'
p3
(lp4
I619
aI345
aI220
aI1104
aI2575
aF182.0
aI813
aI407
aI289
aI1327
aI2435
aF166.0
asS'button'
p5
I0
sS'IR'
p6
(lp7
I164
aI-1
aI-1
aI118
aI-1
aI-1
asS'TOF'
p8
(lp9
I28
aI-1
aI-1
aF-1.0
aF-1.0
aF-1.0
aI22
aI-1
aI-1
aF-1.0
aF-1.0
aF-1.0
asS'pt'
p10
(lp11
F0.0
aF-0.006
aF0.002
asba(i__main__
sensor_data_struct
p12
(dp13
g3
(lp14
I634
aI350
aI225
aI1122
aI2564
aF181.0
aI1265
aI452
aI355
aI1888
aI2245
aF42.0
asg5
I0
sg6
(lp15
I50
aI-1
aI-1
aI110
aI-1
aI-1
asg8
(lp16
I20
aI-1
aI-1
aF-1.0
aF-1.0
aF-1.0
aI23
aI-1
aI-1
aF-1.0
aF-1.0
aF-1.0
asg10
(lp17
F0.0
aF0.002
aF0.0
asba(i__main__
sensor_data_struct
p18
(dp19
g3
(lp20
I613
aI345
aI219
aI1095
aI2576
aF185.0
aI824
aI419
aI280
aI1376
aI2441
aF188.0
asg5
I1
sg6
(lp21
I25
aI-1
aI-1
aI62
aI-1
aI-1
asg8
(lp22
I46
aI-1
aI-1
aF-1.0
aF-1.0
aF-1.0
aI24
aI-1
aI-1
aF-1.0
aF-1.0
aF-1.0
asg10
(lp23
F-0.004
aF-0.005
aF0.015
asba(i__main__
sensor_data_struct
p24
(dp25
g3
(lp26
I579
aI333
aI208
aI1055
aI2616
aF185.0
aI1022
aI423
aI302
aI1620
aI2340
aF114.0
asg5
I1
sg6
(lp27
I8
aI-1
aI-1
aI33
aI-1
aI-1
asg8
(lp28
I34
aI-1
aI-1
aF-1.0
aF-1.0
aF-1.0
aI33
aI-1
aI-1
aF-1.0
aF-1.0
aF-1.0
asg10
(lp29
F0.011000000000000001
aF0.005
aF0.012
asba(i__main__
sensor_data_struct
p30
(dp31
g3
(lp32
I592
aI339
aI213
aI1069
aI2599
aF186.0
aI721
aI378
aI255
aI1227
aI2502
aF175.0
asg5
I1
sg6
(lp33
I19
aI-1
aI-1
aI35
aI-1
aI-1
asg8
(lp34
I36
aI-1
aI-1
aF-1.0
aF-1.0
aF-1.0
aI31
aI-1
aI-1
aF-1.0
aF-1.0
aF-1.0
asg10
(lp35
F-0.009000000000000001
aF0.001
aF0.013000000000000001
asba(i__main__
sensor_data_struct
p36
(dp37
g3
(lp38
I595
aI342
aI215
aI1076
aI2601
aF189.0
aI1268
aI507
aI366
aI1966
aI2291
aF120.0
asg5
I1
sg6
(lp39
I11
aI-1
aI-1
aI36
aI-1
aI-1
asg8
(lp40
I49
aI-1
aI-1
aF-1.0
aF-1.0
aF-1.0
aI34
aI-1
aI-1
aF-1.0
aF-1.0
aF-1.0
asg10
(lp41
F0.006
aF0.009000000000000001
aF0.013999999999999999
asba(i__main__
sensor_data_struct
p42
(dp43
g3
(lp44
I649
aI360
aI228
aI1153
aI2558
aF190.0
aI1082
aI435
aI331
aI1661
aI2307
aF93.0
asg5
I0
sg6
(lp45
I70
aI-1
aI-1
aI115
aI-1
aI-1
asg8
(lp46
I21
aI-1
aI-1
aF-1.0
aF-1.0
aF-1.0
aI25
aI-1
aI-1
aF-1.0
aF-1.0
aF-1.0
asg10
(lp47
F0.0
aF0.002
aF0.006
asba(i__main__
sensor_data_struct
p48
(dp49
g3
(lp50
I611
aI344
aI219
aI1093
aI2585
aF184.0
aI951
aI460
aI314
aI1546
aI2385
aF187.0
asg5
I1
sg6
(lp51
I22
aI-1
aI-1
aI72
aI-1
aI-1
asg8
(lp52
I39
aI-1
aI-1
aF-1.0
aF-1.0
aF-1.0
aI25
aI-1
aI-1
aF-1.0
aF-1.0
aF-1.0
asg10
(lp53
F-0.005
aF-0.005
aF0.012
asba(i__main__
sensor_data_struct
p54
(dp55
g3
(lp56
I604
aI343
aI215
aI1088
aI2587
aF187.0
aI779
aI383
aI262
aI1298
aI2449
aF159.0
asg5
I1
sg6
(lp57
I39
aI-1
aI-1
aI68
aI-1
aI-1
asg8
(lp58
I28
aI-1
aI-1
aF-1.0
aF-1.0
aF-1.0
aI23
aI-1
aI-1
aF-1.0
aF-1.0
aF-1.0
asg10
(lp59
F0.006
aF-0.001
aF0.013000000000000001
asba(i__main__
sensor_data_struct
p60
(dp61
g3
(lp62
I686
aI365
aI240
aI1185
aI2516
aF177.0
aI1163
aI501
aI359
aI1807
aI2297
aF150.0
asg5
I0
sg6
(lp63
I30
aI-1
aI-1
aI95
aI-1
aI-1
asg8
(lp64
I20
aI-1
aI-1
aF-1.0
aF-1.0
aF-1.0
aI22
aI-1
aI-1
aF-1.0
aF-1.0
aF-1.0
asg10
(lp65
F-0.006
aF0.006999999999999999
aF0.009000000000000001
asba(i__main__
sensor_data_struct
p66
(dp67
g3
(lp68
I631
aI352
aI226
aI1118
aI2567
aF185.0
aI822
aI433
aI279
aI1394
aI2449
aF212.0
asg5
I1
sg6
(lp69
I15
aI-1
aI-1
aI35
aI-1
aI-1
asg8
(lp70
I51
aI-1
aI-1
aF-1.0
aF-1.0
aF-1.0
aI34
aI-1
aI-1
aF-1.0
aF-1.0
aF-1.0
asg10
(lp71
F-0.01
aF0.003
aF0.015
asba(i__main__
sensor_data_struct
p72
(dp73
g3
(lp74
I601
aI344
aI216
aI1083
aI2590
aF189.0
aI1764
aI532
aI454
aI2511
aI2166
aF65471.0
asg5
I0
sg6
(lp75
I35
aI-1
aI-1
aI113
aI-1
aI-1
asg8
(lp76
I29
aI-1
aI-1
aF-1.0
aF-1.0
aF-1.0
aI24
aI-1
aI-1
aF-1.0
aF-1.0
aF-1.0
asg10
(lp77
F0.003
aF0.006
aF0.006
asba(i__main__
sensor_data_struct
p78
(dp79
g3
(lp80
I760
aI378
aI254
aI1283
aI2470
aF163.0
aI726
aI374
aI253
aI1229
aI2486
aF169.0
asg5
I1
sg6
(lp81
I40
aI-1
aI-1
aI61
aI-1
aI-1
asg8
(lp82
I31
aI-1
aI-1
aF-1.0
aF-1.0
aF-1.0
aI26
aI-1
aI-1
aF-1.0
aF-1.0
aF-1.0
asg10
(lp83
F0.0
aF-0.002
aF0.015
asba(i__main__
sensor_data_struct
p84
(dp85
g3
(lp86
I609
aI344
aI216
aI1095
aI2583
aF187.0
aI793
aI406
aI276
aI1323
aI2453
aF181.0
asg5
I0
sg6
(lp87
I32
aI-1
aI-1
aI89
aI-1
aI-1
asg8
(lp88
I47
aI-1
aI-1
aF-1.0
aF-1.0
aF-1.0
aI23
aI-1
aI-1
aF-1.0
aF-1.0
aF-1.0
asg10
(lp89
F-0.003
aF-0.01
aF0.01
asba(i__main__
sensor_data_struct
p90
(dp91
g3
(lp92
I603
aI342
aI215
aI1084
aI2584
aF186.0
aI1076
aI438
aI324
aI1665
aI2306
aF104.0
asg5
I0
sg6
(lp93
I32
aI-1
aI-1
aI102
aI-1
aI-1
asg8
(lp94
I21
aI-1
aI-1
aF-1.0
aF-1.0
aF-1.0
aI25
aI-1
aI-1
aF-1.0
aF-1.0
aF-1.0
asg10
(lp95
F-0.004
aF0.004
aF0.008
asba(i__main__
sensor_data_struct
p96
(dp97
g3
(lp98
I676
aI364
aI236
aI1177
aI2527
aF182.0
aI980
aI430
aI308
aI1559
aI2359
aF135.0
asg5
I1
sg6
(lp99
I21
aI-1
aI-1
aI65
aI-1
aI-1
asg8
(lp100
I49
aI-1
aI-1
aF-1.0
aF-1.0
aF-1.0
aI24
aI-1
aI-1
aF-1.0
aF-1.0
aF-1.0
asg10
(lp101
F-0.003
aF0.01
aF0.013999999999999999
asba(i__main__
sensor_data_struct
p102
(dp103
g3
(lp104
I647
aI357
aI231
aI1139
aI2554
aF184.0
aI1172
aI472
aI349
aI1797
aI2281
aF109.0
asg5
I0
sg6
(lp105
I36
aI-1
aI-1
aI107
aI-1
aI-1
asg8
(lp106
I19
aI-1
aI-1
aF-1.0
aF-1.0
aF-1.0
aI23
aI-1
aI-1
aF-1.0
aF-1.0
aF-1.0
asg10
(lp107
F-0.004
aF0.006
aF0.006999999999999999
asba(i__main__
sensor_data_struct
p108
(dp109
g3
(lp110
I587
aI336
aI209
aI1065
aI2601
aF186.0
aI838
aI423
aI284
aI1394
aI2434
aF187.0
asg5
I1
sg6
(lp111
I13
aI-1
aI-1
aI75
aI-1
aI-1
asg8
(lp112
I50
aI-1
aI-1
aF-1.0
aF-1.0
aF-1.0
aI24
aI-1
aI-1
aF-1.0
aF-1.0
aF-1.0
asg10
(lp113
F0.0
aF-0.01
aF0.012
asba(i__main__
sensor_data_struct
p114
(dp115
g3
(lp116
I666
aI367
aI230
aI1180
aI2543
aF194.0
aI722
aI382
aI262
aI1220
aI2500
aF176.0
asg5
I0
sg6
(lp117
I49
aI-1
aI-1
aI96
aI-1
aI-1
asg8
(lp118
I29
aI-1
aI-1
aF-1.0
aF-1.0
aF-1.0
aI22
aI-1
aI-1
aF-1.0
aF-1.0
aF-1.0
asg10
(lp119
F-0.004
aF-0.008
aF0.009000000000000001
asba(i__main__
sensor_data_struct
p120
(dp121
g3
(lp122
I610
aI344
aI217
aI1093
aI2578
aF186.0
aI1036
aI435
aI325
aI1609
aI2328
aF112.0
asg5
I0
sg6
(lp123
I62
aI-1
aI-1
aI105
aI-1
aI-1
asg8
(lp124
I19
aI-1
aI-1
aF-1.0
aF-1.0
aF-1.0
aI24
aI-1
aI-1
aF-1.0
aF-1.0
aF-1.0
asg10
(lp125
F0.0
aF0.001
aF0.008
asba(i__main__
sensor_data_struct
p126
(dp127
g3
(lp128
I612
aI344
aI217
aI1096
aI2579
aF185.0
aI714
aI381
aI250
aI1227
aI2502
aF186.0
asg5
I1
sg6
(lp129
I10
aI-1
aI-1
aI65
aI-1
aI-1
asg8
(lp130
I53
aI-1
aI-1
aF-1.0
aF-1.0
aF-1.0
aI26
aI-1
aI-1
aF-1.0
aF-1.0
aF-1.0
asg10
(lp131
F-0.004
aF-0.012
aF0.013999999999999999
asba(i__main__
sensor_data_struct
p132
(dp133
g3
(lp134
I606
aI345
aI218
aI1087
aI2584
aF188.0
aI1171
aI469
aI345
aI1809
aI2295
aF107.0
asg5
I1
sg6
(lp135
I22
aI-1
aI-1
aI36
aI-1
aI-1
asg8
(lp136
I44
aI-1
aI-1
aF-1.0
aF-1.0
aF-1.0
aI32
aI-1
aI-1
aF-1.0
aF-1.0
aF-1.0
asg10
(lp137
F0.0
aF0.008
aF0.013000000000000001
asba(i__main__
sensor_data_struct
p138
(dp139
g3
(lp140
I626
aI352
aI224
aI1116
aI2573
aF188.0
aI753
aI390
aI262
aI1272
aI2477
aF179.0
asg5
I1
sg6
(lp141
I19
aI-1
aI-1
aI67
aI-1
aI-1
asg8
(lp142
I33
aI-1
aI-1
aF-1.0
aF-1.0
aF-1.0
aI22
aI-1
aI-1
aF-1.0
aF-1.0
aF-1.0
asg10
(lp143
F-0.008
aF-0.002
aF0.013000000000000001
asba(i__main__
sensor_data_struct
p144
(dp145
g3
(lp146
I594
aI341
aI214
aI1074
aI2601
aF188.0
aI1461
aI496
aI390
aI2182
aI2241
aF23.0
asg5
I1
sg6
(lp147
I14
aI-1
aI-1
aI36
aI-1
aI-1
asg8
(lp148
I46
aI-1
aI-1
aF-1.0
aF-1.0
aF-1.0
aI33
aI-1
aI-1
aF-1.0
aF-1.0
aF-1.0
asg10
(lp149
F0.005
aF0.009000000000000001
aF0.012
asba(i__main__
sensor_data_struct
p150
(dp151
g3
(lp152
I623
aI352
aI222
aI1116
aI2580
aF190.0
aI919
aI409
aI297
aI1455
aI2359
aF129.0
asg5
I0
sg6
(lp153
I63
aI-1
aI-1
aI109
aI-1
aI-1
asg8
(lp154
I17
aI-1
aI-1
aF-1.0
aF-1.0
aF-1.0
aI22
aI-1
aI-1
aF-1.0
aF-1.0
aF-1.0
asg10
(lp155
F-0.003
aF0.0
aF0.005
asba(i__main__
sensor_data_struct
p156
(dp157
g3
(lp158
I620
aI348
aI222
aI1106
aI2577
aF185.0
aI885
aI422
aI293
aI1442
aI2402
aF164.0
asg5
I0
sg6
(lp159
I25
aI-1
aI-1
aI80
aI-1
aI-1
asg8
(lp160
I22
aI-1
aI-1
aF-1.0
aF-1.0
aF-1.0
aI21
aI-1
aI-1
aF-1.0
aF-1.0
aF-1.0
asg10
(lp161
F-0.006999999999999999
aF0.004
aF0.011000000000000001
asba(i__main__
sensor_data_struct
p162
(dp163
g3
(lp164
I633
aI354
aI225
aI1127
aI2570
aF188.0
aI782
aI416
aI267
aI1339
aI2472
aF207.0
asg5
I1
sg6
(lp165
I11
aI-1
aI-1
aI34
aI-1
aI-1
asg8
(lp166
I49
aI-1
aI-1
aF-1.0
aF-1.0
aF-1.0
aI33
aI-1
aI-1
aF-1.0
aF-1.0
aF-1.0
asg10
(lp167
F-0.01
aF-0.003
aF0.015
asba(i__main__
sensor_data_struct
p168
(dp169
g3
(lp170
I600
aI340
aI212
aI1085
aI2593
aF186.0
aI896
aI439
aI303
aI1462
aI2404
aF180.0
asg5
I0
sg6
(lp171
I59
aI-1
aI-1
aI97
aI-1
aI-1
asg8
(lp172
I43
aI-1
aI-1
aF-1.0
aF-1.0
aF-1.0
aI23
aI-1
aI-1
aF-1.0
aF-1.0
aF-1.0
asg10
(lp173
F0.0
aF-0.009000000000000001
aF0.009000000000000001
asba(i__main__
sensor_data_struct
p174
(dp175
g3
(lp176
I619
aI351
aI224
aI1105
aI2583
aF189.0
aI1261
aI528
aI373
aI1978
aI2306
aF150.0
asg5
I1
sg6
(lp177
I15
aI-1
aI-1
aI35
aI-1
aI-1
asg8
(lp178
I52
aI-1
aI-1
aF-1.0
aF-1.0
aF-1.0
aI33
aI-1
aI-1
aF-1.0
aF-1.0
aF-1.0
asg10
(lp179
F-0.001
aF0.012
aF0.013999999999999999
asba(i__main__
sensor_data_struct
p180
(dp181
g3
(lp182
I640
aI354
aI227
aI1132
aI2560
aF184.0
aI1019
aI452
aI323
aI1608
aI2337
aF146.0
asg5
I0
sg6
(lp183
I48
aI-1
aI-1
aI109
aI-1
aI-1
asg8
(lp184
I16
aI-1
aI-1
aF-1.0
aF-1.0
aF-1.0
aI22
aI-1
aI-1
aF-1.0
aF-1.0
aF-1.0
asg10
(lp185
F-0.005
aF-0.001
aF0.004
asba(i__main__
sensor_data_struct
p186
(dp187
g3
(lp188
I724
aI375
aI253
aI1230
aI2494
aF171.0
aI1166
aI476
aI346
aI1799
aI2286
aF119.0
asg5
I0
sg6
(lp189
I48
aI-1
aI-1
aI105
aI-1
aI-1
asg8
(lp190
I17
aI-1
aI-1
aF-1.0
aF-1.0
aF-1.0
aI23
aI-1
aI-1
aF-1.0
aF-1.0
aF-1.0
asg10
(lp191
F-0.003
aF0.0
aF0.0
asba(i__main__
sensor_data_struct
p192
(dp193
g3
(lp194
I667
aI360
aI235
aI1166
aI2542
aF179.0
aI786
aI388
aI265
aI1312
aI2455
aF163.0
asg5
I1
sg6
(lp195
I22
aI-1
aI-1
aI59
aI-1
aI-1
asg8
(lp196
I44
aI-1
aI-1
aF-1.0
aF-1.0
aF-1.0
aI26
aI-1
aI-1
aF-1.0
aF-1.0
aF-1.0
asg10
(lp197
F-0.006
aF0.006999999999999999
aF0.015
asba(i__main__
sensor_data_struct
p198
(dp199
g3
(lp200
I585
aI338
aI211
aI1066
aI2614
aF189.0
aI772
aI380
aI255
aI1303
aI2465
aF162.0
asg5
I1
sg6
(lp201
I8
aI-1
aI-1
aI61
aI-1
aI-1
asg8
(lp202
I31
aI-1
aI-1
aF-1.0
aF-1.0
aF-1.0
aI25
aI-1
aI-1
aF-1.0
aF-1.0
aF-1.0
asg10
(lp203
F0.011000000000000001
aF0.002
aF0.013999999999999999
asba(i__main__
sensor_data_struct
p204
(dp205
g3
(lp206
I612
aI343
aI217
aI1098
aI2583
aF183.0
aI945
aI450
aI320
aI1512
aI2379
aF169.0
asg5
I0
sg6
(lp207
I158
aI-1
aI-1
aI124
aI-1
aI-1
asg8
(lp208
I32
aI-1
aI-1
aF-1.0
aF-1.0
aF-1.0
aI24
aI-1
aI-1
aF-1.0
aF-1.0
aF-1.0
asg10
(lp209
F0.0
aF-0.006999999999999999
aF0.005
asba(i__main__
sensor_data_struct
p210
(dp211
g3
(lp212
I593
aI339
aI211
aI1074
aI2597
aF188.0
aI721
aI388
aI249
aI1246
aI2496
aF196.0
asg5
I1
sg6
(lp213
I8
aI-1
aI-1
aI34
aI-1
aI-1
asg8
(lp214
I50
aI-1
aI-1
aF-1.0
aF-1.0
aF-1.0
aI34
aI-1
aI-1
aF-1.0
aF-1.0
aF-1.0
asg10
(lp215
F-0.012
aF-0.002
aF0.013999999999999999
asba(i__main__
sensor_data_struct
p216
(dp217
g3
(lp218
I667
aI362
aI234
aI1166
aI2535
aF183.0
aI1120
aI480
aI344
aI1742
aI2299
aF142.0
asg5
I0
sg6
(lp219
I30
aI-1
aI-1
aI102
aI-1
aI-1
asg8
(lp220
I14
aI-1
aI-1
aF-1.0
aF-1.0
aF-1.0
aI22
aI-1
aI-1
aF-1.0
aF-1.0
aF-1.0
asg10
(lp221
F-0.006
aF0.002
aF0.006999999999999999
asba(i__main__
sensor_data_struct
p222
(dp223
g3
(lp224
I796
aI383
aI266
aI1312
aI2434
aF151.0
aI1319
aI509
aI378
aI1990
aI2240
aF98.0
asg5
I0
sg6
(lp225
I102
aI-1
aI-1
aI114
aI-1
aI-1
asg8
(lp226
I23
aI-1
aI-1
aF-1.0
aF-1.0
aF-1.0
aI24
aI-1
aI-1
aF-1.0
aF-1.0
aF-1.0
asg10
(lp227
F0.002
aF0.0
aF0.003
asba(i__main__
sensor_data_struct
p228
(dp229
g3
(lp230
I584
aI332
aI206
aI1060
aI2596
aF183.0
aI912
aI477
aI298
aI1539
aI2409
aF238.0
asg5
I1
sg6
(lp231
I6
aI-1
aI-1
aI36
aI-1
aI-1
asg8
(lp232
I53
aI-1
aI-1
aF-1.0
aF-1.0
aF-1.0
aI32
aI-1
aI-1
aF-1.0
aF-1.0
aF-1.0
asg10
(lp233
F0.0
aF-0.013000000000000001
aF0.015
asba(i__main__
sensor_data_struct
p234
(dp235
g3
(lp236
I615
aI346
aI213
aI1108
aI2569
aF190.0
aI755
aI394
aI260
aI1281
aI2471
aF186.0
asg5
I1
sg6
(lp237
I19
aI-1
aI-1
aI59
aI-1
aI-1
asg8
(lp238
I48
aI-1
aI-1
aF-1.0
aF-1.0
aF-1.0
aI27
aI-1
aI-1
aF-1.0
aF-1.0
aF-1.0
asg10
(lp239
F-0.005
aF-0.006999999999999999
aF0.015
asba(i__main__
sensor_data_struct
p240
(dp241
g3
(lp242
I632
aI353
aI222
aI1125
aI2557
aF189.0
aI911
aI413
aI293
aI1465
aI2381
aF141.0
asg5
I1
sg6
(lp243
I28
aI-1
aI-1
aI66
aI-1
aI-1
asg8
(lp244
I36
aI-1
aI-1
aF-1.0
aF-1.0
aF-1.0
aI23
aI-1
aI-1
aF-1.0
aF-1.0
aF-1.0
asg10
(lp245
F-0.001
aF0.004
aF0.013999999999999999
asba(i__main__
sensor_data_struct
p246
(dp247
g3
(lp248
I951
aI463
aI309
aI1558
aI2386
aF195.0
aI788
aI385
aI267
aI1304
aI2444
aF156.0
asg5
I1
sg6
(lp249
I38
aI-1
aI-1
aI65
aI-1
aI-1
asg8
(lp250
I30
aI-1
aI-1
aF-1.0
aF-1.0
aF-1.0
aI22
aI-1
aI-1
aF-1.0
aF-1.0
aF-1.0
asg10
(lp251
F0.0
aF0.0
aF0.013999999999999999
asba(i__main__
sensor_data_struct
p252
(dp253
g3
(lp254
I637
aI348
aI224
aI1125
aI2556
aF178.0
aI1093
aI461
aI334
aI1701
aI2309
aF128.0
asg5
I0
sg6
(lp255
I203
aI-1
aI-1
aI116
aI-1
aI-1
asg8
(lp256
I26
aI-1
aI-1
aF-1.0
aF-1.0
aF-1.0
aI25
aI-1
aI-1
aF-1.0
aF-1.0
aF-1.0
asg10
(lp257
F0.004
aF-0.003
aF0.003
asba(i__main__
sensor_data_struct
p258
(dp259
g3
(lp260
I622
aI350
aI223
aI1108
aI2575
aF187.0
aI1040
aI477
aI329
aI1664
aI2346
aF174.0
asg5
I1
sg6
(lp261
I20
aI-1
aI-1
aI61
aI-1
aI-1
asg8
(lp262
I49
aI-1
aI-1
aF-1.0
aF-1.0
aF-1.0
aI26
aI-1
aI-1
aF-1.0
aF-1.0
aF-1.0
asg10
(lp263
F-0.001
aF0.009000000000000001
aF0.015
asba(i__main__
sensor_data_struct
p264
(dp265
g3
(lp266
I583
aI334
aI208
aI1060
aI2607
aF185.0
aI694
aI375
aI240
aI1209
aI2515
aF190.0
asg5
I1
sg6
(lp267
I6
aI-1
aI-1
aI40
aI-1
aI-1
asg8
(lp268
I51
aI-1
aI-1
aF-1.0
aF-1.0
aF-1.0
aI33
aI-1
aI-1
aF-1.0
aF-1.0
aF-1.0
asg10
(lp269
F0.002
aF-0.012
aF0.012
asba(i__main__
sensor_data_struct
p270
(dp271
g3
(lp272
I620
aI347
aI214
aI1115
aI2565
aF189.0
aI746
aI393
aI267
aI1256
aI2481
aF182.0
asg5
I0
sg6
(lp273
I64
aI-1
aI-1
aI104
aI-1
aI-1
asg8
(lp274
I40
aI-1
aI-1
aF-1.0
aF-1.0
aF-1.0
aI24
aI-1
aI-1
aF-1.0
aF-1.0
aF-1.0
asg10
(lp275
F0.001
aF-0.009000000000000001
aF0.008
asba(i__main__
sensor_data_struct
p276
(dp277
g3
(lp278
I813
aI385
aI265
aI1345
aI2431
aF149.0
aI1878
aI592
aI487
aI2690
aI2163
aF65505.0
asg5
I0
sg6
(lp279
I26
aI-1
aI-1
aI118
aI-1
aI-1
asg8
(lp280
I31
aI-1
aI-1
aF-1.0
aF-1.0
aF-1.0
aI23
aI-1
aI-1
aF-1.0
aF-1.0
aF-1.0
asg10
(lp281
F0.001
aF0.006999999999999999
aF0.004
asba(i__main__
sensor_data_struct
p282
(dp283
g3
(lp284
I646
aI354
aI229
aI1136
aI2553
aF181.0
aI1394
aI483
aI380
aI2057
aI2215
aF31.0
asg5
I0
sg6
(lp285
I45
aI-1
aI-1
aI113
aI-1
aI-1
asg8
(lp286
I23
aI-1
aI-1
aF-1.0
aF-1.0
aF-1.0
aI22
aI-1
aI-1
aF-1.0
aF-1.0
aF-1.0
asg10
(lp287
F-0.001
aF0.005
aF0.004
asba(i__main__
sensor_data_struct
p288
(dp289
g3
(lp290
I787
aI385
aI262
aI1315
aI2453
aF160.0
aI1992
aI573
aI493
aI2848
aI2174
aF65433.0
asg5
I1
sg6
(lp291
I16
aI-1
aI-1
aI35
aI-1
aI-1
asg8
(lp292
I47
aI-1
aI-1
aF-1.0
aF-1.0
aF-1.0
aI34
aI-1
aI-1
aF-1.0
aF-1.0
aF-1.0
asg10
(lp293
F0.002
aF0.01
aF0.01
asba(i__main__
sensor_data_struct
p294
(dp295
g3
(lp296
I597
aI342
aI214
aI1080
aI2599
aF189.0
aI1059
aI463
aI326
aI1676
aI2330
aF148.0
asg5
I1
sg6
(lp297
I10
aI-1
aI-1
aI49
aI-1
aI-1
asg8
(lp298
I34
aI-1
aI-1
aF-1.0
aF-1.0
aF-1.0
aI30
aI-1
aI-1
aF-1.0
aF-1.0
aF-1.0
asg10
(lp299
F0.008
aF0.005
aF0.013999999999999999
asba(i__main__
sensor_data_struct
p300
(dp301
g3
(lp302
I665
aI363
aI229
aI1178
aI2547
aF189.0
aI1076
aI430
aI318
aI1678
aI2321
aF96.0
asg5
I1
sg6
(lp303
I19
aI-1
aI-1
aI36
aI-1
aI-1
asg8
(lp304
I51
aI-1
aI-1
aF-1.0
aF-1.0
aF-1.0
aI32
aI-1
aI-1
aF-1.0
aF-1.0
aF-1.0
asg10
(lp305
F0.002
aF0.01
aF0.013999999999999999
asba(i__main__
sensor_data_struct
p306
(dp307
g3
(lp308
I608
aI348
aI220
aI1093
aI2593
aF190.0
aI902
aI438
aI297
aI1478
aI2400
aF181.0
asg5
I1
sg6
(lp309
I21
aI-1
aI-1
aI56
aI-1
aI-1
asg8
(lp310
I47
aI-1
aI-1
aF-1.0
aF-1.0
aF-1.0
aI26
aI-1
aI-1
aF-1.0
aF-1.0
aF-1.0
asg10
(lp311
F-0.008
aF0.009000000000000001
aF0.015
asba(i__main__
sensor_data_struct
p312
(dp313
g3
(lp314
I589
aI340
aI213
aI1068
aI2605
aF189.0
aI754
aI363
aI243
aI1275
aI2466
aF150.0
asg5
I1
sg6
(lp315
I5
aI-1
aI-1
aI33
aI-1
aI-1
asg8
(lp316
I41
aI-1
aI-1
aF-1.0
aF-1.0
aF-1.0
aI34
aI-1
aI-1
aF-1.0
aF-1.0
aF-1.0
asg10
(lp317
F0.01
aF0.006
aF0.015
asba(i__main__
sensor_data_struct
p318
(dp319
g3
(lp320
I606
aI340
aI214
aI1088
aI2580
aF183.0
aI1002
aI475
aI326
aI1610
aI2358
aF185.0
asg5
I1
sg6
(lp321
I24
aI-1
aI-1
aI74
aI-1
aI-1
asg8
(lp322
I47
aI-1
aI-1
aF-1.0
aF-1.0
aF-1.0
aI24
aI-1
aI-1
aF-1.0
aF-1.0
aF-1.0
asg10
(lp323
F-0.004
aF-0.01
aF0.012
asba(i__main__
sensor_data_struct
p324
(dp325
g3
(lp326
I606
aI342
aI213
aI1090
aI2578
aF187.0
aI823
aI415
aI278
aI1371
aI2436
aF184.0
asg5
I1
sg6
(lp327
I20
aI-1
aI-1
aI63
aI-1
aI-1
asg8
(lp328
I50
aI-1
aI-1
aF-1.0
aF-1.0
aF-1.0
aI22
aI-1
aI-1
aF-1.0
aF-1.0
aF-1.0
asg10
(lp329
F-0.008
aF-0.004
aF0.013999999999999999
asba(i__main__
sensor_data_struct
p330
(dp331
g3
(lp332
I631
aI350
aI223
aI1119
aI2561
aF184.0
aI1049
aI470
aI334
aI1651
aI2327
aF156.0
asg5
I0
sg6
(lp333
I43
aI-1
aI-1
aI91
aI-1
aI-1
asg8
(lp334
I16
aI-1
aI-1
aF-1.0
aF-1.0
aF-1.0
aI22
aI-1
aI-1
aF-1.0
aF-1.0
aF-1.0
asg10
(lp335
F-0.005
aF-0.002
aF0.009000000000000001
asba(i__main__
sensor_data_struct
p336
(dp337
g3
(lp338
I643
aI354
aI226
aI1135
aI2548
aF184.0
aI1277
aI454
aI358
aI1904
aI2246
aF39.0
asg5
I0
sg6
(lp339
I35
aI-1
aI-1
aI90
aI-1
aI-1
asg8
(lp340
I30
aI-1
aI-1
aF-1.0
aF-1.0
aF-1.0
aI22
aI-1
aI-1
aF-1.0
aF-1.0
aF-1.0
asg10
(lp341
F0.003
aF0.005
aF0.01
asba(i__main__
sensor_data_struct
p342
(dp343
g3
(lp344
I595
aI338
aI212
aI1078
aI2604
aF185.0
aI1067
aI482
aI325
aI1719
aI2345
aF176.0
asg5
I1
sg6
(lp345
I8
aI-1
aI-1
aI33
aI-1
aI-1
asg8
(lp346
I38
aI-1
aI-1
aF-1.0
aF-1.0
aF-1.0
aI33
aI-1
aI-1
aF-1.0
aF-1.0
aF-1.0
asg10
(lp347
F0.009000000000000001
aF0.005
aF0.015
asba(i__main__
sensor_data_struct
p348
(dp349
g3
(lp350
I637
aI351
aI225
aI1124
aI2553
aF182.0
aI1040
aI474
aI333
aI1649
aI2338
aF166.0
asg5
I1
sg6
(lp351
I46
aI-1
aI-1
aI80
aI-1
aI-1
asg8
(lp352
I20
aI-1
aI-1
aF-1.0
aF-1.0
aF-1.0
aI23
aI-1
aI-1
aF-1.0
aF-1.0
aF-1.0
asg10
(lp353
F-0.003
aF-0.001
aF0.011000000000000001
asba(i__main__
sensor_data_struct
p354
(dp355
g3
(lp356
I599
aI340
aI213
aI1081
aI2593
aF186.0
aI793
aI384
aI259
aI1327
aI2447
aF159.0
asg5
I1
sg6
(lp357
I8
aI-1
aI-1
aI62
aI-1
aI-1
asg8
(lp358
I32
aI-1
aI-1
aF-1.0
aF-1.0
aF-1.0
aI26
aI-1
aI-1
aF-1.0
aF-1.0
aF-1.0
asg10
(lp359
F0.01
aF0.002
aF0.013999999999999999
asba(i__main__
sensor_data_struct
p360
(dp361
g3
(lp362
I795
aI376
aI256
aI1325
aI2440
aF147.0
aI3365
aI809
aI770
aI4538
aI2074
aF65157.0
asg5
I1
sg6
(lp363
I19
aI-1
aI-1
aI37
aI-1
aI-1
asg8
(lp364
I35
aI-1
aI-1
aF-1.0
aF-1.0
aF-1.0
aI35
aI-1
aI-1
aF-1.0
aF-1.0
aF-1.0
asg10
(lp365
F0.006
aF0.006
aF0.006999999999999999
asba(i__main__
sensor_data_struct
p366
(dp367
g3
(lp368
I648
aI351
aI224
aI1147
aI2552
aF179.0
aI723
aI363
aI242
aI1232
aI2486
aF161.0
asg5
I1
sg6
(lp369
I11
aI-1
aI-1
aI65
aI-1
aI-1
asg8
(lp370
I32
aI-1
aI-1
aF-1.0
aF-1.0
aF-1.0
aI26
aI-1
aI-1
aF-1.0
aF-1.0
aF-1.0
asg10
(lp371
F0.012
aF-0.001
aF0.013000000000000001
asba(i__main__
sensor_data_struct
p372
(dp373
g3
(lp374
I598
aI339
aI213
aI1077
aI2590
aF185.0
aI1160
aI442
aI338
aI1763
aI2279
aF73.0
asg5
I0
sg6
(lp375
I36
aI-1
aI-1
aI96
aI-1
aI-1
asg8
(lp376
I24
aI-1
aI-1
aF-1.0
aF-1.0
aF-1.0
aI24
aI-1
aI-1
aF-1.0
aF-1.0
aF-1.0
asg10
(lp377
F-0.001
aF0.005
aF0.006999999999999999
asba(i__main__
sensor_data_struct
p378
(dp379
g3
(lp380
I615
aI349
aI223
aI1099
aI2585
aF187.0
aI1121
aI488
aI341
aI1794
aI2351
aF156.0
asg5
I1
sg6
(lp381
I14
aI-1
aI-1
aI34
aI-1
aI-1
asg8
(lp382
I54
aI-1
aI-1
aF-1.0
aF-1.0
aF-1.0
aI31
aI-1
aI-1
aF-1.0
aF-1.0
aF-1.0
asg10
(lp383
F0.0
aF0.013000000000000001
aF0.015
asba(i__main__
sensor_data_struct
p384
(dp385
g3
(lp386
I734
aI371
aI250
aI1241
aI2477
aF164.0
aI1278
aI482
aI362
aI1925
aI2243
aF80.0
asg5
I0
sg6
(lp387
I57
aI-1
aI-1
aI106
aI-1
aI-1
asg8
(lp388
I18
aI-1
aI-1
aF-1.0
aF-1.0
aF-1.0
aI23
aI-1
aI-1
aF-1.0
aF-1.0
aF-1.0
asg10
(lp389
F-0.001
aF0.003
aF0.001
asba(i__main__
sensor_data_struct
p390
(dp391
g3
(lp392
I627
aI348
aI223
aI1112
aI2565
aF182.0
aI993
aI438
aI314
aI1565
aI2336
aF139.0
asg5
I0
sg6
(lp393
I63
aI-1
aI-1
aI108
aI-1
aI-1
asg8
(lp394
I19
aI-1
aI-1
aF-1.0
aF-1.0
aF-1.0
aI23
aI-1
aI-1
aF-1.0
aF-1.0
aF-1.0
asg10
(lp395
F-0.004
aF-0.002
aF0.004
asba(i__main__
sensor_data_struct
p396
(dp397
g3
(lp398
I780
aI383
aI265
aI1292
aI2445
aF157.0
aI1294
aI502
aI372
aI1961
aI2251
aF99.0
asg5
I0
sg6
(lp399
I156
aI-1
aI-1
aI107
aI-1
aI-1
asg8
(lp400
I24
aI-1
aI-1
aF-1.0
aF-1.0
aF-1.0
aI22
aI-1
aI-1
aF-1.0
aF-1.0
aF-1.0
asg10
(lp401
F0.002
aF-0.001
aF0.001
asba(i__main__
sensor_data_struct
p402
(dp403
g3
(lp404
I608
aI342
aI216
aI1089
aI2580
aF184.0
aI904
aI404
aI289
aI1442
aI2367
aF132.0
asg5
I0
sg6
(lp405
I47
aI-1
aI-1
aI107
aI-1
aI-1
asg8
(lp406
I17
aI-1
aI-1
aF-1.0
aF-1.0
aF-1.0
aI21
aI-1
aI-1
aF-1.0
aF-1.0
aF-1.0
asg10
(lp407
F-0.004
aF0.001
aF0.004
asba(i__main__
sensor_data_struct
p408
(dp409
g3
(lp410
I587
aI333
aI207
aI1065
aI2597
aF183.0
aI915
aI477
aI302
aI1537
aI2410
aF234.0
asg5
I1
sg6
(lp411
I7
aI-1
aI-1
aI38
aI-1
aI-1
asg8
(lp412
I51
aI-1
aI-1
aF-1.0
aF-1.0
aF-1.0
aI32
aI-1
aI-1
aF-1.0
aF-1.0
aF-1.0
asg10
(lp413
F0.001
aF-0.012
aF0.012
asba(i__main__
sensor_data_struct
p414
(dp415
g3
(lp416
I612
aI347
aI219
aI1096
aI2578
aF188.0
aI1234
aI468
aI356
aI1870
aI2266
aF77.0
asg5
I0
sg6
(lp417
I31
aI-1
aI-1
aI92
aI-1
aI-1
asg8
(lp418
I28
aI-1
aI-1
aF-1.0
aF-1.0
aF-1.0
aI23
aI-1
aI-1
aF-1.0
aF-1.0
aF-1.0
asg10
(lp419
F-0.003
aF0.008
aF0.009000000000000001
asba(i__main__
sensor_data_struct
p420
(dp421
g3
(lp422
I688
aI366
aI240
aI1194
aI2525
aF178.0
aI663
aI360
aI236
aI1156
aI2542
aF180.0
asg5
I1
sg6
(lp423
I12
aI-1
aI-1
aI36
aI-1
aI-1
asg8
(lp424
I48
aI-1
aI-1
aF-1.0
aF-1.0
aF-1.0
aI32
aI-1
aI-1
aF-1.0
aF-1.0
aF-1.0
asg10
(lp425
F-0.009000000000000001
aF-0.003
aF0.015
asba(i__main__
sensor_data_struct
p426
(dp427
g3
(lp428
I584
aI335
aI207
aI1065
aI2608
aF187.0
aI780
aI395
aI260
aI1320
aI2460
aF179.0
asg5
I1
sg6
(lp429
I5
aI-1
aI-1
aI61
aI-1
aI-1
asg8
(lp430
I35
aI-1
aI-1
aF-1.0
aF-1.0
aF-1.0
aI26
aI-1
aI-1
aF-1.0
aF-1.0
aF-1.0
asg10
(lp431
F0.011000000000000001
aF-0.003
aF0.013999999999999999
asba(i__main__
sensor_data_struct
p432
(dp433
g3
(lp434
I713
aI365
aI243
aI1218
aI2496
aF166.0
aI1265
aI506
aI375
aI1927
aI2267
aF113.0
asg5
I0
sg6
(lp435
I62
aI-1
aI-1
aI105
aI-1
aI-1
asg8
(lp436
I27
aI-1
aI-1
aF-1.0
aF-1.0
aF-1.0
aI23
aI-1
aI-1
aF-1.0
aF-1.0
aF-1.0
asg10
(lp437
F0.005
aF0.002
aF0.006999999999999999
asba(i__main__
sensor_data_struct
p438
(dp439
g3
(lp440
I593
aI336
aI210
aI1073
aI2595
aF184.0
aI879
aI432
aI294
aI1440
aI2404
aF181.0
asg5
I1
sg6
(lp441
I24
aI-1
aI-1
aI75
aI-1
aI-1
asg8
(lp442
I47
aI-1
aI-1
aF-1.0
aF-1.0
aF-1.0
aI25
aI-1
aI-1
aF-1.0
aF-1.0
aF-1.0
asg10
(lp443
F-0.003
aF-0.01
aF0.012
asba(i__main__
sensor_data_struct
p444
(dp445
g3
(lp446
I598
aI337
aI211
aI1082
aI2595
aF183.0
aI992
aI478
aI321
aI1616
aI2376
aF197.0
asg5
I1
sg6
(lp447
I9
aI-1
aI-1
aI58
aI-1
aI-1
asg8
(lp448
I30
aI-1
aI-1
aF-1.0
aF-1.0
aF-1.0
aI27
aI-1
aI-1
aF-1.0
aF-1.0
aF-1.0
asg10
(lp449
F0.01
aF0.001
aF0.015
asba(i__main__
sensor_data_struct
p450
(dp451
g3
(lp452
I603
aI343
aI215
aI1089
aI2593
aF188.0
aI2664
aI690
aI639
aI3668
aI2117
aF65293.0
asg5
I1
sg6
(lp453
I23
aI-1
aI-1
aI52
aI-1
aI-1
asg8
(lp454
I35
aI-1
aI-1
aF-1.0
aF-1.0
aF-1.0
aI32
aI-1
aI-1
aF-1.0
aF-1.0
aF-1.0
asg10
(lp455
F0.003
aF0.006999999999999999
aF0.005
asba(i__main__
sensor_data_struct
p456
(dp457
g3
(lp458
I652
aI354
aI231
aI1139
aI2540
aF177.0
aI1115
aI493
aI352
aI1744
aI2314
aF158.0
asg5
I0
sg6
(lp459
I24
aI-1
aI-1
aI87
aI-1
aI-1
asg8
(lp460
I11
aI-1
aI-1
aF-1.0
aF-1.0
aF-1.0
aI24
aI-1
aI-1
aF-1.0
aF-1.0
aF-1.0
asg10
(lp461
F-0.006999999999999999
aF0.001
aF0.009000000000000001
asba(i__main__
sensor_data_struct
p462
(dp463
g3
(lp464
I594
aI337
aI212
aI1073
aI2597
aF183.0
aI786
aI400
aI284
aI1291
aI2456
aF168.0
asg5
I0
sg6
(lp465
I114
aI-1
aI-1
aI108
aI-1
aI-1
asg8
(lp466
I29
aI-1
aI-1
aF-1.0
aF-1.0
aF-1.0
aI24
aI-1
aI-1
aF-1.0
aF-1.0
aF-1.0
asg10
(lp467
F0.0
aF-0.005
aF0.006
asba(i__main__
sensor_data_struct
p468
(dp469
g3
(lp470
I615
aI343
aI217
aI1100
aI2577
aF182.0
aI764
aI392
aI272
aI1273
aI2472
aF171.0
asg5
I0
sg6
(lp471
I95
aI-1
aI-1
aI102
aI-1
aI-1
asg8
(lp472
I32
aI-1
aI-1
aF-1.0
aF-1.0
aF-1.0
aI24
aI-1
aI-1
aF-1.0
aF-1.0
aF-1.0
asg10
(lp473
F0.003
aF-0.006
aF0.008
asba(i__main__
sensor_data_struct
p474
(dp475
g3
(lp476
I589
aI335
aI210
aI1070
aI2608
aF183.0
aI1146
aI472
aI333
aI1806
aI2316
aF129.0
asg5
I1
sg6
(lp477
I7
aI-1
aI-1
aI33
aI-1
aI-1
asg8
(lp478
I44
aI-1
aI-1
aF-1.0
aF-1.0
aF-1.0
aI33
aI-1
aI-1
aF-1.0
aF-1.0
aF-1.0
asg10
(lp479
F0.008
aF0.008
aF0.013999999999999999
asba(i__main__
sensor_data_struct
p480
(dp481
g3
(lp482
I626
aI346
aI218
aI1120
aI2570
aF183.0
aI1325
aI525
aI377
aI2044
aI2274
aF122.0
asg5
I1
sg6
(lp483
I13
aI-1
aI-1
aI34
aI-1
aI-1
asg8
(lp484
I35
aI-1
aI-1
aF-1.0
aF-1.0
aF-1.0
aI34
aI-1
aI-1
aF-1.0
aF-1.0
aF-1.0
asg10
(lp485
F0.008
aF0.006
aF0.013000000000000001
asba(i__main__
sensor_data_struct
p486
(dp487
g3
(lp488
I585
aI333
aI205
aI1065
aI2597
aF185.0
aI815
aI429
aI273
aI1388
aI2451
aF212.0
asg5
I1
sg6
(lp489
I9
aI-1
aI-1
aI43
aI-1
aI-1
asg8
(lp490
I52
aI-1
aI-1
aF-1.0
aF-1.0
aF-1.0
aI32
aI-1
aI-1
aF-1.0
aF-1.0
aF-1.0
asg10
(lp491
F0.003
aF-0.011000000000000001
aF0.013000000000000001
asba(i__main__
sensor_data_struct
p492
(dp493
g3
(lp494
I601
aI340
aI211
aI1084
aI2580
aF187.0
aI820
aI426
aI277
aI1383
aI2442
aF203.0
asg5
I1
sg6
(lp495
I18
aI-1
aI-1
aI34
aI-1
aI-1
asg8
(lp496
I27
aI-1
aI-1
aF-1.0
aF-1.0
aF-1.0
aI18
aI-1
aI-1
aF-1.0
aF-1.0
aF-1.0
asg10
(lp497
F-0.009000000000000001
aF-0.005
aF0.01
asba(i__main__
sensor_data_struct
p498
(dp499
g3
(lp500
I607
aI340
aI213
aI1091
aI2581
aF183.0
aI1051
aI463
aI328
aI1660
aI2331
aF149.0
asg5
I0
sg6
(lp501
I44
aI-1
aI-1
aI85
aI-1
aI-1
asg8
(lp502
I26
aI-1
aI-1
aF-1.0
aF-1.0
aF-1.0
aI22
aI-1
aI-1
aF-1.0
aF-1.0
aF-1.0
asg10
(lp503
F0.006
aF0.0
aF0.01
asba(i__main__
sensor_data_struct
p504
(dp505
g3
(lp506
I611
aI343
aI217
aI1093
aI2576
aF184.0
aI858
aI396
aI278
aI1393
aI2400
aF143.0
asg5
I0
sg6
(lp507
I24
aI-1
aI-1
aI102
aI-1
aI-1
asg8
(lp508
I13
aI-1
aI-1
aF-1.0
aF-1.0
aF-1.0
aI24
aI-1
aI-1
aF-1.0
aF-1.0
aF-1.0
asg10
(lp509
F-0.006
aF0.002
aF0.003
asba(i__main__
sensor_data_struct
p510
(dp511
g3
(lp512
I593
aI333
aI209
aI1073
aI2597
aF180.0
aI1016
aI474
aI326
aI1629
aI2352
aF179.0
asg5
I1
sg6
(lp513
I21
aI-1
aI-1
aI76
aI-1
aI-1
asg8
(lp514
I32
aI-1
aI-1
aF-1.0
aF-1.0
aF-1.0
aI25
aI-1
aI-1
aF-1.0
aF-1.0
aF-1.0
asg10
(lp515
F0.006999999999999999
aF-0.004
aF0.012
asba(i__main__
sensor_data_struct
p516
(dp517
g3
(lp518
I609
aI341
aI214
aI1095
aI2583
aF183.0
aI1083
aI428
aI323
aI1663
aI2299
aF87.0
asg5
I0
sg6
(lp519
I109
aI-1
aI-1
aI109
aI-1
aI-1
asg8
(lp520
I24
aI-1
aI-1
aF-1.0
aF-1.0
aF-1.0
aI24
aI-1
aI-1
aF-1.0
aF-1.0
aF-1.0
asg10
(lp521
F0.003
aF0.0
aF0.004
asba(i__main__
sensor_data_struct
p522
(dp523
g3
(lp524
I582
aI331
aI206
aI1058
aI2605
aF182.0
aI878
aI403
aI280
aI1430
aI2398
aF146.0
asg5
I0
sg6
(lp525
I21
aI-1
aI-1
aI80
aI-1
aI-1
asg8
(lp526
I31
aI-1
aI-1
aF-1.0
aF-1.0
aF-1.0
aI23
aI-1
aI-1
aF-1.0
aF-1.0
aF-1.0
asg10
(lp527
F0.011000000000000001
aF0.0
aF0.011000000000000001
asba(i__main__
sensor_data_struct
p528
(dp529
g3
(lp530
I624
aI345
aI220
aI1110
aI2569
aF180.0
aI1036
aI476
aI334
aI1646
aI2343
aF170.0
asg5
I0
sg6
(lp531
I74
aI-1
aI-1
aI84
aI-1
aI-1
asg8
(lp532
I27
aI-1
aI-1
aF-1.0
aF-1.0
aF-1.0
aI24
aI-1
aI-1
aF-1.0
aF-1.0
aF-1.0
asg10
(lp533
F0.003
aF-0.004
aF0.011000000000000001
asba(i__main__
sensor_data_struct
p534
(dp535
g3
(lp536
I617
aI345
aI218
aI1106
aI2579
aF184.0
aI1003
aI422
aI305
aI1589
aI2350
aF117.0
asg5
I1
sg6
(lp537
I19
aI-1
aI-1
aI36
aI-1
aI-1
asg8
(lp538
I44
aI-1
aI-1
aF-1.0
aF-1.0
aF-1.0
aI32
aI-1
aI-1
aF-1.0
aF-1.0
aF-1.0
asg10
(lp539
F0.004
aF0.006999999999999999
aF0.015
asba(i__main__
sensor_data_struct
p540
(dp541
g3
(lp542
I639
aI357
aI226
aI1140
aI2569
aF190.0
aI1285
aI455
aI359
aI1915
aI2243
aF38.0
asg5
I0
sg6
(lp543
I83
aI-1
aI-1
aI108
aI-1
aI-1
asg8
(lp544
I26
aI-1
aI-1
aF-1.0
aF-1.0
aF-1.0
aI24
aI-1
aI-1
aF-1.0
aF-1.0
aF-1.0
asg10
(lp545
F0.004
aF0.002
aF0.002
asba(i__main__
sensor_data_struct
p546
(dp547
g3
(lp548
I659
aI348
aI225
aI1154
aI2534
aF170.0
aI1188
aI501
aI364
aI1836
aI2294
aF138.0
asg5
I0
sg6
(lp549
I60
aI-1
aI-1
aI105
aI-1
aI-1
asg8
(lp550
I28
aI-1
aI-1
aF-1.0
aF-1.0
aF-1.0
aI24
aI-1
aI-1
aF-1.0
aF-1.0
aF-1.0
asg10
(lp551
F0.009000000000000001
aF0.0
aF0.006999999999999999
asba(i__main__
sensor_data_struct
p552
(dp553
g3
(lp554
I573
aI329
aI203
aI1048
aI2614
aF184.0
aI544
aI317
aI193
aI1005
aI2629
aF182.0
asg5
I1
sg6
(lp555
I0
aI-1
aI-1
aI31
aI-1
aI-1
asg8
(lp556
I55
aI-1
aI-1
aF-1.0
aF-1.0
aF-1.0
aI30
aI-1
aI-1
aF-1.0
aF-1.0
aF-1.0
asg10
(lp557
F-0.006
aF0.005
aF0.012
asba(i__main__
sensor_data_struct
p558
(dp559
g3
(lp560
I819
aI381
aI263
aI1352
aI2428
aF142.0
aI1669
aI558
aI446
aI2425
aI2185
aF12.0
asg5
I0
sg6
(lp561
I31
aI-1
aI-1
aI109
aI-1
aI-1
asg8
(lp562
I34
aI-1
aI-1
aF-1.0
aF-1.0
aF-1.0
aI22
aI-1
aI-1
aF-1.0
aF-1.0
aF-1.0
asg10
(lp563
F0.005
aF0.005
aF0.004
asba(i__main__
sensor_data_struct
p564
(dp565
g3
(lp566
I587
aI334
aI208
aI1065
aI2599
aF184.0
aI700
aI374
aI243
aI1210
aI2509
aF185.0
asg5
I1
sg6
(lp567
I12
aI-1
aI-1
aI58
aI-1
aI-1
asg8
(lp568
I54
aI-1
aI-1
aF-1.0
aF-1.0
aF-1.0
aI26
aI-1
aI-1
aF-1.0
aF-1.0
aF-1.0
asg10
(lp569
F-0.004
aF-0.013000000000000001
aF0.015
asba(i__main__
sensor_data_struct
p570
(dp571
g3
(lp572
I604
aI338
aI212
aI1086
aI2580
aF182.0
aI1087
aI463
aI334
aI1698
aI2314
aF133.0
asg5
I0
sg6
(lp573
I61
aI-1
aI-1
aI97
aI-1
aI-1
asg8
(lp574
I29
aI-1
aI-1
aF-1.0
aF-1.0
aF-1.0
aI24
aI-1
aI-1
aF-1.0
aF-1.0
aF-1.0
asg10
(lp575
F0.006
aF-0.001
aF0.008
asba(i__main__
sensor_data_struct
p576
(dp577
g3
(lp578
I785
aI393
aI260
aI1324
aI2453
aF175.0
aI1190
aI509
aI366
aI1588
aI1903
aF149.0
asg5
I0
sg6
(lp579
I24
aI-1
aI-1
aI87
aI-1
aI-1
asg8
(lp580
I29
aI-1
aI-1
aF-1.0
aF-1.0
aF-1.0
aI23
aI-1
aI-1
aF-1.0
aF-1.0
aF-1.0
asg10
(lp581
F0.008
aF0.002
aF0.01
asba(i__main__
sensor_data_struct
p582
(dp583
g3
(lp584
I597
aI339
aI213
aI1076
aI2593
aF185.0
aI745
aI387
aI259
aI1261
aI2477
aF179.0
asg5
I1
sg6
(lp585
I14
aI-1
aI-1
aI34
aI-1
aI-1
asg8
(lp586
I13
aI-1
aI-1
aF-1.0
aF-1.0
aF-1.0
aI9
aI-1
aI-1
aF-1.0
aF-1.0
aF-1.0
asg10
(lp587
F-0.009000000000000001
aF-0.003
aF0.008
asba(i__main__
sensor_data_struct
p588
(dp589
g3
(lp590
I609
aI342
aI216
aI1092
aI2583
aF183.0
aI935
aI438
aI312
aI1495
aI2375
aF159.0
asg5
I0
sg6
(lp591
I80
aI-1
aI-1
aI103
aI-1
aI-1
asg8
(lp592
I21
aI-1
aI-1
aF-1.0
aF-1.0
aF-1.0
aI23
aI-1
aI-1
aF-1.0
aF-1.0
aF-1.0
asg10
(lp593
F-0.002
aF-0.005
aF0.006999999999999999
asba(i__main__
sensor_data_struct
p594
(dp595
g3
(lp596
I612
aI343
aI217
aI1097
aI2583
aF183.0
aI840
aI417
aI283
aI1390
aI2426
aF178.0
asg5
I1
sg6
(lp597
I47
aI-1
aI-1
aI67
aI-1
aI-1
asg8
(lp598
I29
aI-1
aI-1
aF-1.0
aF-1.0
aF-1.0
aI24
aI-1
aI-1
aF-1.0
aF-1.0
aF-1.0
asg10
(lp599
F0.002
aF-0.005
aF0.013000000000000001
asba(i__main__
sensor_data_struct
p600
(dp601
g3
(lp602
I664
aI363
aI230
aI1172
aI2542
aF189.0
aI930
aI406
aI294
aI1481
aI2370
aF123.0
asg5
I0
sg6
(lp603
I40
aI-1
aI-1
aI74
aI-1
aI-1
asg8
(lp604
I25
aI-1
aI-1
aF-1.0
aF-1.0
aF-1.0
aI22
aI-1
aI-1
aF-1.0
aF-1.0
aF-1.0
asg10
(lp605
F0.004
aF0.002
aF0.012
asba.