(lp0
(i__main__
sensor_data_struct
p1
(dp2
S'color'
p3
(lp4
I529
aI316
aI205
aI967
aI2671
aF176.0
aI697
aI363
aI256
aI1173
aI2516
aF159.0
asS'button'
p5
I1
sS'IR'
p6
(lp7
I29
aI-1
aI-1
aI59
aI-1
aI-1
asS'TOF'
p8
(lp9
I34
aI-1
aI-1
aF-1.0
aF-1.0
aF-1.0
aI25
aI-1
aI-1
aF-1.0
aF-1.0
aF-1.0
asS'pt'
p10
(lp11
F-0.006
aF0.002
aF0.015
asba(i__main__
sensor_data_struct
p12
(dp13
g3
(lp14
I600
aI345
aI224
aI1079
aI2619
aF185.0
aI701
aI367
aI255
aI1182
aI2508
aF165.0
asg5
I0
sg6
(lp15
I33
aI-1
aI-1
aI80
aI-1
aI-1
asg8
(lp16
I32
aI-1
aI-1
aF-1.0
aF-1.0
aF-1.0
aI22
aI-1
aI-1
aF-1.0
aF-1.0
aF-1.0
asg10
(lp17
F0.003
aF-0.006
aF0.012
asba(i__main__
sensor_data_struct
p18
(dp19
g3
(lp20
I575
aI332
aI212
aI1042
aI2625
aF182.0
aI798
aI410
aI281
aI1338
aI2476
aF182.0
asg5
I1
sg6
(lp21
I27
aI-1
aI-1
aI40
aI-1
aI-1
asg8
(lp22
I22
aI-1
aI-1
aF-1.0
aF-1.0
aF-1.0
aI10
aI-1
aI-1
aF-1.0
aF-1.0
aF-1.0
asg10
(lp23
F-0.01
aF0.0
aF0.01
asba(i__main__
sensor_data_struct
p24
(dp25
g3
(lp26
I581
aI335
aI216
aI1048
aI2620
aF182.0
aI2502
aI650
aI600
aI3412
aI2093
aF65311.0
asg5
I0
sg6
(lp27
I25
aI-1
aI-1
aI104
aI-1
aI-1
asg8
(lp28
I31
aI-1
aI-1
aF-1.0
aF-1.0
aF-1.0
aI21
aI-1
aI-1
aF-1.0
aF-1.0
aF-1.0
asg10
(lp29
F0.002
aF0.005
aF0.001
asba(i__main__
sensor_data_struct
p30
(dp31
g3
(lp32
I637
aI352
aI234
aI1121
aI2580
aF177.0
aI1011
aI446
aI329
aI1584
aI2345
aF134.0
asg5
I0
sg6
(lp33
I37
aI-1
aI-1
aI74
aI-1
aI-1
asg8
(lp34
I27
aI-1
aI-1
aF-1.0
aF-1.0
aF-1.0
aI23
aI-1
aI-1
aF-1.0
aF-1.0
aF-1.0
asg10
(lp35
F0.002
aF0.002
aF0.012
asba(i__main__
sensor_data_struct
p36
(dp37
g3
(lp38
I738
aI388
aI262
aI1262
aI2514
aF181.0
aI719
aI372
aI261
aI1203
aI2495
aF162.0
asg5
I1
sg6
(lp39
I52
aI-1
aI-1
aI73
aI-1
aI-1
asg8
(lp40
I28
aI-1
aI-1
aF-1.0
aF-1.0
aF-1.0
aI23
aI-1
aI-1
aF-1.0
aF-1.0
aF-1.0
asg10
(lp41
F0.0
aF-0.004
aF0.013000000000000001
asba(i__main__
sensor_data_struct
p42
(dp43
g3
(lp44
I612
aI346
aI227
aI1087
aI2595
aF181.0
aI973
aI428
aI316
aI1521
aI2340
aF128.0
asg5
I0
sg6
(lp45
I87
aI-1
aI-1
aI103
aI-1
aI-1
asg8
(lp46
I18
aI-1
aI-1
aF-1.0
aF-1.0
aF-1.0
aI21
aI-1
aI-1
aF-1.0
aF-1.0
aF-1.0
asg10
(lp47
F-0.003
aF-0.002
aF0.002
asba(i__main__
sensor_data_struct
p48
(dp49
g3
(lp50
I588
aI337
aI219
aI1057
aI2621
aF180.0
aI908
aI399
aI299
aI1428
aI2367
aF116.0
asg5
I0
sg6
(lp51
I206
aI-1
aI-1
aI106
aI-1
aI-1
asg8
(lp52
I25
aI-1
aI-1
aF-1.0
aF-1.0
aF-1.0
aI21
aI-1
aI-1
aF-1.0
aF-1.0
aF-1.0
asg10
(lp53
F0.001
aF-0.003
aF0.0
asba(i__main__
sensor_data_struct
p54
(dp55
g3
(lp56
I679
aI358
aI243
aI1165
aI2530
aF166.0
aI1246
aI510
aI380
aI1898
aI2273
aF122.0
asg5
I0
sg6
(lp57
I47
aI-1
aI-1
aI103
aI-1
aI-1
asg8
(lp58
I18
aI-1
aI-1
aF-1.0
aF-1.0
aF-1.0
aI23
aI-1
aI-1
aF-1.0
aF-1.0
aF-1.0
asg10
(lp59
F-0.003
aF0.003
aF0.006
asba(i__main__
sensor_data_struct
p60
(dp61
g3
(lp62
I556
aI325
aI208
aI1017
aI2651
aF180.0
aI860
aI416
aI291
aI1405
aI2418
aF164.0
asg5
I0
sg6
(lp63
I27
aI-1
aI-1
aI88
aI-1
aI-1
asg8
(lp64
I35
aI-1
aI-1
aF-1.0
aF-1.0
aF-1.0
aI21
aI-1
aI-1
aF-1.0
aF-1.0
aF-1.0
asg10
(lp65
F0.01
aF-0.004
aF0.011000000000000001
asba(i__main__
sensor_data_struct
p66
(dp67
g3
(lp68
I632
aI349
aI233
aI1105
aI2570
aF175.0
aI1031
aI449
aI331
aI1606
aI2330
aF131.0
asg5
I0
sg6
(lp69
I257
aI-1
aI-1
aI110
aI-1
aI-1
asg8
(lp70
I27
aI-1
aI-1
aF-1.0
aF-1.0
aF-1.0
aI23
aI-1
aI-1
aF-1.0
aF-1.0
aF-1.0
asg10
(lp71
F0.0
aF-0.005
aF0.001
asba(i__main__
sensor_data_struct
p72
(dp73
g3
(lp74
I584
aI335
aI217
aI1051
aI2621
aF180.0
aI936
aI448
aI321
aI1495
aI2381
aF168.0
asg5
I0
sg6
(lp75
I63
aI-1
aI-1
aI103
aI-1
aI-1
asg8
(lp76
I29
aI-1
aI-1
aF-1.0
aF-1.0
aF-1.0
aI22
aI-1
aI-1
aF-1.0
aF-1.0
aF-1.0
asg10
(lp77
F-0.004
aF-0.008
aF0.008
asba(i__main__
sensor_data_struct
p78
(dp79
g3
(lp80
I603
aI344
aI225
aI1076
aI2606
aF182.0
aI1429
aI493
aI399
aI2085
aI2207
aF22.0
asg5
I0
sg6
(lp81
I46
aI-1
aI-1
aI102
aI-1
aI-1
asg8
(lp82
I24
aI-1
aI-1
aF-1.0
aF-1.0
aF-1.0
aI22
aI-1
aI-1
aF-1.0
aF-1.0
aF-1.0
asg10
(lp83
F0.0
aF0.004
aF0.006999999999999999
asba(i__main__
sensor_data_struct
p84
(dp85
g3
(lp86
I598
aI344
aI224
aI1073
aI2619
aF184.0
aI916
aI433
aI310
aI1472
aI2395
aF159.0
asg5
I0
sg6
(lp87
I34
aI-1
aI-1
aI85
aI-1
aI-1
asg8
(lp88
I16
aI-1
aI-1
aF-1.0
aF-1.0
aF-1.0
aI21
aI-1
aI-1
aF-1.0
aF-1.0
aF-1.0
asg10
(lp89
F-0.006999999999999999
aF0.001
aF0.01
asba(i__main__
sensor_data_struct
p90
(dp91
g3
(lp92
I604
aI349
aI227
aI1083
aI2617
aF188.0
aI951
aI427
aI312
aI1521
aI2392
aF136.0
asg5
I1
sg6
(lp93
I31
aI-1
aI-1
aI67
aI-1
aI-1
asg8
(lp94
I44
aI-1
aI-1
aF-1.0
aF-1.0
aF-1.0
aI26
aI-1
aI-1
aF-1.0
aF-1.0
aF-1.0
asg10
(lp95
F-0.005
aF0.011000000000000001
aF0.013000000000000001
asba(i__main__
sensor_data_struct
p96
(dp97
g3
(lp98
I770
aI406
aI275
aI1312
aI2510
aF189.0
aI1107
aI436
aI335
aI1699
aI2311
aF83.0
asg5
I0
sg6
(lp99
I26
aI-1
aI-1
aI85
aI-1
aI-1
asg8
(lp100
I33
aI-1
aI-1
aF-1.0
aF-1.0
aF-1.0
aI23
aI-1
aI-1
aF-1.0
aF-1.0
aF-1.0
asg10
(lp101
F-0.004
aF0.008
aF0.01
asba(i__main__
sensor_data_struct
p102
(dp103
g3
(lp104
I615
aI351
aI232
aI1095
aI2613
aF184.0
aI1071
aI486
aI347
aI1696
aI2348
aF165.0
asg5
I1
sg6
(lp105
I26
aI-1
aI-1
aI69
aI-1
aI-1
asg8
(lp106
I37
aI-1
aI-1
aF-1.0
aF-1.0
aF-1.0
aI22
aI-1
aI-1
aF-1.0
aF-1.0
aF-1.0
asg10
(lp107
F-0.002
aF0.006999999999999999
aF0.012
asba(i__main__
sensor_data_struct
p108
(dp109
g3
(lp110
I603
aI348
aI227
aI1083
aI2624
aF187.0
aI1032
aI442
aI335
aI1591
aI2323
aF117.0
asg5
I0
sg6
(lp111
I76
aI-1
aI-1
aI99
aI-1
aI-1
asg8
(lp112
I21
aI-1
aI-1
aF-1.0
aF-1.0
aF-1.0
aI22
aI-1
aI-1
aF-1.0
aF-1.0
aF-1.0
asg10
(lp113
F0.0
aF0.001
aF0.008
asba(i__main__
sensor_data_struct
p114
(dp115
g3
(lp116
I580
aI334
aI215
aI1050
aI2630
aF181.0
aI963
aI477
aI323
aI1573
aI2391
aF203.0
asg5
I1
sg6
(lp117
I18
aI-1
aI-1
aI64
aI-1
aI-1
asg8
(lp118
I36
aI-1
aI-1
aF-1.0
aF-1.0
aF-1.0
aI26
aI-1
aI-1
aF-1.0
aF-1.0
aF-1.0
asg10
(lp119
F0.004
aF-0.006
aF0.015
asba(i__main__
sensor_data_struct
p120
(dp121
g3
(lp122
I588
aI339
aI218
aI1063
aI2623
aF184.0
aI808
aI410
aI287
aI1332
aI2451
aF174.0
asg5
I0
sg6
(lp123
I51
aI-1
aI-1
aI83
aI-1
aI-1
asg8
(lp124
I29
aI-1
aI-1
aF-1.0
aF-1.0
aF-1.0
aI22
aI-1
aI-1
aF-1.0
aF-1.0
aF-1.0
asg10
(lp125
F-0.003
aF-0.006
aF0.011000000000000001
asba(i__main__
sensor_data_struct
p126
(dp127
g3
(lp128
I648
aI364
aI237
aI1147
aI2578
aF190.0
aI689
aI370
aI253
aI1176
aI2526
aF175.0
asg5
I1
sg6
(lp129
I18
aI-1
aI-1
aI50
aI-1
aI-1
asg8
(lp130
I24
aI-1
aI-1
aF-1.0
aF-1.0
aF-1.0
aI14
aI-1
aI-1
aF-1.0
aF-1.0
aF-1.0
asg10
(lp131
F-0.01
aF-0.005
aF0.011000000000000001
asba(i__main__
sensor_data_struct
p132
(dp133
g3
(lp134
I590
aI341
aI219
aI1064
aI2616
aF186.0
aI837
aI426
aI292
aI1385
aI2439
aF186.0
asg5
I1
sg6
(lp135
I28
aI-1
aI-1
aI69
aI-1
aI-1
asg8
(lp136
I34
aI-1
aI-1
aF-1.0
aF-1.0
aF-1.0
aI22
aI-1
aI-1
aF-1.0
aF-1.0
aF-1.0
asg10
(lp137
F-0.006
aF-0.006999999999999999
aF0.013000000000000001
asba(i__main__
sensor_data_struct
p138
(dp139
g3
(lp140
I591
aI343
aI222
aI1066
aI2626
aF187.0
aI976
aI448
aI320
aI1563
aI2380
aF156.0
asg5
I1
sg6
(lp141
I22
aI-1
aI-1
aI56
aI-1
aI-1
asg8
(lp142
I42
aI-1
aI-1
aF-1.0
aF-1.0
aF-1.0
aI29
aI-1
aI-1
aF-1.0
aF-1.0
aF-1.0
asg10
(lp143
F0.001
aF0.006999999999999999
aF0.015
asba(i__main__
sensor_data_struct
p144
(dp145
g3
(lp146
I655
aI367
aI242
aI1156
aI2582
aF189.0
aI1209
aI446
aI356
aI1795
aI2249
aF50.0
asg5
I0
sg6
(lp147
I61
aI-1
aI-1
aI100
aI-1
aI-1
asg8
(lp148
I24
aI-1
aI-1
aF-1.0
aF-1.0
aF-1.0
aI21
aI-1
aI-1
aF-1.0
aF-1.0
aF-1.0
asg10
(lp149
F0.0
aF0.003
aF0.006999999999999999
asba(i__main__
sensor_data_struct
p150
(dp151
g3
(lp152
I629
aI355
aI235
aI1112
aI2594
aF184.0
aI1130
aI435
aI343
aI1693
aI2269
aF68.0
asg5
I0
sg6
(lp153
I94
aI-1
aI-1
aI107
aI-1
aI-1
asg8
(lp154
I23
aI-1
aI-1
aF-1.0
aF-1.0
aF-1.0
aI21
aI-1
aI-1
aF-1.0
aF-1.0
aF-1.0
asg10
(lp155
F0.001
aF0.001
aF0.005
asba(i__main__
sensor_data_struct
p156
(dp157
g3
(lp158
I602
aI346
aI226
aI1077
aI2615
aF185.0
aI802
aI396
aI282
aI1318
aI2453
aF158.0
asg5
I0
sg6
(lp159
I32
aI-1
aI-1
aI100
aI-1
aI-1
asg8
(lp160
I12
aI-1
aI-1
aF-1.0
aF-1.0
aF-1.0
aI22
aI-1
aI-1
aF-1.0
aF-1.0
aF-1.0
asg10
(lp161
F-0.008
aF0.002
aF0.006999999999999999
asba(i__main__
sensor_data_struct
p162
(dp163
g3
(lp164
I579
aI336
aI219
aI1044
aI2632
aF182.0
aI912
aI428
aI312
aI1453
aI2389
aF151.0
asg5
I0
sg6
(lp165
I190
aI-1
aI-1
aI117
aI-1
aI-1
asg8
(lp166
I30
aI-1
aI-1
aF-1.0
aF-1.0
aF-1.0
aI23
aI-1
aI-1
aF-1.0
aF-1.0
aF-1.0
asg10
(lp167
F0.003
aF-0.005
aF0.004
asba(i__main__
sensor_data_struct
p168
(dp169
g3
(lp170
I583
aI337
aI217
aI1053
aI2623
aF183.0
aI882
aI404
aI297
aI1399
aI2379
aF133.0
asg5
I0
sg6
(lp171
I60
aI-1
aI-1
aI104
aI-1
aI-1
asg8
(lp172
I14
aI-1
aI-1
aF-1.0
aF-1.0
aF-1.0
aI22
aI-1
aI-1
aF-1.0
aF-1.0
aF-1.0
asg10
(lp173
F-0.005
aF0.0
aF0.006
asba(i__main__
sensor_data_struct
p174
(dp175
g3
(lp176
I618
aI352
aI231
aI1097
aI2595
aF185.0
aI1045
aI491
aI344
aI1676
aI2368
aF183.0
asg5
I1
sg6
(lp177
I21
aI-1
aI-1
aI62
aI-1
aI-1
asg8
(lp178
I47
aI-1
aI-1
aF-1.0
aF-1.0
aF-1.0
aI26
aI-1
aI-1
aF-1.0
aF-1.0
aF-1.0
asg10
(lp179
F-0.003
aF0.008
aF0.013999999999999999
asba(i__main__
sensor_data_struct
p180
(dp181
g3
(lp182
I578
aI334
aI214
aI1045
aI2623
aF182.0
aI906
aI454
aI311
aI1486
aI2416
aF194.0
asg5
I1
sg6
(lp183
I25
aI-1
aI-1
aI69
aI-1
aI-1
asg8
(lp184
I40
aI-1
aI-1
aF-1.0
aF-1.0
aF-1.0
aI24
aI-1
aI-1
aF-1.0
aF-1.0
aF-1.0
asg10
(lp185
F-0.006999999999999999
aF-0.01
aF0.013000000000000001
asba(i__main__
sensor_data_struct
p186
(dp187
g3
(lp188
I596
aI344
aI220
aI1075
aI2615
aF188.0
aI792
aI393
aI277
aI1313
aI2468
aF160.0
asg5
I1
sg6
(lp189
I25
aI-1
aI-1
aI73
aI-1
aI-1
asg8
(lp190
I40
aI-1
aI-1
aF-1.0
aF-1.0
aF-1.0
aI21
aI-1
aI-1
aF-1.0
aF-1.0
aF-1.0
asg10
(lp191
F-0.008
aF0.004
aF0.012
asba(i__main__
sensor_data_struct
p192
(dp193
g3
(lp194
I574
aI336
aI215
aI1044
aI2639
aF186.0
aI658
aI350
aI235
aI1138
aI2541
aF166.0
asg5
I1
sg6
(lp195
I11
aI-1
aI-1
aI62
aI-1
aI-1
asg8
(lp196
I40
aI-1
aI-1
aF-1.0
aF-1.0
aF-1.0
aI36
aI-1
aI-1
aF-1.0
aF-1.0
aF-1.0
asg10
(lp197
F0.01
aF-0.006
aF0.012
asba(i__main__
sensor_data_struct
p198
(dp199
g3
(lp200
I584
aI339
aI217
aI1059
aI2630
aF186.0
aI896
aI419
aI304
aI1432
aI2392
aF147.0
asg5
I0
sg6
(lp201
I58
aI-1
aI-1
aI82
aI-1
aI-1
asg8
(lp202
I17
aI-1
aI-1
aF-1.0
aF-1.0
aF-1.0
aI22
aI-1
aI-1
aF-1.0
aF-1.0
aF-1.0
asg10
(lp203
F-0.002
aF0.0
aF0.011000000000000001
asba(i__main__
sensor_data_struct
p204
(dp205
g3
(lp206
I600
aI347
aI224
aI1082
aI2624
aF188.0
aI3119
aI729
aI711
aI4139
aI2047
aF65154.0
asg5
I1
sg6
(lp207
I19
aI-1
aI-1
aI34
aI-1
aI-1
asg8
(lp208
I38
aI-1
aI-1
aF-1.0
aF-1.0
aF-1.0
aI35
aI-1
aI-1
aF-1.0
aF-1.0
aF-1.0
asg10
(lp209
F0.005
aF0.006
aF0.005
asba(i__main__
sensor_data_struct
p210
(dp211
g3
(lp212
I925
aI410
aI289
aI1506
aI2402
aF135.0
aI1213
aI437
aI336
aI1862
aI2297
aF50.0
asg5
I1
sg6
(lp213
I6
aI-1
aI-1
aI33
aI-1
aI-1
asg8
(lp214
I46
aI-1
aI-1
aF-1.0
aF-1.0
aF-1.0
aI33
aI-1
aI-1
aF-1.0
aF-1.0
aF-1.0
asg10
(lp215
F0.008
aF0.009000000000000001
aF0.012
asba(i__main__
sensor_data_struct
p216
(dp217
g3
(lp218
I619
aI346
aI225
aI1107
aI2603
aF180.0
aI1186
aI489
aI360
aI1831
aI2297
aF123.0
asg5
I0
sg6
(lp219
I32
aI-1
aI-1
aI86
aI-1
aI-1
asg8
(lp220
I29
aI-1
aI-1
aF-1.0
aF-1.0
aF-1.0
aI21
aI-1
aI-1
aF-1.0
aF-1.0
aF-1.0
asg10
(lp221
F-0.002
aF0.006
aF0.01
asba(i__main__
sensor_data_struct
p222
(dp223
g3
(lp224
I578
aI331
aI209
aI1054
aI2626
aF181.0
aI843
aI443
aI282
aI1441
aI2460
aF219.0
asg5
I1
sg6
(lp225
I14
aI-1
aI-1
aI33
aI-1
aI-1
asg8
(lp226
I40
aI-1
aI-1
aF-1.0
aF-1.0
aF-1.0
aI31
aI-1
aI-1
aF-1.0
aF-1.0
aF-1.0
asg10
(lp227
F-0.012
aF0.002
aF0.013000000000000001
asba(i__main__
sensor_data_struct
p228
(dp229
g3
(lp230
I597
aI338
aI214
aI1083
aI2613
aF183.0
aI943
aI461
aI310
aI1552
aI2403
aF194.0
asg5
I1
sg6
(lp231
I31
aI-1
aI-1
aI59
aI-1
aI-1
asg8
(lp232
I38
aI-1
aI-1
aF-1.0
aF-1.0
aF-1.0
aI26
aI-1
aI-1
aF-1.0
aF-1.0
aF-1.0
asg10
(lp233
F-0.006999999999999999
aF0.003
aF0.015
asba(i__main__
sensor_data_struct
p234
(dp235
g3
(lp236
I661
aI367
aI234
aI1178
aI2572
aF193.0
aI657
aI354
aI239
aI1135
aI2546
aF170.0
asg5
I1
sg6
(lp237
I28
aI-1
aI-1
aI78
aI-1
aI-1
asg8
(lp238
I42
aI-1
aI-1
aF-1.0
aF-1.0
aF-1.0
aI24
aI-1
aI-1
aF-1.0
aF-1.0
aF-1.0
asg10
(lp239
F-0.003
aF-0.009000000000000001
aF0.012
asba(i__main__
sensor_data_struct
p240
(dp241
g3
(lp242
I612
aI351
aI225
aI1103
aI2614
aF190.0
aI811
aI381
aI265
aI1363
aI2478
aF144.0
asg5
I1
sg6
(lp243
I5
aI-1
aI-1
aI33
aI-1
aI-1
asg8
(lp244
I47
aI-1
aI-1
aF-1.0
aF-1.0
aF-1.0
aI37
aI-1
aI-1
aF-1.0
aF-1.0
aF-1.0
asg10
(lp245
F0.009000000000000001
aF0.009000000000000001
aF0.015
asba(i__main__
sensor_data_struct
p246
(dp247
g3
(lp248
I637
aI365
aI233
aI1147
aI2605
aF198.0
aI1274
aI479
aI375
aI1911
aI2263
aF67.0
asg5
I0
sg6
(lp249
I33
aI-1
aI-1
aI87
aI-1
aI-1
asg8
(lp250
I30
aI-1
aI-1
aF-1.0
aF-1.0
aF-1.0
aI21
aI-1
aI-1
aF-1.0
aF-1.0
aF-1.0
asg10
(lp251
F0.003
aF0.004
aF0.01
asba(i__main__
sensor_data_struct
p252
(dp253
g3
(lp254
I624
aI345
aI227
aI1106
aI2588
aF175.0
aI876
aI515
aI368
aI1408
aI2439
aF259.0
asg5
I0
sg6
(lp255
I26
aI-1
aI-1
aI93
aI-1
aI-1
asg8
(lp256
I28
aI-1
aI-1
aF-1.0
aF-1.0
aF-1.0
aI22
aI-1
aI-1
aF-1.0
aF-1.0
aF-1.0
asg10
(lp257
F0.01
aF-0.001
aF0.01
asba(i__main__
sensor_data_struct
p258
(dp259
g3
(lp260
I611
aI346
aI223
aI1097
aI2607
aF184.0
aI781
aI390
aI280
aI1283
aI2462
aF157.0
asg5
I0
sg6
(lp261
I74
aI-1
aI-1
aI85
aI-1
aI-1
asg8
(lp262
I23
aI-1
aI-1
aF-1.0
aF-1.0
aF-1.0
aI22
aI-1
aI-1
aF-1.0
aF-1.0
aF-1.0
asg10
(lp263
F0.001
aF-0.003
aF0.011000000000000001
asba(i__main__
sensor_data_struct
p264
(dp265
g3
(lp266
I584
aI338
aI216
aI1060
aI2628
aF185.0
aI949
aI434
aI311
aI1517
aI2377
aF149.0
asg5
I0
sg6
(lp267
I32
aI-1
aI-1
aI89
aI-1
aI-1
asg8
(lp268
I28
aI-1
aI-1
aF-1.0
aF-1.0
aF-1.0
aI20
aI-1
aI-1
aF-1.0
aF-1.0
aF-1.0
asg10
(lp269
F0.008
aF-0.001
aF0.011000000000000001
asba(i__main__
sensor_data_struct
p270
(dp271
g3
(lp272
I744
aI394
aI260
aI1278
aI2505
aF190.0
aI682
aI362
aI246
aI1174
aI2538
aF169.0
asg5
I1
sg6
(lp273
I22
aI-1
aI-1
aI35
aI-1
aI-1
asg8
(lp274
I42
aI-1
aI-1
aF-1.0
aF-1.0
aF-1.0
aI33
aI-1
aI-1
aF-1.0
aF-1.0
aF-1.0
asg10
(lp275
F0.009000000000000001
aF-0.006
aF0.01
asba(i__main__
sensor_data_struct
p276
(dp277
g3
(lp278
I605
aI346
aI224
aI1085
aI2608
aF185.0
aI1008
aI462
aI335
aI1589
aI2351
aF156.0
asg5
I0
sg6
(lp279
I63
aI-1
aI-1
aI87
aI-1
aI-1
asg8
(lp280
I18
aI-1
aI-1
aF-1.0
aF-1.0
aF-1.0
aI21
aI-1
aI-1
aF-1.0
aF-1.0
aF-1.0
asg10
(lp281
F-0.001
aF-0.001
aF0.01
asba(i__main__
sensor_data_struct
p282
(dp283
g3
(lp284
I632
aI354
aI233
aI1117
aI2584
aF183.0
aI1076
aI482
aI351
aI1680
aI2329
aF154.0
asg5
I0
sg6
(lp285
I62
aI-1
aI-1
aI96
aI-1
aI-1
asg8
(lp286
I17
aI-1
aI-1
aF-1.0
aF-1.0
aF-1.0
aI22
aI-1
aI-1
aF-1.0
aF-1.0
aF-1.0
asg10
(lp287
F-0.004
aF-0.001
aF0.008
asba(i__main__
sensor_data_struct
p288
(dp289
g3
(lp290
I589
aI339
aI218
aI1064
aI2621
aF184.0
aI926
aI459
aI316
aI1509
aI2400
aF192.0
asg5
I1
sg6
(lp291
I28
aI-1
aI-1
aI73
aI-1
aI-1
asg8
(lp292
I42
aI-1
aI-1
aF-1.0
aF-1.0
aF-1.0
aI21
aI-1
aI-1
aF-1.0
aF-1.0
aF-1.0
asg10
(lp293
F-0.003
aF-0.009000000000000001
aF0.013000000000000001
asba(i__main__
sensor_data_struct
p294
(dp295
g3
(lp296
I613
aI349
aI227
aI1096
aI2607
aF185.0
aI1418
aI482
aI394
aI2060
aI2202
aF12.0
asg5
I0
sg6
(lp297
I60
aI-1
aI-1
aI109
aI-1
aI-1
asg8
(lp298
I23
aI-1
aI-1
aF-1.0
aF-1.0
aF-1.0
aI24
aI-1
aI-1
aF-1.0
aF-1.0
aF-1.0
asg10
(lp299
F0.001
aF0.002
aF0.005
asba(i__main__
sensor_data_struct
p300
(dp301
g3
(lp302
I636
aI356
aI235
aI1122
aI2584
aF183.0
aI1100
aI493
aI354
aI1726
aI2330
aF161.0
asg5
I1
sg6
(lp303
I37
aI-1
aI-1
aI100
aI-1
aI-1
asg8
(lp304
I28
aI-1
aI-1
aF-1.0
aF-1.0
aF-1.0
aI22
aI-1
aI-1
aF-1.0
aF-1.0
aF-1.0
asg10
(lp305
F0.0
aF0.004
aF0.012
asba(i__main__
sensor_data_struct
p306
(dp307
g3
(lp308
I743
aI381
aI268
aI1240
aI2487
aF163.0
aI1216
aI495
aI366
aI1858
aI2275
aF118.0
asg5
I0
sg6
(lp309
I231
aI-1
aI-1
aI108
aI-1
aI-1
asg8
(lp310
I22
aI-1
aI-1
aF-1.0
aF-1.0
aF-1.0
aI23
aI-1
aI-1
aF-1.0
aF-1.0
aF-1.0
asg10
(lp311
F0.001
aF-0.004
aF0.0
asba(i__main__
sensor_data_struct
p312
(dp313
g3
(lp314
I683
aI368
aI248
aI1180
aI2544
aF177.0
aI784
aI385
aI273
aI1289
aI2451
aF153.0
asg5
I1
sg6
(lp315
I37
aI-1
aI-1
aI67
aI-1
aI-1
asg8
(lp316
I32
aI-1
aI-1
aF-1.0
aF-1.0
aF-1.0
aI24
aI-1
aI-1
aF-1.0
aF-1.0
aF-1.0
asg10
(lp317
F-0.003
aF0.001
aF0.013999999999999999
asba(i__main__
sensor_data_struct
p318
(dp319
g3
(lp320
I581
aI337
aI216
aI1056
aI2635
aF185.0
aI822
aI441
aI284
aI1404
aI2471
aF221.0
asg5
I1
sg6
(lp321
I7
aI-1
aI-1
aI37
aI-1
aI-1
asg8
(lp322
I48
aI-1
aI-1
aF-1.0
aF-1.0
aF-1.0
aI34
aI-1
aI-1
aF-1.0
aF-1.0
aF-1.0
asg10
(lp323
F-0.001
aF-0.012
aF0.013999999999999999
asba(i__main__
sensor_data_struct
p324
(dp325
g3
(lp326
I677
aI367
aI247
aI1166
aI2537
aF178.0
aI1179
aI488
aI362
aI1807
aI2286
aF122.0
asg5
I0
sg6
(lp327
I140
aI-1
aI-1
aI107
aI-1
aI-1
asg8
(lp328
I22
aI-1
aI-1
aF-1.0
aF-1.0
aF-1.0
aI22
aI-1
aI-1
aF-1.0
aF-1.0
aF-1.0
asg10
(lp329
F-0.002
aF-0.005
aF0.002
asba(i__main__
sensor_data_struct
p330
(dp331
g3
(lp332
I619
aI350
aI229
aI1099
aI2594
aF183.0
aI1556
aI498
aI412
aI2235
aI2176
aF65516.0
asg5
I0
sg6
(lp333
I48
aI-1
aI-1
aI109
aI-1
aI-1
asg8
(lp334
I26
aI-1
aI-1
aF-1.0
aF-1.0
aF-1.0
aI23
aI-1
aI-1
aF-1.0
aF-1.0
aF-1.0
asg10
(lp335
F0.0
aF0.004
aF0.003
asba(i__main__
sensor_data_struct
p336
(dp337
g3
(lp338
I587
aI335
aI216
aI1060
aI2621
aF180.0
aI853
aI421
aI301
aI1384
aI2426
aF167.0
asg5
I0
sg6
(lp339
I298
aI-1
aI-1
aI119
aI-1
aI-1
asg8
(lp340
I32
aI-1
aI-1
aF-1.0
aF-1.0
aF-1.0
aI21
aI-1
aI-1
aF-1.0
aF-1.0
aF-1.0
asg10
(lp341
F0.002
aF-0.006
aF0.003
asba(i__main__
sensor_data_struct
p342
(dp343
g3
(lp344
I587
aI329
aI208
aI1065
aI2613
aF176.0
aI914
aI396
aI290
aI1451
aI2370
aF116.0
asg5
I1
sg6
(lp345
I36
aI-1
aI-1
aI70
aI-1
aI-1
asg8
(lp346
I29
aI-1
aI-1
aF-1.0
aF-1.0
aF-1.0
aI23
aI-1
aI-1
aF-1.0
aF-1.0
aF-1.0
asg10
(lp347
F0.0
aF0.004
aF0.013000000000000001
asba(i__main__
sensor_data_struct
p348
(dp349
g3
(lp350
I693
aI373
aI240
aI1217
aI2541
aF188.0
aI2279
aI597
aI545
aI3132
aI2106
aF65340.0
asg5
I1
sg6
(lp351
I20
aI-1
aI-1
aI36
aI-1
aI-1
asg8
(lp352
I36
aI-1
aI-1
aF-1.0
aF-1.0
aF-1.0
aI33
aI-1
aI-1
aF-1.0
aF-1.0
aF-1.0
asg10
(lp353
F0.004
aF0.006
aF0.006999999999999999
asba(i__main__
sensor_data_struct
p354
(dp355
g3
(lp356
I586
aI329
aI209
aI1063
aI2617
aF176.0
aI881
aI406
aI294
aI1410
aI2391
aF139.0
asg5
I0
sg6
(lp357
I255
aI-1
aI-1
aI111
aI-1
aI-1
asg8
(lp358
I29
aI-1
aI-1
aF-1.0
aF-1.0
aF-1.0
aI22
aI-1
aI-1
aF-1.0
aF-1.0
aF-1.0
asg10
(lp359
F0.0
aF-0.005
aF0.002
asba(i__main__
sensor_data_struct
p360
(dp361
g3
(lp362
I636
aI344
aI226
aI1118
aI2562
aF171.0
aI1137
aI473
aI345
aI1759
aI2296
aF124.0
asg5
I0
sg6
(lp363
I274
aI-1
aI-1
aI113
aI-1
aI-1
asg8
(lp364
I33
aI-1
aI-1
aF-1.0
aF-1.0
aF-1.0
aI24
aI-1
aI-1
aF-1.0
aF-1.0
aF-1.0
asg10
(lp365
F0.001
aF-0.006
aF0.002
asba(i__main__
sensor_data_struct
p366
(dp367
g3
(lp368
I589
aI334
aI213
aI1066
aI2615
aF180.0
aI951
aI421
aI308
aI1501
aI2358
aF130.0
asg5
I0
sg6
(lp369
I51
aI-1
aI-1
aI80
aI-1
aI-1
asg8
(lp370
I22
aI-1
aI-1
aF-1.0
aF-1.0
aF-1.0
aI22
aI-1
aI-1
aF-1.0
aF-1.0
aF-1.0
asg10
(lp371
F-0.001
aF0.001
aF0.011000000000000001
asba(i__main__
sensor_data_struct
p372
(dp373
g3
(lp374
I610
aI342
aI219
aI1096
aI2601
aF181.0
aI851
aI391
aI281
aI1370
aI2398
aF135.0
asg5
I0
sg6
(lp375
I44
aI-1
aI-1
aI100
aI-1
aI-1
asg8
(lp376
I13
aI-1
aI-1
aF-1.0
aF-1.0
aF-1.0
aI21
aI-1
aI-1
aF-1.0
aF-1.0
aF-1.0
asg10
(lp377
F-0.006
aF0.0
aF0.006999999999999999
asba(i__main__
sensor_data_struct
p378
(dp379
g3
(lp380
I618
aI342
aI219
aI1107
aI2588
aF178.0
aI768
aI375
aI264
aI1268
aI2453
aF149.0
asg5
I0
sg6
(lp381
I71
aI-1
aI-1
aI81
aI-1
aI-1
asg8
(lp382
I21
aI-1
aI-1
aF-1.0
aF-1.0
aF-1.0
aI22
aI-1
aI-1
aF-1.0
aF-1.0
aF-1.0
asg10
(lp383
F0.0
aF-0.003
aF0.011000000000000001
asba(i__main__
sensor_data_struct
p384
(dp385
g3
(lp386
I584
aI329
aI206
aI1065
aI2615
aF178.0
aI760
aI389
aI262
aI1282
aI2474
aF175.0
asg5
I1
sg6
(lp387
I19
aI-1
aI-1
aI79
aI-1
aI-1
asg8
(lp388
I45
aI-1
aI-1
aF-1.0
aF-1.0
aF-1.0
aI22
aI-1
aI-1
aF-1.0
aF-1.0
aF-1.0
asg10
(lp389
F-0.003
aF-0.011000000000000001
aF0.012
asba(i__main__
sensor_data_struct
p390
(dp391
g3
(lp392
I605
aI338
aI215
aI1091
aI2603
aF179.0
aI1138
aI469
aI349
aI1753
aI2302
aF115.0
asg5
I0
sg6
(lp393
I67
aI-1
aI-1
aI97
aI-1
aI-1
asg8
(lp394
I23
aI-1
aI-1
aF-1.0
aF-1.0
aF-1.0
aI22
aI-1
aI-1
aF-1.0
aF-1.0
aF-1.0
asg10
(lp395
F0.001
aF0.0
aF0.008
asba(i__main__
sensor_data_struct
p396
(dp397
g3
(lp398
I630
aI345
aI223
aI1120
aI2577
aF176.0
aI1161
aI469
aI350
aI1774
aI2280
aF107.0
asg5
I0
sg6
(lp399
I78
aI-1
aI-1
aI102
aI-1
aI-1
asg8
(lp400
I21
aI-1
aI-1
aF-1.0
aF-1.0
aF-1.0
aI22
aI-1
aI-1
aF-1.0
aF-1.0
aF-1.0
asg10
(lp401
F0.0
aF0.001
aF0.006999999999999999
asba(i__main__
sensor_data_struct
p402
(dp403
g3
(lp404
I617
aI339
aI219
aI1099
aI2582
aF174.0
aI1179
aI474
aI352
aI1802
aI2278
aF107.0
asg5
I0
sg6
(lp405
I80
aI-1
aI-1
aI108
aI-1
aI-1
asg8
(lp406
I26
aI-1
aI-1
aF-1.0
aF-1.0
aF-1.0
aI23
aI-1
aI-1
aF-1.0
aF-1.0
aF-1.0
asg10
(lp407
F0.003
aF-0.001
aF0.006
asba(i__main__
sensor_data_struct
p408
(dp409
g3
(lp410
I822
aI380
aI268
aI1345
aI2423
aF136.0
aI1522
aI529
aI415
aI2227
aI2194
aF37.0
asg5
I0
sg6
(lp411
I49
aI-1
aI-1
aI108
aI-1
aI-1
asg8
(lp412
I25
aI-1
aI-1
aF-1.0
aF-1.0
aF-1.0
aI24
aI-1
aI-1
aF-1.0
aF-1.0
aF-1.0
asg10
(lp413
F0.002
aF0.003
aF0.003
asba(i__main__
sensor_data_struct
p414
(dp415
g3
(lp416
I731
aI367
aI249
aI1244
aI2500
aF159.0
aI1559
aI492
aI405
aI2273
aI2205
aF65510.0
asg5
I1
sg6
(lp417
I46
aI-1
aI-1
aI51
aI-1
aI-1
asg8
(lp418
I40
aI-1
aI-1
aF-1.0
aF-1.0
aF-1.0
aI32
aI-1
aI-1
aF-1.0
aF-1.0
aF-1.0
asg10
(lp419
F0.001
aF0.008
aF0.01
asba(i__main__
sensor_data_struct
p420
(dp421
g3
(lp422
I678
aI358
aI236
aI1186
aI2549
aF172.0
aI755
aI365
aI255
aI1251
aI2452
aF144.0
asg5
I0
sg6
(lp423
I38
aI-1
aI-1
aI78
aI-1
aI-1
asg8
(lp424
I29
aI-1
aI-1
aF-1.0
aF-1.0
aF-1.0
aI22
aI-1
aI-1
aF-1.0
aF-1.0
aF-1.0
asg10
(lp425
F0.004
aF-0.002
aF0.012
asba(i__main__
sensor_data_struct
p426
(dp427
g3
(lp428
I822
aI416
aI273
aI1389
aI2452
aF189.0
aI824
aI372
aI261
aI1349
aI2415
aF128.0
asg5
I1
sg6
(lp429
I12
aI-1
aI-1
aI67
aI-1
aI-1
asg8
(lp430
I31
aI-1
aI-1
aF-1.0
aF-1.0
aF-1.0
aI24
aI-1
aI-1
aF-1.0
aF-1.0
aF-1.0
asg10
(lp431
F0.006999999999999999
aF0.002
aF0.013999999999999999
asba(i__main__
sensor_data_struct
p432
(dp433
g3
(lp434
I608
aI338
aI218
aI1085
aI2589
aF176.0
aI1049
aI486
aI339
aI1674
aI2350
aF178.0
asg5
I0
sg6
(lp435
I34
aI-1
aI-1
aI77
aI-1
aI-1
asg8
(lp436
I19
aI-1
aI-1
aF-1.0
aF-1.0
aF-1.0
aI19
aI-1
aI-1
aF-1.0
aF-1.0
aF-1.0
asg10
(lp437
F-0.006999999999999999
aF-0.003
aF0.011000000000000001
asba(i__main__
sensor_data_struct
p438
(dp439
g3
(lp440
I601
aI340
aI216
aI1087
aI2609
aF183.0
aI833
aI402
aI280
aI1374
aI2439
aF159.0
asg5
I0
sg6
(lp441
I24
aI-1
aI-1
aI88
aI-1
aI-1
asg8
(lp442
I15
aI-1
aI-1
aF-1.0
aF-1.0
aF-1.0
aI23
aI-1
aI-1
aF-1.0
aF-1.0
aF-1.0
asg10
(lp443
F-0.009000000000000001
aF0.002
aF0.009000000000000001
asba(i__main__
sensor_data_struct
p444
(dp445
g3
(lp446
I544
aI315
aI195
aI1010
aI2653
aF177.0
aI851
aI411
aI278
aI1412
aI2427
aF168.0
asg5
I1
sg6
(lp447
I14
aI-1
aI-1
aI69
aI-1
aI-1
asg8
(lp448
I32
aI-1
aI-1
aF-1.0
aF-1.0
aF-1.0
aI23
aI-1
aI-1
aF-1.0
aF-1.0
aF-1.0
asg10
(lp449
F0.011000000000000001
aF-0.002
aF0.013000000000000001
asba(i__main__
sensor_data_struct
p450
(dp451
g3
(lp452
I580
aI330
aI205
aI1067
aI2631
aF182.0
aI871
aI390
aI280
aI1406
aI2400
aF127.0
asg5
I0
sg6
(lp453
I72
aI-1
aI-1
aI100
aI-1
aI-1
asg8
(lp454
I26
aI-1
aI-1
aF-1.0
aF-1.0
aF-1.0
aI22
aI-1
aI-1
aF-1.0
aF-1.0
aF-1.0
asg10
(lp455
F0.005
aF-0.002
aF0.008
asba(i__main__
sensor_data_struct
p456
(dp457
g3
(lp458
I586
aI333
aI211
aI1065
aI2622
aF180.0
aI859
aI450
aI295
aI1461
aI2474
aF215.0
asg5
I1
sg6
(lp459
I14
aI-1
aI-1
aI38
aI-1
aI-1
asg8
(lp460
I48
aI-1
aI-1
aF-1.0
aF-1.0
aF-1.0
aI28
aI-1
aI-1
aF-1.0
aF-1.0
aF-1.0
asg10
(lp461
F-0.01
aF-0.003
aF0.013999999999999999
asba(i__main__
sensor_data_struct
p462
(dp463
g3
(lp464
I602
aI342
aI220
aI1088
aI2620
aF183.0
aI1218
aI529
aI369
aI1932
aI2328
aF169.0
asg5
I1
sg6
(lp465
I16
aI-1
aI-1
aI35
aI-1
aI-1
asg8
(lp466
I45
aI-1
aI-1
aF-1.0
aF-1.0
aF-1.0
aI33
aI-1
aI-1
aF-1.0
aF-1.0
aF-1.0
asg10
(lp467
F0.001
aF0.009000000000000001
aF0.015
asba(i__main__
sensor_data_struct
p468
(dp469
g3
(lp470
I696
aI387
aI250
aI1230
aI2566
aF201.0
aI1790
aI534
aI453
aI2540
aI2154
aF65467.0
asg5
I0
sg6
(lp471
I27
aI-1
aI-1
aI104
aI-1
aI-1
asg8
(lp472
I35
aI-1
aI-1
aF-1.0
aF-1.0
aF-1.0
aI24
aI-1
aI-1
aF-1.0
aF-1.0
aF-1.0
asg10
(lp473
F-0.001
aF0.006999999999999999
aF0.006
asba(i__main__
sensor_data_struct
p474
(dp475
g3
(lp476
I731
aI371
aI255
aI1236
aI2498
aF161.0
aI1281
aI516
aI381
aI1948
aI2260
aF119.0
asg5
I0
sg6
(lp477
I72
aI-1
aI-1
aI106
aI-1
aI-1
asg8
(lp478
I20
aI-1
aI-1
aF-1.0
aF-1.0
aF-1.0
aI23
aI-1
aI-1
aF-1.0
aF-1.0
aF-1.0
asg10
(lp479
F-0.003
aF0.001
aF0.005
asba(i__main__
sensor_data_struct
p480
(dp481
g3
(lp482
I572
aI332
aI209
aI1049
aI2639
aF185.0
aI707
aI380
aI244
aI1236
aI2528
aF191.0
asg5
I1
sg6
(lp483
I4
aI-1
aI-1
aI36
aI-1
aI-1
asg8
(lp484
I43
aI-1
aI-1
aF-1.0
aF-1.0
aF-1.0
aI38
aI-1
aI-1
aF-1.0
aF-1.0
aF-1.0
asg10
(lp485
F0.006
aF-0.008
aF0.015
asba(i__main__
sensor_data_struct
p486
(dp487
g3
(lp488
I590
aI338
aI214
aI1072
aI2619
aF185.0
aI899
aI435
aI301
aI1472
aI2415
aF174.0
asg5
I1
sg6
(lp489
I33
aI-1
aI-1
aI73
aI-1
aI-1
asg8
(lp490
I27
aI-1
aI-1
aF-1.0
aF-1.0
aF-1.0
aI22
aI-1
aI-1
aF-1.0
aF-1.0
aF-1.0
asg10
(lp491
F-0.006999999999999999
aF0.001
aF0.012
asba(i__main__
sensor_data_struct
p492
(dp493
g3
(lp494
I597
aI342
aI219
aI1081
aI2624
aF185.0
aI1106
aI470
aI350
aI1711
aI2317
aF126.0
asg5
I0
sg6
(lp495
I50
aI-1
aI-1
aI88
aI-1
aI-1
asg8
(lp496
I23
aI-1
aI-1
aF-1.0
aF-1.0
aF-1.0
aI19
aI-1
aI-1
aF-1.0
aF-1.0
aF-1.0
asg10
(lp497
F0.002
aF0.002
aF0.01
asba(i__main__
sensor_data_struct
p498
(dp499
g3
(lp500
I778
aI389
aI271
aI1302
aI2480
aF163.0
aI1414
aI540
aI412
aI2109
aI2232
aF91.0
asg5
I0
sg6
(lp501
I32
aI-1
aI-1
aI106
aI-1
aI-1
asg8
(lp502
I29
aI-1
aI-1
aF-1.0
aF-1.0
aF-1.0
aI21
aI-1
aI-1
aF-1.0
aF-1.0
aF-1.0
asg10
(lp503
F-0.002
aF0.006999999999999999
aF0.006
asba(i__main__
sensor_data_struct
p504
(dp505
g3
(lp506
I598
aI347
aI225
aI1079
aI2631
aF188.0
aI890
aI404
aI296
aI1420
aI2389
aF132.0
asg5
I0
sg6
(lp507
I101
aI-1
aI-1
aI108
aI-1
aI-1
asg8
(lp508
I29
aI-1
aI-1
aF-1.0
aF-1.0
aF-1.0
aI20
aI-1
aI-1
aF-1.0
aF-1.0
aF-1.0
asg10
(lp509
F0.004
aF-0.002
aF0.006999999999999999
asba(i__main__
sensor_data_struct
p510
(dp511
g3
(lp512
I660
aI350
aI231
aI1159
aI2560
aF169.0
aI1860
aI603
aI481
aI2713
aI2190
aF65532.0
asg5
I1
sg6
(lp513
I17
aI-1
aI-1
aI34
aI-1
aI-1
asg8
(lp514
I41
aI-1
aI-1
aF-1.0
aF-1.0
aF-1.0
aI34
aI-1
aI-1
aF-1.0
aF-1.0
aF-1.0
asg10
(lp515
F0.005
aF0.009000000000000001
aF0.011000000000000001
asba(i__main__
sensor_data_struct
p516
(dp517
g3
(lp518
I742
aI372
aI254
aI1261
aI2502
aF160.0
aI1377
aI514
aI391
aI2064
aI2238
aF78.0
asg5
I0
sg6
(lp519
I35
aI-1
aI-1
aI107
aI-1
aI-1
asg8
(lp520
I27
aI-1
aI-1
aF-1.0
aF-1.0
aF-1.0
aI22
aI-1
aI-1
aF-1.0
aF-1.0
aF-1.0
asg10
(lp521
F-0.003
aF0.006999999999999999
aF0.005
asba(i__main__
sensor_data_struct
p522
(dp523
g3
(lp524
I583
aI335
aI212
aI1062
aI2626
aF184.0
aI788
aI421
aI269
aI1359
aI2488
aF211.0
asg5
I1
sg6
(lp525
I14
aI-1
aI-1
aI32
aI-1
aI-1
asg8
(lp526
I48
aI-1
aI-1
aF-1.0
aF-1.0
aF-1.0
aI32
aI-1
aI-1
aF-1.0
aF-1.0
aF-1.0
asg10
(lp527
F-0.012
aF0.003
aF0.015
asba(i__main__
sensor_data_struct
p528
(dp529
g3
(lp530
I701
aI390
aI244
aI1250
aI2558
aF209.0
aI782
aI383
aI270
aI1294
aI2461
aF153.0
asg5
I0
sg6
(lp531
I37
aI-1
aI-1
aI84
aI-1
aI-1
asg8
(lp532
I14
aI-1
aI-1
aF-1.0
aF-1.0
aF-1.0
aI21
aI-1
aI-1
aF-1.0
aF-1.0
aF-1.0
asg10
(lp533
F-0.006
aF0.0
aF0.01
asba(i__main__
sensor_data_struct
p534
(dp535
g3
(lp536
I741
aI365
aI251
aI1247
aI2479
aF151.0
aI1338
aI498
aI378
aI2004
aI2234
aF74.0
asg5
I0
sg6
(lp537
I93
aI-1
aI-1
aI114
aI-1
aI-1
asg8
(lp538
I24
aI-1
aI-1
aF-1.0
aF-1.0
aF-1.0
aI24
aI-1
aI-1
aF-1.0
aF-1.0
aF-1.0
asg10
(lp539
F0.002
aF0.002
aF0.003
asba(i__main__
sensor_data_struct
p540
(dp541
g3
(lp542
I595
aI337
aI215
aI1077
aI2615
aF181.0
aI845
aI393
aI284
aI1362
aI2407
aF138.0
asg5
I0
sg6
(lp543
I59
aI-1
aI-1
aI104
aI-1
aI-1
asg8
(lp544
I15
aI-1
aI-1
aF-1.0
aF-1.0
aF-1.0
aI21
aI-1
aI-1
aF-1.0
aF-1.0
aF-1.0
asg10
(lp545
F-0.005
aF0.0
aF0.005
asba(i__main__
sensor_data_struct
p546
(dp547
g3
(lp548
I631
aI349
aI227
aI1122
aI2587
aF179.0
aI883
aI404
aI293
aI1411
aI2387
aF136.0
asg5
I0
sg6
(lp549
I56
aI-1
aI-1
aI102
aI-1
aI-1
asg8
(lp550
I15
aI-1
aI-1
aF-1.0
aF-1.0
aF-1.0
aI22
aI-1
aI-1
aF-1.0
aF-1.0
aF-1.0
asg10
(lp551
F-0.005
aF0.001
aF0.006
asba(i__main__
sensor_data_struct
p552
(dp553
g3
(lp554
I644
aI360
aI238
aI1138
aI2588
aF184.0
aI748
aI389
aI274
aI1247
aI2489
aF170.0
asg5
I0
sg6
(lp555
I31
aI-1
aI-1
aI86
aI-1
aI-1
asg8
(lp556
I19
aI-1
aI-1
aF-1.0
aF-1.0
aF-1.0
aI22
aI-1
aI-1
aF-1.0
aF-1.0
aF-1.0
asg10
(lp557
F-0.008
aF-0.004
aF0.01
asba(i__main__
sensor_data_struct
p558
(dp559
g3
(lp560
I680
aI359
aI240
aI1177
aI2535
aF170.0
aI1186
aI513
aI373
aI1834
aI2297
aF151.0
asg5
I0
sg6
(lp561
I58
aI-1
aI-1
aI92
aI-1
aI-1
asg8
(lp562
I20
aI-1
aI-1
aF-1.0
aF-1.0
aF-1.0
aI21
aI-1
aI-1
aF-1.0
aF-1.0
aF-1.0
asg10
(lp563
F-0.002
aF0.001
aF0.009000000000000001
asba(i__main__
sensor_data_struct
p564
(dp565
g3
(lp566
I605
aI345
aI224
aI1083
aI2608
aF184.0
aI987
aI482
aI333
aI1596
aI2382
aF196.0
asg5
I1
sg6
(lp567
I29
aI-1
aI-1
aI73
aI-1
aI-1
asg8
(lp568
I42
aI-1
aI-1
aF-1.0
aF-1.0
aF-1.0
aI22
aI-1
aI-1
aF-1.0
aF-1.0
aF-1.0
asg10
(lp569
F-0.006
aF-0.009000000000000001
aF0.013000000000000001
asba(i__main__
sensor_data_struct
p570
(dp571
g3
(lp572
I691
aI380
aI247
aI1211
aI2549
aF194.0
aI688
aI373
aI251
aI1183
aI2532
aF181.0
asg5
I1
sg6
(lp573
I19
aI-1
aI-1
aI62
aI-1
aI-1
asg8
(lp574
I44
aI-1
aI-1
aF-1.0
aF-1.0
aF-1.0
aI27
aI-1
aI-1
aF-1.0
aF-1.0
aF-1.0
asg10
(lp575
F-0.009000000000000001
aF-0.009000000000000001
aF0.013999999999999999
asba(i__main__
sensor_data_struct
p576
(dp577
g3
(lp578
I590
aI342
aI218
aI1072
aI2628
aF188.0
aI2269
aI615
aI555
aI3139
aI2119
aF65364.0
asg5
I0
sg6
(lp579
I28
aI-1
aI-1
aI106
aI-1
aI-1
asg8
(lp580
I33
aI-1
aI-1
aF-1.0
aF-1.0
aF-1.0
aI23
aI-1
aI-1
aF-1.0
aF-1.0
aF-1.0
asg10
(lp581
F0.001
aF0.005
aF0.002
asba(i__main__
sensor_data_struct
p582
(dp583
g3
(lp584
I623
aI346
aI225
aI1113
aI2600
aF179.0
aI661
aI350
aI233
aI1150
aI2545
aF167.0
asg5
I1
sg6
(lp585
I20
aI-1
aI-1
aI64
aI-1
aI-1
asg8
(lp586
I37
aI-1
aI-1
aF-1.0
aF-1.0
aF-1.0
aI26
aI-1
aI-1
aF-1.0
aF-1.0
aF-1.0
asg10
(lp587
F0.005
aF-0.005
aF0.015
asba(i__main__
sensor_data_struct
p588
(dp589
g3
(lp590
I798
aI381
aI267
aI1319
aI2448
aF146.0
aI1350
aI524
aI393
aI2035
aI2246
aF101.0
asg5
I0
sg6
(lp591
I47
aI-1
aI-1
aI107
aI-1
aI-1
asg8
(lp592
I21
aI-1
aI-1
aF-1.0
aF-1.0
aF-1.0
aI21
aI-1
aI-1
aF-1.0
aF-1.0
aF-1.0
asg10
(lp593
F-0.002
aF0.004
aF0.005
asba(i__main__
sensor_data_struct
p594
(dp595
g3
(lp596
I629
aI343
aI224
aI1116
aI2581
aF173.0
aI1142
aI496
aI355
aI1782
aI2309
aF152.0
asg5
I0
sg6
(lp597
I36
aI-1
aI-1
aI82
aI-1
aI-1
asg8
(lp598
I29
aI-1
aI-1
aF-1.0
aF-1.0
aF-1.0
aI22
aI-1
aI-1
aF-1.0
aF-1.0
aF-1.0
asg10
(lp599
F0.005
aF0.002
aF0.011000000000000001
asba(i__main__
sensor_data_struct
p600
(dp601
g3
(lp602
I571
aI327
aI206
aI1047
aI2639
aF179.0
aI951
aI465
aI312
aI1565
aI2402
aF196.0
asg5
I1
sg6
(lp603
I9
aI-1
aI-1
aI59
aI-1
aI-1
asg8
(lp604
I32
aI-1
aI-1
aF-1.0
aF-1.0
aF-1.0
aI29
aI-1
aI-1
aF-1.0
aF-1.0
aF-1.0
asg10
(lp605
F0.012
aF0.0
aF0.015
asba.