(lp0
(i__main__
sensor_data_struct
p1
(dp2
S'color'
p3
(lp4
I547
aI315
aI195
aI1001
aI2616
aF176.0
aI1053
aI451
aI321
aI1661
aI2328
aF135.0
asS'button'
p5
I1
sS'IR'
p6
(lp7
I21
aI-1
aI-1
aI65
aI-1
aI-1
asS'TOF'
p8
(lp9
I36
aI-1
aI-1
aF-1.0
aF-1.0
aF-1.0
aI24
aI-1
aI-1
aF-1.0
aF-1.0
aF-1.0
asS'pt'
p10
(lp11
F0.004
aF0.006
aF0.013999999999999999
asba(i__main__
sensor_data_struct
p12
(dp13
g3
(lp14
I587
aI329
aI205
aI1063
aI2592
aF178.0
aI662
aI353
aI227
aI1158
aI2527
aF176.0
asg5
I1
sg6
(lp15
I8
aI-1
aI-1
aI47
aI-1
aI-1
asg8
(lp16
I51
aI-1
aI-1
aF-1.0
aF-1.0
aF-1.0
aI33
aI-1
aI-1
aF-1.0
aF-1.0
aF-1.0
asg10
(lp17
F0.005
aF-0.008
aF0.013999999999999999
asba(i__main__
sensor_data_struct
p18
(dp19
g3
(lp20
I601
aI332
aI208
aI1081
aI2578
aF176.0
aI1193
aI444
aI338
aI1807
aI2263
aF66.0
asg5
I0
sg6
(lp21
I80
aI-1
aI-1
aI113
aI-1
aI-1
asg8
(lp22
I26
aI-1
aI-1
aF-1.0
aF-1.0
aF-1.0
aI24
aI-1
aI-1
aF-1.0
aF-1.0
aF-1.0
asg10
(lp23
F0.005
aF0.001
aF0.004
asba(i__main__
sensor_data_struct
p24
(dp25
g3
(lp26
I602
aI333
aI210
aI1076
aI2571
aF176.0
aI1016
aI422
aI304
aI1592
aI2318
aF113.0
asg5
I0
sg6
(lp27
I38
aI-1
aI-1
aI98
aI-1
aI-1
asg8
(lp28
I16
aI-1
aI-1
aF-1.0
aF-1.0
aF-1.0
aI24
aI-1
aI-1
aF-1.0
aF-1.0
aF-1.0
asg10
(lp29
F-0.004
aF0.002
aF0.004
asba(i__main__
sensor_data_struct
p30
(dp31
g3
(lp32
I587
aI328
aI204
aI1058
aI2581
aF177.0
aI711
aI372
aI242
aI1220
aI2489
aF179.0
asg5
I1
sg6
(lp33
I14
aI-1
aI-1
aI57
aI-1
aI-1
asg8
(lp34
I55
aI-1
aI-1
aF-1.0
aF-1.0
aF-1.0
aI26
aI-1
aI-1
aF-1.0
aF-1.0
aF-1.0
asg10
(lp35
F-0.008
aF-0.01
aF0.015
asba(i__main__
sensor_data_struct
p36
(dp37
g3
(lp38
I596
aI334
aI209
aI1072
aI2582
aF180.0
aI932
aI416
aI292
aI1493
aI2362
aF140.0
asg5
I0
sg6
(lp39
I25
aI-1
aI-1
aI94
aI-1
aI-1
asg8
(lp40
I13
aI-1
aI-1
aF-1.0
aF-1.0
aF-1.0
aI22
aI-1
aI-1
aF-1.0
aF-1.0
aF-1.0
asg10
(lp41
F-0.006999999999999999
aF0.004
aF0.006
asba(i__main__
sensor_data_struct
p42
(dp43
g3
(lp44
I587
aI330
aI206
aI1059
aI2585
aF179.0
aI1074
aI426
aI321
aI1651
aI2300
aF88.0
asg5
I0
sg6
(lp45
I79
aI-1
aI-1
aI103
aI-1
aI-1
asg8
(lp46
I22
aI-1
aI-1
aF-1.0
aF-1.0
aF-1.0
aI23
aI-1
aI-1
aF-1.0
aF-1.0
aF-1.0
asg10
(lp47
F0.0
aF0.001
aF0.005
asba(i__main__
sensor_data_struct
p48
(dp49
g3
(lp50
I622
aI340
aI216
aI1106
aI2561
aF176.0
aI705
aI369
aI243
aI1208
aI2497
aF175.0
asg5
I1
sg6
(lp51
I16
aI-1
aI-1
aI64
aI-1
aI-1
asg8
(lp52
I50
aI-1
aI-1
aF-1.0
aF-1.0
aF-1.0
aI24
aI-1
aI-1
aF-1.0
aF-1.0
aF-1.0
asg10
(lp53
F-0.004
aF-0.006999999999999999
aF0.013999999999999999
asba(i__main__
sensor_data_struct
p54
(dp55
g3
(lp56
I692
aI356
aI234
aI1191
aI2503
aF165.0
aI1290
aI513
aI377
aI1971
aI2268
aF114.0
asg5
I0
sg6
(lp57
I22
aI-1
aI-1
aI83
aI-1
aI-1
asg8
(lp58
I43
aI-1
aI-1
aF-1.0
aF-1.0
aF-1.0
aI21
aI-1
aI-1
aF-1.0
aF-1.0
aF-1.0
asg10
(lp59
F0.001
aF0.009000000000000001
aF0.01
asba(i__main__
sensor_data_struct
p60
(dp61
g3
(lp62
I640
aI345
aI225
aI1122
aI2548
aF172.0
aI1127
aI463
aI336
aI1743
aI2292
aF118.0
asg5
I0
sg6
(lp63
I81
aI-1
aI-1
aI105
aI-1
aI-1
asg8
(lp64
I20
aI-1
aI-1
aF-1.0
aF-1.0
aF-1.0
aI21
aI-1
aI-1
aF-1.0
aF-1.0
aF-1.0
asg10
(lp65
F-0.003
aF-0.003
aF0.003
asba(i__main__
sensor_data_struct
p66
(dp67
g3
(lp68
I588
aI329
aI206
aI1063
aI2592
aF177.0
aI1519
aI541
aI407
aI2284
aI2234
aF62.0
asg5
I1
sg6
(lp69
I13
aI-1
aI-1
aI33
aI-1
aI-1
asg8
(lp70
I41
aI-1
aI-1
aF-1.0
aF-1.0
aF-1.0
aI37
aI-1
aI-1
aF-1.0
aF-1.0
aF-1.0
asg10
(lp71
F0.006999999999999999
aF0.008
aF0.012
asba(i__main__
sensor_data_struct
p72
(dp73
g3
(lp74
I600
aI332
aI208
aI1080
aI2580
aF176.0
aI1040
aI460
aI324
aI1648
aI2335
aF151.0
asg5
I0
sg6
(lp75
I52
aI-1
aI-1
aI87
aI-1
aI-1
asg8
(lp76
I28
aI-1
aI-1
aF-1.0
aF-1.0
aF-1.0
aI23
aI-1
aI-1
aF-1.0
aF-1.0
aF-1.0
asg10
(lp77
F0.006
aF0.0
aF0.01
asba(i__main__
sensor_data_struct
p78
(dp79
g3
(lp80
I579
aI325
aI200
aI1055
aI2599
aF178.0
aI794
aI401
aI266
aI1334
aI2449
aF180.0
asg5
I1
sg6
(lp81
I80
aI-1
aI-1
aI137
aI-1
aI-1
asg8
(lp82
I40
aI-1
aI-1
aF-1.0
aF-1.0
aF-1.0
aI37
aI-1
aI-1
aF-1.0
aF-1.0
aF-1.0
asg10
(lp83
F0.006999999999999999
aF-0.006
aF0.008
asba(i__main__
sensor_data_struct
p84
(dp85
g3
(lp86
I590
aI331
aI203
aI1074
aI2591
aF182.0
aI961
aI411
aI292
aI1532
aI2353
aF122.0
asg5
I1
sg6
(lp87
I18
aI-1
aI-1
aI65
aI-1
aI-1
asg8
(lp88
I33
aI-1
aI-1
aF-1.0
aF-1.0
aF-1.0
aI25
aI-1
aI-1
aF-1.0
aF-1.0
aF-1.0
asg10
(lp89
F0.006
aF0.005
aF0.013999999999999999
asba(i__main__
sensor_data_struct
p90
(dp91
g3
(lp92
I669
aI353
aI230
aI1163
aI2524
aF171.0
aI1169
aI491
aI353
aI1812
aI2292
aF137.0
asg5
I0
sg6
(lp93
I29
aI-1
aI-1
aI84
aI-1
aI-1
asg8
(lp94
I24
aI-1
aI-1
aF-1.0
aF-1.0
aF-1.0
aI22
aI-1
aI-1
aF-1.0
aF-1.0
aF-1.0
asg10
(lp95
F-0.005
aF0.009000000000000001
aF0.009000000000000001
asba(i__main__
sensor_data_struct
p96
(dp97
g3
(lp98
I621
aI339
aI217
aI1103
aI2565
aF174.0
aI1130
aI487
aI348
aI1762
aI2305
aF147.0
asg5
I0
sg6
(lp99
I43
aI-1
aI-1
aI87
aI-1
aI-1
asg8
(lp100
I22
aI-1
aI-1
aF-1.0
aF-1.0
aF-1.0
aI23
aI-1
aI-1
aF-1.0
aF-1.0
aF-1.0
asg10
(lp101
F-0.001
aF0.002
aF0.01
asba(i__main__
sensor_data_struct
p102
(dp103
g3
(lp104
I629
aI344
aI219
aI1118
aI2562
aF178.0
aI873
aI412
aI290
aI1414
aI2399
aF154.0
asg5
I0
sg6
(lp105
I66
aI-1
aI-1
aI90
aI-1
aI-1
asg8
(lp106
I19
aI-1
aI-1
aF-1.0
aF-1.0
aF-1.0
aI24
aI-1
aI-1
aF-1.0
aF-1.0
aF-1.0
asg10
(lp107
F-0.002
aF-0.001
aF0.009000000000000001
asba(i__main__
sensor_data_struct
p108
(dp109
g3
(lp110
I614
aI333
aI210
aI1095
aI2560
aF172.0
aI1102
aI478
aI340
aI1723
aI2309
aF147.0
asg5
I0
sg6
(lp111
I119
aI-1
aI-1
aI109
aI-1
aI-1
asg8
(lp112
I39
aI-1
aI-1
aF-1.0
aF-1.0
aF-1.0
aI23
aI-1
aI-1
aF-1.0
aF-1.0
aF-1.0
asg10
(lp113
F0.006999999999999999
aF-0.004
aF0.006999999999999999
asba(i__main__
sensor_data_struct
p114
(dp115
g3
(lp116
I637
aI344
aI216
aI1132
aI2549
aF178.0
aI658
aI342
aI222
aI1147
aI2526
aF163.0
asg5
I1
sg6
(lp117
I9
aI-1
aI-1
aI62
aI-1
aI-1
asg8
(lp118
I38
aI-1
aI-1
aF-1.0
aF-1.0
aF-1.0
aI28
aI-1
aI-1
aF-1.0
aF-1.0
aF-1.0
asg10
(lp119
F0.011000000000000001
aF-0.003
aF0.013999999999999999
asba(i__main__
sensor_data_struct
p120
(dp121
g3
(lp122
I598
aI334
aI209
aI1077
aI2582
aF180.0
aI1292
aI464
aI361
aI1932
aI2245
aF48.0
asg5
I0
sg6
(lp123
I53
aI-1
aI-1
aI99
aI-1
aI-1
asg8
(lp124
I22
aI-1
aI-1
aF-1.0
aF-1.0
aF-1.0
aI24
aI-1
aI-1
aF-1.0
aF-1.0
aF-1.0
asg10
(lp125
F0.001
aF0.004
aF0.006
asba(i__main__
sensor_data_struct
p126
(dp127
g3
(lp128
I665
aI354
aI229
aI1162
aI2530
aF175.0
aI1378
aI464
aI367
aI2053
aI2237
aF16.0
asg5
I1
sg6
(lp129
I21
aI-1
aI-1
aI37
aI-1
aI-1
asg8
(lp130
I42
aI-1
aI-1
aF-1.0
aF-1.0
aF-1.0
aI31
aI-1
aI-1
aF-1.0
aF-1.0
aF-1.0
asg10
(lp131
F0.0
aF0.01
aF0.011000000000000001
asba(i__main__
sensor_data_struct
p132
(dp133
g3
(lp134
I558
aI317
aI194
aI1026
aI2618
aF177.0
aI888
aI458
aI285
aI1504
aI2416
aF226.0
asg5
I1
sg6
(lp135
I1
aI-1
aI-1
aI34
aI-1
aI-1
asg8
(lp136
I51
aI-1
aI-1
aF-1.0
aF-1.0
aF-1.0
aI34
aI-1
aI-1
aF-1.0
aF-1.0
aF-1.0
asg10
(lp137
F0.01
aF-0.006999999999999999
aF0.013999999999999999
asba(i__main__
sensor_data_struct
p138
(dp139
g3
(lp140
I687
aI378
aI228
aI1225
aI2522
aF206.0
aI647
aI349
aI227
aI1133
aI2542
aF174.0
asg5
I1
sg6
(lp141
I21
aI-1
aI-1
aI70
aI-1
aI-1
asg8
(lp142
I50
aI-1
aI-1
aF-1.0
aF-1.0
aF-1.0
aI24
aI-1
aI-1
aF-1.0
aF-1.0
aF-1.0
asg10
(lp143
F0.001
aF-0.009000000000000001
aF0.013000000000000001
asba(i__main__
sensor_data_struct
p144
(dp145
g3
(lp146
I607
aI337
aI211
aI1089
aI2572
aF180.0
aI1105
aI418
aI315
aI1683
aI2273
aF70.0
asg5
I0
sg6
(lp147
I59
aI-1
aI-1
aI97
aI-1
aI-1
asg8
(lp148
I19
aI-1
aI-1
aF-1.0
aF-1.0
aF-1.0
aI21
aI-1
aI-1
aF-1.0
aF-1.0
aF-1.0
asg10
(lp149
F-0.001
aF0.002
aF0.003
asba(i__main__
sensor_data_struct
p150
(dp151
g3
(lp152
I778
aI381
aI256
aI1304
aI2450
aF161.0
aI1027
aI417
aI314
aI1590
aI2320
aF94.0
asg5
I0
sg6
(lp153
I59
aI-1
aI-1
aI92
aI-1
aI-1
asg8
(lp154
I22
aI-1
aI-1
aF-1.0
aF-1.0
aF-1.0
aI25
aI-1
aI-1
aF-1.0
aF-1.0
aF-1.0
asg10
(lp155
F0.0
aF0.002
aF0.008
asba(i__main__
sensor_data_struct
p156
(dp157
g3
(lp158
I655
aI350
aI225
aI1149
aI2537
aF175.0
aI804
aI383
aI265
aI1322
aI2422
aF149.0
asg5
I0
sg6
(lp159
I30
aI-1
aI-1
aI76
aI-1
aI-1
asg8
(lp160
I20
aI-1
aI-1
aF-1.0
aF-1.0
aF-1.0
aI24
aI-1
aI-1
aF-1.0
aF-1.0
aF-1.0
asg10
(lp161
F-0.005
aF0.002
aF0.011000000000000001
asba(i__main__
sensor_data_struct
p162
(dp163
g3
(lp164
I631
aI346
aI220
aI1119
aI2555
aF180.0
aI1145
aI458
aI335
aI1760
aI2278
aF105.0
asg5
I0
sg6
(lp165
I31
aI-1
aI-1
aI95
aI-1
aI-1
asg8
(lp166
I17
aI-1
aI-1
aF-1.0
aF-1.0
aF-1.0
aI22
aI-1
aI-1
aF-1.0
aF-1.0
aF-1.0
asg10
(lp167
F-0.006
aF0.006
aF0.006
asba(i__main__
sensor_data_struct
p168
(dp169
g3
(lp170
I571
aI325
aI200
aI1042
aI2602
aF181.0
aI665
aI355
aI231
aI1156
aI2525
aF175.0
asg5
I1
sg6
(lp171
I20
aI-1
aI-1
aI66
aI-1
aI-1
asg8
(lp172
I53
aI-1
aI-1
aF-1.0
aF-1.0
aF-1.0
aI24
aI-1
aI-1
aF-1.0
aF-1.0
aF-1.0
asg10
(lp173
F-0.004
aF-0.012
aF0.013000000000000001
asba(i__main__
sensor_data_struct
p174
(dp175
g3
(lp176
I598
aI335
aI209
aI1078
aI2582
aF181.0
aI991
aI449
aI312
aI1588
aI2355
aF158.0
asg5
I1
sg6
(lp177
I29
aI-1
aI-1
aI64
aI-1
aI-1
asg8
(lp178
I39
aI-1
aI-1
aF-1.0
aF-1.0
aF-1.0
aI26
aI-1
aI-1
aF-1.0
aF-1.0
aF-1.0
asg10
(lp179
F0.0
aF0.005
aF0.013999999999999999
asba(i__main__
sensor_data_struct
p180
(dp181
g3
(lp182
I662
aI359
aI228
aI1167
aI2538
aF184.0
aI1052
aI416
aI309
aI1628
aI2306
aF88.0
asg5
I0
sg6
(lp183
I30
aI-1
aI-1
aI87
aI-1
aI-1
asg8
(lp184
I24
aI-1
aI-1
aF-1.0
aF-1.0
aF-1.0
aI23
aI-1
aI-1
aF-1.0
aF-1.0
aF-1.0
asg10
(lp185
F-0.004
aF0.006999999999999999
aF0.009000000000000001
asba(i__main__
sensor_data_struct
p186
(dp187
g3
(lp188
I575
aI323
aI199
aI1047
aI2596
aF177.0
aI831
aI419
aI273
aI1393
aI2425
aF191.0
asg5
I1
sg6
(lp189
I44
aI-1
aI-1
aI80
aI-1
aI-1
asg8
(lp190
I46
aI-1
aI-1
aF-1.0
aF-1.0
aF-1.0
aI39
aI-1
aI-1
aF-1.0
aF-1.0
aF-1.0
asg10
(lp191
F0.005
aF-0.006999999999999999
aF0.011000000000000001
asba(i__main__
sensor_data_struct
p192
(dp193
g3
(lp194
I595
aI334
aI207
aI1074
aI2579
aF182.0
aI923
aI439
aI300
aI1501
aI2385
aF173.0
asg5
I1
sg6
(lp195
I25
aI-1
aI-1
aI72
aI-1
aI-1
asg8
(lp196
I39
aI-1
aI-1
aF-1.0
aF-1.0
aF-1.0
aI23
aI-1
aI-1
aF-1.0
aF-1.0
aF-1.0
asg10
(lp197
F-0.006
aF-0.003
aF0.012
asba(i__main__
sensor_data_struct
p198
(dp199
g3
(lp200
I624
aI341
aI217
aI1108
aI2559
aF176.0
aI1039
aI423
aI311
aI1613
aI2308
aF102.0
asg5
I0
sg6
(lp201
I122
aI-1
aI-1
aI103
aI-1
aI-1
asg8
(lp202
I23
aI-1
aI-1
aF-1.0
aF-1.0
aF-1.0
aI24
aI-1
aI-1
aF-1.0
aF-1.0
aF-1.0
asg10
(lp203
F0.001
aF-0.001
aF0.001
asba(i__main__
sensor_data_struct
p204
(dp205
g3
(lp206
I635
aI343
aI219
aI1123
aI2550
aF174.0
aI704
aI365
aI246
aI1197
aI2495
aF167.0
asg5
I1
sg6
(lp207
I61
aI-1
aI-1
aI83
aI-1
aI-1
asg8
(lp208
I33
aI-1
aI-1
aF-1.0
aF-1.0
aF-1.0
aI22
aI-1
aI-1
aF-1.0
aF-1.0
aF-1.0
asg10
(lp209
F0.003
aF-0.006
aF0.011000000000000001
asba(i__main__
sensor_data_struct
p210
(dp211
g3
(lp212
I600
aI334
aI207
aI1085
aI2583
aF180.0
aI721
aI374
aI251
aI1223
aI2487
aF172.0
asg5
I0
sg6
(lp213
I40
aI-1
aI-1
aI83
aI-1
aI-1
asg8
(lp214
I46
aI-1
aI-1
aF-1.0
aF-1.0
aF-1.0
aI23
aI-1
aI-1
aF-1.0
aF-1.0
aF-1.0
asg10
(lp215
F-0.002
aF-0.01
aF0.011000000000000001
asba(i__main__
sensor_data_struct
p216
(dp217
g3
(lp218
I669
aI354
aI230
aI1165
aI2524
aF173.0
aI1161
aI491
aI354
aI1797
aI2292
aF138.0
asg5
I0
sg6
(lp219
I59
aI-1
aI-1
aI93
aI-1
aI-1
asg8
(lp220
I18
aI-1
aI-1
aF-1.0
aF-1.0
aF-1.0
aI23
aI-1
aI-1
aF-1.0
aF-1.0
aF-1.0
asg10
(lp221
F-0.002
aF0.0
aF0.008
asba(i__main__
sensor_data_struct
p222
(dp223
g3
(lp224
I616
aI342
aI215
aI1102
aI2571
aF182.0
aI885
aI431
aI289
aI1459
aI2404
aF181.0
asg5
I1
sg6
(lp225
I25
aI-1
aI-1
aI57
aI-1
aI-1
asg8
(lp226
I39
aI-1
aI-1
aF-1.0
aF-1.0
aF-1.0
aI29
aI-1
aI-1
aF-1.0
aF-1.0
aF-1.0
asg10
(lp227
F-0.006
aF0.001
aF0.015
asba(i__main__
sensor_data_struct
p228
(dp229
g3
(lp230
I634
aI348
aI221
aI1126
aI2560
aF181.0
aI1019
aI476
aI325
aI1639
aI2354
aF182.0
asg5
I1
sg6
(lp231
I30
aI-1
aI-1
aI62
aI-1
aI-1
asg8
(lp232
I36
aI-1
aI-1
aF-1.0
aF-1.0
aF-1.0
aI25
aI-1
aI-1
aF-1.0
aF-1.0
aF-1.0
asg10
(lp233
F-0.005
aF0.001
aF0.013999999999999999
asba(i__main__
sensor_data_struct
p234
(dp235
g3
(lp236
I583
aI329
aI203
aI1062
aI2601
aF181.0
aI946
aI406
aI293
aI1499
aI2351
aF119.0
asg5
I0
sg6
(lp237
I127
aI-1
aI-1
aI127
aI-1
aI-1
asg8
(lp238
I31
aI-1
aI-1
aF-1.0
aF-1.0
aF-1.0
aI24
aI-1
aI-1
aF-1.0
aF-1.0
aF-1.0
asg10
(lp239
F0.006999999999999999
aF-0.002
aF0.004
asba(i__main__
sensor_data_struct
p240
(dp241
g3
(lp242
I585
aI329
aI204
aI1061
aI2594
aF180.0
aI817
aI384
aI273
aI1324
aI2407
aF141.0
asg5
I0
sg6
(lp243
I104
aI-1
aI-1
aI106
aI-1
aI-1
asg8
(lp244
I21
aI-1
aI-1
aF-1.0
aF-1.0
aF-1.0
aI24
aI-1
aI-1
aF-1.0
aF-1.0
aF-1.0
asg10
(lp245
F-0.002
aF-0.004
aF0.003
asba(i__main__
sensor_data_struct
p246
(dp247
g3
(lp248
I640
aI347
aI222
aI1129
aI2546
aF177.0
aI774
aI387
aI262
aI1293
aI2449
aF167.0
asg5
I1
sg6
(lp249
I43
aI-1
aI-1
aI68
aI-1
aI-1
asg8
(lp250
I32
aI-1
aI-1
aF-1.0
aF-1.0
aF-1.0
aI23
aI-1
aI-1
aF-1.0
aF-1.0
aF-1.0
asg10
(lp251
F-0.001
aF-0.003
aF0.013000000000000001
asba(i__main__
sensor_data_struct
p252
(dp253
g3
(lp254
I622
aI340
aI215
aI1109
aI2563
aF177.0
aI1241
aI475
aI357
aI1882
aI2262
aF85.0
asg5
I0
sg6
(lp255
I48
aI-1
aI-1
aI103
aI-1
aI-1
asg8
(lp256
I29
aI-1
aI-1
aF-1.0
aF-1.0
aF-1.0
aI22
aI-1
aI-1
aF-1.0
aF-1.0
aF-1.0
asg10
(lp257
F0.006
aF0.002
aF0.006
asba(i__main__
sensor_data_struct
p258
(dp259
g3
(lp260
I589
aI332
aI207
aI1065
aI2592
aF181.0
aI832
aI402
aI277
aI1364
aI2415
aF161.0
asg5
I0
sg6
(lp261
I29
aI-1
aI-1
aI81
aI-1
aI-1
asg8
(lp262
I19
aI-1
aI-1
aF-1.0
aF-1.0
aF-1.0
aI23
aI-1
aI-1
aF-1.0
aF-1.0
aF-1.0
asg10
(lp263
F-0.006
aF-0.001
aF0.01
asba(i__main__
sensor_data_struct
p264
(dp265
g3
(lp266
I618
aI344
aI216
aI1107
aI2573
aF184.0
aI1107
aI425
aI322
aI1688
aI2280
aF75.0
asg5
I0
sg6
(lp267
I49
aI-1
aI-1
aI96
aI-1
aI-1
asg8
(lp268
I21
aI-1
aI-1
aF-1.0
aF-1.0
aF-1.0
aI23
aI-1
aI-1
aF-1.0
aF-1.0
aF-1.0
asg10
(lp269
F-0.001
aF0.003
aF0.006999999999999999
asba(i__main__
sensor_data_struct
p270
(dp271
g3
(lp272
I649
aI351
aI227
aI1143
aI2552
aF177.0
aI1573
aI565
aI426
aI2367
aI2238
aF69.0
asg5
I1
sg6
(lp273
I18
aI-1
aI-1
aI35
aI-1
aI-1
asg8
(lp274
I50
aI-1
aI-1
aF-1.0
aF-1.0
aF-1.0
aI34
aI-1
aI-1
aF-1.0
aF-1.0
aF-1.0
asg10
(lp275
F0.002
aF0.011000000000000001
aF0.013000000000000001
asba(i__main__
sensor_data_struct
p276
(dp277
g3
(lp278
I584
aI328
aI202
aI1063
aI2597
aF180.0
aI977
aI460
aI309
aI1588
aI2366
aF182.0
asg5
I1
sg6
(lp279
I12
aI-1
aI-1
aI62
aI-1
aI-1
asg8
(lp280
I31
aI-1
aI-1
aF-1.0
aF-1.0
aF-1.0
aI27
aI-1
aI-1
aF-1.0
aF-1.0
aF-1.0
asg10
(lp281
F0.011000000000000001
aF0.002
aF0.013999999999999999
asba(i__main__
sensor_data_struct
p282
(dp283
g3
(lp284
I590
aI332
aI207
aI1070
aI2599
aF180.0
aI829
aI388
aI277
aI1341
aI2408
aF140.0
asg5
I0
sg6
(lp285
I127
aI-1
aI-1
aI106
aI-1
aI-1
asg8
(lp286
I23
aI-1
aI-1
aF-1.0
aF-1.0
aF-1.0
aI24
aI-1
aI-1
aF-1.0
aF-1.0
aF-1.0
asg10
(lp287
F-0.001
aF-0.002
aF0.003
asba(i__main__
sensor_data_struct
p288
(dp289
g3
(lp290
I719
aI364
aI245
aI1217
aI2481
aF161.0
aI1245
aI486
aI357
aI1894
aI2253
aF101.0
asg5
I0
sg6
(lp291
I174
aI-1
aI-1
aI106
aI-1
aI-1
asg8
(lp292
I25
aI-1
aI-1
aF-1.0
aF-1.0
aF-1.0
aI25
aI-1
aI-1
aF-1.0
aF-1.0
aF-1.0
asg10
(lp293
F0.002
aF-0.001
aF0.002
asba(i__main__
sensor_data_struct
p294
(dp295
g3
(lp296
I593
aI332
aI206
aI1074
aI2591
aF180.0
aI826
aI408
aI279
aI1362
aI2425
aF171.0
asg5
I0
sg6
(lp297
I45
aI-1
aI-1
aI90
aI-1
aI-1
asg8
(lp298
I44
aI-1
aI-1
aF-1.0
aF-1.0
aF-1.0
aI23
aI-1
aI-1
aF-1.0
aF-1.0
aF-1.0
asg10
(lp299
F-0.003
aF-0.01
aF0.01
asba(i__main__
sensor_data_struct
p300
(dp301
g3
(lp302
I602
aI335
aI209
aI1085
aI2583
aF180.0
aI996
aI448
aI320
aI1573
aI2342
aF149.0
asg5
I0
sg6
(lp303
I139
aI-1
aI-1
aI109
aI-1
aI-1
asg8
(lp304
I32
aI-1
aI-1
aF-1.0
aF-1.0
aF-1.0
aI24
aI-1
aI-1
aF-1.0
aF-1.0
aF-1.0
asg10
(lp305
F0.003
aF-0.005
aF0.006
asba(i__main__
sensor_data_struct
p306
(dp307
g3
(lp308
I612
aI339
aI212
aI1098
aI2573
aF181.0
aI949
aI396
aI291
aI1485
aI2332
aF103.0
asg5
I0
sg6
(lp309
I122
aI-1
aI-1
aI105
aI-1
aI-1
asg8
(lp310
I22
aI-1
aI-1
aF-1.0
aF-1.0
aF-1.0
aI24
aI-1
aI-1
aF-1.0
aF-1.0
aF-1.0
asg10
(lp311
F0.001
aF-0.002
aF0.001
asba(i__main__
sensor_data_struct
p312
(dp313
g3
(lp314
I608
aI339
aI214
aI1091
aI2581
aF181.0
aI1878
aI555
aI474
aI2666
aI2158
aF65456.0
asg5
I0
sg6
(lp315
I24
aI-1
aI-1
aI92
aI-1
aI-1
asg8
(lp316
I35
aI-1
aI-1
aF-1.0
aF-1.0
aF-1.0
aI25
aI-1
aI-1
aF-1.0
aF-1.0
aF-1.0
asg10
(lp317
F0.003
aF0.006999999999999999
aF0.008
asba(i__main__
sensor_data_struct
p318
(dp319
g3
(lp320
I614
aI342
aI216
aI1100
aI2577
aF182.0
aI684
aI360
aI239
aI1175
aI2509
aF171.0
asg5
I1
sg6
(lp321
I18
aI-1
aI-1
aI74
aI-1
aI-1
asg8
(lp322
I28
aI-1
aI-1
aF-1.0
aF-1.0
aF-1.0
aI25
aI-1
aI-1
aF-1.0
aF-1.0
aF-1.0
asg10
(lp323
F-0.009000000000000001
aF-0.003
aF0.011000000000000001
asba(i__main__
sensor_data_struct
p324
(dp325
g3
(lp326
I636
aI345
aI222
aI1122
aI2554
aF175.0
aI1119
aI476
aI344
aI1734
aI2297
aF136.0
asg5
I0
sg6
(lp327
I108
aI-1
aI-1
aI105
aI-1
aI-1
asg8
(lp328
I23
aI-1
aI-1
aF-1.0
aF-1.0
aF-1.0
aI25
aI-1
aI-1
aF-1.0
aF-1.0
aF-1.0
asg10
(lp329
F0.0
aF-0.003
aF0.006
asba(i__main__
sensor_data_struct
p330
(dp331
g3
(lp332
I594
aI333
aI207
aI1073
aI2586
aF181.0
aI933
aI449
aI303
aI1520
aI2380
aF184.0
asg5
I1
sg6
(lp333
I22
aI-1
aI-1
aI66
aI-1
aI-1
asg8
(lp334
I48
aI-1
aI-1
aF-1.0
aF-1.0
aF-1.0
aI26
aI-1
aI-1
aF-1.0
aF-1.0
aF-1.0
asg10
(lp335
F-0.008
aF-0.009000000000000001
aF0.013000000000000001
asba(i__main__
sensor_data_struct
p336
(dp337
g3
(lp338
I603
aI336
aI211
aI1086
aI2585
aF180.0
aI1012
aI432
aI315
aI1582
aI2327
aF122.0
asg5
I0
sg6
(lp339
I144
aI-1
aI-1
aI108
aI-1
aI-1
asg8
(lp340
I23
aI-1
aI-1
aF-1.0
aF-1.0
aF-1.0
aI25
aI-1
aI-1
aF-1.0
aF-1.0
aF-1.0
asg10
(lp341
F0.002
aF-0.002
aF0.004
asba(i__main__
sensor_data_struct
p342
(dp343
g3
(lp344
I676
aI357
aI232
aI1177
aI2524
aF174.0
aI885
aI395
aI279
aI1428
aI2385
aF131.0
asg5
I1
sg6
(lp345
I23
aI-1
aI-1
aI58
aI-1
aI-1
asg8
(lp346
I46
aI-1
aI-1
aF-1.0
aF-1.0
aF-1.0
aI27
aI-1
aI-1
aF-1.0
aF-1.0
aF-1.0
asg10
(lp347
F0.0
aF0.006999999999999999
aF0.015
asba(i__main__
sensor_data_struct
p348
(dp349
g3
(lp350
I628
aI348
aI221
aI1121
aI2572
aF183.0
aI2039
aI584
aI508
aI2870
aI2145
aF65424.0
asg5
I0
sg6
(lp351
I34
aI-1
aI-1
aI99
aI-1
aI-1
asg8
(lp352
I30
aI-1
aI-1
aF-1.0
aF-1.0
aF-1.0
aI24
aI-1
aI-1
aF-1.0
aF-1.0
aF-1.0
asg10
(lp353
F0.003
aF0.006
aF0.005
asba(i__main__
sensor_data_struct
p354
(dp355
g3
(lp356
I587
aI329
aI205
aI1064
aI2597
aF178.0
aI904
aI431
aI306
aI1453
aI2388
aF162.0
asg5
I0
sg6
(lp357
I202
aI-1
aI-1
aI114
aI-1
aI-1
asg8
(lp358
I39
aI-1
aI-1
aF-1.0
aF-1.0
aF-1.0
aI26
aI-1
aI-1
aF-1.0
aF-1.0
aF-1.0
asg10
(lp359
F0.001
aF-0.006999999999999999
aF0.005
asba(i__main__
sensor_data_struct
p360
(dp361
g3
(lp362
I684
aI355
aI233
aI1176
aI2499
aF167.0
aI1174
aI464
aI339
aI1799
aI2268
aF103.0
asg5
I0
sg6
(lp363
I29
aI-1
aI-1
aI96
aI-1
aI-1
asg8
(lp364
I16
aI-1
aI-1
aF-1.0
aF-1.0
aF-1.0
aI23
aI-1
aI-1
aF-1.0
aF-1.0
aF-1.0
asg10
(lp365
F-0.005
aF0.003
aF0.002
asba(i__main__
sensor_data_struct
p366
(dp367
g3
(lp368
I656
aI352
aI226
aI1152
aI2537
aF177.0
aI1166
aI438
aI333
aI1776
aI2278
aF69.0
asg5
I1
sg6
(lp369
I29
aI-1
aI-1
aI75
aI-1
aI-1
asg8
(lp370
I35
aI-1
aI-1
aF-1.0
aF-1.0
aF-1.0
aI25
aI-1
aI-1
aF-1.0
aF-1.0
aF-1.0
asg10
(lp371
F0.0
aF0.006
aF0.011000000000000001
asba(i__main__
sensor_data_struct
p372
(dp373
g3
(lp374
I568
aI322
aI197
aI1040
aI2607
aF179.0
aI858
aI445
aI279
aI1456
aI2426
aF219.0
asg5
I1
sg6
(lp375
I4
aI-1
aI-1
aI43
aI-1
aI-1
asg8
(lp376
I55
aI-1
aI-1
aF-1.0
aF-1.0
aF-1.0
aI33
aI-1
aI-1
aF-1.0
aF-1.0
aF-1.0
asg10
(lp377
F0.006
aF-0.009000000000000001
aF0.015
asba(i__main__
sensor_data_struct
p378
(dp379
g3
(lp380
I612
aI342
aI209
aI1108
aI2576
aF188.0
aI877
aI399
aI285
aI1411
aI2388
aF136.0
asg5
I0
sg6
(lp381
I173
aI-1
aI-1
aI111
aI-1
aI-1
asg8
(lp382
I28
aI-1
aI-1
aF-1.0
aF-1.0
aF-1.0
aI24
aI-1
aI-1
aF-1.0
aF-1.0
aF-1.0
asg10
(lp383
F0.004
aF-0.003
aF0.005
asba(i__main__
sensor_data_struct
p384
(dp385
g3
(lp386
I591
aI330
aI205
aI1071
aI2593
aF178.0
aI1006
aI455
aI313
aI1614
aI2349
aF162.0
asg5
I1
sg6
(lp387
I18
aI-1
aI-1
aI69
aI-1
aI-1
asg8
(lp388
I30
aI-1
aI-1
aF-1.0
aF-1.0
aF-1.0
aI25
aI-1
aI-1
aF-1.0
aF-1.0
aF-1.0
asg10
(lp389
F0.009000000000000001
aF0.002
aF0.013000000000000001
asba(i__main__
sensor_data_struct
p390
(dp391
g3
(lp392
I590
aI334
aI207
aI1071
aI2595
aF184.0
aI874
aI416
aI283
aI1432
aI2400
aF165.0
asg5
I1
sg6
(lp393
I31
aI-1
aI-1
aI62
aI-1
aI-1
asg8
(lp394
I34
aI-1
aI-1
aF-1.0
aF-1.0
aF-1.0
aI25
aI-1
aI-1
aF-1.0
aF-1.0
aF-1.0
asg10
(lp395
F-0.003
aF0.002
aF0.013999999999999999
asba(i__main__
sensor_data_struct
p396
(dp397
g3
(lp398
I607
aI339
aI212
aI1091
aI2579
aF182.0
aI893
aI459
aI292
aI1501
aI2415
aF220.0
asg5
I1
sg6
(lp399
I14
aI-1
aI-1
aI32
aI-1
aI-1
asg8
(lp400
I27
aI-1
aI-1
aF-1.0
aF-1.0
aF-1.0
aI22
aI-1
aI-1
aF-1.0
aF-1.0
aF-1.0
asg10
(lp401
F-0.009000000000000001
aF-0.004
aF0.01
asba(i__main__
sensor_data_struct
p402
(dp403
g3
(lp404
I622
aI347
aI216
aI1116
aI2570
aF187.0
aI881
aI422
aI291
aI1436
aI2398
aF167.0
asg5
I0
sg6
(lp405
I26
aI-1
aI-1
aI84
aI-1
aI-1
asg8
(lp406
I32
aI-1
aI-1
aF-1.0
aF-1.0
aF-1.0
aI24
aI-1
aI-1
aF-1.0
aF-1.0
aF-1.0
asg10
(lp407
F-0.006
aF-0.003
aF0.01
asba(i__main__
sensor_data_struct
p408
(dp409
g3
(lp410
I578
aI328
aI202
aI1056
aI2605
aF182.0
aI760
aI386
aI264
aI1274
aI2470
aF169.0
asg5
I1
sg6
(lp411
I113
aI-1
aI-1
aI202
aI-1
aI-1
asg8
(lp412
I38
aI-1
aI-1
aF-1.0
aF-1.0
aF-1.0
aI37
aI-1
aI-1
aF-1.0
aF-1.0
aF-1.0
asg10
(lp413
F0.006
aF-0.006
aF0.006
asba(i__main__
sensor_data_struct
p414
(dp415
g3
(lp416
I729
aI366
aI245
aI1236
aI2477
aF161.0
aI1202
aI469
aI344
aI1838
aI2266
aF98.0
asg5
I0
sg6
(lp417
I35
aI-1
aI-1
aI97
aI-1
aI-1
asg8
(lp418
I17
aI-1
aI-1
aF-1.0
aF-1.0
aF-1.0
aI23
aI-1
aI-1
aF-1.0
aF-1.0
aF-1.0
asg10
(lp419
F-0.004
aF0.002
aF0.001
asba(i__main__
sensor_data_struct
p420
(dp421
g3
(lp422
I596
aI335
aI209
aI1076
aI2586
aF182.0
aI817
aI401
aI279
aI1342
aI2431
aF163.0
asg5
I0
sg6
(lp423
I47
aI-1
aI-1
aI96
aI-1
aI-1
asg8
(lp424
I26
aI-1
aI-1
aF-1.0
aF-1.0
aF-1.0
aI24
aI-1
aI-1
aF-1.0
aF-1.0
aF-1.0
asg10
(lp425
F-0.005
aF-0.006
aF0.008
asba(i__main__
sensor_data_struct
p426
(dp427
g3
(lp428
I602
aI338
aI211
aI1087
aI2587
aF183.0
aI736
aI375
aI251
aI1249
aI2483
aF169.0
asg5
I1
sg6
(lp429
I16
aI-1
aI-1
aI34
aI-1
aI-1
asg8
(lp430
I15
aI-1
aI-1
aF-1.0
aF-1.0
aF-1.0
aI10
aI-1
aI-1
aF-1.0
aF-1.0
aF-1.0
asg10
(lp431
F-0.009000000000000001
aF0.003
aF0.008
asba(i__main__
sensor_data_struct
p432
(dp433
g3
(lp434
I611
aI344
aI215
aI1099
aI2581
aF187.0
aI959
aI449
aI305
aI1556
aI2372
aF174.0
asg5
I1
sg6
(lp435
I21
aI-1
aI-1
aI57
aI-1
aI-1
asg8
(lp436
I49
aI-1
aI-1
aF-1.0
aF-1.0
aF-1.0
aI28
aI-1
aI-1
aF-1.0
aF-1.0
aF-1.0
asg10
(lp437
F-0.003
aF0.008
aF0.015
asba(i__main__
sensor_data_struct
p438
(dp439
g3
(lp440
I624
aI345
aI220
aI1113
aI2574
aF180.0
aI1083
aI485
aI337
aI1721
aI2332
aF167.0
asg5
I1
sg6
(lp441
I24
aI-1
aI-1
aI64
aI-1
aI-1
asg8
(lp442
I38
aI-1
aI-1
aF-1.0
aF-1.0
aF-1.0
aI26
aI-1
aI-1
aF-1.0
aF-1.0
aF-1.0
asg10
(lp443
F0.002
aF0.006
aF0.013999999999999999
asba(i__main__
sensor_data_struct
p444
(dp445
g3
(lp446
I768
aI395
aI257
aI1312
aI2474
aF186.0
aI935
aI404
aI290
aI1490
aI2363
aF121.0
asg5
I1
sg6
(lp447
I27
aI-1
aI-1
aI69
aI-1
aI-1
asg8
(lp448
I43
aI-1
aI-1
aF-1.0
aF-1.0
aF-1.0
aI24
aI-1
aI-1
aF-1.0
aF-1.0
aF-1.0
asg10
(lp449
F-0.003
aF0.006
aF0.012
asba(i__main__
sensor_data_struct
p450
(dp451
g3
(lp452
I586
aI332
aI206
aI1065
aI2601
aF182.0
aI832
aI397
aI276
aI1363
aI2417
aF154.0
asg5
I0
sg6
(lp453
I102
aI-1
aI-1
aI91
aI-1
aI-1
asg8
(lp454
I27
aI-1
aI-1
aF-1.0
aF-1.0
aF-1.0
aI24
aI-1
aI-1
aF-1.0
aF-1.0
aF-1.0
asg10
(lp455
F0.004
aF-0.002
aF0.009000000000000001
asba(i__main__
sensor_data_struct
p456
(dp457
g3
(lp458
I591
aI334
aI208
aI1071
aI2595
aF183.0
aI818
aI398
aI274
aI1346
aI2422
aF162.0
asg5
I0
sg6
(lp459
I32
aI-1
aI-1
aI85
aI-1
aI-1
asg8
(lp460
I14
aI-1
aI-1
aF-1.0
aF-1.0
aF-1.0
aI24
aI-1
aI-1
aF-1.0
aF-1.0
aF-1.0
asg10
(lp461
F-0.006
aF0.0
aF0.009000000000000001
asba(i__main__
sensor_data_struct
p462
(dp463
g3
(lp464
I740
aI386
aI250
aI1272
aI2487
aF186.0
aI777
aI376
aI258
aI1293
aI2446
aF152.0
asg5
I1
sg6
(lp465
I36
aI-1
aI-1
aI60
aI-1
aI-1
asg8
(lp466
I32
aI-1
aI-1
aF-1.0
aF-1.0
aF-1.0
aI26
aI-1
aI-1
aF-1.0
aF-1.0
aF-1.0
asg10
(lp467
F-0.001
aF0.002
aF0.015
asba(i__main__
sensor_data_struct
p468
(dp469
g3
(lp470
I727
aI368
aI244
aI1239
aI2482
aF166.0
aI1267
aI486
aI360
aI1921
aI2249
aF92.0
asg5
I0
sg6
(lp471
I35
aI-1
aI-1
aI95
aI-1
aI-1
asg8
(lp472
I20
aI-1
aI-1
aF-1.0
aF-1.0
aF-1.0
aI24
aI-1
aI-1
aF-1.0
aF-1.0
aF-1.0
asg10
(lp473
F-0.004
aF0.006
aF0.004
asba(i__main__
sensor_data_struct
p474
(dp475
g3
(lp476
I630
aI349
aI222
aI1121
aI2566
aF183.0
aI990
aI445
aI311
aI1582
aI2351
aF153.0
asg5
I1
sg6
(lp477
I23
aI-1
aI-1
aI68
aI-1
aI-1
asg8
(lp478
I45
aI-1
aI-1
aF-1.0
aF-1.0
aF-1.0
aI24
aI-1
aI-1
aF-1.0
aF-1.0
aF-1.0
asg10
(lp479
F-0.006
aF0.008
aF0.012
asba(i__main__
sensor_data_struct
p480
(dp481
g3
(lp482
I610
aI337
aI213
aI1090
aI2570
aF177.0
aI1098
aI478
aI343
aI1713
aI2309
aF146.0
asg5
I0
sg6
(lp483
I112
aI-1
aI-1
aI112
aI-1
aI-1
asg8
(lp484
I38
aI-1
aI-1
aF-1.0
aF-1.0
aF-1.0
aI25
aI-1
aI-1
aF-1.0
aF-1.0
aF-1.0
asg10
(lp485
F0.0
aF-0.006999999999999999
aF0.006
asba(i__main__
sensor_data_struct
p486
(dp487
g3
(lp488
I619
aI343
aI215
aI1110
aI2574
aF183.0
aI1017
aI420
aI313
aI1587
aI2335
aF103.0
asg5
I0
sg6
(lp489
I47
aI-1
aI-1
aI85
aI-1
aI-1
asg8
(lp490
I23
aI-1
aI-1
aF-1.0
aF-1.0
aF-1.0
aI23
aI-1
aI-1
aF-1.0
aF-1.0
aF-1.0
asg10
(lp491
F0.0
aF0.003
aF0.01
asba(i__main__
sensor_data_struct
p492
(dp493
g3
(lp494
I686
aI364
aI235
aI1196
aI2524
aF179.0
aI1265
aI459
aI355
aI1904
aI2257
aF53.0
asg5
I0
sg6
(lp495
I32
aI-1
aI-1
aI78
aI-1
aI-1
asg8
(lp496
I30
aI-1
aI-1
aF-1.0
aF-1.0
aF-1.0
aI22
aI-1
aI-1
aF-1.0
aF-1.0
aF-1.0
asg10
(lp497
F0.003
aF0.006
aF0.011000000000000001
asba(i__main__
sensor_data_struct
p498
(dp499
g3
(lp500
I606
aI338
aI212
aI1093
aI2590
aF181.0
aI1088
aI470
aI332
aI1715
aI2323
aF145.0
asg5
I0
sg6
(lp501
I23
aI-1
aI-1
aI72
aI-1
aI-1
asg8
(lp502
I31
aI-1
aI-1
aF-1.0
aF-1.0
aF-1.0
aI22
aI-1
aI-1
aF-1.0
aF-1.0
aF-1.0
asg10
(lp503
F0.006999999999999999
aF0.004
aF0.012
asba(i__main__
sensor_data_struct
p504
(dp505
g3
(lp506
I603
aI337
aI208
aI1092
aI2583
aF183.0
aI625
aI341
aI216
aI1112
aI2559
aF177.0
asg5
I1
sg6
(lp507
I6
aI-1
aI-1
aI38
aI-1
aI-1
asg8
(lp508
I53
aI-1
aI-1
aF-1.0
aF-1.0
aF-1.0
aI35
aI-1
aI-1
aF-1.0
aF-1.0
aF-1.0
asg10
(lp509
F0.002
aF-0.012
aF0.013000000000000001
asba(i__main__
sensor_data_struct
p510
(dp511
g3
(lp512
I593
aI335
aI206
aI1079
aI2595
aF185.0
aI1076
aI439
aI322
aI1677
aI2316
aF107.0
asg5
I0
sg6
(lp513
I30
aI-1
aI-1
aI75
aI-1
aI-1
asg8
(lp514
I31
aI-1
aI-1
aF-1.0
aF-1.0
aF-1.0
aI23
aI-1
aI-1
aF-1.0
aF-1.0
aF-1.0
asg10
(lp515
F0.005
aF0.004
aF0.012
asba(i__main__
sensor_data_struct
p516
(dp517
g3
(lp518
I600
aI341
aI213
aI1085
aI2595
aF187.0
aI873
aI456
aI286
aI1480
aI2426
aF226.0
asg5
I1
sg6
(lp519
I12
aI-1
aI-1
aI33
aI-1
aI-1
asg8
(lp520
I54
aI-1
aI-1
aF-1.0
aF-1.0
aF-1.0
aI32
aI-1
aI-1
aF-1.0
aF-1.0
aF-1.0
asg10
(lp521
F-0.011000000000000001
aF0.005
aF0.015
asba(i__main__
sensor_data_struct
p522
(dp523
g3
(lp524
I632
aI348
aI220
aI1126
aI2562
aF183.0
aI1011
aI428
aI307
aI1589
aI2326
aF122.0
asg5
I0
sg6
(lp525
I43
aI-1
aI-1
aI99
aI-1
aI-1
asg8
(lp526
I15
aI-1
aI-1
aF-1.0
aF-1.0
aF-1.0
aI24
aI-1
aI-1
aF-1.0
aF-1.0
aF-1.0
asg10
(lp527
F-0.004
aF0.0
aF0.002
asba(i__main__
sensor_data_struct
p528
(dp529
g3
(lp530
I651
aI350
aI227
aI1142
aI2544
aF174.0
aI1167
aI487
aI354
aI1801
aI2289
aF130.0
asg5
I0
sg6
(lp531
I89
aI-1
aI-1
aI105
aI-1
aI-1
asg8
(lp532
I20
aI-1
aI-1
aF-1.0
aF-1.0
aF-1.0
aI24
aI-1
aI-1
aF-1.0
aF-1.0
aF-1.0
asg10
(lp533
F-0.001
aF-0.002
aF0.006
asba(i__main__
sensor_data_struct
p534
(dp535
g3
(lp536
I603
aI340
aI213
aI1088
aI2589
aF184.0
aI1210
aI463
aI342
aI1867
aI2289
aF87.0
asg5
I1
sg6
(lp537
I15
aI-1
aI-1
aI37
aI-1
aI-1
asg8
(lp538
I48
aI-1
aI-1
aF-1.0
aF-1.0
aF-1.0
aI35
aI-1
aI-1
aF-1.0
aF-1.0
aF-1.0
asg10
(lp539
F0.005
aF0.009000000000000001
aF0.013999999999999999
asba(i__main__
sensor_data_struct
p540
(dp541
g3
(lp542
I679
aI358
aI233
aI1183
aI2529
aF174.0
aI1280
aI484
aI366
aI1934
aI2254
aF80.0
asg5
I0
sg6
(lp543
I66
aI-1
aI-1
aI102
aI-1
aI-1
asg8
(lp544
I25
aI-1
aI-1
aF-1.0
aF-1.0
aF-1.0
aI23
aI-1
aI-1
aF-1.0
aF-1.0
aF-1.0
asg10
(lp545
F0.0
aF0.003
aF0.005
asba(i__main__
sensor_data_struct
p546
(dp547
g3
(lp548
I602
aI339
aI212
aI1085
aI2584
aF184.0
aI897
aI462
aI292
aI1511
aI2413
aF224.0
asg5
I1
sg6
(lp549
I12
aI-1
aI-1
aI33
aI-1
aI-1
asg8
(lp550
I47
aI-1
aI-1
aF-1.0
aF-1.0
aF-1.0
aI33
aI-1
aI-1
aF-1.0
aF-1.0
aF-1.0
asg10
(lp551
F-0.01
aF0.0
aF0.013000000000000001
asba(i__main__
sensor_data_struct
p552
(dp553
g3
(lp554
I592
aI338
aI210
aI1078
aI2606
aF187.0
aI1053
aI450
aI314
aI1679
aI2339
aF138.0
asg5
I1
sg6
(lp555
I18
aI-1
aI-1
aI35
aI-1
aI-1
asg8
(lp556
I41
aI-1
aI-1
aF-1.0
aF-1.0
aF-1.0
aI35
aI-1
aI-1
aF-1.0
aF-1.0
aF-1.0
asg10
(lp557
F0.006
aF0.008
aF0.015
asba(i__main__
sensor_data_struct
p558
(dp559
g3
(lp560
I606
aI341
aI209
aI1100
aI2584
aF188.0
aI937
aI447
aI299
aI1537
aI2387
aF182.0
asg5
I1
sg6
(lp561
I15
aI-1
aI-1
aI59
aI-1
aI-1
asg8
(lp562
I32
aI-1
aI-1
aF-1.0
aF-1.0
aF-1.0
aI28
aI-1
aI-1
aF-1.0
aF-1.0
aF-1.0
asg10
(lp563
F0.009000000000000001
aF0.002
aF0.015
asba(i__main__
sensor_data_struct
p564
(dp565
g3
(lp566
I597
aI335
aI206
aI1086
aI2592
aF184.0
aI958
aI447
aI302
aI1558
aI2373
aF173.0
asg5
I1
sg6
(lp567
I10
aI-1
aI-1
aI62
aI-1
aI-1
asg8
(lp568
I34
aI-1
aI-1
aF-1.0
aF-1.0
aF-1.0
aI26
aI-1
aI-1
aF-1.0
aF-1.0
aF-1.0
asg10
(lp569
F0.012
aF0.004
aF0.013999999999999999
asba(i__main__
sensor_data_struct
p570
(dp571
g3
(lp572
I621
aI345
aI213
aI1120
aI2575
aF187.0
aI995
aI450
aI303
aI1621
aI2372
aF165.0
asg5
I1
sg6
(lp573
I9
aI-1
aI-1
aI32
aI-1
aI-1
asg8
(lp574
I37
aI-1
aI-1
aF-1.0
aF-1.0
aF-1.0
aI37
aI-1
aI-1
aF-1.0
aF-1.0
aF-1.0
asg10
(lp575
F0.01
aF0.006
aF0.015
asba(i__main__
sensor_data_struct
p576
(dp577
g3
(lp578
I586
aI331
aI202
aI1070
aI2597
aF184.0
aI773
aI408
aI257
aI1331
aI2470
aF204.0
asg5
I1
sg6
(lp579
I5
aI-1
aI-1
aI39
aI-1
aI-1
asg8
(lp580
I54
aI-1
aI-1
aF-1.0
aF-1.0
aF-1.0
aI35
aI-1
aI-1
aF-1.0
aF-1.0
aF-1.0
asg10
(lp581
F0.002
aF-0.012
aF0.012
asba(i__main__
sensor_data_struct
p582
(dp583
g3
(lp584
I603
aI339
aI212
aI1093
aI2601
aF184.0
aI1230
aI506
aI355
aI1934
aI2307
aF139.0
asg5
I1
sg6
(lp585
I10
aI-1
aI-1
aI34
aI-1
aI-1
asg8
(lp586
I49
aI-1
aI-1
aF-1.0
aF-1.0
aF-1.0
aI36
aI-1
aI-1
aF-1.0
aF-1.0
aF-1.0
asg10
(lp587
F0.006999999999999999
aF0.01
aF0.015
asba(i__main__
sensor_data_struct
p588
(dp589
g3
(lp590
I665
aI357
aI228
aI1172
aI2541
aF180.0
aI2378
aI635
aI575
aI3282
aI2113
aF65346.0
asg5
I1
sg6
(lp591
I28
aI-1
aI-1
aI53
aI-1
aI-1
asg8
(lp592
I34
aI-1
aI-1
aF-1.0
aF-1.0
aF-1.0
aI33
aI-1
aI-1
aF-1.0
aF-1.0
aF-1.0
asg10
(lp593
F0.004
aF0.006999999999999999
aF0.006
asba(i__main__
sensor_data_struct
p594
(dp595
g3
(lp596
I970
aI408
aI291
aI1549
aI2358
aF116.0
aI784
aI366
aI249
aI1308
aI2442
aF140.0
asg5
I1
sg6
(lp597
I12
aI-1
aI-1
aI58
aI-1
aI-1
asg8
(lp598
I35
aI-1
aI-1
aF-1.0
aF-1.0
aF-1.0
aI28
aI-1
aI-1
aF-1.0
aF-1.0
aF-1.0
asg10
(lp599
F0.009000000000000001
aF0.004
aF0.015
asba(i__main__
sensor_data_struct
p600
(dp601
g3
(lp602
I592
aI331
aI205
aI1075
aI2595
aF180.0
aI998
aI445
aI313
aI1589
aI2348
aF149.0
asg5
I0
sg6
(lp603
I66
aI-1
aI-1
aI96
aI-1
aI-1
asg8
(lp604
I33
aI-1
aI-1
aF-1.0
aF-1.0
aF-1.0
aI23
aI-1
aI-1
aF-1.0
aF-1.0
aF-1.0
asg10
(lp605
F0.009000000000000001
aF-0.001
aF0.009000000000000001
asba.