(lp0
(i__main__
sensor_data_struct
p1
(dp2
S'color'
p3
(lp4
I553
aI321
aI213
aI992
aI2640
aF171.0
aI605
aI338
aI232
aI1054
aI2593
aF167.0
asS'button'
p5
I1
sS'IR'
p6
(lp7
I19
aI-1
aI-1
aI63
aI-1
aI-1
asS'TOF'
p8
(lp9
I49
aI-1
aI-1
aF-1.0
aF-1.0
aF-1.0
aI28
aI-1
aI-1
aF-1.0
aF-1.0
aF-1.0
asS'pt'
p10
(lp11
F-0.006
aF-0.006999999999999999
aF0.015
asba(i__main__
sensor_data_struct
p12
(dp13
g3
(lp14
I555
aI323
aI207
aI1014
aI2651
aF178.0
aI944
aI447
aI314
aI1522
aI2387
aF169.0
asg5
I0
sg6
(lp15
I28
aI-1
aI-1
aI90
aI-1
aI-1
asg8
(lp16
I35
aI-1
aI-1
aF-1.0
aF-1.0
aF-1.0
aI24
aI-1
aI-1
aF-1.0
aF-1.0
aF-1.0
asg10
(lp17
F0.009000000000000001
aF-0.004
aF0.011000000000000001
asba(i__main__
sensor_data_struct
p18
(dp19
g3
(lp20
I569
aI333
aI215
aI1032
aI2641
aF183.0
aI841
aI414
aI291
aI1382
aI2440
aF167.0
asg5
I1
sg6
(lp21
I35
aI-1
aI-1
aI65
aI-1
aI-1
asg8
(lp22
I36
aI-1
aI-1
aF-1.0
aF-1.0
aF-1.0
aI25
aI-1
aI-1
aF-1.0
aF-1.0
aF-1.0
asg10
(lp23
F-0.004
aF0.002
aF0.013999999999999999
asba(i__main__
sensor_data_struct
p24
(dp25
g3
(lp26
I742
aI376
aI263
aI1250
aI2505
aF160.0
aI1363
aI545
aI409
aI2065
aI2262
aF118.0
asg5
I0
sg6
(lp27
I24
aI-1
aI-1
aI114
aI-1
aI-1
asg8
(lp28
I40
aI-1
aI-1
aF-1.0
aF-1.0
aF-1.0
aI23
aI-1
aI-1
aF-1.0
aF-1.0
aF-1.0
asg10
(lp29
F-0.002
aF0.009000000000000001
aF0.009000000000000001
asba(i__main__
sensor_data_struct
p30
(dp31
g3
(lp32
I609
aI345
aI229
aI1079
aI2601
aF179.0
aI1068
aI494
aI354
aI1687
aI2349
aF173.0
asg5
I0
sg6
(lp33
I38
aI-1
aI-1
aI86
aI-1
aI-1
asg8
(lp34
I15
aI-1
aI-1
aF-1.0
aF-1.0
aF-1.0
aI21
aI-1
aI-1
aF-1.0
aF-1.0
aF-1.0
asg10
(lp35
F-0.006
aF-0.001
aF0.01
asba(i__main__
sensor_data_struct
p36
(dp37
g3
(lp38
I627
aI348
aI234
aI1099
aI2583
aF174.0
aI1003
aI438
aI324
aI1569
aI2342
aF128.0
asg5
I0
sg6
(lp39
I197
aI-1
aI-1
aI105
aI-1
aI-1
asg8
(lp40
I24
aI-1
aI-1
aF-1.0
aF-1.0
aF-1.0
aI24
aI-1
aI-1
aF-1.0
aF-1.0
aF-1.0
asg10
(lp41
F0.0
aF-0.004
aF0.0
asba(i__main__
sensor_data_struct
p42
(dp43
g3
(lp44
I628
aI349
aI232
aI1106
aI2586
aF177.0
aI809
aI399
aI282
aI1327
aI2442
aF160.0
asg5
I1
sg6
(lp45
I42
aI-1
aI-1
aI67
aI-1
aI-1
asg8
(lp46
I26
aI-1
aI-1
aF-1.0
aF-1.0
aF-1.0
aI26
aI-1
aI-1
aF-1.0
aF-1.0
aF-1.0
asg10
(lp47
F0.0
aF-0.001
aF0.013999999999999999
asba(i__main__
sensor_data_struct
p48
(dp49
g3
(lp50
I659
aI366
aI241
aI1162
aI2577
aF187.0
aI812
aI408
aI286
aI1340
aI2451
aF171.0
asg5
I1
sg6
(lp51
I53
aI-1
aI-1
aI73
aI-1
aI-1
asg8
(lp52
I28
aI-1
aI-1
aF-1.0
aF-1.0
aF-1.0
aI24
aI-1
aI-1
aF-1.0
aF-1.0
aF-1.0
asg10
(lp53
F0.0
aF-0.004
aF0.013000000000000001
asba(i__main__
sensor_data_struct
p54
(dp55
g3
(lp56
I577
aI334
aI215
aI1048
aI2637
aF182.0
aI1295
aI472
aI372
aI1921
aI2235
aF52.0
asg5
I0
sg6
(lp57
I44
aI-1
aI-1
aI109
aI-1
aI-1
asg8
(lp58
I30
aI-1
aI-1
aF-1.0
aF-1.0
aF-1.0
aI24
aI-1
aI-1
aF-1.0
aF-1.0
aF-1.0
asg10
(lp59
F0.006999999999999999
aF0.001
aF0.006
asba(i__main__
sensor_data_struct
p60
(dp61
g3
(lp62
I625
aI347
aI231
aI1099
aI2581
aF175.0
aI1116
aI492
aI361
aI1733
aI2318
aF150.0
asg5
I0
sg6
(lp63
I146
aI-1
aI-1
aI112
aI-1
aI-1
asg8
(lp64
I28
aI-1
aI-1
aF-1.0
aF-1.0
aF-1.0
aI22
aI-1
aI-1
aF-1.0
aF-1.0
aF-1.0
asg10
(lp65
F0.001
aF-0.005
aF0.006
asba(i__main__
sensor_data_struct
p66
(dp67
g3
(lp68
I674
aI359
aI244
aI1159
aI2537
aF169.0
aI1235
aI492
aI370
aI1875
aI2268
aF104.0
asg5
I0
sg6
(lp69
I63
aI-1
aI-1
aI108
aI-1
aI-1
asg8
(lp70
I20
aI-1
aI-1
aF-1.0
aF-1.0
aF-1.0
aI24
aI-1
aI-1
aF-1.0
aF-1.0
aF-1.0
asg10
(lp71
F-0.003
aF0.001
aF0.004
asba(i__main__
sensor_data_struct
p72
(dp73
g3
(lp74
I657
aI359
aI240
aI1147
aI2566
aF177.0
aI880
aI407
aI303
aI1391
aI2386
aF134.0
asg5
I0
sg6
(lp75
I83
aI-1
aI-1
aI98
aI-1
aI-1
asg8
(lp76
I22
aI-1
aI-1
aF-1.0
aF-1.0
aF-1.0
aI24
aI-1
aI-1
aF-1.0
aF-1.0
aF-1.0
asg10
(lp77
F-0.001
aF-0.002
aF0.008
asba(i__main__
sensor_data_struct
p78
(dp79
g3
(lp80
I589
aI339
aI219
aI1065
aI2628
aF183.0
aI697
aI383
aI247
aI1220
aI2538
aF197.0
asg5
I1
sg6
(lp81
I5
aI-1
aI-1
aI34
aI-1
aI-1
asg8
(lp82
I50
aI-1
aI-1
aF-1.0
aF-1.0
aF-1.0
aI36
aI-1
aI-1
aF-1.0
aF-1.0
aF-1.0
asg10
(lp83
F-0.002
aF-0.013000000000000001
aF0.015
asba(i__main__
sensor_data_struct
p84
(dp85
g3
(lp86
I589
aI340
aI218
aI1070
aI2635
aF185.0
aI1254
aI447
aI357
aI1855
aI2236
aF37.0
asg5
I0
sg6
(lp87
I40
aI-1
aI-1
aI96
aI-1
aI-1
asg8
(lp88
I27
aI-1
aI-1
aF-1.0
aF-1.0
aF-1.0
aI23
aI-1
aI-1
aF-1.0
aF-1.0
aF-1.0
asg10
(lp89
F0.004
aF0.002
aF0.009000000000000001
asba(i__main__
sensor_data_struct
p90
(dp91
g3
(lp92
I603
aI345
aI225
aI1082
aI2620
aF184.0
aI1066
aI472
aI341
aI1680
aI2344
aF149.0
asg5
I1
sg6
(lp93
I31
aI-1
aI-1
aI68
aI-1
aI-1
asg8
(lp94
I33
aI-1
aI-1
aF-1.0
aF-1.0
aF-1.0
aI26
aI-1
aI-1
aF-1.0
aF-1.0
aF-1.0
asg10
(lp95
F0.001
aF0.005
aF0.013000000000000001
asba(i__main__
sensor_data_struct
p96
(dp97
g3
(lp98
I628
aI354
aI232
aI1118
aI2599
aF185.0
aI621
aI343
aI227
aI1097
aI2585
aF173.0
asg5
I1
sg6
(lp99
I7
aI-1
aI-1
aI44
aI-1
aI-1
asg8
(lp100
I46
aI-1
aI-1
aF-1.0
aF-1.0
aF-1.0
aI34
aI-1
aI-1
aF-1.0
aF-1.0
aF-1.0
asg10
(lp101
F0.004
aF-0.01
aF0.013999999999999999
asba(i__main__
sensor_data_struct
p102
(dp103
g3
(lp104
I586
aI339
aI215
aI1069
aI2635
aF187.0
aI858
aI425
aI289
aI1421
aI2432
aF180.0
asg5
I1
sg6
(lp105
I14
aI-1
aI-1
aI64
aI-1
aI-1
asg8
(lp106
I33
aI-1
aI-1
aF-1.0
aF-1.0
aF-1.0
aI26
aI-1
aI-1
aF-1.0
aF-1.0
aF-1.0
asg10
(lp107
F0.009000000000000001
aF-0.001
aF0.015
asba(i__main__
sensor_data_struct
p108
(dp109
g3
(lp110
I590
aI339
aI218
aI1073
aI2638
aF183.0
aI1426
aI542
aI401
aI2188
aI2277
aF99.0
asg5
I1
sg6
(lp111
I5
aI-1
aI-1
aI32
aI-1
aI-1
asg8
(lp112
I45
aI-1
aI-1
aF-1.0
aF-1.0
aF-1.0
aI35
aI-1
aI-1
aF-1.0
aF-1.0
aF-1.0
asg10
(lp113
F0.009000000000000001
aF0.008
aF0.012
asba(i__main__
sensor_data_struct
p114
(dp115
g3
(lp116
I589
aI342
aI218
aI1076
aI2644
aF189.0
aI1002
aI485
aI322
aI1663
aI2412
aF204.0
asg5
I1
sg6
(lp117
I3
aI-1
aI-1
aI32
aI-1
aI-1
asg8
(lp118
I47
aI-1
aI-1
aF-1.0
aF-1.0
aF-1.0
aI35
aI-1
aI-1
aF-1.0
aF-1.0
aF-1.0
asg10
(lp119
F0.011000000000000001
aF0.006999999999999999
aF0.015
asba(i__main__
sensor_data_struct
p120
(dp121
g3
(lp122
I607
aI352
aI224
aI1105
aI2631
aF194.0
aI850
aI399
aI289
aI1379
aI2428
aF142.0
asg5
I1
sg6
(lp123
I29
aI-1
aI-1
aI62
aI-1
aI-1
asg8
(lp124
I36
aI-1
aI-1
aF-1.0
aF-1.0
aF-1.0
aI27
aI-1
aI-1
aF-1.0
aF-1.0
aF-1.0
asg10
(lp125
F0.0
aF0.005
aF0.015
asba(i__main__
sensor_data_struct
p126
(dp127
g3
(lp128
I588
aI341
aI221
aI1067
aI2644
aF185.0
aI1536
aI547
aI422
aI2298
aI2239
aF55.0
asg5
I1
sg6
(lp129
I18
aI-1
aI-1
aI34
aI-1
aI-1
asg8
(lp130
I42
aI-1
aI-1
aF-1.0
aF-1.0
aF-1.0
aI34
aI-1
aI-1
aF-1.0
aF-1.0
aF-1.0
asg10
(lp131
F0.006999999999999999
aF0.008
aF0.012
asba(i__main__
sensor_data_struct
p132
(dp133
g3
(lp134
I653
aI357
aI239
aI1141
aI2567
aF176.0
aI1132
aI504
aI366
aI1764
aI2319
aF160.0
asg5
I0
sg6
(lp135
I83
aI-1
aI-1
aI95
aI-1
aI-1
asg8
(lp136
I26
aI-1
aI-1
aF-1.0
aF-1.0
aF-1.0
aI22
aI-1
aI-1
aF-1.0
aF-1.0
aF-1.0
asg10
(lp137
F0.002
aF-0.001
aF0.009000000000000001
asba(i__main__
sensor_data_struct
p138
(dp139
g3
(lp140
I651
aI359
aI238
aI1146
aI2578
aF181.0
aI708
aI372
aI258
aI1200
aI2517
aF168.0
asg5
I1
sg6
(lp141
I29
aI-1
aI-1
aI64
aI-1
aI-1
asg8
(lp142
I35
aI-1
aI-1
aF-1.0
aF-1.0
aF-1.0
aI25
aI-1
aI-1
aF-1.0
aF-1.0
aF-1.0
asg10
(lp143
F-0.006999999999999999
aF0.001
aF0.013999999999999999
asba(i__main__
sensor_data_struct
p144
(dp145
g3
(lp146
I580
aI331
aI214
aI1051
aI2632
aF177.0
aI1023
aI482
aI335
aI1645
aI2370
aF183.0
asg5
I1
sg6
(lp147
I27
aI-1
aI-1
aI70
aI-1
aI-1
asg8
(lp148
I32
aI-1
aI-1
aF-1.0
aF-1.0
aF-1.0
aI24
aI-1
aI-1
aF-1.0
aF-1.0
aF-1.0
asg10
(lp149
F0.011000000000000001
aF0.002
aF0.013000000000000001
asba(i__main__
sensor_data_struct
p150
(dp151
g3
(lp152
I632
aI350
aI234
aI1107
aI2577
aF175.0
aI1033
aI439
aI326
aI1603
aI2323
aF118.0
asg5
I0
sg6
(lp153
I78
aI-1
aI-1
aI103
aI-1
aI-1
asg8
(lp154
I17
aI-1
aI-1
aF-1.0
aF-1.0
aF-1.0
aI22
aI-1
aI-1
aF-1.0
aF-1.0
aF-1.0
asg10
(lp155
F-0.003
aF-0.001
aF0.001
asba(i__main__
sensor_data_struct
p156
(dp157
g3
(lp158
I618
aI350
aI231
aI1099
aI2605
aF182.0
aI879
aI402
aI290
aI1444
aI2450
aF136.0
asg5
I1
sg6
(lp159
I14
aI-1
aI-1
aI35
aI-1
aI-1
asg8
(lp160
I51
aI-1
aI-1
aF-1.0
aF-1.0
aF-1.0
aI35
aI-1
aI-1
aF-1.0
aF-1.0
aF-1.0
asg10
(lp161
F0.0
aF0.012
aF0.015
asba(i__main__
sensor_data_struct
p162
(dp163
g3
(lp164
I586
aI341
aI221
aI1061
aI2639
aF186.0
aI726
aI383
aI266
aI1220
aI2500
aF174.0
asg5
I0
sg6
(lp165
I37
aI-1
aI-1
aI83
aI-1
aI-1
asg8
(lp166
I32
aI-1
aI-1
aF-1.0
aF-1.0
aF-1.0
aI23
aI-1
aI-1
aF-1.0
aF-1.0
aF-1.0
asg10
(lp167
F-0.005
aF-0.006
aF0.011000000000000001
asba(i__main__
sensor_data_struct
p168
(dp169
g3
(lp170
I606
aI345
aI226
aI1082
aI2611
aF182.0
aI1114
aI471
aI349
aI1727
aI2318
aF126.0
asg5
I0
sg6
(lp171
I36
aI-1
aI-1
aI90
aI-1
aI-1
asg8
(lp172
I24
aI-1
aI-1
aF-1.0
aF-1.0
aF-1.0
aI24
aI-1
aI-1
aF-1.0
aF-1.0
aF-1.0
asg10
(lp173
F-0.004
aF0.004
aF0.009000000000000001
asba(i__main__
sensor_data_struct
p174
(dp175
g3
(lp176
I597
aI344
aI223
aI1072
aI2614
aF185.0
aI847
aI398
aI290
aI1359
aI2404
aF140.0
asg5
I0
sg6
(lp177
I54
aI-1
aI-1
aI105
aI-1
aI-1
asg8
(lp178
I14
aI-1
aI-1
aF-1.0
aF-1.0
aF-1.0
aI23
aI-1
aI-1
aF-1.0
aF-1.0
aF-1.0
asg10
(lp179
F-0.006
aF-0.003
aF0.003
asba(i__main__
sensor_data_struct
p180
(dp181
g3
(lp182
I592
aI335
aI218
aI1063
aI2614
aF176.0
aI1050
aI486
aI344
aI1668
aI2351
aF174.0
asg5
I0
sg6
(lp183
I44
aI-1
aI-1
aI87
aI-1
aI-1
asg8
(lp184
I30
aI-1
aI-1
aF-1.0
aF-1.0
aF-1.0
aI22
aI-1
aI-1
aF-1.0
aF-1.0
aF-1.0
asg10
(lp185
F0.006
aF-0.002
aF0.011000000000000001
asba(i__main__
sensor_data_struct
p186
(dp187
g3
(lp188
I585
aI339
aI218
aI1061
aI2635
aF185.0
aI1058
aI431
aI327
aI1638
aI2326
aF97.0
asg5
I0
sg6
(lp189
I31
aI-1
aI-1
aI97
aI-1
aI-1
asg8
(lp190
I27
aI-1
aI-1
aF-1.0
aF-1.0
aF-1.0
aI23
aI-1
aI-1
aF-1.0
aF-1.0
aF-1.0
asg10
(lp191
F-0.005
aF0.005
aF0.008
asba(i__main__
sensor_data_struct
p192
(dp193
g3
(lp194
I861
aI394
aI287
aI1381
aI2400
aF132.0
aI1365
aI512
aI391
aI2040
aI2234
aF78.0
asg5
I0
sg6
(lp195
I88
aI-1
aI-1
aI100
aI-1
aI-1
asg8
(lp196
I20
aI-1
aI-1
aF-1.0
aF-1.0
aF-1.0
aI25
aI-1
aI-1
aF-1.0
aF-1.0
aF-1.0
asg10
(lp197
F-0.001
aF0.001
aF0.0
asba(i__main__
sensor_data_struct
p198
(dp199
g3
(lp200
I611
aI345
aI227
aI1084
aI2597
aF180.0
aI1057
aI486
aI351
aI1659
aI2339
aF167.0
asg5
I0
sg6
(lp201
I52
aI-1
aI-1
aI98
aI-1
aI-1
asg8
(lp202
I24
aI-1
aI-1
aF-1.0
aF-1.0
aF-1.0
aI24
aI-1
aI-1
aF-1.0
aF-1.0
aF-1.0
asg10
(lp203
F-0.005
aF-0.005
aF0.008
asba(i__main__
sensor_data_struct
p204
(dp205
g3
(lp206
I617
aI350
aI229
aI1100
aI2602
aF184.0
aI969
aI458
aI327
aI1547
aI2376
aF168.0
asg5
I0
sg6
(lp207
I56
aI-1
aI-1
aI86
aI-1
aI-1
asg8
(lp208
I19
aI-1
aI-1
aF-1.0
aF-1.0
aF-1.0
aI24
aI-1
aI-1
aF-1.0
aF-1.0
aF-1.0
asg10
(lp209
F-0.004
aF-0.002
aF0.01
asba(i__main__
sensor_data_struct
p210
(dp211
g3
(lp212
I581
aI337
aI216
aI1057
aI2639
aF185.0
aI738
aI386
aI267
aI1244
aI2502
aF174.0
asg5
I1
sg6
(lp213
I85
aI-1
aI-1
aI138
aI-1
aI-1
asg8
(lp214
I36
aI-1
aI-1
aF-1.0
aF-1.0
aF-1.0
aI38
aI-1
aI-1
aF-1.0
aF-1.0
aF-1.0
asg10
(lp215
F0.003
aF-0.008
aF0.008
asba(i__main__
sensor_data_struct
p216
(dp217
g3
(lp218
I582
aI337
aI216
aI1056
aI2632
aF184.0
aI775
aI397
aI280
aI1283
aI2471
aF170.0
asg5
I0
sg6
(lp219
I37
aI-1
aI-1
aI90
aI-1
aI-1
asg8
(lp220
I18
aI-1
aI-1
aF-1.0
aF-1.0
aF-1.0
aI22
aI-1
aI-1
aF-1.0
aF-1.0
aF-1.0
asg10
(lp221
F-0.006999999999999999
aF-0.004
aF0.009000000000000001
asba(i__main__
sensor_data_struct
p222
(dp223
g3
(lp224
I623
aI342
aI225
aI1103
aI2586
aF172.0
aI1153
aI500
aI363
aI1792
aI2309
aF149.0
asg5
I0
sg6
(lp225
I37
aI-1
aI-1
aI95
aI-1
aI-1
asg8
(lp226
I31
aI-1
aI-1
aF-1.0
aF-1.0
aF-1.0
aI21
aI-1
aI-1
aF-1.0
aF-1.0
aF-1.0
asg10
(lp227
F0.008
aF0.001
aF0.009000000000000001
asba(i__main__
sensor_data_struct
p228
(dp229
g3
(lp230
I661
aI352
aI235
aI1153
aI2557
aF168.0
aI1279
aI500
aI379
aI1928
aI2255
aF96.0
asg5
I0
sg6
(lp231
I65
aI-1
aI-1
aI112
aI-1
aI-1
asg8
(lp232
I31
aI-1
aI-1
aF-1.0
aF-1.0
aF-1.0
aI23
aI-1
aI-1
aF-1.0
aF-1.0
aF-1.0
asg10
(lp233
F0.006999999999999999
aF0.0
aF0.005
asba(i__main__
sensor_data_struct
p234
(dp235
g3
(lp236
I762
aI381
aI266
aI1271
aI2474
aF159.0
aI1298
aI517
aI384
aI1970
aI2259
aF113.0
asg5
I0
sg6
(lp237
I31
aI-1
aI-1
aI106
aI-1
aI-1
asg8
(lp238
I14
aI-1
aI-1
aF-1.0
aF-1.0
aF-1.0
aI23
aI-1
aI-1
aF-1.0
aF-1.0
aF-1.0
asg10
(lp239
F-0.006
aF0.003
aF0.003
asba(i__main__
sensor_data_struct
p240
(dp241
g3
(lp242
I649
aI354
aI237
aI1132
aI2562
aF174.0
aI1523
aI518
aI419
aI2212
aI2194
aF16.0
asg5
I0
sg6
(lp243
I58
aI-1
aI-1
aI108
aI-1
aI-1
asg8
(lp244
I27
aI-1
aI-1
aF-1.0
aF-1.0
aF-1.0
aI23
aI-1
aI-1
aF-1.0
aF-1.0
aF-1.0
asg10
(lp245
F0.002
aF0.002
aF0.003
asba(i__main__
sensor_data_struct
p246
(dp247
g3
(lp248
I578
aI334
aI215
aI1049
aI2635
aF182.0
aI947
aI438
aI314
aI1515
aI2380
aF154.0
asg5
I0
sg6
(lp249
I59
aI-1
aI-1
aI99
aI-1
aI-1
asg8
(lp250
I30
aI-1
aI-1
aF-1.0
aF-1.0
aF-1.0
aI23
aI-1
aI-1
aF-1.0
aF-1.0
aF-1.0
asg10
(lp251
F0.006
aF-0.003
aF0.009000000000000001
asba(i__main__
sensor_data_struct
p252
(dp253
g3
(lp254
I666
aI360
aI242
aI1154
aI2548
aF174.0
aI1220
aI515
aI380
aI1873
aI2288
aF138.0
asg5
I0
sg6
(lp255
I48
aI-1
aI-1
aI97
aI-1
aI-1
asg8
(lp256
I21
aI-1
aI-1
aF-1.0
aF-1.0
aF-1.0
aI23
aI-1
aI-1
aF-1.0
aF-1.0
aF-1.0
asg10
(lp257
F-0.003
aF0.003
aF0.008
asba(i__main__
sensor_data_struct
p258
(dp259
g3
(lp260
I693
aI366
aI250
aI1187
aI2530
aF169.0
aI1228
aI525
aI386
aI1888
aI2292
aF147.0
asg5
I0
sg6
(lp261
I60
aI-1
aI-1
aI93
aI-1
aI-1
asg8
(lp262
I27
aI-1
aI-1
aF-1.0
aF-1.0
aF-1.0
aI21
aI-1
aI-1
aF-1.0
aF-1.0
aF-1.0
asg10
(lp263
F0.002
aF0.001
aF0.009000000000000001
asba(i__main__
sensor_data_struct
p264
(dp265
g3
(lp266
I602
aI349
aI227
aI1083
aI2626
aF189.0
aI2204
aI616
aI542
aI3118
aI2159
aF65397.0
asg5
I1
sg6
(lp267
I17
aI-1
aI-1
aI37
aI-1
aI-1
asg8
(lp268
I47
aI-1
aI-1
aF-1.0
aF-1.0
aF-1.0
aI35
aI-1
aI-1
aF-1.0
aF-1.0
aF-1.0
asg10
(lp269
F0.0
aF0.01
aF0.009000000000000001
asba(i__main__
sensor_data_struct
p270
(dp271
g3
(lp272
I578
aI341
aI219
aI1055
aI2653
aF190.0
aI736
aI361
aI248
aI1250
aI2502
aF149.0
asg5
I1
sg6
(lp273
I2
aI-1
aI-1
aI33
aI-1
aI-1
asg8
(lp274
I40
aI-1
aI-1
aF-1.0
aF-1.0
aF-1.0
aI36
aI-1
aI-1
aF-1.0
aF-1.0
aF-1.0
asg10
(lp275
F0.012
aF0.004
aF0.015
asba(i__main__
sensor_data_struct
p276
(dp277
g3
(lp278
I604
aI345
aI225
aI1081
aI2613
aF183.0
aI988
aI483
aI332
aI1600
aI2383
aF198.0
asg5
I1
sg6
(lp279
I31
aI-1
aI-1
aI67
aI-1
aI-1
asg8
(lp280
I37
aI-1
aI-1
aF-1.0
aF-1.0
aF-1.0
aI25
aI-1
aI-1
aF-1.0
aF-1.0
aF-1.0
asg10
(lp281
F-0.004
aF-0.004
aF0.013999999999999999
asba(i__main__
sensor_data_struct
p282
(dp283
g3
(lp284
I599
aI344
aI223
aI1079
aI2624
aF185.0
aI958
aI455
aI327
aI1529
aI2382
aF167.0
asg5
I0
sg6
(lp285
I102
aI-1
aI-1
aI98
aI-1
aI-1
asg8
(lp286
I28
aI-1
aI-1
aF-1.0
aF-1.0
aF-1.0
aI23
aI-1
aI-1
aF-1.0
aF-1.0
aF-1.0
asg10
(lp287
F0.001
aF-0.005
aF0.009000000000000001
asba(i__main__
sensor_data_struct
p288
(dp289
g3
(lp290
I620
aI351
aI228
aI1108
aI2603
aF185.0
aI799
aI399
aI281
aI1318
aI2456
aF164.0
asg5
I0
sg6
(lp291
I62
aI-1
aI-1
aI87
aI-1
aI-1
asg8
(lp292
I32
aI-1
aI-1
aF-1.0
aF-1.0
aF-1.0
aI22
aI-1
aI-1
aF-1.0
aF-1.0
aF-1.0
asg10
(lp293
F0.004
aF-0.005
aF0.011000000000000001
asba(i__main__
sensor_data_struct
p294
(dp295
g3
(lp296
I590
aI342
aI221
aI1063
aI2621
aF186.0
aI900
aI478
aI307
aI1524
aI2445
aF237.0
asg5
I1
sg6
(lp297
I10
aI-1
aI-1
aI33
aI-1
aI-1
asg8
(lp298
I51
aI-1
aI-1
aF-1.0
aF-1.0
aF-1.0
aI34
aI-1
aI-1
aF-1.0
aF-1.0
aF-1.0
asg10
(lp299
F-0.012
aF-0.002
aF0.013999999999999999
asba(i__main__
sensor_data_struct
p300
(dp301
g3
(lp302
I645
aI358
aI238
aI1133
aI2577
aF181.0
aI1123
aI512
aI367
aI1761
aI2329
aF174.0
asg5
I0
sg6
(lp303
I74
aI-1
aI-1
aI91
aI-1
aI-1
asg8
(lp304
I23
aI-1
aI-1
aF-1.0
aF-1.0
aF-1.0
aI21
aI-1
aI-1
aF-1.0
aF-1.0
aF-1.0
asg10
(lp305
F0.001
aF-0.002
aF0.01
asba(i__main__
sensor_data_struct
p306
(dp307
g3
(lp308
I651
aI359
aI239
aI1147
aI2584
aF180.0
aI2945
aI754
aI694
aI4025
aI2094
aF65263.0
asg5
I1
sg6
(lp309
I20
aI-1
aI-1
aI37
aI-1
aI-1
asg8
(lp310
I41
aI-1
aI-1
aF-1.0
aF-1.0
aF-1.0
aI33
aI-1
aI-1
aF-1.0
aF-1.0
aF-1.0
asg10
(lp311
F0.003
aF0.008
aF0.008
asba(i__main__
sensor_data_struct
p312
(dp313
g3
(lp314
I620
aI350
aI229
aI1105
aI2601
aF183.0
aI1060
aI497
aI349
aI1688
aI2352
aF184.0
asg5
I0
sg6
(lp315
I46
aI-1
aI-1
aI79
aI-1
aI-1
asg8
(lp316
I27
aI-1
aI-1
aF-1.0
aF-1.0
aF-1.0
aI23
aI-1
aI-1
aF-1.0
aF-1.0
aF-1.0
asg10
(lp317
F0.003
aF-0.002
aF0.012
asba(i__main__
sensor_data_struct
p318
(dp319
g3
(lp320
I620
aI353
aI232
aI1106
aI2612
aF186.0
aI1014
aI476
aI337
aI1620
aI2369
aF175.0
asg5
I1
sg6
(lp321
I38
aI-1
aI-1
aI75
aI-1
aI-1
asg8
(lp322
I25
aI-1
aI-1
aF-1.0
aF-1.0
aF-1.0
aI24
aI-1
aI-1
aF-1.0
aF-1.0
aF-1.0
asg10
(lp323
F-0.004
aF0.002
aF0.012
asba(i__main__
sensor_data_struct
p324
(dp325
g3
(lp326
I631
aI360
aI238
aI1119
aI2601
aF189.0
aI1049
aI501
aI349
aI1688
aI2375
aF194.0
asg5
I1
sg6
(lp327
I21
aI-1
aI-1
aI60
aI-1
aI-1
asg8
(lp328
I48
aI-1
aI-1
aF-1.0
aF-1.0
aF-1.0
aI30
aI-1
aI-1
aF-1.0
aF-1.0
aF-1.0
asg10
(lp329
F-0.005
aF0.01
aF0.013999999999999999
asba(i__main__
sensor_data_struct
p330
(dp331
g3
(lp332
I602
aI344
aI225
aI1078
aI2617
aF182.0
aI962
aI430
aI320
aI1507
aI2356
aF132.0
asg5
I0
sg6
(lp333
I218
aI-1
aI-1
aI108
aI-1
aI-1
asg8
(lp334
I29
aI-1
aI-1
aF-1.0
aF-1.0
aF-1.0
aI23
aI-1
aI-1
aF-1.0
aF-1.0
aF-1.0
asg10
(lp335
F0.0
aF-0.003
aF0.002
asba(i__main__
sensor_data_struct
p336
(dp337
g3
(lp338
I593
aI342
aI221
aI1070
aI2624
aF185.0
aI1066
aI477
aI341
aI1688
aI2347
aF157.0
asg5
I1
sg6
(lp339
I15
aI-1
aI-1
aI50
aI-1
aI-1
asg8
(lp340
I36
aI-1
aI-1
aF-1.0
aF-1.0
aF-1.0
aI34
aI-1
aI-1
aF-1.0
aF-1.0
aF-1.0
asg10
(lp341
F0.006
aF0.004
aF0.013999999999999999
asba(i__main__
sensor_data_struct
p342
(dp343
g3
(lp344
I766
aI380
aI268
aI1269
aI2467
aF154.0
aI1317
aI509
aI384
aI1980
aI2243
aF94.0
asg5
I0
sg6
(lp345
I57
aI-1
aI-1
aI103
aI-1
aI-1
asg8
(lp346
I20
aI-1
aI-1
aF-1.0
aF-1.0
aF-1.0
aI25
aI-1
aI-1
aF-1.0
aF-1.0
aF-1.0
asg10
(lp347
F-0.003
aF0.001
aF0.002
asba(i__main__
sensor_data_struct
p348
(dp349
g3
(lp350
I614
aI349
aI229
aI1092
aI2600
aF183.0
aI712
aI382
aI261
aI1209
aI2511
aF180.0
asg5
I1
sg6
(lp351
I22
aI-1
aI-1
aI68
aI-1
aI-1
asg8
(lp352
I35
aI-1
aI-1
aF-1.0
aF-1.0
aF-1.0
aI27
aI-1
aI-1
aF-1.0
aF-1.0
aF-1.0
asg10
(lp353
F-0.009000000000000001
aF-0.006999999999999999
aF0.013000000000000001
asba(i__main__
sensor_data_struct
p354
(dp355
g3
(lp356
I579
aI338
aI218
aI1051
aI2639
aF185.0
aI922
aI433
aI306
aI1486
aI2390
aF160.0
asg5
I1
sg6
(lp357
I23
aI-1
aI-1
aI67
aI-1
aI-1
asg8
(lp358
I32
aI-1
aI-1
aF-1.0
aF-1.0
aF-1.0
aI24
aI-1
aI-1
aF-1.0
aF-1.0
aF-1.0
asg10
(lp359
F0.005
aF0.001
aF0.013999999999999999
asba(i__main__
sensor_data_struct
p360
(dp361
g3
(lp362
I595
aI343
aI223
aI1069
aI2619
aF184.0
aI878
aI430
aI311
aI1411
aI2409
aF166.0
asg5
I0
sg6
(lp363
I74
aI-1
aI-1
aI106
aI-1
aI-1
asg8
(lp364
I22
aI-1
aI-1
aF-1.0
aF-1.0
aF-1.0
aI24
aI-1
aI-1
aF-1.0
aF-1.0
aF-1.0
asg10
(lp365
F-0.005
aF-0.006999999999999999
aF0.006999999999999999
asba(i__main__
sensor_data_struct
p366
(dp367
g3
(lp368
I604
aI348
aI226
aI1083
aI2615
aF187.0
aI1126
aI436
aI337
aI1707
aI2282
aF75.0
asg5
I0
sg6
(lp369
I49
aI-1
aI-1
aI107
aI-1
aI-1
asg8
(lp370
I22
aI-1
aI-1
aF-1.0
aF-1.0
aF-1.0
aI26
aI-1
aI-1
aF-1.0
aF-1.0
aF-1.0
asg10
(lp371
F-0.003
aF0.002
aF0.003
asba(i__main__
sensor_data_struct
p372
(dp373
g3
(lp374
I618
aI352
aI232
aI1099
aI2607
aF185.0
aI2581
aI676
aI624
aI3522
aI2096
aF65309.0
asg5
I1
sg6
(lp375
I25
aI-1
aI-1
aI38
aI-1
aI-1
asg8
(lp376
I37
aI-1
aI-1
aF-1.0
aF-1.0
aF-1.0
aI35
aI-1
aI-1
aF-1.0
aF-1.0
aF-1.0
asg10
(lp377
F0.002
aF0.006
aF0.006
asba(i__main__
sensor_data_struct
p378
(dp379
g3
(lp380
I677
aI362
aI245
aI1166
aI2537
aF172.0
aI1208
aI500
aI371
aI1843
aI2275
aF125.0
asg5
I0
sg6
(lp381
I139
aI-1
aI-1
aI113
aI-1
aI-1
asg8
(lp382
I30
aI-1
aI-1
aF-1.0
aF-1.0
aF-1.0
aI24
aI-1
aI-1
aF-1.0
aF-1.0
aF-1.0
asg10
(lp383
F0.004
aF-0.002
aF0.004
asba(i__main__
sensor_data_struct
p384
(dp385
g3
(lp386
I582
aI339
aI217
aI1058
aI2635
aF187.0
aI711
aI392
aI251
aI1246
aI2533
aF204.0
asg5
I1
sg6
(lp387
I3
aI-1
aI-1
aI35
aI-1
aI-1
asg8
(lp388
I52
aI-1
aI-1
aF-1.0
aF-1.0
aF-1.0
aI35
aI-1
aI-1
aF-1.0
aF-1.0
aF-1.0
asg10
(lp389
F0.008
aF-0.011000000000000001
aF0.015
asba(i__main__
sensor_data_struct
p390
(dp391
g3
(lp392
I598
aI346
aI223
aI1082
aI2631
aF188.0
aI855
aI425
aI296
aI1404
aI2431
aF176.0
asg5
I1
sg6
(lp393
I39
aI-1
aI-1
aI64
aI-1
aI-1
asg8
(lp394
I31
aI-1
aI-1
aF-1.0
aF-1.0
aF-1.0
aI28
aI-1
aI-1
aF-1.0
aF-1.0
aF-1.0
asg10
(lp395
F-0.003
aF-0.001
aF0.013999999999999999
asba(i__main__
sensor_data_struct
p396
(dp397
g3
(lp398
I631
aI360
aI236
aI1123
aI2601
aF190.0
aI1046
aI484
aI345
aI1661
aI2356
aF171.0
asg5
I0
sg6
(lp399
I28
aI-1
aI-1
aI85
aI-1
aI-1
asg8
(lp400
I27
aI-1
aI-1
aF-1.0
aF-1.0
aF-1.0
aI22
aI-1
aI-1
aF-1.0
aF-1.0
aF-1.0
asg10
(lp401
F-0.008
aF0.003
aF0.01
asba(i__main__
sensor_data_struct
p402
(dp403
g3
(lp404
I615
aI354
aI231
aI1103
aI2620
aF190.0
aI863
aI415
aI297
aI1398
aI2418
aF157.0
asg5
I1
sg6
(lp405
I47
aI-1
aI-1
aI79
aI-1
aI-1
asg8
(lp406
I23
aI-1
aI-1
aF-1.0
aF-1.0
aF-1.0
aI24
aI-1
aI-1
aF-1.0
aF-1.0
aF-1.0
asg10
(lp407
F-0.001
aF0.0
aF0.013000000000000001
asba(i__main__
sensor_data_struct
p408
(dp409
g3
(lp410
I619
aI354
aI231
aI1107
aI2612
aF188.0
aI865
aI437
aI302
aI1423
aI2433
aF187.0
asg5
I1
sg6
(lp411
I31
aI-1
aI-1
aI69
aI-1
aI-1
asg8
(lp412
I36
aI-1
aI-1
aF-1.0
aF-1.0
aF-1.0
aI24
aI-1
aI-1
aF-1.0
aF-1.0
aF-1.0
asg10
(lp413
F-0.006
aF-0.005
aF0.013000000000000001
asba(i__main__
sensor_data_struct
p414
(dp415
g3
(lp416
I587
aI342
aI219
aI1069
aI2642
aF188.0
aI799
aI391
aI277
aI1319
aI2457
aF155.0
asg5
I0
sg6
(lp417
I47
aI-1
aI-1
aI90
aI-1
aI-1
asg8
(lp418
I31
aI-1
aI-1
aF-1.0
aF-1.0
aF-1.0
aI23
aI-1
aI-1
aF-1.0
aF-1.0
aF-1.0
asg10
(lp419
F0.008
aF-0.003
aF0.011000000000000001
asba(i__main__
sensor_data_struct
p420
(dp421
g3
(lp422
I600
aI346
aI223
aI1086
aI2631
aF188.0
aI778
aI390
aI273
aI1296
aI2475
aF163.0
asg5
I1
sg6
(lp423
I29
aI-1
aI-1
aI61
aI-1
aI-1
asg8
(lp424
I41
aI-1
aI-1
aF-1.0
aF-1.0
aF-1.0
aI29
aI-1
aI-1
aF-1.0
aF-1.0
aF-1.0
asg10
(lp425
F-0.005
aF0.004
aF0.015
asba(i__main__
sensor_data_struct
p426
(dp427
g3
(lp428
I599
aI351
aI227
aI1085
aI2638
aF193.0
aI2088
aI600
aI519
aI2959
aI2157
aF65426.0
asg5
I1
sg6
(lp429
I12
aI-1
aI-1
aI34
aI-1
aI-1
asg8
(lp430
I47
aI-1
aI-1
aF-1.0
aF-1.0
aF-1.0
aI36
aI-1
aI-1
aF-1.0
aF-1.0
aF-1.0
asg10
(lp431
F0.005
aF0.009000000000000001
aF0.01
asba(i__main__
sensor_data_struct
p432
(dp433
g3
(lp434
I912
aI425
aI294
aI1507
aI2430
aF159.0
aI966
aI415
aI304
aI1538
aI2376
aF118.0
asg5
I1
sg6
(lp435
I15
aI-1
aI-1
aI36
aI-1
aI-1
asg8
(lp436
I42
aI-1
aI-1
aF-1.0
aF-1.0
aF-1.0
aI34
aI-1
aI-1
aF-1.0
aF-1.0
aF-1.0
asg10
(lp437
F0.004
aF0.006999999999999999
aF0.015
asba(i__main__
sensor_data_struct
p438
(dp439
g3
(lp440
I616
aI357
aI232
aI1108
aI2625
aF193.0
aI874
aI408
aI294
aI1413
aI2414
aF145.0
asg5
I0
sg6
(lp441
I34
aI-1
aI-1
aI105
aI-1
aI-1
asg8
(lp442
I13
aI-1
aI-1
aF-1.0
aF-1.0
aF-1.0
aI25
aI-1
aI-1
aF-1.0
aF-1.0
aF-1.0
asg10
(lp443
F-0.006999999999999999
aF0.003
aF0.005
asba(i__main__
sensor_data_struct
p444
(dp445
g3
(lp446
I624
aI349
aI230
aI1105
aI2590
aF179.0
aI1085
aI483
aI352
aI1692
aI2324
aF152.0
asg5
I0
sg6
(lp447
I207
aI-1
aI-1
aI116
aI-1
aI-1
asg8
(lp448
I32
aI-1
aI-1
aF-1.0
aF-1.0
aF-1.0
aI26
aI-1
aI-1
aF-1.0
aF-1.0
aF-1.0
asg10
(lp449
F0.003
aF-0.006
aF0.005
asba(i__main__
sensor_data_struct
p450
(dp451
g3
(lp452
I602
aI346
aI225
aI1082
aI2622
aF185.0
aI986
aI459
aI329
aI1569
aI2369
aF163.0
asg5
I1
sg6
(lp453
I43
aI-1
aI-1
aI77
aI-1
aI-1
asg8
(lp454
I23
aI-1
aI-1
aF-1.0
aF-1.0
aF-1.0
aI23
aI-1
aI-1
aF-1.0
aF-1.0
aF-1.0
asg10
(lp455
F-0.002
aF0.001
aF0.012
asba(i__main__
sensor_data_struct
p456
(dp457
g3
(lp458
I807
aI419
aI283
aI1363
aI2481
aF192.0
aI972
aI518
aI371
aI1528
aI2360
aF230.0
asg5
I0
sg6
(lp459
I57
aI-1
aI-1
aI81
aI-1
aI-1
asg8
(lp460
I25
aI-1
aI-1
aF-1.0
aF-1.0
aF-1.0
aI22
aI-1
aI-1
aF-1.0
aF-1.0
aF-1.0
asg10
(lp461
F0.002
aF0.001
aF0.011000000000000001
asba(i__main__
sensor_data_struct
p462
(dp463
g3
(lp464
I629
aI357
aI233
aI1124
aI2608
aF188.0
aI928
aI420
aI313
aI1459
aI2367
aF132.0
asg5
I0
sg6
(lp465
I164
aI-1
aI-1
aI109
aI-1
aI-1
asg8
(lp466
I24
aI-1
aI-1
aF-1.0
aF-1.0
aF-1.0
aI24
aI-1
aI-1
aF-1.0
aF-1.0
aF-1.0
asg10
(lp467
F-0.001
aF-0.003
aF0.003
asba(i__main__
sensor_data_struct
p468
(dp469
g3
(lp470
I935
aI405
aI298
aI1480
aI2365
aF117.0
aI1439
aI532
aI410
aI2137
aI2224
aF72.0
asg5
I0
sg6
(lp471
I67
aI-1
aI-1
aI105
aI-1
aI-1
asg8
(lp472
I27
aI-1
aI-1
aF-1.0
aF-1.0
aF-1.0
aI24
aI-1
aI-1
aF-1.0
aF-1.0
aF-1.0
asg10
(lp473
F0.004
aF0.001
aF0.001
asba(i__main__
sensor_data_struct
p474
(dp475
g3
(lp476
I702
aI368
aI247
aI1209
aI2525
aF172.0
aI792
aI377
aI262
aI1342
aI2501
aF146.0
asg5
I1
sg6
(lp477
I4
aI-1
aI-1
aI32
aI-1
aI-1
asg8
(lp478
I46
aI-1
aI-1
aF-1.0
aF-1.0
aF-1.0
aI36
aI-1
aI-1
aF-1.0
aF-1.0
aF-1.0
asg10
(lp479
F0.012
aF0.004
aF0.013999999999999999
asba(i__main__
sensor_data_struct
p480
(dp481
g3
(lp482
I616
aI347
aI224
aI1105
aI2603
aF183.0
aI1054
aI479
aI344
aI1660
aI2341
aF162.0
asg5
I0
sg6
(lp483
I57
aI-1
aI-1
aI106
aI-1
aI-1
asg8
(lp484
I31
aI-1
aI-1
aF-1.0
aF-1.0
aF-1.0
aI23
aI-1
aI-1
aF-1.0
aF-1.0
aF-1.0
asg10
(lp485
F0.008
aF-0.004
aF0.008
asba(i__main__
sensor_data_struct
p486
(dp487
g3
(lp488
I597
aI343
aI219
aI1081
aI2620
aF187.0
aI892
aI446
aI305
aI1470
aI2426
aF191.0
asg5
I1
sg6
(lp489
I21
aI-1
aI-1
aI71
aI-1
aI-1
asg8
(lp490
I39
aI-1
aI-1
aF-1.0
aF-1.0
aF-1.0
aI25
aI-1
aI-1
aF-1.0
aF-1.0
aF-1.0
asg10
(lp491
F0.004
aF-0.006
aF0.013999999999999999
asba(i__main__
sensor_data_struct
p492
(dp493
g3
(lp494
I593
aI345
aI221
aI1076
aI2633
aF190.0
aI672
aI372
aI251
aI1171
aI2571
aF185.0
asg5
I1
sg6
(lp495
I19
aI-1
aI-1
aI34
aI-1
aI-1
asg8
(lp496
I54
aI-1
aI-1
aF-1.0
aF-1.0
aF-1.0
aI34
aI-1
aI-1
aF-1.0
aF-1.0
aF-1.0
asg10
(lp497
F-0.012
aF0.002
aF0.015
asba(i__main__
sensor_data_struct
p498
(dp499
g3
(lp500
I587
aI342
aI219
aI1069
aI2642
aF188.0
aI991
aI421
aI315
aI1547
aI2342
aF112.0
asg5
I0
sg6
(lp501
I75
aI-1
aI-1
aI110
aI-1
aI-1
asg8
(lp502
I29
aI-1
aI-1
aF-1.0
aF-1.0
aF-1.0
aI25
aI-1
aI-1
aF-1.0
aF-1.0
aF-1.0
asg10
(lp503
F0.006999999999999999
aF-0.002
aF0.006999999999999999
asba(i__main__
sensor_data_struct
p504
(dp505
g3
(lp506
I643
aI360
aI239
aI1132
aI2583
aF184.0
aI1064
aI501
aI351
aI1704
aI2365
aF188.0
asg5
I1
sg6
(lp507
I26
aI-1
aI-1
aI68
aI-1
aI-1
asg8
(lp508
I40
aI-1
aI-1
aF-1.0
aF-1.0
aF-1.0
aI26
aI-1
aI-1
aF-1.0
aF-1.0
aF-1.0
asg10
(lp509
F-0.005
aF0.006999999999999999
aF0.013000000000000001
asba(i__main__
sensor_data_struct
p510
(dp511
g3
(lp512
I592
aI340
aI219
aI1070
aI2626
aF184.0
aI1096
aI458
aI342
aI1690
aI2308
aF116.0
asg5
I0
sg6
(lp513
I77
aI-1
aI-1
aI112
aI-1
aI-1
asg8
(lp514
I30
aI-1
aI-1
aF-1.0
aF-1.0
aF-1.0
aI23
aI-1
aI-1
aF-1.0
aF-1.0
aF-1.0
asg10
(lp515
F0.006
aF-0.001
aF0.006
asba(i__main__
sensor_data_struct
p516
(dp517
g3
(lp518
I596
aI340
aI219
aI1077
aI2622
aF182.0
aI1038
aI481
aI339
aI1655
aI2358
aF174.0
asg5
I0
sg6
(lp519
I22
aI-1
aI-1
aI82
aI-1
aI-1
asg8
(lp520
I32
aI-1
aI-1
aF-1.0
aF-1.0
aF-1.0
aI24
aI-1
aI-1
aF-1.0
aF-1.0
aF-1.0
asg10
(lp521
F0.008
aF-0.001
aF0.012
asba(i__main__
sensor_data_struct
p522
(dp523
g3
(lp524
I614
aI351
aI225
aI1109
aI2618
aF189.0
aI1426
aI492
aI390
aI2112
aI2228
aF28.0
asg5
I1
sg6
(lp525
I12
aI-1
aI-1
aI34
aI-1
aI-1
asg8
(lp526
I39
aI-1
aI-1
aF-1.0
aF-1.0
aF-1.0
aI35
aI-1
aI-1
aF-1.0
aF-1.0
aF-1.0
asg10
(lp527
F0.008
aF0.005
aF0.011000000000000001
asba(i__main__
sensor_data_struct
p528
(dp529
g3
(lp530
I668
aI365
aI245
aI1163
aI2563
aF179.0
aI1148
aI513
aI371
aI1791
aI2321
aF165.0
asg5
I0
sg6
(lp531
I49
aI-1
aI-1
aI87
aI-1
aI-1
asg8
(lp532
I20
aI-1
aI-1
aF-1.0
aF-1.0
aF-1.0
aI25
aI-1
aI-1
aF-1.0
aF-1.0
aF-1.0
asg10
(lp533
F-0.003
aF0.002
aF0.01
asba(i__main__
sensor_data_struct
p534
(dp535
g3
(lp536
I721
aI386
aI259
aI1243
aI2534
aF185.0
aI801
aI397
aI283
aI1315
aI2452
aF159.0
asg5
I1
sg6
(lp537
I56
aI-1
aI-1
aI75
aI-1
aI-1
asg8
(lp538
I23
aI-1
aI-1
aF-1.0
aF-1.0
aF-1.0
aI24
aI-1
aI-1
aF-1.0
aF-1.0
aF-1.0
asg10
(lp539
F-0.002
aF-0.001
aF0.012
asba(i__main__
sensor_data_struct
p540
(dp541
g3
(lp542
I619
aI353
aI229
aI1110
aI2612
aF188.0
aI748
aI380
aI265
aI1256
aI2494
aF162.0
asg5
I0
sg6
(lp543
I45
aI-1
aI-1
aI89
aI-1
aI-1
asg8
(lp544
I34
aI-1
aI-1
aF-1.0
aF-1.0
aF-1.0
aI23
aI-1
aI-1
aF-1.0
aF-1.0
aF-1.0
asg10
(lp545
F0.005
aF-0.005
aF0.011000000000000001
asba(i__main__
sensor_data_struct
p546
(dp547
g3
(lp548
I593
aI346
aI224
aI1073
aI2635
aF189.0
aI889
aI433
aI303
aI1459
aI2430
aF173.0
asg5
I1
sg6
(lp549
I22
aI-1
aI-1
aI62
aI-1
aI-1
asg8
(lp550
I47
aI-1
aI-1
aF-1.0
aF-1.0
aF-1.0
aI26
aI-1
aI-1
aF-1.0
aF-1.0
aF-1.0
asg10
(lp551
F-0.006999999999999999
aF0.008
aF0.013999999999999999
asba(i__main__
sensor_data_struct
p552
(dp553
g3
(lp554
I583
aI344
aI221
aI1063
aI2651
aF191.0
aI1252
aI444
aI348
aI1876
aI2252
aF39.0
asg5
I1
sg6
(lp555
I12
aI-1
aI-1
aI33
aI-1
aI-1
asg8
(lp556
I40
aI-1
aI-1
aF-1.0
aF-1.0
aF-1.0
aI37
aI-1
aI-1
aF-1.0
aF-1.0
aF-1.0
asg10
(lp557
F0.006999999999999999
aF0.005
aF0.011000000000000001
asba(i__main__
sensor_data_struct
p558
(dp559
g3
(lp560
I619
aI356
aI233
aI1106
aI2611
aF190.0
aI1025
aI482
aI339
aI1644
aI2372
aF179.0
asg5
I1
sg6
(lp561
I25
aI-1
aI-1
aI71
aI-1
aI-1
asg8
(lp562
I41
aI-1
aI-1
aF-1.0
aF-1.0
aF-1.0
aI24
aI-1
aI-1
aF-1.0
aF-1.0
aF-1.0
asg10
(lp563
F-0.006999999999999999
aF0.006999999999999999
aF0.012
asba(i__main__
sensor_data_struct
p564
(dp565
g3
(lp566
I569
aI333
aI212
aI1041
aI2649
aF185.0
aI926
aI420
aI304
aI1478
aI2379
aF139.0
asg5
I0
sg6
(lp567
I55
aI-1
aI-1
aI100
aI-1
aI-1
asg8
(lp568
I32
aI-1
aI-1
aF-1.0
aF-1.0
aF-1.0
aI22
aI-1
aI-1
aF-1.0
aF-1.0
aF-1.0
asg10
(lp569
F0.01
aF-0.002
aF0.009000000000000001
asba(i__main__
sensor_data_struct
p570
(dp571
g3
(lp572
I585
aI344
aI221
aI1065
aI2646
aF191.0
aI1243
aI499
aI366
aI1948
aI2327
aF116.0
asg5
I1
sg6
(lp573
I13
aI-1
aI-1
aI37
aI-1
aI-1
asg8
(lp574
I49
aI-1
aI-1
aF-1.0
aF-1.0
aF-1.0
aI35
aI-1
aI-1
aF-1.0
aF-1.0
aF-1.0
asg10
(lp575
F0.003
aF0.012
aF0.013999999999999999
asba(i__main__
sensor_data_struct
p576
(dp577
g3
(lp578
I968
aI474
aI318
aI1609
aI2427
aF201.0
aI1245
aI454
aI351
aI1899
aI2289
aF55.0
asg5
I1
sg6
(lp579
I16
aI-1
aI-1
aI36
aI-1
aI-1
asg8
(lp580
I47
aI-1
aI-1
aF-1.0
aF-1.0
aF-1.0
aI35
aI-1
aI-1
aF-1.0
aF-1.0
aF-1.0
asg10
(lp581
F0.004
aF0.01
aF0.013000000000000001
asba(i__main__
sensor_data_struct
p582
(dp583
g3
(lp584
I617
aI353
aI229
aI1108
aI2616
aF189.0
aI894
aI428
aI316
aI1425
aI2406
aF154.0
asg5
I0
sg6
(lp585
I229
aI-1
aI-1
aI111
aI-1
aI-1
asg8
(lp586
I27
aI-1
aI-1
aF-1.0
aF-1.0
aF-1.0
aI24
aI-1
aI-1
aF-1.0
aF-1.0
aF-1.0
asg10
(lp587
F0.0
aF-0.004
aF0.003
asba(i__main__
sensor_data_struct
p588
(dp589
g3
(lp590
I613
aI351
aI228
aI1100
aI2613
aF188.0
aI893
aI402
aI295
aI1418
aI2377
aF128.0
asg5
I0
sg6
(lp591
I46
aI-1
aI-1
aI101
aI-1
aI-1
asg8
(lp592
I15
aI-1
aI-1
aF-1.0
aF-1.0
aF-1.0
aI24
aI-1
aI-1
aF-1.0
aF-1.0
aF-1.0
asg10
(lp593
F-0.005
aF-0.001
aF0.001
asba(i__main__
sensor_data_struct
p594
(dp595
g3
(lp596
I615
aI351
aI229
aI1100
aI2611
aF186.0
aI910
aI455
aI312
aI1493
aI2415
aF194.0
asg5
I1
sg6
(lp597
I34
aI-1
aI-1
aI65
aI-1
aI-1
asg8
(lp598
I38
aI-1
aI-1
aF-1.0
aF-1.0
aF-1.0
aI26
aI-1
aI-1
aF-1.0
aF-1.0
aF-1.0
asg10
(lp599
F-0.005
aF-0.004
aF0.013999999999999999
asba(i__main__
sensor_data_struct
p600
(dp601
g3
(lp602
I652
aI369
aI239
aI1160
aI2587
aF195.0
aI867
aI389
aI279
aI1405
aI2407
aF128.0
asg5
I1
sg6
(lp603
I11
aI-1
aI-1
aI63
aI-1
aI-1
asg8
(lp604
I36
aI-1
aI-1
aF-1.0
aF-1.0
aF-1.0
aI28
aI-1
aI-1
aF-1.0
aF-1.0
aF-1.0
asg10
(lp605
F0.008
aF0.003
aF0.013999999999999999
asba.