(lp0
(i__main__
sensor_data_struct
p1
(dp2
S'color'
p3
(lp4
I582
aI328
aI206
aI1053
aI2601
aF177.0
aI1050
aI448
aI324
aI1648
aI2328
aF129.0
asS'button'
p5
I0
sS'IR'
p6
(lp7
I57
aI-1
aI-1
aI106
aI-1
aI-1
asS'TOF'
p8
(lp9
I30
aI-1
aI-1
aF-1.0
aF-1.0
aF-1.0
aI24
aI-1
aI-1
aF-1.0
aF-1.0
aF-1.0
asS'pt'
p10
(lp11
F0.009000000000000001
aF-0.001
aF0.006999999999999999
asba(i__main__
sensor_data_struct
p12
(dp13
g3
(lp14
I592
aI336
aI209
aI1074
aI2599
aF185.0
aI1077
aI431
aI326
aI1662
aI2313
aF92.0
asg5
I0
sg6
(lp15
I40
aI-1
aI-1
aI85
aI-1
aI-1
asg8
(lp16
I23
aI-1
aI-1
aF-1.0
aF-1.0
aF-1.0
aI24
aI-1
aI-1
aF-1.0
aF-1.0
aF-1.0
asg10
(lp17
F0.001
aF0.004
aF0.011000000000000001
asba(i__main__
sensor_data_struct
p18
(dp19
g3
(lp20
I673
aI361
aI234
aI1176
aI2533
aF180.0
aI655
aI356
aI233
aI1143
aI2543
aF178.0
asg5
I1
sg6
(lp21
I15
aI-1
aI-1
aI59
aI-1
aI-1
asg8
(lp22
I51
aI-1
aI-1
aF-1.0
aF-1.0
aF-1.0
aI27
aI-1
aI-1
aF-1.0
aF-1.0
aF-1.0
asg10
(lp23
F-0.006999999999999999
aF-0.006
aF0.015
asba(i__main__
sensor_data_struct
p24
(dp25
g3
(lp26
I661
aI351
aI228
aI1154
aI2531
aF172.0
aI1320
aI487
aI372
aI1981
aI2242
aF67.0
asg5
I0
sg6
(lp27
I76
aI-1
aI-1
aI112
aI-1
aI-1
asg8
(lp28
I26
aI-1
aI-1
aF-1.0
aF-1.0
aF-1.0
aI23
aI-1
aI-1
aF-1.0
aF-1.0
aF-1.0
asg10
(lp29
F0.005
aF0.001
aF0.003
asba(i__main__
sensor_data_struct
p30
(dp31
g3
(lp32
I608
aI344
aI219
aI1089
aI2587
aF185.0
aI971
aI461
aI314
aI1571
aI2369
aF182.0
asg5
I1
sg6
(lp33
I32
aI-1
aI-1
aI62
aI-1
aI-1
asg8
(lp34
I50
aI-1
aI-1
aF-1.0
aF-1.0
aF-1.0
aI25
aI-1
aI-1
aF-1.0
aF-1.0
aF-1.0
asg10
(lp35
F-0.008
aF0.006
aF0.013999999999999999
asba(i__main__
sensor_data_struct
p36
(dp37
g3
(lp38
I638
aI353
aI226
aI1130
aI2562
aF184.0
aI1132
aI466
aI341
aI1748
aI2294
aF118.0
asg5
I0
sg6
(lp39
I33
aI-1
aI-1
aI100
aI-1
aI-1
asg8
(lp40
I20
aI-1
aI-1
aF-1.0
aF-1.0
aF-1.0
aI23
aI-1
aI-1
aF-1.0
aF-1.0
aF-1.0
asg10
(lp41
F-0.005
aF0.006
aF0.006999999999999999
asba(i__main__
sensor_data_struct
p42
(dp43
g3
(lp44
I590
aI334
aI209
aI1069
aI2599
aF182.0
aI981
aI469
aI320
aI1586
aI2368
aF187.0
asg5
I1
sg6
(lp45
I17
aI-1
aI-1
aI75
aI-1
aI-1
asg8
(lp46
I49
aI-1
aI-1
aF-1.0
aF-1.0
aF-1.0
aI22
aI-1
aI-1
aF-1.0
aF-1.0
aF-1.0
asg10
(lp47
F0.001
aF-0.01
aF0.012
asba(i__main__
sensor_data_struct
p48
(dp49
g3
(lp50
I614
aI344
aI214
aI1107
aI2582
aF186.0
aI747
aI393
aI261
aI1271
aI2485
aF186.0
asg5
I1
sg6
(lp51
I36
aI-1
aI-1
aI91
aI-1
aI-1
asg8
(lp52
I49
aI-1
aI-1
aF-1.0
aF-1.0
aF-1.0
aI36
aI-1
aI-1
aF-1.0
aF-1.0
aF-1.0
asg10
(lp53
F0.003
aF-0.01
aF0.01
asba(i__main__
sensor_data_struct
p54
(dp55
g3
(lp56
I716
aI371
aI247
aI1223
aI2497
aF172.0
aI1184
aI488
aI354
aI1823
aI2281
aF126.0
asg5
I0
sg6
(lp57
I32
aI-1
aI-1
aI105
aI-1
aI-1
asg8
(lp58
I15
aI-1
aI-1
aF-1.0
aF-1.0
aF-1.0
aI23
aI-1
aI-1
aF-1.0
aF-1.0
aF-1.0
asg10
(lp59
F-0.006
aF0.003
aF0.005
asba(i__main__
sensor_data_struct
p60
(dp61
g3
(lp62
I599
aI340
aI214
aI1080
aI2595
aF185.0
aI849
aI415
aI293
aI1383
aI2421
aF164.0
asg5
I0
sg6
(lp63
I45
aI-1
aI-1
aI107
aI-1
aI-1
asg8
(lp64
I20
aI-1
aI-1
aF-1.0
aF-1.0
aF-1.0
aI24
aI-1
aI-1
aF-1.0
aF-1.0
aF-1.0
asg10
(lp65
F-0.005
aF-0.006
aF0.006
asba(i__main__
sensor_data_struct
p66
(dp67
g3
(lp68
I622
aI348
aI221
aI1111
aI2575
aF185.0
aI760
aI378
aI258
aI1274
aI2464
aF161.0
asg5
I1
sg6
(lp69
I28
aI-1
aI-1
aI65
aI-1
aI-1
asg8
(lp70
I28
aI-1
aI-1
aF-1.0
aF-1.0
aF-1.0
aI25
aI-1
aI-1
aF-1.0
aF-1.0
aF-1.0
asg10
(lp71
F0.005
aF-0.001
aF0.013999999999999999
asba(i__main__
sensor_data_struct
p72
(dp73
g3
(lp74
I632
aI349
aI223
aI1123
aI2568
aF182.0
aI1015
aI469
aI327
aI1621
aI2351
aF171.0
asg5
I1
sg6
(lp75
I52
aI-1
aI-1
aI72
aI-1
aI-1
asg8
(lp76
I23
aI-1
aI-1
aF-1.0
aF-1.0
aF-1.0
aI25
aI-1
aI-1
aF-1.0
aF-1.0
aF-1.0
asg10
(lp77
F0.002
aF0.0
aF0.013000000000000001
asba(i__main__
sensor_data_struct
p78
(dp79
g3
(lp80
I812
aI412
aI272
aI1368
aI2450
aF187.0
aI731
aI377
aI255
aI1238
aI2490
aF171.0
asg5
I0
sg6
(lp81
I42
aI-1
aI-1
aI77
aI-1
aI-1
asg8
(lp82
I33
aI-1
aI-1
aF-1.0
aF-1.0
aF-1.0
aI22
aI-1
aI-1
aF-1.0
aF-1.0
aF-1.0
asg10
(lp83
F0.004
aF-0.005
aF0.012
asba(i__main__
sensor_data_struct
p84
(dp85
g3
(lp86
I613
aI345
aI219
aI1096
aI2581
aF185.0
aI940
aI448
aI308
aI1524
aI2381
aF176.0
asg5
I1
sg6
(lp87
I23
aI-1
aI-1
aI68
aI-1
aI-1
asg8
(lp88
I30
aI-1
aI-1
aF-1.0
aF-1.0
aF-1.0
aI25
aI-1
aI-1
aF-1.0
aF-1.0
aF-1.0
asg10
(lp89
F-0.006999999999999999
aF0.003
aF0.013000000000000001
asba(i__main__
sensor_data_struct
p90
(dp91
g3
(lp92
I593
aI338
aI213
aI1073
aI2606
aF185.0
aI858
aI419
aI296
aI1395
aI2416
aF166.0
asg5
I0
sg6
(lp93
I84
aI-1
aI-1
aI101
aI-1
aI-1
asg8
(lp94
I25
aI-1
aI-1
aF-1.0
aF-1.0
aF-1.0
aI25
aI-1
aI-1
aF-1.0
aF-1.0
aF-1.0
asg10
(lp95
F0.0
aF-0.005
aF0.008
asba(i__main__
sensor_data_struct
p96
(dp97
g3
(lp98
I620
aI347
aI221
aI1108
aI2579
aF184.0
aI714
aI375
aI253
aI1216
aI2502
aF174.0
asg5
I1
sg6
(lp99
I26
aI-1
aI-1
aI68
aI-1
aI-1
asg8
(lp100
I25
aI-1
aI-1
aF-1.0
aF-1.0
aF-1.0
aI23
aI-1
aI-1
aF-1.0
aF-1.0
aF-1.0
asg10
(lp101
F-0.006
aF-0.002
aF0.013000000000000001
asba(i__main__
sensor_data_struct
p102
(dp103
g3
(lp104
I587
aI338
aI212
aI1067
aI2612
aF187.0
aI1195
aI481
aI347
aI1868
aI2311
aF117.0
asg5
I1
sg6
(lp105
I9
aI-1
aI-1
aI34
aI-1
aI-1
asg8
(lp106
I48
aI-1
aI-1
aF-1.0
aF-1.0
aF-1.0
aI35
aI-1
aI-1
aF-1.0
aF-1.0
aF-1.0
asg10
(lp107
F0.006999999999999999
aF0.009000000000000001
aF0.013999999999999999
asba(i__main__
sensor_data_struct
p108
(dp109
g3
(lp110
I897
aI433
aI285
aI1495
aI2415
aF183.0
aI970
aI417
aI298
aI1572
aI2399
aF125.0
asg5
I1
sg6
(lp111
I12
aI-1
aI-1
aI36
aI-1
aI-1
asg8
(lp112
I52
aI-1
aI-1
aF-1.0
aF-1.0
aF-1.0
aI33
aI-1
aI-1
aF-1.0
aF-1.0
aF-1.0
asg10
(lp113
F0.001
aF0.013000000000000001
aF0.015
asba(i__main__
sensor_data_struct
p114
(dp115
g3
(lp116
I583
aI335
aI208
aI1064
aI2612
aF187.0
aI734
aI394
aI250
aI1275
aI2501
aF200.0
asg5
I1
sg6
(lp117
I7
aI-1
aI-1
aI42
aI-1
aI-1
asg8
(lp118
I53
aI-1
aI-1
aF-1.0
aF-1.0
aF-1.0
aI33
aI-1
aI-1
aF-1.0
aF-1.0
aF-1.0
asg10
(lp119
F0.006
aF-0.011000000000000001
aF0.013000000000000001
asba(i__main__
sensor_data_struct
p120
(dp121
g3
(lp122
I611
aI347
aI214
aI1106
aI2584
aF192.0
aI754
aI389
aI262
aI1274
aI2480
aF177.0
asg5
I1
sg6
(lp123
I39
aI-1
aI-1
aI61
aI-1
aI-1
asg8
(lp124
I33
aI-1
aI-1
aF-1.0
aF-1.0
aF-1.0
aI25
aI-1
aI-1
aF-1.0
aF-1.0
aF-1.0
asg10
(lp125
F-0.001
aF-0.004
aF0.015
asba(i__main__
sensor_data_struct
p126
(dp127
g3
(lp128
I604
aI342
aI214
aI1090
aI2589
aF187.0
aI918
aI443
aI309
aI1486
aI2391
aF175.0
asg5
I0
sg6
(lp129
I70
aI-1
aI-1
aI102
aI-1
aI-1
asg8
(lp130
I37
aI-1
aI-1
aF-1.0
aF-1.0
aF-1.0
aI24
aI-1
aI-1
aF-1.0
aF-1.0
aF-1.0
asg10
(lp131
F0.002
aF-0.008
aF0.008
asba(i__main__
sensor_data_struct
p132
(dp133
g3
(lp134
I606
aI339
aI213
aI1091
aI2587
aF182.0
aI1088
aI480
aI340
aI1713
aI2325
aF155.0
asg5
I0
sg6
(lp135
I24
aI-1
aI-1
aI92
aI-1
aI-1
asg8
(lp136
I29
aI-1
aI-1
aF-1.0
aF-1.0
aF-1.0
aI23
aI-1
aI-1
aF-1.0
aF-1.0
aF-1.0
asg10
(lp137
F0.009000000000000001
aF0.0
aF0.01
asba(i__main__
sensor_data_struct
p138
(dp139
g3
(lp140
I601
aI341
aI214
aI1082
aI2586
aF186.0
aI865
aI424
aI294
aI1414
aI2415
aF173.0
asg5
I0
sg6
(lp141
I37
aI-1
aI-1
aI87
aI-1
aI-1
asg8
(lp142
I28
aI-1
aI-1
aF-1.0
aF-1.0
aF-1.0
aI24
aI-1
aI-1
aF-1.0
aF-1.0
aF-1.0
asg10
(lp143
F-0.004
aF-0.005
aF0.01
asba(i__main__
sensor_data_struct
p144
(dp145
g3
(lp146
I607
aI344
aI217
aI1091
aI2589
aF187.0
aI853
aI443
aI287
aI1436
aI2436
aF212.0
asg5
I1
sg6
(lp147
I18
aI-1
aI-1
aI34
aI-1
aI-1
asg8
(lp148
I33
aI-1
aI-1
aF-1.0
aF-1.0
aF-1.0
aI32
aI-1
aI-1
aF-1.0
aF-1.0
aF-1.0
asg10
(lp149
F-0.009000000000000001
aF-0.001
aF0.013000000000000001
asba(i__main__
sensor_data_struct
p150
(dp151
g3
(lp152
I668
aI353
aI228
aI1169
aI2531
aF173.0
aI1229
aI506
aI369
aI1892
aI2283
aF129.0
asg5
I0
sg6
(lp153
I21
aI-1
aI-1
aI91
aI-1
aI-1
asg8
(lp154
I31
aI-1
aI-1
aF-1.0
aF-1.0
aF-1.0
aI24
aI-1
aI-1
aF-1.0
aF-1.0
aF-1.0
asg10
(lp155
F0.008
aF0.004
aF0.009000000000000001
asba(i__main__
sensor_data_struct
p156
(dp157
g3
(lp158
I622
aI346
aI221
aI1107
aI2571
aF182.0
aI1017
aI469
aI331
aI1615
aI2347
aF167.0
asg5
I0
sg6
(lp159
I58
aI-1
aI-1
aI95
aI-1
aI-1
asg8
(lp160
I27
aI-1
aI-1
aF-1.0
aF-1.0
aF-1.0
aI22
aI-1
aI-1
aF-1.0
aF-1.0
aF-1.0
asg10
(lp161
F-0.002
aF-0.006
aF0.009000000000000001
asba(i__main__
sensor_data_struct
p162
(dp163
g3
(lp164
I627
aI346
aI221
aI1115
aI2570
aF180.0
aI1219
aI461
aI350
aI1846
aI2263
aF75.0
asg5
I0
sg6
(lp165
I104
aI-1
aI-1
aI110
aI-1
aI-1
asg8
(lp166
I25
aI-1
aI-1
aF-1.0
aF-1.0
aF-1.0
aI23
aI-1
aI-1
aF-1.0
aF-1.0
aF-1.0
asg10
(lp167
F0.004
aF0.0
aF0.002
asba(i__main__
sensor_data_struct
p168
(dp169
g3
(lp170
I621
aI346
aI221
aI1104
aI2568
aF182.0
aI1003
aI458
aI325
aI1591
aI2349
aF159.0
asg5
I0
sg6
(lp171
I40
aI-1
aI-1
aI99
aI-1
aI-1
asg8
(lp172
I15
aI-1
aI-1
aF-1.0
aF-1.0
aF-1.0
aI23
aI-1
aI-1
aF-1.0
aF-1.0
aF-1.0
asg10
(lp173
F-0.006
aF-0.005
aF0.006999999999999999
asba(i__main__
sensor_data_struct
p174
(dp175
g3
(lp176
I583
aI333
aI207
aI1061
aI2605
aF184.0
aI798
aI397
aI277
aI1318
aI2447
aF164.0
asg5
I0
sg6
(lp177
I123
aI-1
aI-1
aI110
aI-1
aI-1
asg8
(lp178
I30
aI-1
aI-1
aF-1.0
aF-1.0
aF-1.0
aI23
aI-1
aI-1
aF-1.0
aF-1.0
aF-1.0
asg10
(lp179
F0.005
aF-0.005
aF0.006999999999999999
asba(i__main__
sensor_data_struct
p180
(dp181
g3
(lp182
I765
aI375
aI255
aI1282
aI2460
aF156.0
aI1527
aI518
aI410
aI2240
aI2203
aF21.0
asg5
I0
sg6
(lp183
I42
aI-1
aI-1
aI105
aI-1
aI-1
asg8
(lp184
I23
aI-1
aI-1
aF-1.0
aF-1.0
aF-1.0
aI22
aI-1
aI-1
aF-1.0
aF-1.0
aF-1.0
asg10
(lp185
F0.0
aF0.005
aF0.001
asba(i__main__
sensor_data_struct
p186
(dp187
g3
(lp188
I655
aI351
aI229
aI1147
aI2544
aF173.0
aI1152
aI498
aI357
aI1795
aI2305
aF150.0
asg5
I0
sg6
(lp189
I54
aI-1
aI-1
aI86
aI-1
aI-1
asg8
(lp190
I26
aI-1
aI-1
aF-1.0
aF-1.0
aF-1.0
aI23
aI-1
aI-1
aF-1.0
aF-1.0
aF-1.0
asg10
(lp191
F0.003
aF0.002
aF0.01
asba(i__main__
sensor_data_struct
p192
(dp193
g3
(lp194
I653
aI355
aI228
aI1151
aI2550
aF181.0
aI813
aI388
aI268
aI1343
aI2432
aF152.0
asg5
I1
sg6
(lp195
I23
aI-1
aI-1
aI58
aI-1
aI-1
asg8
(lp196
I46
aI-1
aI-1
aF-1.0
aF-1.0
aF-1.0
aI26
aI-1
aI-1
aF-1.0
aF-1.0
aF-1.0
asg10
(lp197
F-0.004
aF0.008
aF0.015
asba(i__main__
sensor_data_struct
p198
(dp199
g3
(lp200
I621
aI345
aI220
aI1107
aI2575
aF181.0
aI1225
aI457
aI351
aI1849
aI2261
aF66.0
asg5
I0
sg6
(lp201
I82
aI-1
aI-1
aI106
aI-1
aI-1
asg8
(lp202
I22
aI-1
aI-1
aF-1.0
aF-1.0
aF-1.0
aI23
aI-1
aI-1
aF-1.0
aF-1.0
aF-1.0
asg10
(lp203
F0.001
aF0.002
aF0.002
asba(i__main__
sensor_data_struct
p204
(dp205
g3
(lp206
I633
aI347
aI223
aI1121
aI2562
aF178.0
aI929
aI439
aI304
aI1507
aI2389
aF168.0
asg5
I1
sg6
(lp207
I48
aI-1
aI-1
aI69
aI-1
aI-1
asg8
(lp208
I22
aI-1
aI-1
aF-1.0
aF-1.0
aF-1.0
aI24
aI-1
aI-1
aF-1.0
aF-1.0
aF-1.0
asg10
(lp209
F-0.001
aF0.0
aF0.013000000000000001
asba(i__main__
sensor_data_struct
p210
(dp211
g3
(lp212
I639
aI351
aI226
aI1128
aI2556
aF181.0
aI1115
aI474
aI342
aI1733
aI2302
aF135.0
asg5
I0
sg6
(lp213
I49
aI-1
aI-1
aI107
aI-1
aI-1
asg8
(lp214
I16
aI-1
aI-1
aF-1.0
aF-1.0
aF-1.0
aI25
aI-1
aI-1
aF-1.0
aF-1.0
aF-1.0
asg10
(lp215
F-0.006
aF-0.004
aF0.005
asba(i__main__
sensor_data_struct
p216
(dp217
g3
(lp218
I640
aI351
aI225
aI1130
aI2552
aF181.0
aI1081
aI461
aI331
aI1690
aI2314
aF134.0
asg5
I0
sg6
(lp219
I28
aI-1
aI-1
aI102
aI-1
aI-1
asg8
(lp220
I14
aI-1
aI-1
aF-1.0
aF-1.0
aF-1.0
aI24
aI-1
aI-1
aF-1.0
aF-1.0
aF-1.0
asg10
(lp221
F-0.006999999999999999
aF0.003
aF0.006
asba(i__main__
sensor_data_struct
p222
(dp223
g3
(lp224
I602
aI340
aI214
aI1084
aI2589
aF184.0
aI1002
aI421
aI315
aI1561
aI2337
aF108.0
asg5
I0
sg6
(lp225
I76
aI-1
aI-1
aI102
aI-1
aI-1
asg8
(lp226
I21
aI-1
aI-1
aF-1.0
aF-1.0
aF-1.0
aI24
aI-1
aI-1
aF-1.0
aF-1.0
aF-1.0
asg10
(lp227
F0.0
aF0.0
aF0.006999999999999999
asba(i__main__
sensor_data_struct
p228
(dp229
g3
(lp230
I608
aI340
aI215
aI1091
aI2583
aF181.0
aI851
aI420
aI286
aI1404
aI2423
aF177.0
asg5
I1
sg6
(lp231
I32
aI-1
aI-1
aI73
aI-1
aI-1
asg8
(lp232
I36
aI-1
aI-1
aF-1.0
aF-1.0
aF-1.0
aI23
aI-1
aI-1
aF-1.0
aF-1.0
aF-1.0
asg10
(lp233
F-0.002
aF-0.006
aF0.012
asba(i__main__
sensor_data_struct
p234
(dp235
g3
(lp236
I603
aI340
aI211
aI1091
aI2589
aF186.0
aI682
aI368
aI236
aI1192
aI2525
aF186.0
asg5
I1
sg6
(lp237
I10
aI-1
aI-1
aI49
aI-1
aI-1
asg8
(lp238
I53
aI-1
aI-1
aF-1.0
aF-1.0
aF-1.0
aI33
aI-1
aI-1
aF-1.0
aF-1.0
aF-1.0
asg10
(lp239
F0.004
aF-0.011000000000000001
aF0.012
asba(i__main__
sensor_data_struct
p240
(dp241
g3
(lp242
I599
aI339
aI209
aI1087
aI2589
aF187.0
aI794
aI384
aI262
aI1319
aI2439
aF156.0
asg5
I1
sg6
(lp243
I26
aI-1
aI-1
aI59
aI-1
aI-1
asg8
(lp244
I42
aI-1
aI-1
aF-1.0
aF-1.0
aF-1.0
aI25
aI-1
aI-1
aF-1.0
aF-1.0
aF-1.0
asg10
(lp245
F-0.004
aF0.004
aF0.015
asba(i__main__
sensor_data_struct
p246
(dp247
g3
(lp248
I701
aI376
aI240
aI1221
aI2511
aF190.0
aI1178
aI449
aI340
aI1795
aI2277
aF77.0
asg5
I0
sg6
(lp249
I32
aI-1
aI-1
aI88
aI-1
aI-1
asg8
(lp250
I28
aI-1
aI-1
aF-1.0
aF-1.0
aF-1.0
aI24
aI-1
aI-1
aF-1.0
aF-1.0
aF-1.0
asg10
(lp251
F-0.001
aF0.005
aF0.01
asba(i__main__
sensor_data_struct
p252
(dp253
g3
(lp254
I801
aI383
aI267
aI1320
aI2436
aF149.0
aI1267
aI493
aI363
aI1928
aI2257
aF101.0
asg5
I0
sg6
(lp255
I61
aI-1
aI-1
aI102
aI-1
aI-1
asg8
(lp256
I16
aI-1
aI-1
aF-1.0
aF-1.0
aF-1.0
aI22
aI-1
aI-1
aF-1.0
aF-1.0
aF-1.0
asg10
(lp257
F-0.002
aF0.0
aF0.0
asba(i__main__
sensor_data_struct
p258
(dp259
g3
(lp260
I594
aI335
aI210
aI1073
aI2593
aF182.0
aI789
aI397
aI279
aI1303
aI2456
aF166.0
asg5
I0
sg6
(lp261
I134
aI-1
aI-1
aI107
aI-1
aI-1
asg8
(lp262
I29
aI-1
aI-1
aF-1.0
aF-1.0
aF-1.0
aI25
aI-1
aI-1
aF-1.0
aF-1.0
aF-1.0
asg10
(lp263
F0.003
aF-0.005
aF0.006999999999999999
asba(i__main__
sensor_data_struct
p264
(dp265
g3
(lp266
I613
aI341
aI215
aI1100
aI2582
aF181.0
aI994
aI459
aI320
aI1593
aI2360
aF167.0
asg5
I1
sg6
(lp267
I48
aI-1
aI-1
aI72
aI-1
aI-1
asg8
(lp268
I25
aI-1
aI-1
aF-1.0
aF-1.0
aF-1.0
aI24
aI-1
aI-1
aF-1.0
aF-1.0
aF-1.0
asg10
(lp269
F0.003
aF-0.001
aF0.013000000000000001
asba(i__main__
sensor_data_struct
p270
(dp271
g3
(lp272
I623
aI346
aI218
aI1115
aI2572
aF184.0
aI869
aI401
aI286
aI1399
aI2392
aF141.0
asg5
I0
sg6
(lp273
I49
aI-1
aI-1
aI98
aI-1
aI-1
asg8
(lp274
I15
aI-1
aI-1
aF-1.0
aF-1.0
aF-1.0
aI21
aI-1
aI-1
aF-1.0
aF-1.0
aF-1.0
asg10
(lp275
F-0.004
aF0.0
aF0.006999999999999999
asba(i__main__
sensor_data_struct
p276
(dp277
g3
(lp278
I627
aI347
aI221
aI1116
aI2570
aF182.0
aI894
aI431
aI296
aI1459
aI2398
aF173.0
asg5
I1
sg6
(lp279
I33
aI-1
aI-1
aI72
aI-1
aI-1
asg8
(lp280
I26
aI-1
aI-1
aF-1.0
aF-1.0
aF-1.0
aI23
aI-1
aI-1
aF-1.0
aF-1.0
aF-1.0
asg10
(lp281
F-0.005
aF-0.003
aF0.012
asba(i__main__
sensor_data_struct
p282
(dp283
g3
(lp284
I632
aI348
aI222
aI1121
aI2562
aF181.0
aI1097
aI421
aI317
aI1677
aI2281
aF76.0
asg5
I0
sg6
(lp285
I48
aI-1
aI-1
aI101
aI-1
aI-1
asg8
(lp286
I18
aI-1
aI-1
aF-1.0
aF-1.0
aF-1.0
aI22
aI-1
aI-1
aF-1.0
aF-1.0
aF-1.0
asg10
(lp287
F-0.002
aF0.001
aF0.0
asba(i__main__
sensor_data_struct
p288
(dp289
g3
(lp290
I583
aI332
aI206
aI1060
aI2603
aF183.0
aI981
aI405
aI294
aI1549
aI2343
aF105.0
asg5
I0
sg6
(lp291
I31
aI-1
aI-1
aI91
aI-1
aI-1
asg8
(lp292
I30
aI-1
aI-1
aF-1.0
aF-1.0
aF-1.0
aI23
aI-1
aI-1
aF-1.0
aF-1.0
aF-1.0
asg10
(lp293
F0.009000000000000001
aF0.002
aF0.009000000000000001
asba(i__main__
sensor_data_struct
p294
(dp295
g3
(lp296
I728
aI368
aI246
aI1237
aI2484
aF164.0
aI1218
aI508
aI368
aI1873
aI2278
aF137.0
asg5
I0
sg6
(lp297
I41
aI-1
aI-1
aI93
aI-1
aI-1
asg8
(lp298
I25
aI-1
aI-1
aF-1.0
aF-1.0
aF-1.0
aI22
aI-1
aI-1
aF-1.0
aF-1.0
aF-1.0
asg10
(lp299
F-0.001
aF0.004
aF0.009000000000000001
asba(i__main__
sensor_data_struct
p300
(dp301
g3
(lp302
I622
aI341
aI216
aI1115
aI2579
aF178.0
aI1518
aI558
aI412
aI2299
aI2241
aF86.0
asg5
I1
sg6
(lp303
I10
aI-1
aI-1
aI33
aI-1
aI-1
asg8
(lp304
I42
aI-1
aI-1
aF-1.0
aF-1.0
aF-1.0
aI36
aI-1
aI-1
aF-1.0
aF-1.0
aF-1.0
asg10
(lp305
F0.008
aF0.009000000000000001
aF0.012
asba(i__main__
sensor_data_struct
p306
(dp307
g3
(lp308
I600
aI344
aI216
aI1086
aI2602
aF190.0
aI1208
aI488
aI351
aI1883
aI2301
aF121.0
asg5
I1
sg6
(lp309
I20
aI-1
aI-1
aI35
aI-1
aI-1
asg8
(lp310
I43
aI-1
aI-1
aF-1.0
aF-1.0
aF-1.0
aI31
aI-1
aI-1
aF-1.0
aF-1.0
aF-1.0
asg10
(lp311
F-0.002
aF0.012
aF0.013000000000000001
asba(i__main__
sensor_data_struct
p312
(dp313
g3
(lp314
I638
aI350
aI226
aI1127
aI2562
aF179.0
aI1082
aI465
aI336
aI1688
aI2315
aF136.0
asg5
I0
sg6
(lp315
I89
aI-1
aI-1
aI110
aI-1
aI-1
asg8
(lp316
I19
aI-1
aI-1
aF-1.0
aF-1.0
aF-1.0
aI24
aI-1
aI-1
aF-1.0
aF-1.0
aF-1.0
asg10
(lp317
F-0.004
aF-0.005
aF0.003
asba(i__main__
sensor_data_struct
p318
(dp319
g3
(lp320
I597
aI336
aI211
aI1078
aI2593
aF182.0
aI919
aI440
aI302
aI1494
aI2389
aF175.0
asg5
I1
sg6
(lp321
I51
aI-1
aI-1
aI73
aI-1
aI-1
asg8
(lp322
I30
aI-1
aI-1
aF-1.0
aF-1.0
aF-1.0
aI25
aI-1
aI-1
aF-1.0
aF-1.0
aF-1.0
asg10
(lp323
F0.001
aF-0.004
aF0.012
asba(i__main__
sensor_data_struct
p324
(dp325
g3
(lp326
I607
aI343
aI215
aI1094
aI2589
aF186.0
aI882
aI398
aI278
aI1448
aI2418
aF138.0
asg5
I1
sg6
(lp327
I13
aI-1
aI-1
aI34
aI-1
aI-1
asg8
(lp328
I48
aI-1
aI-1
aF-1.0
aF-1.0
aF-1.0
aI31
aI-1
aI-1
aF-1.0
aF-1.0
aF-1.0
asg10
(lp329
F-0.001
aF0.013000000000000001
aF0.015
asba(i__main__
sensor_data_struct
p330
(dp331
g3
(lp332
I600
aI342
aI214
aI1086
aI2598
aF188.0
aI737
aI395
aI250
aI1277
aI2492
aF201.0
asg5
I1
sg6
(lp333
I7
aI-1
aI-1
aI33
aI-1
aI-1
asg8
(lp334
I48
aI-1
aI-1
aF-1.0
aF-1.0
aF-1.0
aI33
aI-1
aI-1
aF-1.0
aF-1.0
aF-1.0
asg10
(lp335
F-0.012
aF-0.002
aF0.015
asba(i__main__
sensor_data_struct
p336
(dp337
g3
(lp338
I657
aI355
aI229
aI1153
aI2540
aF179.0
aI1219
aI502
aI364
aI1878
aI2282
aF130.0
asg5
I0
sg6
(lp339
I25
aI-1
aI-1
aI79
aI-1
aI-1
asg8
(lp340
I36
aI-1
aI-1
aF-1.0
aF-1.0
aF-1.0
aI24
aI-1
aI-1
aF-1.0
aF-1.0
aF-1.0
asg10
(lp341
F-0.001
aF0.006999999999999999
aF0.011000000000000001
asba(i__main__
sensor_data_struct
p342
(dp343
g3
(lp344
I599
aI340
aI213
aI1085
aI2602
aF186.0
aI735
aI378
aI256
aI1246
aI2493
aF170.0
asg5
I0
sg6
(lp345
I60
aI-1
aI-1
aI80
aI-1
aI-1
asg8
(lp346
I32
aI-1
aI-1
aF-1.0
aF-1.0
aF-1.0
aI24
aI-1
aI-1
aF-1.0
aF-1.0
aF-1.0
asg10
(lp347
F0.004
aF-0.005
aF0.011000000000000001
asba(i__main__
sensor_data_struct
p348
(dp349
g3
(lp350
I588
aI334
aI207
aI1069
aI2599
aF184.0
aI786
aI403
aI268
aI1325
aI2459
aF184.0
asg5
I1
sg6
(lp351
I16
aI-1
aI-1
aI61
aI-1
aI-1
asg8
(lp352
I51
aI-1
aI-1
aF-1.0
aF-1.0
aF-1.0
aI25
aI-1
aI-1
aF-1.0
aF-1.0
aF-1.0
asg10
(lp353
F-0.008
aF-0.009000000000000001
aF0.013999999999999999
asba(i__main__
sensor_data_struct
p354
(dp355
g3
(lp356
I592
aI335
aI208
aI1074
aI2597
aF184.0
aI1039
aI439
aI320
aI1628
aI2329
aF121.0
asg5
I0
sg6
(lp357
I60
aI-1
aI-1
aI99
aI-1
aI-1
asg8
(lp358
I26
aI-1
aI-1
aF-1.0
aF-1.0
aF-1.0
aI21
aI-1
aI-1
aF-1.0
aF-1.0
aF-1.0
asg10
(lp359
F0.005
aF-0.001
aF0.008
asba(i__main__
sensor_data_struct
p360
(dp361
g3
(lp362
I595
aI336
aI209
aI1077
aI2593
aF184.0
aI833
aI413
aI285
aI1372
aI2431
aF172.0
asg5
I0
sg6
(lp363
I39
aI-1
aI-1
aI89
aI-1
aI-1
asg8
(lp364
I32
aI-1
aI-1
aF-1.0
aF-1.0
aF-1.0
aI23
aI-1
aI-1
aF-1.0
aF-1.0
aF-1.0
asg10
(lp365
F-0.003
aF-0.006999999999999999
aF0.01
asba(i__main__
sensor_data_struct
p366
(dp367
g3
(lp368
I628
aI345
aI220
aI1116
aI2566
aF179.0
aI1111
aI447
aI330
aI1713
aI2295
aF103.0
asg5
I0
sg6
(lp369
I152
aI-1
aI-1
aI109
aI-1
aI-1
asg8
(lp370
I26
aI-1
aI-1
aF-1.0
aF-1.0
aF-1.0
aI23
aI-1
aI-1
aF-1.0
aF-1.0
aF-1.0
asg10
(lp371
F0.003
aF-0.002
aF0.002
asba(i__main__
sensor_data_struct
p372
(dp373
g3
(lp374
I614
aI344
aI218
aI1099
aI2581
aF184.0
aI1522
aI506
aI406
aI2226
aI2202
aF7.0
asg5
I0
sg6
(lp375
I31
aI-1
aI-1
aI103
aI-1
aI-1
asg8
(lp376
I29
aI-1
aI-1
aF-1.0
aF-1.0
aF-1.0
aI24
aI-1
aI-1
aF-1.0
aF-1.0
aF-1.0
asg10
(lp377
F-0.001
aF0.006999999999999999
aF0.006999999999999999
asba(i__main__
sensor_data_struct
p378
(dp379
g3
(lp380
I584
aI333
aI208
aI1063
aI2610
aF183.0
aI805
aI396
aI277
aI1330
aI2449
aF160.0
asg5
I0
sg6
(lp381
I120
aI-1
aI-1
aI112
aI-1
aI-1
asg8
(lp382
I34
aI-1
aI-1
aF-1.0
aF-1.0
aF-1.0
aI23
aI-1
aI-1
aF-1.0
aF-1.0
aF-1.0
asg10
(lp383
F0.005
aF-0.004
aF0.006
asba(i__main__
sensor_data_struct
p384
(dp385
g3
(lp386
I608
aI339
aI214
aI1093
aI2585
aF181.0
aI1149
aI460
aI344
aI1763
aI2291
aF101.0
asg5
I0
sg6
(lp387
I57
aI-1
aI-1
aI94
aI-1
aI-1
asg8
(lp388
I22
aI-1
aI-1
aF-1.0
aF-1.0
aF-1.0
aI23
aI-1
aI-1
aF-1.0
aF-1.0
aF-1.0
asg10
(lp389
F0.003
aF0.002
aF0.009000000000000001
asba(i__main__
sensor_data_struct
p390
(dp391
g3
(lp392
I578
aI329
aI203
aI1057
aI2612
aF183.0
aI909
aI443
aI296
aI1497
aI2400
aF187.0
asg5
I1
sg6
(lp393
I9
aI-1
aI-1
aI69
aI-1
aI-1
asg8
(lp394
I43
aI-1
aI-1
aF-1.0
aF-1.0
aF-1.0
aI24
aI-1
aI-1
aF-1.0
aF-1.0
aF-1.0
asg10
(lp395
F0.009000000000000001
aF-0.006
aF0.013000000000000001
asba(i__main__
sensor_data_struct
p396
(dp397
g3
(lp398
I592
aI336
aI209
aI1076
aI2604
aF185.0
aI2004
aI570
aI492
aI2837
aI2153
aF65425.0
asg5
I1
sg6
(lp399
I16
aI-1
aI-1
aI48
aI-1
aI-1
asg8
(lp400
I38
aI-1
aI-1
aF-1.0
aF-1.0
aF-1.0
aI35
aI-1
aI-1
aF-1.0
aF-1.0
aF-1.0
asg10
(lp401
F0.006
aF0.006999999999999999
aF0.009000000000000001
asba(i__main__
sensor_data_struct
p402
(dp403
g3
(lp404
I834
aI397
aI263
aI1399
aI2436
aF163.0
aI741
aI373
aI253
aI1253
aI2482
aF162.0
asg5
I1
sg6
(lp405
I32
aI-1
aI-1
aI61
aI-1
aI-1
asg8
(lp406
I27
aI-1
aI-1
aF-1.0
aF-1.0
aF-1.0
aI28
aI-1
aI-1
aF-1.0
aF-1.0
aF-1.0
asg10
(lp407
F0.004
aF-0.001
aF0.015
asba(i__main__
sensor_data_struct
p408
(dp409
g3
(lp410
I617
aI346
aI218
aI1107
aI2579
aF186.0
aI1532
aI506
aI407
aI2242
aI2205
aF3.0
asg5
I0
sg6
(lp411
I26
aI-1
aI-1
aI93
aI-1
aI-1
asg8
(lp412
I34
aI-1
aI-1
aF-1.0
aF-1.0
aF-1.0
aI22
aI-1
aI-1
aF-1.0
aF-1.0
aF-1.0
asg10
(lp413
F0.001
aF0.008
aF0.009000000000000001
asba(i__main__
sensor_data_struct
p414
(dp415
g3
(lp416
I616
aI345
aI219
aI1102
aI2579
aF184.0
aI966
aI436
aI308
aI1543
aI2361
aF149.0
asg5
I0
sg6
(lp417
I26
aI-1
aI-1
aI98
aI-1
aI-1
asg8
(lp418
I11
aI-1
aI-1
aF-1.0
aF-1.0
aF-1.0
aI22
aI-1
aI-1
aF-1.0
aF-1.0
aF-1.0
asg10
(lp419
F-0.006999999999999999
aF0.002
aF0.006999999999999999
asba(i__main__
sensor_data_struct
p420
(dp421
g3
(lp422
I638
aI351
aI224
aI1131
aI2558
aF182.0
aI830
aI399
aI285
aI1353
aI2432
aF151.0
asg5
I0
sg6
(lp423
I76
aI-1
aI-1
aI96
aI-1
aI-1
asg8
(lp424
I20
aI-1
aI-1
aF-1.0
aF-1.0
aF-1.0
aI23
aI-1
aI-1
aF-1.0
aF-1.0
aF-1.0
asg10
(lp425
F-0.001
aF-0.002
aF0.008
asba(i__main__
sensor_data_struct
p426
(dp427
g3
(lp428
I613
aI345
aI218
aI1098
aI2579
aF185.0
aI918
aI474
aI301
aI1541
aI2409
aF229.0
asg5
I1
sg6
(lp429
I15
aI-1
aI-1
aI33
aI-1
aI-1
asg8
(lp430
I46
aI-1
aI-1
aF-1.0
aF-1.0
aF-1.0
aI33
aI-1
aI-1
aF-1.0
aF-1.0
aF-1.0
asg10
(lp431
F-0.01
aF0.003
aF0.013000000000000001
asba(i__main__
sensor_data_struct
p432
(dp433
g3
(lp434
I602
aI339
aI212
aI1087
aI2589
aF184.0
aI998
aI452
aI319
aI1591
aI2355
aF155.0
asg5
I0
sg6
(lp435
I63
aI-1
aI-1
aI80
aI-1
aI-1
asg8
(lp436
I26
aI-1
aI-1
aF-1.0
aF-1.0
aF-1.0
aI23
aI-1
aI-1
aF-1.0
aF-1.0
aF-1.0
asg10
(lp437
F0.004
aF-0.001
aF0.011000000000000001
asba(i__main__
sensor_data_struct
p438
(dp439
g3
(lp440
I629
aI348
aI219
aI1125
aI2571
aF184.0
aI670
aI361
aI239
aI1163
aI2539
aF177.0
asg5
I1
sg6
(lp441
I24
aI-1
aI-1
aI66
aI-1
aI-1
asg8
(lp442
I42
aI-1
aI-1
aF-1.0
aF-1.0
aF-1.0
aI24
aI-1
aI-1
aF-1.0
aF-1.0
aF-1.0
asg10
(lp443
F-0.006999999999999999
aF-0.009000000000000001
aF0.013000000000000001
asba(i__main__
sensor_data_struct
p444
(dp445
g3
(lp446
I613
aI344
aI214
aI1105
aI2579
aF187.0
aI852
aI421
aI288
aI1404
aI2424
aF177.0
asg5
I0
sg6
(lp447
I38
aI-1
aI-1
aI81
aI-1
aI-1
asg8
(lp448
I36
aI-1
aI-1
aF-1.0
aF-1.0
aF-1.0
aI23
aI-1
aI-1
aF-1.0
aF-1.0
aF-1.0
asg10
(lp449
F-0.005
aF-0.009000000000000001
aF0.011000000000000001
asba(i__main__
sensor_data_struct
p450
(dp451
g3
(lp452
I679
aI358
aI234
aI1179
aI2522
aF173.0
aI1291
aI491
aI370
aI1946
aI2247
aF85.0
asg5
I0
sg6
(lp453
I45
aI-1
aI-1
aI106
aI-1
aI-1
asg8
(lp454
I22
aI-1
aI-1
aF-1.0
aF-1.0
aF-1.0
aI22
aI-1
aI-1
aF-1.0
aF-1.0
aF-1.0
asg10
(lp455
F-0.001
aF0.003
aF0.006
asba(i__main__
sensor_data_struct
p456
(dp457
g3
(lp458
I627
aI344
aI221
aI1108
aI2556
aF177.0
aI1079
aI455
aI330
aI1681
aI2312
aF126.0
asg5
I0
sg6
(lp459
I124
aI-1
aI-1
aI111
aI-1
aI-1
asg8
(lp460
I24
aI-1
aI-1
aF-1.0
aF-1.0
aF-1.0
aI24
aI-1
aI-1
aF-1.0
aF-1.0
aF-1.0
asg10
(lp461
F-0.002
aF-0.005
aF0.002
asba(i__main__
sensor_data_struct
p462
(dp463
g3
(lp464
I775
aI377
aI259
aI1289
aI2447
aF153.0
aI1220
aI476
aI351
aI1862
aI2265
aF98.0
asg5
I0
sg6
(lp465
I46
aI-1
aI-1
aI101
aI-1
aI-1
asg8
(lp466
I15
aI-1
aI-1
aF-1.0
aF-1.0
aF-1.0
aI23
aI-1
aI-1
aF-1.0
aF-1.0
aF-1.0
asg10
(lp467
F-0.003
aF0.0
aF0.0
asba(i__main__
sensor_data_struct
p468
(dp469
g3
(lp470
I601
aI341
aI215
aI1082
aI2593
aF185.0
aI2151
aI618
aI529
aI3068
aI2165
aF65426.0
asg5
I1
sg6
(lp471
I16
aI-1
aI-1
aI36
aI-1
aI-1
asg8
(lp472
I45
aI-1
aI-1
aF-1.0
aF-1.0
aF-1.0
aI34
aI-1
aI-1
aF-1.0
aF-1.0
aF-1.0
asg10
(lp473
F0.002
aF0.01
aF0.01
asba(i__main__
sensor_data_struct
p474
(dp475
g3
(lp476
I622
aI349
aI220
aI1115
aI2578
aF187.0
aI701
aI370
aI249
aI1197
aI2510
aF174.0
asg5
I0
sg6
(lp477
I31
aI-1
aI-1
aI79
aI-1
aI-1
asg8
(lp478
I25
aI-1
aI-1
aF-1.0
aF-1.0
aF-1.0
aI22
aI-1
aI-1
aF-1.0
aF-1.0
aF-1.0
asg10
(lp479
F-0.006
aF-0.006
aF0.011000000000000001
asba(i__main__
sensor_data_struct
p480
(dp481
g3
(lp482
I670
aI366
aI231
aI1183
aI2537
aF191.0
aI623
aI342
aI216
aI1113
aI2568
aF179.0
asg5
I1
sg6
(lp483
I5
aI-1
aI-1
aI38
aI-1
aI-1
asg8
(lp484
I52
aI-1
aI-1
aF-1.0
aF-1.0
aF-1.0
aI34
aI-1
aI-1
aF-1.0
aF-1.0
aF-1.0
asg10
(lp485
F0.002
aF-0.012
aF0.015
asba(i__main__
sensor_data_struct
p486
(dp487
g3
(lp488
I603
aI340
aI209
aI1095
aI2590
aF187.0
aI859
aI407
aI280
aI1409
aI2412
aF158.0
asg5
I1
sg6
(lp489
I50
aI-1
aI-1
aI80
aI-1
aI-1
asg8
(lp490
I28
aI-1
aI-1
aF-1.0
aF-1.0
aF-1.0
aI24
aI-1
aI-1
aF-1.0
aF-1.0
aF-1.0
asg10
(lp491
F0.006
aF-0.002
aF0.011000000000000001
asba(i__main__
sensor_data_struct
p492
(dp493
g3
(lp494
I593
aI337
aI209
aI1076
aI2597
aF186.0
aI742
aI379
aI257
aI1250
aI2475
aF169.0
asg5
I0
sg6
(lp495
I20
aI-1
aI-1
aI93
aI-1
aI-1
asg8
(lp496
I14
aI-1
aI-1
aF-1.0
aF-1.0
aF-1.0
aI23
aI-1
aI-1
aF-1.0
aF-1.0
aF-1.0
asg10
(lp497
F-0.008
aF-0.003
aF0.008
asba(i__main__
sensor_data_struct
p498
(dp499
g3
(lp500
I604
aI339
aI213
aI1087
aI2587
aF183.0
aI936
aI431
aI308
aI1493
aI2369
aF150.0
asg5
I0
sg6
(lp501
I83
aI-1
aI-1
aI108
aI-1
aI-1
asg8
(lp502
I20
aI-1
aI-1
aF-1.0
aF-1.0
aF-1.0
aI23
aI-1
aI-1
aF-1.0
aF-1.0
aF-1.0
asg10
(lp503
F-0.002
aF-0.005
aF0.005
asba(i__main__
sensor_data_struct
p504
(dp505
g3
(lp506
I606
aI340
aI213
aI1092
aI2587
aF184.0
aI825
aI406
aI289
aI1345
aI2433
aF161.0
asg5
I0
sg6
(lp507
I179
aI-1
aI-1
aI114
aI-1
aI-1
asg8
(lp508
I28
aI-1
aI-1
aF-1.0
aF-1.0
aF-1.0
aI23
aI-1
aI-1
aF-1.0
aF-1.0
aF-1.0
asg10
(lp509
F0.002
aF-0.005
aF0.005
asba(i__main__
sensor_data_struct
p510
(dp511
g3
(lp512
I642
aI351
aI223
aI1139
aI2557
aF182.0
aI905
aI397
aI283
aI1455
aI2379
aF125.0
asg5
I0
sg6
(lp513
I30
aI-1
aI-1
aI73
aI-1
aI-1
asg8
(lp514
I27
aI-1
aI-1
aF-1.0
aF-1.0
aF-1.0
aI21
aI-1
aI-1
aF-1.0
aF-1.0
aF-1.0
asg10
(lp515
F0.006
aF0.001
aF0.012
asba(i__main__
sensor_data_struct
p516
(dp517
g3
(lp518
I599
aI341
aI213
aI1082
aI2593
aF187.0
aI815
aI434
aI274
aI1395
aI2456
aF219.0
asg5
I1
sg6
(lp519
I10
aI-1
aI-1
aI32
aI-1
aI-1
asg8
(lp520
I48
aI-1
aI-1
aF-1.0
aF-1.0
aF-1.0
aI31
aI-1
aI-1
aF-1.0
aF-1.0
aF-1.0
asg10
(lp521
F-0.012
aF0.003
aF0.015
asba(i__main__
sensor_data_struct
p522
(dp523
g3
(lp524
I614
aI339
aI213
aI1102
aI2575
aF179.0
aI1067
aI486
aI338
aI1697
aI2337
aF173.0
asg5
I0
sg6
(lp525
I30
aI-1
aI-1
aI81
aI-1
aI-1
asg8
(lp526
I32
aI-1
aI-1
aF-1.0
aF-1.0
aF-1.0
aI23
aI-1
aI-1
aF-1.0
aF-1.0
aF-1.0
asg10
(lp527
F0.008
aF-0.003
aF0.011000000000000001
asba(i__main__
sensor_data_struct
p528
(dp529
g3
(lp530
I614
aI343
aI216
aI1098
aI2572
aF183.0
aI896
aI452
aI294
aI1492
aI2407
aF207.0
asg5
I1
sg6
(lp531
I19
aI-1
aI-1
aI33
aI-1
aI-1
asg8
(lp532
I10
aI-1
aI-1
aF-1.0
aF-1.0
aF-1.0
aI12
aI-1
aI-1
aF-1.0
aF-1.0
aF-1.0
asg10
(lp533
F-0.008
aF0.001
aF0.008
asba(i__main__
sensor_data_struct
p534
(dp535
g3
(lp536
I743
aI378
aI258
aI1248
aI2475
aF166.0
aI1243
aI492
aI360
aI1900
aI2265
aF109.0
asg5
I0
sg6
(lp537
I168
aI-1
aI-1
aI107
aI-1
aI-1
asg8
(lp538
I23
aI-1
aI-1
aF-1.0
aF-1.0
aF-1.0
aI24
aI-1
aI-1
aF-1.0
aF-1.0
aF-1.0
asg10
(lp539
F0.0
aF-0.004
aF0.0
asba(i__main__
sensor_data_struct
p540
(dp541
g3
(lp542
I674
aI358
aI235
aI1169
aI2524
aF174.0
aI1177
aI497
aI360
aI1819
aI2291
aF138.0
asg5
I0
sg6
(lp543
I86
aI-1
aI-1
aI101
aI-1
aI-1
asg8
(lp544
I20
aI-1
aI-1
aF-1.0
aF-1.0
aF-1.0
aI24
aI-1
aI-1
aF-1.0
aF-1.0
aF-1.0
asg10
(lp545
F-0.001
aF-0.002
aF0.006999999999999999
asba(i__main__
sensor_data_struct
p546
(dp547
g3
(lp548
I629
aI347
aI220
aI1121
aI2568
aF182.0
aI794
aI395
aI270
aI1322
aI2451
aF168.0
asg5
I1
sg6
(lp549
I48
aI-1
aI-1
aI76
aI-1
aI-1
asg8
(lp550
I30
aI-1
aI-1
aF-1.0
aF-1.0
aF-1.0
aI23
aI-1
aI-1
aF-1.0
aF-1.0
aF-1.0
asg10
(lp551
F0.003
aF-0.004
aF0.012
asba(i__main__
sensor_data_struct
p552
(dp553
g3
(lp554
I628
aI347
aI218
aI1124
aI2571
aF184.0
aI826
aI401
aI283
aI1349
aI2427
aF157.0
asg5
I0
sg6
(lp555
I268
aI-1
aI-1
aI116
aI-1
aI-1
asg8
(lp556
I30
aI-1
aI-1
aF-1.0
aF-1.0
aF-1.0
aI26
aI-1
aI-1
aF-1.0
aF-1.0
aF-1.0
asg10
(lp557
F0.003
aF-0.005
aF0.002
asba(i__main__
sensor_data_struct
p558
(dp559
g3
(lp560
I657
aI352
aI228
aI1150
aI2538
aF175.0
aI1252
aI493
aI366
aI1906
aI2265
aF103.0
asg5
I0
sg6
(lp561
I33
aI-1
aI-1
aI97
aI-1
aI-1
asg8
(lp562
I25
aI-1
aI-1
aF-1.0
aF-1.0
aF-1.0
aI24
aI-1
aI-1
aF-1.0
aF-1.0
aF-1.0
asg10
(lp563
F-0.002
aF0.005
aF0.008
asba(i__main__
sensor_data_struct
p564
(dp565
g3
(lp566
I617
aI344
aI218
aI1105
aI2579
aF183.0
aI934
aI414
aI305
aI1477
aI2368
aF126.0
asg5
I0
sg6
(lp567
I111
aI-1
aI-1
aI106
aI-1
aI-1
asg8
(lp568
I22
aI-1
aI-1
aF-1.0
aF-1.0
aF-1.0
aI24
aI-1
aI-1
aF-1.0
aF-1.0
aF-1.0
asg10
(lp569
F0.0
aF-0.001
aF0.005
asba(i__main__
sensor_data_struct
p570
(dp571
g3
(lp572
I599
aI337
aI211
aI1083
aI2593
aF183.0
aI681
aI368
aI236
aI1192
aI2531
aF187.0
asg5
I1
sg6
(lp573
I10
aI-1
aI-1
aI43
aI-1
aI-1
asg8
(lp574
I51
aI-1
aI-1
aF-1.0
aF-1.0
aF-1.0
aI35
aI-1
aI-1
aF-1.0
aF-1.0
aF-1.0
asg10
(lp575
F0.002
aF-0.011000000000000001
aF0.012
asba(i__main__
sensor_data_struct
p576
(dp577
g3
(lp578
I627
aI344
aI217
aI1119
aI2566
aF180.0
aI1065
aI487
aI337
aI1697
aI2338
aF176.0
asg5
I1
sg6
(lp579
I32
aI-1
aI-1
aI75
aI-1
aI-1
asg8
(lp580
I28
aI-1
aI-1
aF-1.0
aF-1.0
aF-1.0
aI24
aI-1
aI-1
aF-1.0
aF-1.0
aF-1.0
asg10
(lp581
F0.006999999999999999
aF-0.001
aF0.012
asba(i__main__
sensor_data_struct
p582
(dp583
g3
(lp584
I605
aI339
aI211
aI1093
aI2585
aF184.0
aI889
aI427
aI295
aI1448
aI2400
aF169.0
asg5
I0
sg6
(lp585
I73
aI-1
aI-1
aI83
aI-1
aI-1
asg8
(lp586
I27
aI-1
aI-1
aF-1.0
aF-1.0
aF-1.0
aI21
aI-1
aI-1
aF-1.0
aF-1.0
aF-1.0
asg10
(lp587
F0.002
aF-0.005
aF0.011000000000000001
asba(i__main__
sensor_data_struct
p588
(dp589
g3
(lp590
I824
aI414
aI272
aI1385
aI2441
aF186.0
aI733
aI377
aI255
aI1240
aI2486
aF170.0
asg5
I0
sg6
(lp591
I65
aI-1
aI-1
aI82
aI-1
aI-1
asg8
(lp592
I32
aI-1
aI-1
aF-1.0
aF-1.0
aF-1.0
aI24
aI-1
aI-1
aF-1.0
aF-1.0
aF-1.0
asg10
(lp593
F0.003
aF-0.006
aF0.011000000000000001
asba(i__main__
sensor_data_struct
p594
(dp595
g3
(lp596
I581
aI331
aI203
aI1063
aI2606
aF185.0
aI751
aI382
aI248
aI1283
aI2471
aF177.0
asg5
I1
sg6
(lp597
I7
aI-1
aI-1
aI55
aI-1
aI-1
asg8
(lp598
I33
aI-1
aI-1
aF-1.0
aF-1.0
aF-1.0
aI28
aI-1
aI-1
aF-1.0
aF-1.0
aF-1.0
asg10
(lp599
F0.013000000000000001
aF-0.001
aF0.015
asba(i__main__
sensor_data_struct
p600
(dp601
g3
(lp602
I588
aI335
aI205
aI1075
aI2604
aF187.0
aI1244
aI449
aI340
aI1906
aI2284
aF55.0
asg5
I1
sg6
(lp603
I9
aI-1
aI-1
aI33
aI-1
aI-1
asg8
(lp604
I46
aI-1
aI-1
aF-1.0
aF-1.0
aF-1.0
aI36
aI-1
aI-1
aF-1.0
aF-1.0
aF-1.0
asg10
(lp605
F0.008
aF0.009000000000000001
aF0.013000000000000001
asba.