(lp0
(i__main__
sensor_data_struct
p1
(dp2
S'color'
p3
(lp4
I541
aI322
aI209
aI987
aI2666
aF179.0
aI688
aI366
aI259
aI1155
aI2517
aF164.0
asS'button'
p5
I0
sS'IR'
p6
(lp7
I23
aI-1
aI-1
aI89
aI-1
aI-1
asS'TOF'
p8
(lp9
I17
aI-1
aI-1
aF-1.0
aF-1.0
aF-1.0
aI22
aI-1
aI-1
aF-1.0
aF-1.0
aF-1.0
asS'pt'
p10
(lp11
F-0.009000000000000001
aF-0.004
aF0.009000000000000001
asba(i__main__
sensor_data_struct
p12
(dp13
g3
(lp14
I600
aI346
aI224
aI1081
aI2624
aF187.0
aI808
aI420
aI284
aI1353
aI2462
aF192.0
asg5
I1
sg6
(lp15
I22
aI-1
aI-1
aI61
aI-1
aI-1
asg8
(lp16
I44
aI-1
aI-1
aF-1.0
aF-1.0
aF-1.0
aI28
aI-1
aI-1
aF-1.0
aF-1.0
aF-1.0
asg10
(lp17
F-0.005
aF-0.006999999999999999
aF0.015
asba(i__main__
sensor_data_struct
p18
(dp19
g3
(lp20
I570
aI335
aI213
aI1043
aI2649
aF187.0
aI892
aI424
aI289
aI1488
aI2446
aF168.0
asg5
I1
sg6
(lp21
I4
aI-1
aI-1
aI32
aI-1
aI-1
asg8
(lp22
I49
aI-1
aI-1
aF-1.0
aF-1.0
aF-1.0
aI35
aI-1
aI-1
aF-1.0
aF-1.0
aF-1.0
asg10
(lp23
F0.01
aF0.006999999999999999
aF0.015
asba(i__main__
sensor_data_struct
p24
(dp25
g3
(lp26
I597
aI339
aI219
aI1076
aI2620
aF180.0
aI1050
aI476
aI343
aI1653
aI2341
aF159.0
asg5
I0
sg6
(lp27
I64
aI-1
aI-1
aI107
aI-1
aI-1
asg8
(lp28
I34
aI-1
aI-1
aF-1.0
aF-1.0
aF-1.0
aI22
aI-1
aI-1
aF-1.0
aF-1.0
aF-1.0
asg10
(lp29
F0.008
aF-0.004
aF0.008
asba(i__main__
sensor_data_struct
p30
(dp31
g3
(lp32
I582
aI337
aI216
aI1057
aI2632
aF184.0
aI795
aI406
aI291
aI1304
aI2461
aF169.0
asg5
I0
sg6
(lp33
I89
aI-1
aI-1
aI103
aI-1
aI-1
asg8
(lp34
I30
aI-1
aI-1
aF-1.0
aF-1.0
aF-1.0
aI24
aI-1
aI-1
aF-1.0
aF-1.0
aF-1.0
asg10
(lp35
F-0.001
aF-0.006
aF0.008
asba(i__main__
sensor_data_struct
p36
(dp37
g3
(lp38
I611
aI349
aI227
aI1095
aI2611
aF186.0
aI852
aI404
aI293
aI1372
aI2413
aF146.0
asg5
I0
sg6
(lp39
I42
aI-1
aI-1
aI96
aI-1
aI-1
asg8
(lp40
I16
aI-1
aI-1
aF-1.0
aF-1.0
aF-1.0
aI23
aI-1
aI-1
aF-1.0
aF-1.0
aF-1.0
asg10
(lp41
F-0.006
aF0.0
aF0.008
asba(i__main__
sensor_data_struct
p42
(dp43
g3
(lp44
I651
aI364
aI240
aI1149
aI2582
aF187.0
aI1450
aI483
aI394
aI2133
aI2227
aF3.0
asg5
I1
sg6
(lp45
I22
aI-1
aI-1
aI41
aI-1
aI-1
asg8
(lp46
I42
aI-1
aI-1
aF-1.0
aF-1.0
aF-1.0
aI34
aI-1
aI-1
aF-1.0
aF-1.0
aF-1.0
asg10
(lp47
F0.002
aF0.008
aF0.011000000000000001
asba(i__main__
sensor_data_struct
p48
(dp49
g3
(lp50
I644
aI352
aI233
aI1131
aI2569
aF175.0
aI1213
aI484
aI365
aI1841
aI2271
aF102.0
asg5
I0
sg6
(lp51
I93
aI-1
aI-1
aI113
aI-1
aI-1
asg8
(lp52
I30
aI-1
aI-1
aF-1.0
aF-1.0
aF-1.0
aI24
aI-1
aI-1
aF-1.0
aF-1.0
aF-1.0
asg10
(lp53
F0.005
aF0.0
aF0.004
asba(i__main__
sensor_data_struct
p54
(dp55
g3
(lp56
I630
aI352
aI234
aI1112
aI2590
aF179.0
aI1093
aI475
aI351
aI1692
aI2316
aF137.0
asg5
I0
sg6
(lp57
I71
aI-1
aI-1
aI101
aI-1
aI-1
asg8
(lp58
I19
aI-1
aI-1
aF-1.0
aF-1.0
aF-1.0
aI24
aI-1
aI-1
aF-1.0
aF-1.0
aF-1.0
asg10
(lp59
F-0.003
aF0.001
aF0.006999999999999999
asba(i__main__
sensor_data_struct
p60
(dp61
g3
(lp62
I597
aI344
aI223
aI1077
aI2628
aF185.0
aI1081
aI448
aI338
aI1662
aI2309
aF108.0
asg5
I0
sg6
(lp63
I86
aI-1
aI-1
aI106
aI-1
aI-1
asg8
(lp64
I28
aI-1
aI-1
aF-1.0
aF-1.0
aF-1.0
aI24
aI-1
aI-1
aF-1.0
aF-1.0
aF-1.0
asg10
(lp65
F0.003
aF0.0
aF0.006999999999999999
asba(i__main__
sensor_data_struct
p66
(dp67
g3
(lp68
I589
aI341
aI218
aI1070
aI2630
aF187.0
aI670
aI362
aI239
aI1170
aI2552
aF178.0
asg5
I1
sg6
(lp69
I33
aI-1
aI-1
aI34
aI-1
aI-1
asg8
(lp70
I44
aI-1
aI-1
aF-1.0
aF-1.0
aF-1.0
aI33
aI-1
aI-1
aF-1.0
aF-1.0
aF-1.0
asg10
(lp71
F0.009000000000000001
aF-0.006999999999999999
aF0.013000000000000001
asba(i__main__
sensor_data_struct
p72
(dp73
g3
(lp74
I599
aI345
aI220
aI1088
aI2627
aF189.0
aI1035
aI449
aI330
aI1623
aI2343
aF131.0
asg5
I0
sg6
(lp75
I49
aI-1
aI-1
aI101
aI-1
aI-1
asg8
(lp76
I31
aI-1
aI-1
aF-1.0
aF-1.0
aF-1.0
aI21
aI-1
aI-1
aF-1.0
aF-1.0
aF-1.0
asg10
(lp77
F0.006999999999999999
aF-0.001
aF0.009000000000000001
asba(i__main__
sensor_data_struct
p78
(dp79
g3
(lp80
I616
aI349
aI225
aI1105
aI2605
aF186.0
aI937
aI458
aI314
aI1531
aI2401
aF188.0
asg5
I1
sg6
(lp81
I25
aI-1
aI-1
aI64
aI-1
aI-1
asg8
(lp82
I30
aI-1
aI-1
aF-1.0
aF-1.0
aF-1.0
aI28
aI-1
aI-1
aF-1.0
aF-1.0
aF-1.0
asg10
(lp83
F0.005
aF-0.001
aF0.015
asba(i__main__
sensor_data_struct
p84
(dp85
g3
(lp86
I607
aI350
aI226
aI1096
aI2627
aF189.0
aI986
aI440
aI317
aI1583
aI2387
aF142.0
asg5
I1
sg6
(lp87
I19
aI-1
aI-1
aI35
aI-1
aI-1
asg8
(lp88
I47
aI-1
aI-1
aF-1.0
aF-1.0
aF-1.0
aI34
aI-1
aI-1
aF-1.0
aF-1.0
aF-1.0
asg10
(lp89
F0.001
aF0.009000000000000001
aF0.015
asba(i__main__
sensor_data_struct
p90
(dp91
g3
(lp92
I684
aI361
aI242
aI1182
aI2536
aF170.0
aI1244
aI517
aI382
aI1900
aI2276
aF132.0
asg5
I0
sg6
(lp93
I71
aI-1
aI-1
aI111
aI-1
aI-1
asg8
(lp94
I30
aI-1
aI-1
aF-1.0
aF-1.0
aF-1.0
aI24
aI-1
aI-1
aF-1.0
aF-1.0
aF-1.0
asg10
(lp95
F0.006999999999999999
aF-0.001
aF0.006
asba(i__main__
sensor_data_struct
p96
(dp97
g3
(lp98
I620
aI352
aI230
aI1110
aI2612
aF185.0
aI1632
aI568
aI442
aI2420
aI2220
aF43.0
asg5
I1
sg6
(lp99
I16
aI-1
aI-1
aI36
aI-1
aI-1
asg8
(lp100
I46
aI-1
aI-1
aF-1.0
aF-1.0
aF-1.0
aI37
aI-1
aI-1
aF-1.0
aF-1.0
aF-1.0
asg10
(lp101
F0.004
aF0.009000000000000001
aF0.012
asba(i__main__
sensor_data_struct
p102
(dp103
g3
(lp104
I624
aI362
aI235
aI1123
aI2623
aF196.0
aI1127
aI470
aI349
aI1754
aI2325
aF120.0
asg5
I1
sg6
(lp105
I24
aI-1
aI-1
aI72
aI-1
aI-1
asg8
(lp106
I43
aI-1
aI-1
aF-1.0
aF-1.0
aF-1.0
aI24
aI-1
aI-1
aF-1.0
aF-1.0
aF-1.0
asg10
(lp107
F-0.003
aF0.01
aF0.012
asba(i__main__
sensor_data_struct
p108
(dp109
g3
(lp110
I605
aI348
aI227
aI1086
aI2620
aF186.0
aI981
aI468
aI329
aI1575
aI2378
aF179.0
asg5
I1
sg6
(lp111
I55
aI-1
aI-1
aI73
aI-1
aI-1
asg8
(lp112
I27
aI-1
aI-1
aF-1.0
aF-1.0
aF-1.0
aI25
aI-1
aI-1
aF-1.0
aF-1.0
aF-1.0
asg10
(lp113
F0.0
aF-0.001
aF0.013000000000000001
asba(i__main__
sensor_data_struct
p114
(dp115
g3
(lp116
I654
aI366
aI239
aI1159
aI2583
aF190.0
aI642
aI356
aI237
aI1123
aI2567
aF180.0
asg5
I1
sg6
(lp117
I13
aI-1
aI-1
aI62
aI-1
aI-1
asg8
(lp118
I53
aI-1
aI-1
aF-1.0
aF-1.0
aF-1.0
aI27
aI-1
aI-1
aF-1.0
aF-1.0
aF-1.0
asg10
(lp119
F-0.004
aF-0.012
aF0.015
asba(i__main__
sensor_data_struct
p120
(dp121
g3
(lp122
I764
aI410
aI267
aI1317
aI2503
aF203.0
aI708
aI376
aI259
aI1202
aI2519
aF174.0
asg5
I1
sg6
(lp123
I44
aI-1
aI-1
aI75
aI-1
aI-1
asg8
(lp124
I37
aI-1
aI-1
aF-1.0
aF-1.0
aF-1.0
aI22
aI-1
aI-1
aF-1.0
aF-1.0
aF-1.0
asg10
(lp125
F0.0
aF-0.006999999999999999
aF0.013000000000000001
asba(i__main__
sensor_data_struct
p126
(dp127
g3
(lp128
I595
aI345
aI221
aI1076
aI2624
aF189.0
aI799
aI402
aI283
aI1323
aI2466
aF167.0
asg5
I0
sg6
(lp129
I24
aI-1
aI-1
aI85
aI-1
aI-1
asg8
(lp130
I19
aI-1
aI-1
aF-1.0
aF-1.0
aF-1.0
aI24
aI-1
aI-1
aF-1.0
aF-1.0
aF-1.0
asg10
(lp131
F-0.009000000000000001
aF0.0
aF0.01
asba(i__main__
sensor_data_struct
p132
(dp133
g3
(lp134
I568
aI331
aI211
aI1039
aI2649
aF183.0
aI890
aI474
aI300
aI1516
aI2446
aF239.0
asg5
I1
sg6
(lp135
I3
aI-1
aI-1
aI35
aI-1
aI-1
asg8
(lp136
I52
aI-1
aI-1
aF-1.0
aF-1.0
aF-1.0
aI35
aI-1
aI-1
aF-1.0
aF-1.0
aF-1.0
asg10
(lp137
F0.008
aF-0.011000000000000001
aF0.015
asba(i__main__
sensor_data_struct
p138
(dp139
g3
(lp140
I777
aI431
aI269
aI1362
aI2512
aF231.0
aI642
aI507
aI324
aI1131
aI2628
aF354.0
asg5
I1
sg6
(lp141
I5
aI-1
aI-1
aI48
aI-1
aI-1
asg8
(lp142
I50
aI-1
aI-1
aF-1.0
aF-1.0
aF-1.0
aI36
aI-1
aI-1
aF-1.0
aF-1.0
aF-1.0
asg10
(lp143
F0.003
aF-0.012
aF0.013000000000000001
asba(i__main__
sensor_data_struct
p144
(dp145
g3
(lp146
I611
aI352
aI224
aI1108
aI2623
aF193.0
aI906
aI422
aI315
aI1434
aI2393
aF141.0
asg5
I0
sg6
(lp147
I124
aI-1
aI-1
aI109
aI-1
aI-1
asg8
(lp148
I26
aI-1
aI-1
aF-1.0
aF-1.0
aF-1.0
aI24
aI-1
aI-1
aF-1.0
aF-1.0
aF-1.0
asg10
(lp149
F0.0
aF-0.003
aF0.006
asba(i__main__
sensor_data_struct
p150
(dp151
g3
(lp152
I593
aI344
aI221
aI1071
aI2624
aF188.0
aI781
aI421
aI275
aI1338
aI2493
aF209.0
asg5
I1
sg6
(lp153
I12
aI-1
aI-1
aI34
aI-1
aI-1
asg8
(lp154
I47
aI-1
aI-1
aF-1.0
aF-1.0
aF-1.0
aI34
aI-1
aI-1
aF-1.0
aF-1.0
aF-1.0
asg10
(lp155
F-0.012
aF-0.004
aF0.013000000000000001
asba(i__main__
sensor_data_struct
p156
(dp157
g3
(lp158
I621
aI359
aI231
aI1119
aI2616
aF195.0
aI899
aI439
aI306
aI1476
aI2428
aF177.0
asg5
I1
sg6
(lp159
I25
aI-1
aI-1
aI76
aI-1
aI-1
asg8
(lp160
I47
aI-1
aI-1
aF-1.0
aF-1.0
aF-1.0
aI27
aI-1
aI-1
aF-1.0
aF-1.0
aF-1.0
asg10
(lp161
F-0.006
aF0.005
aF0.013999999999999999
asba(i__main__
sensor_data_struct
p162
(dp163
g3
(lp164
I650
aI359
aI239
aI1141
aI2578
aF180.0
aI1291
aI479
aI374
aI1923
aI2242
aF63.0
asg5
I0
sg6
(lp165
I90
aI-1
aI-1
aI105
aI-1
aI-1
asg8
(lp166
I24
aI-1
aI-1
aF-1.0
aF-1.0
aF-1.0
aI24
aI-1
aI-1
aF-1.0
aF-1.0
aF-1.0
asg10
(lp167
F0.0
aF0.001
aF0.002
asba(i__main__
sensor_data_struct
p168
(dp169
g3
(lp170
I591
aI339
aI218
aI1069
aI2626
aF183.0
aI979
aI475
aI327
aI1585
aI2381
aF192.0
asg5
I1
sg6
(lp171
I28
aI-1
aI-1
aI76
aI-1
aI-1
asg8
(lp172
I36
aI-1
aI-1
aF-1.0
aF-1.0
aF-1.0
aI23
aI-1
aI-1
aF-1.0
aF-1.0
aF-1.0
asg10
(lp173
F0.005
aF-0.006
aF0.013000000000000001
asba(i__main__
sensor_data_struct
p174
(dp175
g3
(lp176
I609
aI349
aI227
aI1092
aI2615
aF186.0
aI1141
aI472
aI356
aI1751
aI2302
aF113.0
asg5
I0
sg6
(lp177
I44
aI-1
aI-1
aI98
aI-1
aI-1
asg8
(lp178
I21
aI-1
aI-1
aF-1.0
aF-1.0
aF-1.0
aI22
aI-1
aI-1
aF-1.0
aF-1.0
aF-1.0
asg10
(lp179
F-0.003
aF0.003
aF0.008
asba(i__main__
sensor_data_struct
p180
(dp181
g3
(lp182
I634
aI358
aI235
aI1127
aI2597
aF187.0
aI856
aI435
aI297
aI1419
aI2442
aF191.0
asg5
I1
sg6
(lp183
I36
aI-1
aI-1
aI60
aI-1
aI-1
asg8
(lp184
I34
aI-1
aI-1
aF-1.0
aF-1.0
aF-1.0
aI30
aI-1
aI-1
aF-1.0
aF-1.0
aF-1.0
asg10
(lp185
F-0.005
aF-0.002
aF0.015
asba(i__main__
sensor_data_struct
p186
(dp187
g3
(lp188
I670
aI363
aI245
aI1161
aI2555
aF176.0
aI1181
aI499
aI367
aI1815
aI2288
aF135.0
asg5
I0
sg6
(lp189
I189
aI-1
aI-1
aI116
aI-1
aI-1
asg8
(lp190
I31
aI-1
aI-1
aF-1.0
aF-1.0
aF-1.0
aI23
aI-1
aI-1
aF-1.0
aF-1.0
aF-1.0
asg10
(lp191
F0.002
aF-0.005
aF0.004
asba(i__main__
sensor_data_struct
p192
(dp193
g3
(lp194
I590
aI342
aI220
aI1068
aI2628
aF187.0
aI778
aI394
aI277
aI1291
aI2470
aF166.0
asg5
I0
sg6
(lp195
I29
aI-1
aI-1
aI48
aI-1
aI-1
asg8
(lp196
I12
aI-1
aI-1
aF-1.0
aF-1.0
aF-1.0
aI12
aI-1
aI-1
aF-1.0
aF-1.0
aF-1.0
asg10
(lp197
F-0.009000000000000001
aF0.0
aF0.008
asba(i__main__
sensor_data_struct
p198
(dp199
g3
(lp200
I637
aI358
aI237
aI1128
aI2595
aF184.0
aI1085
aI500
aI353
aI1725
aI2352
aF178.0
asg5
I1
sg6
(lp201
I26
aI-1
aI-1
aI67
aI-1
aI-1
asg8
(lp202
I40
aI-1
aI-1
aF-1.0
aF-1.0
aF-1.0
aI27
aI-1
aI-1
aF-1.0
aF-1.0
aF-1.0
asg10
(lp203
F-0.003
aF0.006
aF0.013000000000000001
asba(i__main__
sensor_data_struct
p204
(dp205
g3
(lp206
I576
aI339
aI216
aI1052
aI2646
aF189.0
aI618
aI359
aI229
aI1112
aI2605
aF198.0
asg5
I1
sg6
(lp207
I3
aI-1
aI-1
aI25
aI-1
aI-1
asg8
(lp208
I49
aI-1
aI-1
aF-1.0
aF-1.0
aF-1.0
aI46
aI-1
aI-1
aF-1.0
aF-1.0
aF-1.0
asg10
(lp209
F0.011000000000000001
aF0.002
aF0.015
asba(i__main__
sensor_data_struct
p210
(dp211
g3
(lp212
I620
aI351
aI231
aI1101
aI2600
aF183.0
aI1173
aI461
aI349
aI1785
aI2277
aF91.0
asg5
I0
sg6
(lp213
I38
aI-1
aI-1
aI109
aI-1
aI-1
asg8
(lp214
I19
aI-1
aI-1
aF-1.0
aF-1.0
aF-1.0
aI24
aI-1
aI-1
aF-1.0
aF-1.0
aF-1.0
asg10
(lp215
F-0.005
aF0.005
aF0.004
asba(i__main__
sensor_data_struct
p216
(dp217
g3
(lp218
I647
aI362
aI238
aI1143
aI2582
aF187.0
aI794
aI398
aI280
aI1319
aI2473
aF165.0
asg5
I1
sg6
(lp219
I26
aI-1
aI-1
aI39
aI-1
aI-1
asg8
(lp220
I14
aI-1
aI-1
aF-1.0
aF-1.0
aF-1.0
aI10
aI-1
aI-1
aF-1.0
aF-1.0
aF-1.0
asg10
(lp221
F-0.009000000000000001
aF0.001
aF0.006999999999999999
asba(i__main__
sensor_data_struct
p222
(dp223
g3
(lp224
I586
aI343
aI220
aI1064
aI2637
aF190.0
aI1094
aI433
aI328
aI1678
aI2299
aF88.0
asg5
I1
sg6
(lp225
I20
aI-1
aI-1
aI77
aI-1
aI-1
asg8
(lp226
I34
aI-1
aI-1
aF-1.0
aF-1.0
aF-1.0
aI24
aI-1
aI-1
aF-1.0
aF-1.0
aF-1.0
asg10
(lp227
F0.005
aF0.004
aF0.012
asba(i__main__
sensor_data_struct
p228
(dp229
g3
(lp230
I616
aI356
aI234
aI1101
aI2620
aF190.0
aI1005
aI484
aI335
aI1629
aI2389
aF192.0
asg5
I1
sg6
(lp231
I21
aI-1
aI-1
aI57
aI-1
aI-1
asg8
(lp232
I48
aI-1
aI-1
aF-1.0
aF-1.0
aF-1.0
aI31
aI-1
aI-1
aF-1.0
aF-1.0
aF-1.0
asg10
(lp233
F-0.004
aF0.011000000000000001
aF0.015
asba(i__main__
sensor_data_struct
p234
(dp235
g3
(lp236
I674
aI379
aI250
aI1189
aI2582
aF196.0
aI733
aI389
aI268
aI1250
aI2528
aF179.0
asg5
I1
sg6
(lp237
I21
aI-1
aI-1
aI64
aI-1
aI-1
asg8
(lp238
I40
aI-1
aI-1
aF-1.0
aF-1.0
aF-1.0
aI23
aI-1
aI-1
aF-1.0
aF-1.0
aF-1.0
asg10
(lp239
F-0.01
aF0.005
aF0.013000000000000001
asba(i__main__
sensor_data_struct
p240
(dp241
g3
(lp242
I576
aI338
aI216
aI1051
aI2646
aF188.0
aI933
aI413
aI299
aI1489
aI2375
aF130.0
asg5
I0
sg6
(lp243
I16
aI-1
aI-1
aI78
aI-1
aI-1
asg8
(lp244
I32
aI-1
aI-1
aF-1.0
aF-1.0
aF-1.0
aI26
aI-1
aI-1
aF-1.0
aF-1.0
aF-1.0
asg10
(lp245
F0.009000000000000001
aF0.002
aF0.012
asba(i__main__
sensor_data_struct
p246
(dp247
g3
(lp248
I595
aI344
aI222
aI1074
aI2626
aF187.0
aI887
aI448
aI306
aI1460
aI2423
aF195.0
asg5
I1
sg6
(lp249
I21
aI-1
aI-1
aI64
aI-1
aI-1
asg8
(lp250
I46
aI-1
aI-1
aF-1.0
aF-1.0
aF-1.0
aI26
aI-1
aI-1
aF-1.0
aF-1.0
aF-1.0
asg10
(lp251
F-0.006
aF-0.005
aF0.013999999999999999
asba(i__main__
sensor_data_struct
p252
(dp253
g3
(lp254
I732
aI379
aI260
aI1249
aI2520
aF170.0
aI2780
aI765
aI680
aI3897
aI2142
aF65344.0
asg5
I1
sg6
(lp255
I19
aI-1
aI-1
aI37
aI-1
aI-1
asg8
(lp256
I45
aI-1
aI-1
aF-1.0
aF-1.0
aF-1.0
aI36
aI-1
aI-1
aF-1.0
aF-1.0
aF-1.0
asg10
(lp257
F0.001
aF0.01
aF0.009000000000000001
asba(i__main__
sensor_data_struct
p258
(dp259
g3
(lp260
I612
aI355
aI231
aI1102
aI2627
aF192.0
aI687
aI372
aI254
aI1179
aI2540
aF178.0
asg5
I1
sg6
(lp261
I27
aI-1
aI-1
aI68
aI-1
aI-1
asg8
(lp262
I42
aI-1
aI-1
aF-1.0
aF-1.0
aF-1.0
aI26
aI-1
aI-1
aF-1.0
aF-1.0
aF-1.0
asg10
(lp263
F-0.002
aF-0.006999999999999999
aF0.013999999999999999
asba(i__main__
sensor_data_struct
p264
(dp265
g3
(lp266
I644
aI357
aI236
aI1135
aI2579
aF181.0
aI1175
aI490
aI365
aI1801
aI2292
aF124.0
asg5
I0
sg6
(lp267
I85
aI-1
aI-1
aI105
aI-1
aI-1
asg8
(lp268
I27
aI-1
aI-1
aF-1.0
aF-1.0
aF-1.0
aI23
aI-1
aI-1
aF-1.0
aF-1.0
aF-1.0
asg10
(lp269
F0.003
aF-0.001
aF0.006999999999999999
asba(i__main__
sensor_data_struct
p270
(dp271
g3
(lp272
I695
aI372
aI249
aI1202
aI2537
aF179.0
aI651
aI360
aI243
aI1130
aI2561
aF179.0
asg5
I1
sg6
(lp273
I19
aI-1
aI-1
aI64
aI-1
aI-1
asg8
(lp274
I51
aI-1
aI-1
aF-1.0
aF-1.0
aF-1.0
aI29
aI-1
aI-1
aF-1.0
aF-1.0
aF-1.0
asg10
(lp275
F-0.005
aF-0.01
aF0.015
asba(i__main__
sensor_data_struct
p276
(dp277
g3
(lp278
I587
aI343
aI221
aI1068
aI2647
aF189.0
aI1270
aI522
aI375
aI1990
aI2316
aF137.0
asg5
I1
sg6
(lp279
I10
aI-1
aI-1
aI34
aI-1
aI-1
asg8
(lp280
I47
aI-1
aI-1
aF-1.0
aF-1.0
aF-1.0
aI38
aI-1
aI-1
aF-1.0
aF-1.0
aF-1.0
asg10
(lp281
F0.006999999999999999
aF0.009000000000000001
aF0.013999999999999999
asba(i__main__
sensor_data_struct
p282
(dp283
g3
(lp284
I658
aI365
aI243
aI1153
aI2574
aF184.0
aI1091
aI471
aI343
aI1702
aI2322
aF138.0
asg5
I0
sg6
(lp285
I33
aI-1
aI-1
aI106
aI-1
aI-1
asg8
(lp286
I15
aI-1
aI-1
aF-1.0
aF-1.0
aF-1.0
aI23
aI-1
aI-1
aF-1.0
aF-1.0
aF-1.0
asg10
(lp287
F-0.006999999999999999
aF0.003
aF0.005
asba(i__main__
sensor_data_struct
p288
(dp289
g3
(lp290
I684
aI370
aI250
aI1186
aI2555
aF178.0
aI1160
aI520
aI373
aI1817
aI2323
aF171.0
asg5
I1
sg6
(lp291
I28
aI-1
aI-1
aI77
aI-1
aI-1
asg8
(lp292
I37
aI-1
aI-1
aF-1.0
aF-1.0
aF-1.0
aI24
aI-1
aI-1
aF-1.0
aF-1.0
aF-1.0
asg10
(lp293
F-0.004
aF0.008
aF0.011000000000000001
asba(i__main__
sensor_data_struct
p294
(dp295
g3
(lp296
I639
aI364
aI240
aI1136
aI2606
aF191.0
aI1508
aI546
aI423
aI2332
aI2322
aF62.0
asg5
I0
sg6
(lp297
I50
aI-1
aI-1
aI106
aI-1
aI-1
asg8
(lp298
I27
aI-1
aI-1
aF-1.0
aF-1.0
aF-1.0
aI24
aI-1
aI-1
aF-1.0
aF-1.0
aF-1.0
asg10
(lp299
F0.0
aF0.004
aF0.002
asba(i__main__
sensor_data_struct
p300
(dp301
g3
(lp302
I583
aI337
aI217
aI1058
aI2637
aF183.0
aI1009
aI462
aI332
aI1603
aI2363
aF158.0
asg5
I0
sg6
(lp303
I33
aI-1
aI-1
aI94
aI-1
aI-1
asg8
(lp304
I32
aI-1
aI-1
aF-1.0
aF-1.0
aF-1.0
aI25
aI-1
aI-1
aF-1.0
aF-1.0
aF-1.0
asg10
(lp305
F0.008
aF-0.002
aF0.01
asba(i__main__
sensor_data_struct
p306
(dp307
g3
(lp308
I596
aI346
aI224
aI1076
aI2628
aF188.0
aI944
aI412
aI305
aI1484
aI2356
aF120.0
asg5
I0
sg6
(lp309
I53
aI-1
aI-1
aI108
aI-1
aI-1
asg8
(lp310
I17
aI-1
aI-1
aF-1.0
aF-1.0
aF-1.0
aI25
aI-1
aI-1
aF-1.0
aF-1.0
aF-1.0
asg10
(lp311
F-0.005
aF0.002
aF0.004
asba(i__main__
sensor_data_struct
p312
(dp313
g3
(lp314
I656
aI364
aI242
aI1152
aI2576
aF184.0
aI923
aI420
aI308
aI1474
aI2394
aF137.0
asg5
I1
sg6
(lp315
I30
aI-1
aI-1
aI64
aI-1
aI-1
asg8
(lp316
I32
aI-1
aI-1
aF-1.0
aF-1.0
aF-1.0
aI27
aI-1
aI-1
aF-1.0
aF-1.0
aF-1.0
asg10
(lp317
F0.001
aF0.004
aF0.013999999999999999
asba(i__main__
sensor_data_struct
p318
(dp319
g3
(lp320
I618
aI356
aI234
aI1101
aI2611
aF189.0
aI985
aI490
aI335
aI1612
aI2405
aF208.0
asg5
I1
sg6
(lp321
I21
aI-1
aI-1
aI57
aI-1
aI-1
asg8
(lp322
I46
aI-1
aI-1
aF-1.0
aF-1.0
aF-1.0
aI28
aI-1
aI-1
aF-1.0
aF-1.0
aF-1.0
asg10
(lp323
F-0.009000000000000001
aF0.009000000000000001
aF0.015
asba(i__main__
sensor_data_struct
p324
(dp325
g3
(lp326
I582
aI339
aI218
aI1056
aI2637
aF186.0
aI1008
aI430
aI321
aI1572
aI2340
aF116.0
asg5
I0
sg6
(lp327
I76
aI-1
aI-1
aI108
aI-1
aI-1
asg8
(lp328
I30
aI-1
aI-1
aF-1.0
aF-1.0
aF-1.0
aI23
aI-1
aI-1
aF-1.0
aF-1.0
aF-1.0
asg10
(lp329
F0.006
aF-0.001
aF0.006999999999999999
asba(i__main__
sensor_data_struct
p330
(dp331
g3
(lp332
I597
aI342
aI221
aI1076
aI2619
aF184.0
aI931
aI453
aI319
aI1504
aI2398
aF179.0
asg5
I0
sg6
(lp333
I61
aI-1
aI-1
aI93
aI-1
aI-1
asg8
(lp334
I37
aI-1
aI-1
aF-1.0
aF-1.0
aF-1.0
aI24
aI-1
aI-1
aF-1.0
aF-1.0
aF-1.0
asg10
(lp335
F0.001
aF-0.006999999999999999
aF0.01
asba(i__main__
sensor_data_struct
p336
(dp337
g3
(lp338
I639
aI361
aI238
aI1133
aI2598
aF188.0
aI1319
aI544
aI395
aI2042
aI2293
aF141.0
asg5
I1
sg6
(lp339
I29
aI-1
aI-1
aI38
aI-1
aI-1
asg8
(lp340
I46
aI-1
aI-1
aF-1.0
aF-1.0
aF-1.0
aI35
aI-1
aI-1
aF-1.0
aF-1.0
aF-1.0
asg10
(lp341
F0.002
aF0.008
aF0.013999999999999999
asba(i__main__
sensor_data_struct
p342
(dp343
g3
(lp344
I861
aI442
aI295
aI1453
aI2467
aF202.0
aI1269
aI467
aI368
aI1914
aI2276
aF55.0
asg5
I0
sg6
(lp345
I27
aI-1
aI-1
aI81
aI-1
aI-1
asg8
(lp346
I37
aI-1
aI-1
aF-1.0
aF-1.0
aF-1.0
aI25
aI-1
aI-1
aF-1.0
aF-1.0
aF-1.0
asg10
(lp347
F-0.003
aF0.01
aF0.01
asba(i__main__
sensor_data_struct
p348
(dp349
g3
(lp350
I606
aI353
aI229
aI1092
aI2626
aF192.0
aI751
aI391
aI280
aI1244
aI2490
aF168.0
asg5
I0
sg6
(lp351
I63
aI-1
aI-1
aI98
aI-1
aI-1
asg8
(lp352
I23
aI-1
aI-1
aF-1.0
aF-1.0
aF-1.0
aI23
aI-1
aI-1
aF-1.0
aF-1.0
aF-1.0
asg10
(lp353
F-0.004
aF-0.005
aF0.008
asba(i__main__
sensor_data_struct
p354
(dp355
g3
(lp356
I604
aI345
aI223
aI1087
aI2618
aF185.0
aI1012
aI474
aI335
aI1616
aI2366
aF174.0
asg5
I1
sg6
(lp357
I46
aI-1
aI-1
aI82
aI-1
aI-1
asg8
(lp358
I30
aI-1
aI-1
aF-1.0
aF-1.0
aF-1.0
aI23
aI-1
aI-1
aF-1.0
aF-1.0
aF-1.0
asg10
(lp359
F0.003
aF-0.002
aF0.012
asba(i__main__
sensor_data_struct
p360
(dp361
g3
(lp362
I592
aI342
aI217
aI1078
aI2631
aF188.0
aI811
aI424
aI281
aI1374
aI2472
aF200.0
asg5
I1
sg6
(lp363
I20
aI-1
aI-1
aI60
aI-1
aI-1
asg8
(lp364
I41
aI-1
aI-1
aF-1.0
aF-1.0
aF-1.0
aI40
aI-1
aI-1
aF-1.0
aF-1.0
aF-1.0
asg10
(lp365
F0.005
aF-0.008
aF0.013000000000000001
asba(i__main__
sensor_data_struct
p366
(dp367
g3
(lp368
I616
aI354
aI224
aI1119
aI2621
aF194.0
aI680
aI371
aI252
aI1170
aI2545
aF180.0
asg5
I1
sg6
(lp369
I33
aI-1
aI-1
aI73
aI-1
aI-1
asg8
(lp370
I41
aI-1
aI-1
aF-1.0
aF-1.0
aF-1.0
aI25
aI-1
aI-1
aF-1.0
aF-1.0
aF-1.0
asg10
(lp371
F-0.005
aF-0.01
aF0.013000000000000001
asba(i__main__
sensor_data_struct
p372
(dp373
g3
(lp374
I608
aI351
aI227
aI1097
aI2627
aF190.0
aI1738
aI529
aI451
aI2478
aI2170
aF65477.0
asg5
I1
sg6
(lp375
I26
aI-1
aI-1
aI47
aI-1
aI-1
asg8
(lp376
I39
aI-1
aI-1
aF-1.0
aF-1.0
aF-1.0
aI34
aI-1
aI-1
aF-1.0
aF-1.0
aF-1.0
asg10
(lp377
F0.002
aF0.006999999999999999
aF0.009000000000000001
asba(i__main__
sensor_data_struct
p378
(dp379
g3
(lp380
I601
aI347
aI225
aI1082
aI2624
aF187.0
aI829
aI415
aI307
aI1333
aI2438
aF161.0
asg5
I0
sg6
(lp381
I164
aI-1
aI-1
aI111
aI-1
aI-1
asg8
(lp382
I27
aI-1
aI-1
aF-1.0
aF-1.0
aF-1.0
aI25
aI-1
aI-1
aF-1.0
aF-1.0
aF-1.0
asg10
(lp383
F-0.001
aF-0.004
aF0.005
asba(i__main__
sensor_data_struct
p384
(dp385
g3
(lp386
I612
aI349
aI227
aI1098
aI2613
aF186.0
aI1047
aI429
aI326
aI1610
aI2312
aF98.0
asg5
I0
sg6
(lp387
I88
aI-1
aI-1
aI108
aI-1
aI-1
asg8
(lp388
I30
aI-1
aI-1
aF-1.0
aF-1.0
aF-1.0
aI24
aI-1
aI-1
aF-1.0
aF-1.0
aF-1.0
asg10
(lp389
F0.003
aF-0.001
aF0.006
asba(i__main__
sensor_data_struct
p390
(dp391
g3
(lp392
I612
aI349
aI225
aI1101
aI2614
aF187.0
aI645
aI358
aI232
aI1144
aI2578
aF185.0
asg5
I1
sg6
(lp393
I5
aI-1
aI-1
aI42
aI-1
aI-1
asg8
(lp394
I50
aI-1
aI-1
aF-1.0
aF-1.0
aF-1.0
aI36
aI-1
aI-1
aF-1.0
aF-1.0
aF-1.0
asg10
(lp395
F0.003
aF-0.012
aF0.015
asba(i__main__
sensor_data_struct
p396
(dp397
g3
(lp398
I600
aI348
aI221
aI1094
aI2636
aF192.0
aI1206
aI444
aI344
aI1818
aI2263
aF57.0
asg5
I1
sg6
(lp399
I17
aI-1
aI-1
aI51
aI-1
aI-1
asg8
(lp400
I37
aI-1
aI-1
aF-1.0
aF-1.0
aF-1.0
aI33
aI-1
aI-1
aF-1.0
aF-1.0
aF-1.0
asg10
(lp401
F0.006999999999999999
aF0.004
aF0.011000000000000001
asba(i__main__
sensor_data_struct
p402
(dp403
g3
(lp404
I623
aI354
aI230
aI1116
aI2610
aF188.0
aI1280
aI488
aI375
aI1925
aI2256
aF80.0
asg5
I0
sg6
(lp405
I24
aI-1
aI-1
aI87
aI-1
aI-1
asg8
(lp406
I34
aI-1
aI-1
aF-1.0
aF-1.0
aF-1.0
aI23
aI-1
aI-1
aF-1.0
aF-1.0
aF-1.0
asg10
(lp407
F0.005
aF0.004
aF0.01
asba(i__main__
sensor_data_struct
p408
(dp409
g3
(lp410
I594
aI343
aI220
aI1074
aI2624
aF187.0
aI840
aI429
aI294
aI1394
aI2449
aF189.0
asg5
I1
sg6
(lp411
I25
aI-1
aI-1
aI74
aI-1
aI-1
asg8
(lp412
I46
aI-1
aI-1
aF-1.0
aF-1.0
aF-1.0
aI23
aI-1
aI-1
aF-1.0
aF-1.0
aF-1.0
asg10
(lp413
F-0.002
aF-0.01
aF0.013000000000000001
asba(i__main__
sensor_data_struct
p414
(dp415
g3
(lp416
I620
aI353
aI229
aI1108
aI2601
aF188.0
aI1001
aI464
aI334
aI1588
aI2364
aF162.0
asg5
I0
sg6
(lp417
I53
aI-1
aI-1
aI86
aI-1
aI-1
asg8
(lp418
I17
aI-1
aI-1
aF-1.0
aF-1.0
aF-1.0
aI25
aI-1
aI-1
aF-1.0
aF-1.0
aF-1.0
asg10
(lp419
F-0.004
aF-0.001
aF0.01
asba(i__main__
sensor_data_struct
p420
(dp421
g3
(lp422
I609
aI352
aI227
aI1098
aI2620
aF191.0
aI1389
aI476
aI386
aI2030
aI2213
aF17.0
asg5
I0
sg6
(lp423
I46
aI-1
aI-1
aI103
aI-1
aI-1
asg8
(lp424
I31
aI-1
aI-1
aF-1.0
aF-1.0
aF-1.0
aI22
aI-1
aI-1
aF-1.0
aF-1.0
aF-1.0
asg10
(lp425
F0.004
aF0.002
aF0.006999999999999999
asba(i__main__
sensor_data_struct
p426
(dp427
g3
(lp428
I594
aI341
aI219
aI1075
aI2626
aF185.0
aI876
aI455
aI298
aI1474
aI2444
aF215.0
asg5
I1
sg6
(lp429
I13
aI-1
aI-1
aI46
aI-1
aI-1
asg8
(lp430
I45
aI-1
aI-1
aF-1.0
aF-1.0
aF-1.0
aI41
aI-1
aI-1
aF-1.0
aF-1.0
aF-1.0
asg10
(lp431
F0.004
aF-0.008
aF0.013999999999999999
asba(i__main__
sensor_data_struct
p432
(dp433
g3
(lp434
I625
aI357
aI229
aI1128
aI2617
aF192.0
aI886
aI443
aI304
aI1459
aI2425
aF189.0
asg5
I1
sg6
(lp435
I37
aI-1
aI-1
aI73
aI-1
aI-1
asg8
(lp436
I30
aI-1
aI-1
aF-1.0
aF-1.0
aF-1.0
aI26
aI-1
aI-1
aF-1.0
aF-1.0
aF-1.0
asg10
(lp437
F0.002
aF-0.003
aF0.015
asba(i__main__
sensor_data_struct
p438
(dp439
g3
(lp440
I633
aI355
aI231
aI1128
aI2596
aF185.0
aI1076
aI469
aI343
aI1677
aI2324
aF139.0
asg5
I0
sg6
(lp441
I150
aI-1
aI-1
aI117
aI-1
aI-1
asg8
(lp442
I30
aI-1
aI-1
aF-1.0
aF-1.0
aF-1.0
aI25
aI-1
aI-1
aF-1.0
aF-1.0
aF-1.0
asg10
(lp443
F0.005
aF-0.004
aF0.005
asba(i__main__
sensor_data_struct
p444
(dp445
g3
(lp446
I623
aI355
aI231
aI1111
aI2599
aF188.0
aI1046
aI471
aI340
aI1648
aI2345
aF154.0
asg5
I0
sg6
(lp447
I37
aI-1
aI-1
aI97
aI-1
aI-1
asg8
(lp448
I17
aI-1
aI-1
aF-1.0
aF-1.0
aF-1.0
aI24
aI-1
aI-1
aF-1.0
aF-1.0
aF-1.0
asg10
(lp449
F-0.006999999999999999
aF0.001
aF0.008
asba(i__main__
sensor_data_struct
p450
(dp451
g3
(lp452
I623
aI355
aI232
aI1113
aI2610
aF188.0
aI1070
aI473
aI349
aI1667
aI2333
aF143.0
asg5
I0
sg6
(lp453
I67
aI-1
aI-1
aI92
aI-1
aI-1
asg8
(lp454
I21
aI-1
aI-1
aF-1.0
aF-1.0
aF-1.0
aI24
aI-1
aI-1
aF-1.0
aF-1.0
aF-1.0
asg10
(lp455
F-0.002
aF0.0
aF0.009000000000000001
asba(i__main__
sensor_data_struct
p456
(dp457
g3
(lp458
I574
aI337
aI214
aI1052
aI2651
aF188.0
aI864
aI427
aI291
aI1431
aI2434
aF180.0
asg5
I1
sg6
(lp459
I10
aI-1
aI-1
aI61
aI-1
aI-1
asg8
(lp460
I34
aI-1
aI-1
aF-1.0
aF-1.0
aF-1.0
aI30
aI-1
aI-1
aF-1.0
aF-1.0
aF-1.0
asg10
(lp461
F0.013000000000000001
aF0.001
aF0.015
asba(i__main__
sensor_data_struct
p462
(dp463
g3
(lp464
I877
aI402
aI291
aI1409
aI2399
aF136.0
aI1350
aI513
aI388
aI2026
aI2240
aF87.0
asg5
I0
sg6
(lp465
I48
aI-1
aI-1
aI100
aI-1
aI-1
asg8
(lp466
I19
aI-1
aI-1
aF-1.0
aF-1.0
aF-1.0
aI24
aI-1
aI-1
aF-1.0
aF-1.0
aF-1.0
asg10
(lp467
F-0.003
aF0.002
aF0.0
asba(i__main__
sensor_data_struct
p468
(dp469
g3
(lp470
I617
aI352
aI230
aI1101
aI2605
aF186.0
aI933
aI439
aI314
aI1498
aI2390
aF160.0
asg5
I0
sg6
(lp471
I34
aI-1
aI-1
aI99
aI-1
aI-1
asg8
(lp472
I12
aI-1
aI-1
aF-1.0
aF-1.0
aF-1.0
aI23
aI-1
aI-1
aF-1.0
aF-1.0
aF-1.0
asg10
(lp473
F-0.008
aF0.0
aF0.006999999999999999
asba(i__main__
sensor_data_struct
p474
(dp475
g3
(lp476
I619
aI352
aI230
aI1104
aI2605
aF186.0
aI1045
aI478
aI347
aI1643
aI2347
aF161.0
asg5
I0
sg6
(lp477
I68
aI-1
aI-1
aI99
aI-1
aI-1
asg8
(lp478
I21
aI-1
aI-1
aF-1.0
aF-1.0
aF-1.0
aI24
aI-1
aI-1
aF-1.0
aF-1.0
aF-1.0
asg10
(lp479
F-0.004
aF-0.004
aF0.008
asba(i__main__
sensor_data_struct
p480
(dp481
g3
(lp482
I825
aI422
aI288
aI1379
aI2462
aF187.0
aI697
aI373
aI255
aI1189
aI2523
aF175.0
asg5
I1
sg6
(lp483
I39
aI-1
aI-1
aI63
aI-1
aI-1
asg8
(lp484
I36
aI-1
aI-1
aF-1.0
aF-1.0
aF-1.0
aI28
aI-1
aI-1
aF-1.0
aF-1.0
aF-1.0
asg10
(lp485
F-0.002
aF-0.005
aF0.015
asba(i__main__
sensor_data_struct
p486
(dp487
g3
(lp488
I665
aI365
aI244
aI1161
aI2567
aF181.0
aI1142
aI516
aI372
aI1783
aI2322
aF171.0
asg5
I0
sg6
(lp489
I105
aI-1
aI-1
aI96
aI-1
aI-1
asg8
(lp490
I27
aI-1
aI-1
aF-1.0
aF-1.0
aF-1.0
aI24
aI-1
aI-1
aF-1.0
aF-1.0
aF-1.0
asg10
(lp491
F0.001
aF-0.004
aF0.009000000000000001
asba(i__main__
sensor_data_struct
p492
(dp493
g3
(lp494
I583
aI338
aI215
aI1064
aI2637
aF186.0
aI892
aI474
aI301
aI1518
aI2448
aF238.0
asg5
I1
sg6
(lp495
I5
aI-1
aI-1
aI35
aI-1
aI-1
asg8
(lp496
I48
aI-1
aI-1
aF-1.0
aF-1.0
aF-1.0
aI37
aI-1
aI-1
aF-1.0
aF-1.0
aF-1.0
asg10
(lp497
F0.008
aF-0.008
aF0.013999999999999999
asba(i__main__
sensor_data_struct
p498
(dp499
g3
(lp500
I617
aI358
aI225
aI1124
aI2621
aF200.0
aI673
aI370
aI242
aI1179
aI2552
aF188.0
asg5
I1
sg6
(lp501
I8
aI-1
aI-1
aI40
aI-1
aI-1
asg8
(lp502
I49
aI-1
aI-1
aF-1.0
aF-1.0
aF-1.0
aI34
aI-1
aI-1
aF-1.0
aF-1.0
aF-1.0
asg10
(lp503
F0.0
aF-0.012
aF0.013999999999999999
asba(i__main__
sensor_data_struct
p504
(dp505
g3
(lp506
I609
aI348
aI223
aI1101
aI2620
aF188.0
aI930
aI488
aI316
aI1563
aI2432
aF237.0
asg5
I1
sg6
(lp507
I30
aI-1
aI-1
aI61
aI-1
aI-1
asg8
(lp508
I46
aI-1
aI-1
aF-1.0
aF-1.0
aF-1.0
aI34
aI-1
aI-1
aF-1.0
aF-1.0
aF-1.0
asg10
(lp509
F0.005
aF-0.009000000000000001
aF0.011000000000000001
asba(i__main__
sensor_data_struct
p510
(dp511
g3
(lp512
I639
aI359
aI235
aI1133
aI2587
aF187.0
aI918
aI413
aI304
aI1452
aI2372
aF131.0
asg5
I0
sg6
(lp513
I161
aI-1
aI-1
aI105
aI-1
aI-1
asg8
(lp514
I22
aI-1
aI-1
aF-1.0
aF-1.0
aF-1.0
aI23
aI-1
aI-1
aF-1.0
aF-1.0
aF-1.0
asg10
(lp515
F-0.001
aF-0.004
aF0.0
asba(i__main__
sensor_data_struct
p516
(dp517
g3
(lp518
I624
aI355
aI231
aI1114
aI2601
aF188.0
aI1353
aI475
aI380
aI2010
aI2244
aF32.0
asg5
I1
sg6
(lp519
I26
aI-1
aI-1
aI61
aI-1
aI-1
asg8
(lp520
I39
aI-1
aI-1
aF-1.0
aF-1.0
aF-1.0
aI31
aI-1
aI-1
aF-1.0
aF-1.0
aF-1.0
asg10
(lp521
F-0.001
aF0.006999999999999999
aF0.01
asba(i__main__
sensor_data_struct
p522
(dp523
g3
(lp524
I622
aI351
aI231
aI1107
aI2605
aF182.0
aI1061
aI500
aI349
aI1696
aI2357
aF189.0
asg5
I1
sg6
(lp525
I30
aI-1
aI-1
aI67
aI-1
aI-1
asg8
(lp526
I31
aI-1
aI-1
aF-1.0
aF-1.0
aF-1.0
aI26
aI-1
aI-1
aF-1.0
aF-1.0
aF-1.0
asg10
(lp527
F0.004
aF0.002
aF0.013999999999999999
asba(i__main__
sensor_data_struct
p528
(dp529
g3
(lp530
I654
aI363
aI244
aI1142
aI2575
aF182.0
aI1207
aI511
aI376
aI1854
aI2288
aF139.0
asg5
I0
sg6
(lp531
I48
aI-1
aI-1
aI103
aI-1
aI-1
asg8
(lp532
I14
aI-1
aI-1
aF-1.0
aF-1.0
aF-1.0
aI25
aI-1
aI-1
aF-1.0
aF-1.0
aF-1.0
asg10
(lp533
F-0.006999999999999999
aF-0.003
aF0.006
asba(i__main__
sensor_data_struct
p534
(dp535
g3
(lp536
I597
aI345
aI222
aI1081
aI2631
aF188.0
aI773
aI403
aI273
aI1305
aI2483
aF185.0
asg5
I1
sg6
(lp537
I25
aI-1
aI-1
aI70
aI-1
aI-1
asg8
(lp538
I38
aI-1
aI-1
aF-1.0
aF-1.0
aF-1.0
aI25
aI-1
aI-1
aF-1.0
aF-1.0
aF-1.0
asg10
(lp539
F0.002
aF-0.006999999999999999
aF0.013999999999999999
asba(i__main__
sensor_data_struct
p540
(dp541
g3
(lp542
I616
aI354
aI227
aI1112
aI2618
aF192.0
aI814
aI401
aI283
aI1348
aI2463
aF161.0
asg5
I1
sg6
(lp543
I24
aI-1
aI-1
aI70
aI-1
aI-1
asg8
(lp544
I41
aI-1
aI-1
aF-1.0
aF-1.0
aF-1.0
aI23
aI-1
aI-1
aF-1.0
aF-1.0
aF-1.0
asg10
(lp545
F-0.008
aF0.005
aF0.012
asba(i__main__
sensor_data_struct
p546
(dp547
g3
(lp548
I626
aI361
aI236
aI1118
aI2612
aF193.0
aI938
aI486
aI326
aI1566
aI2444
aF223.0
asg5
I1
sg6
(lp549
I17
aI-1
aI-1
aI49
aI-1
aI-1
asg8
(lp550
I50
aI-1
aI-1
aF-1.0
aF-1.0
aF-1.0
aI29
aI-1
aI-1
aF-1.0
aF-1.0
aF-1.0
asg10
(lp551
F-0.011000000000000001
aF0.006
aF0.015
asba(i__main__
sensor_data_struct
p552
(dp553
g3
(lp554
I617
aI353
aI231
aI1104
aI2616
aF187.0
aI990
aI487
aI334
aI1611
aI2392
aF202.0
asg5
I1
sg6
(lp555
I41
aI-1
aI-1
aI66
aI-1
aI-1
asg8
(lp556
I30
aI-1
aI-1
aF-1.0
aF-1.0
aF-1.0
aI29
aI-1
aI-1
aF-1.0
aF-1.0
aF-1.0
asg10
(lp557
F-0.003
aF-0.001
aF0.015
asba(i__main__
sensor_data_struct
p558
(dp559
g3
(lp560
I710
aI391
aI257
aI1240
aI2549
aF198.0
aI661
aI363
aI246
aI1143
aI2556
aF178.0
asg5
I1
sg6
(lp561
I21
aI-1
aI-1
aI65
aI-1
aI-1
asg8
(lp562
I46
aI-1
aI-1
aF-1.0
aF-1.0
aF-1.0
aI27
aI-1
aI-1
aF-1.0
aF-1.0
aF-1.0
asg10
(lp563
F-0.008
aF-0.01
aF0.013999999999999999
asba(i__main__
sensor_data_struct
p564
(dp565
g3
(lp566
I632
aI361
aI233
aI1132
aI2602
aF194.0
aI1005
aI436
aI326
aI1578
aI2361
aF123.0
asg5
I0
sg6
(lp567
I38
aI-1
aI-1
aI85
aI-1
aI-1
asg8
(lp568
I26
aI-1
aI-1
aF-1.0
aF-1.0
aF-1.0
aI25
aI-1
aI-1
aF-1.0
aF-1.0
aF-1.0
asg10
(lp569
F-0.004
aF0.003
aF0.01
asba(i__main__
sensor_data_struct
p570
(dp571
g3
(lp572
I611
aI352
aI228
aI1105
aI2631
aF190.0
aI1321
aI560
aI391
aI2092
aI2322
aF168.0
asg5
I1
sg6
(lp573
I5
aI-1
aI-1
aI32
aI-1
aI-1
asg8
(lp574
I50
aI-1
aI-1
aF-1.0
aF-1.0
aF-1.0
aI36
aI-1
aI-1
aF-1.0
aF-1.0
aF-1.0
asg10
(lp575
F0.006999999999999999
aF0.011000000000000001
aF0.013999999999999999
asba(i__main__
sensor_data_struct
p576
(dp577
g3
(lp578
I610
aI351
aI227
aI1100
aI2622
aF189.0
aI896
aI481
aI306
aI1528
aI2456
aF244.0
asg5
I1
sg6
(lp579
I3
aI-1
aI-1
aI33
aI-1
aI-1
asg8
(lp580
I48
aI-1
aI-1
aF-1.0
aF-1.0
aF-1.0
aI37
aI-1
aI-1
aF-1.0
aF-1.0
aF-1.0
asg10
(lp581
F0.001
aF-0.002
aF0.013999999999999999
asba(i__main__
sensor_data_struct
p582
(dp583
g3
(lp584
I636
aI365
aI240
aI1133
aI2608
aF193.0
aI1029
aI494
aI343
aI1665
aI2387
aF194.0
asg5
I1
sg6
(lp585
I21
aI-1
aI-1
aI60
aI-1
aI-1
asg8
(lp586
I47
aI-1
aI-1
aF-1.0
aF-1.0
aF-1.0
aI27
aI-1
aI-1
aF-1.0
aF-1.0
aF-1.0
asg10
(lp587
F-0.006
aF0.011000000000000001
aF0.013999999999999999
asba(i__main__
sensor_data_struct
p588
(dp589
g3
(lp590
I620
aI361
aI236
aI1114
aI2629
aF195.0
aI1215
aI527
aI375
aI1920
aI2335
aF162.0
asg5
I1
sg6
(lp591
I17
aI-1
aI-1
aI36
aI-1
aI-1
asg8
(lp592
I46
aI-1
aI-1
aF-1.0
aF-1.0
aF-1.0
aI34
aI-1
aI-1
aF-1.0
aF-1.0
aF-1.0
asg10
(lp593
F0.001
aF0.01
aF0.015
asba(i__main__
sensor_data_struct
p594
(dp595
g3
(lp596
I589
aI341
aI217
aI1072
aI2633
aF188.0
aI918
aI486
aI311
aI1553
aI2437
aF241.0
asg5
I1
sg6
(lp597
I6
aI-1
aI-1
aI43
aI-1
aI-1
asg8
(lp598
I50
aI-1
aI-1
aF-1.0
aF-1.0
aF-1.0
aI34
aI-1
aI-1
aF-1.0
aF-1.0
aF-1.0
asg10
(lp599
F0.004
aF-0.011000000000000001
aF0.013999999999999999
asba(i__main__
sensor_data_struct
p600
(dp601
g3
(lp602
I616
aI354
aI227
aI1113
aI2618
aF192.0
aI887
aI445
aI308
aI1456
aI2426
aF188.0
asg5
I1
sg6
(lp603
I39
aI-1
aI-1
aI77
aI-1
aI-1
asg8
(lp604
I39
aI-1
aI-1
aF-1.0
aF-1.0
aF-1.0
aI23
aI-1
aI-1
aF-1.0
aF-1.0
aF-1.0
asg10
(lp605
F-0.001
aF-0.006999999999999999
aF0.012
asba.