(lp0
(i__main__
sensor_data_struct
p1
(dp2
S'color'
p3
(lp4
I635
aI332
aI226
aI1099
aI2550
aF152.0
aI1216
aI485
aI357
aI1863
aI2276
aF109.0
asS'button'
p5
I0
sS'IR'
p6
(lp7
I47
aI-1
aI-1
aI108
aI-1
aI-1
asS'TOF'
p8
(lp9
I16
aI-1
aI-1
aF-1.0
aF-1.0
aF-1.0
aI26
aI-1
aI-1
aF-1.0
aF-1.0
aF-1.0
asS'pt'
p10
(lp11
F-0.003
aF0.002
aF0.003
asba(i__main__
sensor_data_struct
p12
(dp13
g3
(lp14
I561
aI319
aI204
aI1020
aI2629
aF172.0
aI990
aI462
aI321
aI1597
aI2375
aF172.0
asg5
I0
sg6
(lp15
I29
aI-1
aI-1
aI78
aI-1
aI-1
asg8
(lp16
I24
aI-1
aI-1
aF-1.0
aF-1.0
aF-1.0
aI26
aI-1
aI-1
aF-1.0
aF-1.0
aF-1.0
asg10
(lp17
F-0.006999999999999999
aF0.003
aF0.01
asba(i__main__
sensor_data_struct
p18
(dp19
g3
(lp20
I554
aI314
aI200
aI1008
aI2627
aF169.0
aI1018
aI463
aI329
aI1616
aI2350
aF159.0
asg5
I0
sg6
(lp21
I83
aI-1
aI-1
aI98
aI-1
aI-1
asg8
(lp22
I25
aI-1
aI-1
aF-1.0
aF-1.0
aF-1.0
aI23
aI-1
aI-1
aF-1.0
aF-1.0
aF-1.0
asg10
(lp23
F0.0
aF-0.003
aF0.008
asba(i__main__
sensor_data_struct
p24
(dp25
g3
(lp26
I606
aI333
aI216
aI1081
aI2589
aF170.0
aI767
aI370
aI261
aI1266
aI2450
aF143.0
asg5
I1
sg6
(lp27
I44
aI-1
aI-1
aI67
aI-1
aI-1
asg8
(lp28
I26
aI-1
aI-1
aF-1.0
aF-1.0
aF-1.0
aI27
aI-1
aI-1
aF-1.0
aF-1.0
aF-1.0
asg10
(lp29
F0.001
aF0.001
aF0.013000000000000001
asba(i__main__
sensor_data_struct
p30
(dp31
g3
(lp32
I601
aI329
aI215
aI1067
aI2584
aF166.0
aI986
aI418
aI307
aI1546
aI2339
aF114.0
asg5
I0
sg6
(lp33
I142
aI-1
aI-1
aI106
aI-1
aI-1
asg8
(lp34
I23
aI-1
aI-1
aF-1.0
aF-1.0
aF-1.0
aI26
aI-1
aI-1
aF-1.0
aF-1.0
aF-1.0
asg10
(lp35
F0.0
aF-0.002
aF0.0
asba(i__main__
sensor_data_struct
p36
(dp37
g3
(lp38
I720
aI347
aI240
aI1211
aI2479
aF138.0
aI1619
aI555
aI438
aI2367
aI2195
aF29.0
asg5
I0
sg6
(lp39
I34
aI-1
aI-1
aI109
aI-1
aI-1
asg8
(lp40
I33
aI-1
aI-1
aF-1.0
aF-1.0
aF-1.0
aI27
aI-1
aI-1
aF-1.0
aF-1.0
aF-1.0
asg10
(lp41
F0.004
aF0.006
aF0.004
asba(i__main__
sensor_data_struct
p42
(dp43
g3
(lp44
I538
aI309
aI194
aI991
aI2646
aF171.0
aI874
aI441
aI291
aI1462
aI2431
aF199.0
asg5
I1
sg6
(lp45
I18
aI-1
aI-1
aI59
aI-1
aI-1
asg8
(lp46
I49
aI-1
aI-1
aF-1.0
aF-1.0
aF-1.0
aI28
aI-1
aI-1
aF-1.0
aF-1.0
aF-1.0
asg10
(lp47
F0.0
aF-0.006
aF0.015
asba(i__main__
sensor_data_struct
p48
(dp49
g3
(lp50
I765
aI405
aI258
aI1327
aI2499
aF202.0
aI651
aI345
aI231
aI1128
aI2542
aF164.0
asg5
I1
sg6
(lp51
I29
aI-1
aI-1
aI72
aI-1
aI-1
asg8
(lp52
I43
aI-1
aI-1
aF-1.0
aF-1.0
aF-1.0
aI36
aI-1
aI-1
aF-1.0
aF-1.0
aF-1.0
asg10
(lp53
F0.004
aF-0.006999999999999999
aF0.012
asba(i__main__
sensor_data_struct
p54
(dp55
g3
(lp56
I553
aI318
aI197
aI1023
aI2646
aF178.0
aI677
aI359
aI241
aI1169
aI2534
aF170.0
asg5
I1
sg6
(lp57
I16
aI-1
aI-1
aI73
aI-1
aI-1
asg8
(lp58
I45
aI-1
aI-1
aF-1.0
aF-1.0
aF-1.0
aI26
aI-1
aI-1
aF-1.0
aF-1.0
aF-1.0
asg10
(lp59
F-0.006999999999999999
aF-0.005
aF0.012
asba(i__main__
sensor_data_struct
p60
(dp61
g3
(lp62
I532
aI308
aI191
aI989
aI2658
aF173.0
aI895
aI403
aI283
aI1448
aI2388
aF138.0
asg5
I0
sg6
(lp63
I23
aI-1
aI-1
aI89
aI-1
aI-1
asg8
(lp64
I33
aI-1
aI-1
aF-1.0
aF-1.0
aF-1.0
aI24
aI-1
aI-1
aF-1.0
aF-1.0
aF-1.0
asg10
(lp65
F0.009000000000000001
aF0.0
aF0.01
asba(i__main__
sensor_data_struct
p66
(dp67
g3
(lp68
I539
aI310
aI192
aI1000
aI2653
aF173.0
aI945
aI466
aI307
aI1567
aI2407
aF204.0
asg5
I1
sg6
(lp69
I4
aI-1
aI-1
aI64
aI-1
aI-1
asg8
(lp70
I40
aI-1
aI-1
aF-1.0
aF-1.0
aF-1.0
aI28
aI-1
aI-1
aF-1.0
aF-1.0
aF-1.0
asg10
(lp71
F0.011000000000000001
aF-0.004
aF0.013999999999999999
asba(i__main__
sensor_data_struct
p72
(dp73
g3
(lp74
I571
aI320
aI200
aI1045
aI2621
aF173.0
aI1009
aI467
aI323
aI1623
aI2363
aF173.0
asg5
I0
sg6
(lp75
I51
aI-1
aI-1
aI99
aI-1
aI-1
asg8
(lp76
I37
aI-1
aI-1
aF-1.0
aF-1.0
aF-1.0
aI23
aI-1
aI-1
aF-1.0
aF-1.0
aF-1.0
asg10
(lp77
F0.009000000000000001
aF-0.004
aF0.009000000000000001
asba(i__main__
sensor_data_struct
p78
(dp79
g3
(lp80
I553
aI318
aI200
aI1015
aI2639
aF176.0
aI759
aI374
aI260
aI1265
aI2465
aF153.0
asg5
I0
sg6
(lp81
I21
aI-1
aI-1
aI107
aI-1
aI-1
asg8
(lp82
I13
aI-1
aI-1
aF-1.0
aF-1.0
aF-1.0
aI24
aI-1
aI-1
aF-1.0
aF-1.0
aF-1.0
asg10
(lp83
F-0.006999999999999999
aF-0.001
aF0.004
asba(i__main__
sensor_data_struct
p84
(dp85
g3
(lp86
I592
aI332
aI212
aI1068
aI2606
aF176.0
aI638
aI343
aI232
aI1106
aI2556
aF164.0
asg5
I1
sg6
(lp87
I29
aI-1
aI-1
aI76
aI-1
aI-1
asg8
(lp88
I33
aI-1
aI-1
aF-1.0
aF-1.0
aF-1.0
aI25
aI-1
aI-1
aF-1.0
aF-1.0
aF-1.0
asg10
(lp89
F-0.006
aF-0.006999999999999999
aF0.011000000000000001
asba(i__main__
sensor_data_struct
p90
(dp91
g3
(lp92
I603
aI334
aI218
aI1078
aI2604
aF171.0
aI1108
aI488
aI346
aI1751
aI2335
aF157.0
asg5
I0
sg6
(lp93
I27
aI-1
aI-1
aI86
aI-1
aI-1
asg8
(lp94
I31
aI-1
aI-1
aF-1.0
aF-1.0
aF-1.0
aI24
aI-1
aI-1
aF-1.0
aF-1.0
aF-1.0
asg10
(lp95
F-0.005
aF0.008
aF0.009000000000000001
asba(i__main__
sensor_data_struct
p96
(dp97
g3
(lp98
I823
aI409
aI275
aI1383
aI2457
aF177.0
aI704
aI359
aI245
aI1205
aI2522
aF158.0
asg5
I1
sg6
(lp99
I20
aI-1
aI-1
aI54
aI-1
aI-1
asg8
(lp100
I50
aI-1
aI-1
aF-1.0
aF-1.0
aF-1.0
aI30
aI-1
aI-1
aF-1.0
aF-1.0
aF-1.0
asg10
(lp101
F-0.005
aF0.008
aF0.015
asba(i__main__
sensor_data_struct
p102
(dp103
g3
(lp104
I566
aI325
aI205
aI1036
aI2634
aF179.0
aI929
aI439
aI303
aI1512
aI2395
aF169.0
asg5
I1
sg6
(lp105
I38
aI-1
aI-1
aI64
aI-1
aI-1
asg8
(lp106
I28
aI-1
aI-1
aF-1.0
aF-1.0
aF-1.0
aI27
aI-1
aI-1
aF-1.0
aF-1.0
aF-1.0
asg10
(lp107
F0.0
aF0.003
aF0.013000000000000001
asba(i__main__
sensor_data_struct
p108
(dp109
g3
(lp110
I701
aI353
aI239
aI1197
aI2505
aF154.0
aI1517
aI523
aI409
aI2232
aI2204
aF33.0
asg5
I0
sg6
(lp111
I50
aI-1
aI-1
aI109
aI-1
aI-1
asg8
(lp112
I27
aI-1
aI-1
aF-1.0
aF-1.0
aF-1.0
aI24
aI-1
aI-1
aF-1.0
aF-1.0
aF-1.0
asg10
(lp113
F0.002
aF0.005
aF0.002
asba(i__main__
sensor_data_struct
p114
(dp115
g3
(lp116
I535
aI310
aI192
aI994
aI2658
aF175.0
aI735
aI394
aI252
aI1277
aI2506
aF198.0
asg5
I1
sg6
(lp117
I16
aI-1
aI-1
aI41
aI-1
aI-1
asg8
(lp118
I52
aI-1
aI-1
aF-1.0
aF-1.0
aF-1.0
aI35
aI-1
aI-1
aF-1.0
aF-1.0
aF-1.0
asg10
(lp119
F0.001
aF-0.01
aF0.011000000000000001
asba(i__main__
sensor_data_struct
p120
(dp121
g3
(lp122
I560
aI325
aI203
aI1032
aI2644
aF182.0
aI987
aI417
aI305
aI1571
aI2370
aF114.0
asg5
I1
sg6
(lp123
I19
aI-1
aI-1
aI66
aI-1
aI-1
asg8
(lp124
I48
aI-1
aI-1
aF-1.0
aF-1.0
aF-1.0
aI24
aI-1
aI-1
aF-1.0
aF-1.0
aF-1.0
asg10
(lp125
F-0.002
aF0.012
aF0.012
asba(i__main__
sensor_data_struct
p126
(dp127
g3
(lp128
I570
aI323
aI206
aI1039
aI2632
aF173.0
aI1007
aI466
aI326
aI1612
aI2362
aF169.0
asg5
I0
sg6
(lp129
I62
aI-1
aI-1
aI86
aI-1
aI-1
asg8
(lp130
I25
aI-1
aI-1
aF-1.0
aF-1.0
aF-1.0
aI24
aI-1
aI-1
aF-1.0
aF-1.0
aF-1.0
asg10
(lp131
F0.001
aF0.0
aF0.01
asba(i__main__
sensor_data_struct
p132
(dp133
g3
(lp134
I590
aI331
aI211
aI1068
aI2613
aF176.0
aI849
aI420
aI286
aI1405
aI2429
aF177.0
asg5
I1
sg6
(lp135
I38
aI-1
aI-1
aI71
aI-1
aI-1
asg8
(lp136
I31
aI-1
aI-1
aF-1.0
aF-1.0
aF-1.0
aI26
aI-1
aI-1
aF-1.0
aF-1.0
aF-1.0
asg10
(lp137
F-0.002
aF-0.002
aF0.012
asba(i__main__
sensor_data_struct
p138
(dp139
g3
(lp140
I544
aI314
aI195
aI1010
aI2658
aF176.0
aI916
aI411
aI292
aI1474
aI2384
aF137.0
asg5
I0
sg6
(lp141
I41
aI-1
aI-1
aI108
aI-1
aI-1
asg8
(lp142
I32
aI-1
aI-1
aF-1.0
aF-1.0
aF-1.0
aI24
aI-1
aI-1
aF-1.0
aF-1.0
aF-1.0
asg10
(lp143
F0.009000000000000001
aF0.0
aF0.008
asba(i__main__
sensor_data_struct
p144
(dp145
g3
(lp146
I545
aI316
aI198
aI1006
aI2653
aF176.0
aI708
aI386
aI245
aI1245
aI2532
aF200.0
asg5
I1
sg6
(lp147
I11
aI-1
aI-1
aI36
aI-1
aI-1
asg8
(lp148
I52
aI-1
aI-1
aF-1.0
aF-1.0
aF-1.0
aI40
aI-1
aI-1
aF-1.0
aF-1.0
aF-1.0
asg10
(lp149
F-0.013000000000000001
aF0.0
aF0.015
asba(i__main__
sensor_data_struct
p150
(dp151
g3
(lp152
I535
aI311
aI192
aI995
aI2658
aF176.0
aI562
aI314
aI197
aI1028
aI2625
aF168.0
asg5
I1
sg6
(lp153
I1
aI-1
aI-1
aI34
aI-1
aI-1
asg8
(lp154
I51
aI-1
aI-1
aF-1.0
aF-1.0
aF-1.0
aI36
aI-1
aI-1
aF-1.0
aF-1.0
aF-1.0
asg10
(lp155
F0.006999999999999999
aF-0.011000000000000001
aF0.015
asba(i__main__
sensor_data_struct
p156
(dp157
g3
(lp158
I558
aI321
aI199
aI1029
aI2639
aF179.0
aI842
aI400
aI278
aI1384
aI2424
aF154.0
asg5
I1
sg6
(lp159
I36
aI-1
aI-1
aI62
aI-1
aI-1
asg8
(lp160
I33
aI-1
aI-1
aF-1.0
aF-1.0
aF-1.0
aI27
aI-1
aI-1
aF-1.0
aF-1.0
aF-1.0
asg10
(lp161
F-0.001
aF0.004
aF0.013000000000000001
asba(i__main__
sensor_data_struct
p162
(dp163
g3
(lp164
I571
aI325
aI205
aI1043
aI2628
aF177.0
aI957
aI456
aI312
aI1559
aI2389
aF180.0
asg5
I1
sg6
(lp165
I44
aI-1
aI-1
aI69
aI-1
aI-1
asg8
(lp166
I28
aI-1
aI-1
aF-1.0
aF-1.0
aF-1.0
aI24
aI-1
aI-1
aF-1.0
aF-1.0
aF-1.0
asg10
(lp167
F0.003
aF0.001
aF0.013000000000000001
asba(i__main__
sensor_data_struct
p168
(dp169
g3
(lp170
I618
aI338
aI219
aI1100
aI2584
aF172.0
aI1136
aI490
aI351
aI1781
aI2319
aF147.0
asg5
I0
sg6
(lp171
I35
aI-1
aI-1
aI87
aI-1
aI-1
asg8
(lp172
I26
aI-1
aI-1
aF-1.0
aF-1.0
aF-1.0
aI25
aI-1
aI-1
aF-1.0
aF-1.0
aF-1.0
asg10
(lp173
F-0.002
aF0.006
aF0.009000000000000001
asba(i__main__
sensor_data_struct
p174
(dp175
g3
(lp176
I615
aI339
aI218
aI1100
aI2588
aF175.0
aI1163
aI429
aI335
aI1763
aI2282
aF54.0
asg5
I0
sg6
(lp177
I33
aI-1
aI-1
aI83
aI-1
aI-1
asg8
(lp178
I32
aI-1
aI-1
aF-1.0
aF-1.0
aF-1.0
aI23
aI-1
aI-1
aF-1.0
aF-1.0
aF-1.0
asg10
(lp179
F0.004
aF0.005
aF0.01
asba(i__main__
sensor_data_struct
p180
(dp181
g3
(lp182
I575
aI327
aI205
aI1054
aI2633
aF179.0
aI672
aI352
aI229
aI1175
aI2534
aF169.0
asg5
I1
sg6
(lp183
I6
aI-1
aI-1
aI57
aI-1
aI-1
asg8
(lp184
I39
aI-1
aI-1
aF-1.0
aF-1.0
aF-1.0
aI32
aI-1
aI-1
aF-1.0
aF-1.0
aF-1.0
asg10
(lp185
F0.01
aF-0.003
aF0.015
asba(i__main__
sensor_data_struct
p186
(dp187
g3
(lp188
I605
aI331
aI212
aI1085
aI2592
aF170.0
aI970
aI478
aI318
aI1596
aI2394
aF206.0
asg5
I1
sg6
(lp189
I85
aI-1
aI-1
aI155
aI-1
aI-1
asg8
(lp190
I39
aI-1
aI-1
aF-1.0
aF-1.0
aF-1.0
aI35
aI-1
aI-1
aF-1.0
aF-1.0
aF-1.0
asg10
(lp191
F0.006999999999999999
aF-0.005
aF0.006999999999999999
asba(i__main__
sensor_data_struct
p192
(dp193
g3
(lp194
I630
aI346
aI217
aI1136
aI2587
aF182.0
aI785
aI370
aI260
aI1295
aI2442
aF138.0
asg5
I1
sg6
(lp195
I28
aI-1
aI-1
aI63
aI-1
aI-1
asg8
(lp196
I31
aI-1
aI-1
aF-1.0
aF-1.0
aF-1.0
aI27
aI-1
aI-1
aF-1.0
aF-1.0
aF-1.0
asg10
(lp197
F0.005
aF0.003
aF0.013999999999999999
asba(i__main__
sensor_data_struct
p198
(dp199
g3
(lp200
I580
aI332
aI209
aI1060
aI2630
aF182.0
aI1278
aI459
aI359
aI1921
aI2261
aF46.0
asg5
I0
sg6
(lp201
I28
aI-1
aI-1
aI87
aI-1
aI-1
asg8
(lp202
I37
aI-1
aI-1
aF-1.0
aF-1.0
aF-1.0
aI23
aI-1
aI-1
aF-1.0
aF-1.0
aF-1.0
asg10
(lp203
F0.001
aF0.008
aF0.009000000000000001
asba(i__main__
sensor_data_struct
p204
(dp205
g3
(lp206
I558
aI324
aI203
aI1027
aI2644
aF181.0
aI788
aI424
aI269
aI1368
aI2499
aF216.0
asg5
I1
sg6
(lp207
I10
aI-1
aI-1
aI32
aI-1
aI-1
asg8
(lp208
I50
aI-1
aI-1
aF-1.0
aF-1.0
aF-1.0
aI36
aI-1
aI-1
aF-1.0
aF-1.0
aF-1.0
asg10
(lp209
F-0.012
aF0.003
aF0.015
asba(i__main__
sensor_data_struct
p210
(dp211
g3
(lp212
I578
aI334
aI208
aI1063
aI2637
aF187.0
aI732
aI361
aI249
aI1231
aI2482
aF149.0
asg5
I1
sg6
(lp213
I32
aI-1
aI-1
aI63
aI-1
aI-1
asg8
(lp214
I32
aI-1
aI-1
aF-1.0
aF-1.0
aF-1.0
aI26
aI-1
aI-1
aF-1.0
aF-1.0
aF-1.0
asg10
(lp215
F0.005
aF0.001
aF0.013999999999999999
asba(i__main__
sensor_data_struct
p216
(dp217
g3
(lp218
I601
aI338
aI213
aI1091
aI2612
aF182.0
aI809
aI384
aI276
aI1317
aI2430
aF141.0
asg5
I0
sg6
(lp219
I59
aI-1
aI-1
aI96
aI-1
aI-1
asg8
(lp220
I19
aI-1
aI-1
aF-1.0
aF-1.0
aF-1.0
aI23
aI-1
aI-1
aF-1.0
aF-1.0
aF-1.0
asg10
(lp221
F-0.003
aF0.001
aF0.008
asba(i__main__
sensor_data_struct
p222
(dp223
g3
(lp224
I682
aI353
aI239
aI1169
aI2521
aF160.0
aI1249
aI511
aI372
aI1916
aI2272
aF128.0
asg5
I0
sg6
(lp225
I128
aI-1
aI-1
aI109
aI-1
aI-1
asg8
(lp226
I25
aI-1
aI-1
aF-1.0
aF-1.0
aF-1.0
aI25
aI-1
aI-1
aF-1.0
aF-1.0
aF-1.0
asg10
(lp227
F0.001
aF0.0
aF0.004
asba(i__main__
sensor_data_struct
p228
(dp229
g3
(lp230
I644
aI348
aI228
aI1136
aI2568
aF173.0
aI1083
aI407
aI309
aI1656
aI2287
aF64.0
asg5
I0
sg6
(lp231
I22
aI-1
aI-1
aI84
aI-1
aI-1
asg8
(lp232
I34
aI-1
aI-1
aF-1.0
aF-1.0
aF-1.0
aI22
aI-1
aI-1
aF-1.0
aF-1.0
aF-1.0
asg10
(lp233
F0.006999999999999999
aF0.005
aF0.01
asba(i__main__
sensor_data_struct
p234
(dp235
g3
(lp236
I565
aI325
aI205
aI1037
aI2642
aF179.0
aI868
aI403
aI290
aI1401
aI2406
aF142.0
asg5
I0
sg6
(lp237
I47
aI-1
aI-1
aI100
aI-1
aI-1
asg8
(lp238
I18
aI-1
aI-1
aF-1.0
aF-1.0
aF-1.0
aI24
aI-1
aI-1
aF-1.0
aF-1.0
aF-1.0
asg10
(lp239
F-0.004
aF0.002
aF0.006999999999999999
asba(i__main__
sensor_data_struct
p240
(dp241
g3
(lp242
I561
aI319
aI200
aI1029
aI2634
aF174.0
aI941
aI448
aI311
aI1524
aI2387
aF173.0
asg5
I0
sg6
(lp243
I81
aI-1
aI-1
aI95
aI-1
aI-1
asg8
(lp244
I35
aI-1
aI-1
aF-1.0
aF-1.0
aF-1.0
aI26
aI-1
aI-1
aF-1.0
aF-1.0
aF-1.0
asg10
(lp245
F0.003
aF-0.005
aF0.009000000000000001
asba(i__main__
sensor_data_struct
p246
(dp247
g3
(lp248
I679
aI366
aI234
aI1198
aI2547
aF185.0
aI612
aI336
aI219
aI1086
aI2583
aF171.0
asg5
I1
sg6
(lp249
I8
aI-1
aI-1
aI64
aI-1
aI-1
asg8
(lp250
I51
aI-1
aI-1
aF-1.0
aF-1.0
aF-1.0
aI25
aI-1
aI-1
aF-1.0
aF-1.0
aF-1.0
asg10
(lp251
F-0.001
aF-0.009000000000000001
aF0.013999999999999999
asba(i__main__
sensor_data_struct
p252
(dp253
g3
(lp254
I650
aI342
aI225
aI1139
aI2550
aF164.0
aI1815
aI601
aI475
aI2656
aI2194
aF11.0
asg5
I1
sg6
(lp255
I24
aI-1
aI-1
aI36
aI-1
aI-1
asg8
(lp256
I37
aI-1
aI-1
aF-1.0
aF-1.0
aF-1.0
aI37
aI-1
aI-1
aF-1.0
aF-1.0
aF-1.0
asg10
(lp257
F0.005
aF0.006999999999999999
aF0.01
asba(i__main__
sensor_data_struct
p258
(dp259
g3
(lp260
I642
aI341
aI225
aI1127
aI2561
aF165.0
aI1185
aI503
aI361
aI1836
aI2291
aF144.0
asg5
I0
sg6
(lp261
I146
aI-1
aI-1
aI119
aI-1
aI-1
asg8
(lp262
I32
aI-1
aI-1
aF-1.0
aF-1.0
aF-1.0
aI26
aI-1
aI-1
aF-1.0
aF-1.0
aF-1.0
asg10
(lp263
F0.006
aF-0.003
aF0.004
asba(i__main__
sensor_data_struct
p264
(dp265
g3
(lp266
I571
aI323
aI202
aI1046
aI2626
aF176.0
aI657
aI358
aI226
aI1165
aI2548
aF186.0
asg5
I1
sg6
(lp267
I3
aI-1
aI-1
aI33
aI-1
aI-1
asg8
(lp268
I51
aI-1
aI-1
aF-1.0
aF-1.0
aF-1.0
aI34
aI-1
aI-1
aF-1.0
aF-1.0
aF-1.0
asg10
(lp269
F0.001
aF-0.011000000000000001
aF0.013999999999999999
asba(i__main__
sensor_data_struct
p270
(dp271
g3
(lp272
I560
aI322
aI200
aI1032
aI2637
aF180.0
aI788
aI424
aI266
aI1369
aI2491
aF218.0
asg5
I1
sg6
(lp273
I3
aI-1
aI-1
aI32
aI-1
aI-1
asg8
(lp274
I51
aI-1
aI-1
aF-1.0
aF-1.0
aF-1.0
aI37
aI-1
aI-1
aF-1.0
aF-1.0
aF-1.0
asg10
(lp275
F-0.012
aF-0.004
aF0.013999999999999999
asba(i__main__
sensor_data_struct
p276
(dp277
g3
(lp278
I549
aI318
aI196
aI1018
aI2648
aF180.0
aI629
aI333
aI217
aI1109
aI2558
aF162.0
asg5
I1
sg6
(lp279
I9
aI-1
aI-1
aI62
aI-1
aI-1
asg8
(lp280
I43
aI-1
aI-1
aF-1.0
aF-1.0
aF-1.0
aI34
aI-1
aI-1
aF-1.0
aF-1.0
aF-1.0
asg10
(lp281
F0.011000000000000001
aF-0.005
aF0.013000000000000001
asba(i__main__
sensor_data_struct
p282
(dp283
g3
(lp284
I556
aI322
aI198
aI1031
aI2646
aF182.0
aI679
aI363
aI240
aI1177
aI2533
aF176.0
asg5
I1
sg6
(lp285
I21
aI-1
aI-1
aI65
aI-1
aI-1
asg8
(lp286
I48
aI-1
aI-1
aF-1.0
aF-1.0
aF-1.0
aI29
aI-1
aI-1
aF-1.0
aF-1.0
aF-1.0
asg10
(lp287
F-0.002
aF-0.006999999999999999
aF0.013999999999999999
asba(i__main__
sensor_data_struct
p288
(dp289
g3
(lp290
I572
aI326
aI204
aI1046
aI2623
aF179.0
aI871
aI439
aI296
aI1444
aI2427
aF193.0
asg5
I1
sg6
(lp291
I73
aI-1
aI-1
aI135
aI-1
aI-1
asg8
(lp292
I38
aI-1
aI-1
aF-1.0
aF-1.0
aF-1.0
aI35
aI-1
aI-1
aF-1.0
aF-1.0
aF-1.0
asg10
(lp293
F0.004
aF-0.006
aF0.008
asba(i__main__
sensor_data_struct
p294
(dp295
g3
(lp296
I572
aI329
aI206
aI1048
aI2632
aF182.0
aI851
aI445
aI290
aI1441
aI2457
aF213.0
asg5
I1
sg6
(lp297
I35
aI-1
aI-1
aI60
aI-1
aI-1
asg8
(lp298
I45
aI-1
aI-1
aF-1.0
aF-1.0
aF-1.0
aI36
aI-1
aI-1
aF-1.0
aF-1.0
aF-1.0
asg10
(lp299
F0.006
aF-0.006999999999999999
aF0.011000000000000001
asba(i__main__
sensor_data_struct
p300
(dp301
g3
(lp302
I698
aI365
aI248
aI1193
aI2517
aF167.0
aI1224
aI497
aI368
aI1871
aI2276
aF117.0
asg5
I0
sg6
(lp303
I77
aI-1
aI-1
aI112
aI-1
aI-1
asg8
(lp304
I24
aI-1
aI-1
aF-1.0
aF-1.0
aF-1.0
aI25
aI-1
aI-1
aF-1.0
aF-1.0
aF-1.0
asg10
(lp305
F-0.001
aF0.001
aF0.003
asba(i__main__
sensor_data_struct
p306
(dp307
g3
(lp308
I588
aI338
aI217
aI1063
aI2621
aF183.0
aI1877
aI545
aI479
aI2633
aI2145
aF65437.0
asg5
I0
sg6
(lp309
I39
aI-1
aI-1
aI112
aI-1
aI-1
asg8
(lp310
I31
aI-1
aI-1
aF-1.0
aF-1.0
aF-1.0
aI26
aI-1
aI-1
aF-1.0
aF-1.0
aF-1.0
asg10
(lp311
F0.004
aF0.005
aF0.004
asba(i__main__
sensor_data_struct
p312
(dp313
g3
(lp314
I629
aI347
aI225
aI1119
aI2583
aF178.0
aI591
aI329
aI211
aI1062
aI2601
aF172.0
asg5
I1
sg6
(lp315
I5
aI-1
aI-1
aI38
aI-1
aI-1
asg8
(lp316
I51
aI-1
aI-1
aF-1.0
aF-1.0
aF-1.0
aI35
aI-1
aI-1
aF-1.0
aF-1.0
aF-1.0
asg10
(lp317
F0.003
aF-0.01
aF0.015
asba(i__main__
sensor_data_struct
p318
(dp319
g3
(lp320
I585
aI336
aI212
aI1067
aI2626
aF185.0
aI1988
aI557
aI491
aI2775
aI2131
aF65411.0
asg5
I0
sg6
(lp321
I33
aI-1
aI-1
aI108
aI-1
aI-1
asg8
(lp322
I34
aI-1
aI-1
aF-1.0
aF-1.0
aF-1.0
aI24
aI-1
aI-1
aF-1.0
aF-1.0
aF-1.0
asg10
(lp323
F0.003
aF0.006999999999999999
aF0.005
asba(i__main__
sensor_data_struct
p324
(dp325
g3
(lp326
I553
aI320
aI201
aI1018
aI2646
aF178.0
aI868
aI461
aI292
aI1482
aI2454
aF232.0
asg5
I1
sg6
(lp327
I7
aI-1
aI-1
aI44
aI-1
aI-1
asg8
(lp328
I50
aI-1
aI-1
aF-1.0
aF-1.0
aF-1.0
aI35
aI-1
aI-1
aF-1.0
aF-1.0
aF-1.0
asg10
(lp329
F0.004
aF-0.01
aF0.013000000000000001
asba(i__main__
sensor_data_struct
p330
(dp331
g3
(lp332
I590
aI338
aI212
aI1077
aI2624
aF186.0
aI920
aI488
aI307
aI1563
aI2433
aF246.0
asg5
I1
sg6
(lp333
I7
aI-1
aI-1
aI38
aI-1
aI-1
asg8
(lp334
I53
aI-1
aI-1
aF-1.0
aF-1.0
aF-1.0
aI34
aI-1
aI-1
aF-1.0
aF-1.0
aF-1.0
asg10
(lp335
F0.002
aF-0.01
aF0.015
asba(i__main__
sensor_data_struct
p336
(dp337
g3
(lp338
I604
aI347
aI218
aI1099
aI2616
aF192.0
aI914
aI407
aI301
aI1445
aI2373
aF125.0
asg5
I0
sg6
(lp339
I49
aI-1
aI-1
aI86
aI-1
aI-1
asg8
(lp340
I24
aI-1
aI-1
aF-1.0
aF-1.0
aF-1.0
aI24
aI-1
aI-1
aF-1.0
aF-1.0
aF-1.0
asg10
(lp341
F0.0
aF0.003
aF0.01
asba(i__main__
sensor_data_struct
p342
(dp343
g3
(lp344
I604
aI345
aI222
aI1087
aI2611
aF185.0
aI825
aI418
aI285
aI1381
aI2465
aF183.0
asg5
I1
sg6
(lp345
I24
aI-1
aI-1
aI59
aI-1
aI-1
asg8
(lp346
I50
aI-1
aI-1
aF-1.0
aF-1.0
aF-1.0
aI29
aI-1
aI-1
aF-1.0
aF-1.0
aF-1.0
asg10
(lp347
F-0.006
aF0.006999999999999999
aF0.013999999999999999
asba(i__main__
sensor_data_struct
p348
(dp349
g3
(lp350
I572
aI334
aI213
aI1045
aI2644
aF185.0
aI941
aI445
aI310
aI1526
aI2392
aF169.0
asg5
I1
sg6
(lp351
I26
aI-1
aI-1
aI63
aI-1
aI-1
asg8
(lp352
I34
aI-1
aI-1
aF-1.0
aF-1.0
aF-1.0
aI27
aI-1
aI-1
aF-1.0
aF-1.0
aF-1.0
asg10
(lp353
F0.005
aF0.004
aF0.013999999999999999
asba(i__main__
sensor_data_struct
p354
(dp355
g3
(lp356
I655
aI365
aI235
aI1166
aI2582
aF191.0
aI657
aI357
aI242
aI1136
aI2552
aF173.0
asg5
I1
sg6
(lp357
I25
aI-1
aI-1
aI69
aI-1
aI-1
asg8
(lp358
I39
aI-1
aI-1
aF-1.0
aF-1.0
aF-1.0
aI25
aI-1
aI-1
aF-1.0
aF-1.0
aF-1.0
asg10
(lp359
F-0.003
aF-0.004
aF0.013000000000000001
asba(i__main__
sensor_data_struct
p360
(dp361
g3
(lp362
I590
aI340
aI217
aI1070
aI2626
aF186.0
aI1086
aI425
aI324
aI1664
aI2300
aF81.0
asg5
I0
sg6
(lp363
I36
aI-1
aI-1
aI112
aI-1
aI-1
asg8
(lp364
I21
aI-1
aI-1
aF-1.0
aF-1.0
aF-1.0
aI25
aI-1
aI-1
aF-1.0
aF-1.0
aF-1.0
asg10
(lp365
F-0.003
aF0.006
aF0.005
asba(i__main__
sensor_data_struct
p366
(dp367
g3
(lp368
I603
aI339
aI221
aI1076
aI2602
aF177.0
aI989
aI420
aI313
aI1541
aI2336
aF112.0
asg5
I0
sg6
(lp369
I122
aI-1
aI-1
aI104
aI-1
aI-1
asg8
(lp370
I21
aI-1
aI-1
aF-1.0
aF-1.0
aF-1.0
aI25
aI-1
aI-1
aF-1.0
aF-1.0
aF-1.0
asg10
(lp371
F0.0
aF0.0
aF0.0
asba(i__main__
sensor_data_struct
p372
(dp373
g3
(lp374
I593
aI341
aI222
aI1065
aI2621
aF183.0
aI1019
aI485
aI334
aI1651
aI2382
aF190.0
asg5
I1
sg6
(lp375
I20
aI-1
aI-1
aI62
aI-1
aI-1
asg8
(lp376
I46
aI-1
aI-1
aF-1.0
aF-1.0
aF-1.0
aI27
aI-1
aI-1
aF-1.0
aF-1.0
aF-1.0
asg10
(lp377
F-0.004
aF0.012
aF0.013000000000000001
asba(i__main__
sensor_data_struct
p378
(dp379
g3
(lp380
I582
aI339
aI218
aI1058
aI2642
aF186.0
aI678
aI365
aI246
aI1168
aI2537
aF175.0
asg5
I1
sg6
(lp381
I18
aI-1
aI-1
aI63
aI-1
aI-1
asg8
(lp382
I45
aI-1
aI-1
aF-1.0
aF-1.0
aF-1.0
aI28
aI-1
aI-1
aF-1.0
aF-1.0
aF-1.0
asg10
(lp383
F-0.005
aF-0.003
aF0.013999999999999999
asba(i__main__
sensor_data_struct
p384
(dp385
g3
(lp386
I590
aI338
aI216
aI1069
aI2624
aF183.0
aI917
aI449
aI312
aI1495
aI2410
aF182.0
asg5
I0
sg6
(lp387
I25
aI-1
aI-1
aI84
aI-1
aI-1
asg8
(lp388
I27
aI-1
aI-1
aF-1.0
aF-1.0
aF-1.0
aI26
aI-1
aI-1
aF-1.0
aF-1.0
aF-1.0
asg10
(lp389
F-0.008
aF-0.006
aF0.01
asba(i__main__
sensor_data_struct
p390
(dp391
g3
(lp392
I559
aI326
aI205
aI1029
aI2651
aF183.0
aI699
aI364
aI243
aI1203
aI2519
aF169.0
asg5
I1
sg6
(lp393
I9
aI-1
aI-1
aI63
aI-1
aI-1
asg8
(lp394
I38
aI-1
aI-1
aF-1.0
aF-1.0
aF-1.0
aI29
aI-1
aI-1
aF-1.0
aF-1.0
aF-1.0
asg10
(lp395
F0.01
aF-0.002
aF0.013999999999999999
asba(i__main__
sensor_data_struct
p396
(dp397
g3
(lp398
I570
aI332
aI209
aI1049
aI2649
aF185.0
aI1046
aI465
aI321
aI1693
aI2373
aF159.0
asg5
I1
sg6
(lp399
I7
aI-1
aI-1
aI32
aI-1
aI-1
asg8
(lp400
I45
aI-1
aI-1
aF-1.0
aF-1.0
aF-1.0
aI36
aI-1
aI-1
aF-1.0
aF-1.0
aF-1.0
asg10
(lp401
F0.009000000000000001
aF0.009000000000000001
aF0.015
asba(i__main__
sensor_data_struct
p402
(dp403
g3
(lp404
I598
aI342
aI220
aI1078
aI2615
aF184.0
aI854
aI389
aI283
aI1367
aI2393
aF129.0
asg5
I0
sg6
(lp405
I53
aI-1
aI-1
aI104
aI-1
aI-1
asg8
(lp406
I19
aI-1
aI-1
aF-1.0
aF-1.0
aF-1.0
aI25
aI-1
aI-1
aF-1.0
aF-1.0
aF-1.0
asg10
(lp407
F-0.004
aF-0.001
aF0.0
asba(i__main__
sensor_data_struct
p408
(dp409
g3
(lp410
I612
aI343
aI224
aI1089
aI2593
aF178.0
aI1089
aI475
aI347
aI1698
aI2325
aF142.0
asg5
I0
sg6
(lp411
I58
aI-1
aI-1
aI101
aI-1
aI-1
asg8
(lp412
I19
aI-1
aI-1
aF-1.0
aF-1.0
aF-1.0
aI25
aI-1
aI-1
aF-1.0
aF-1.0
aF-1.0
asg10
(lp413
F-0.002
aF0.003
aF0.006999999999999999
asba(i__main__
sensor_data_struct
p414
(dp415
g3
(lp416
I566
aI327
aI208
aI1035
aI2641
aF180.0
aI922
aI464
aI309
aI1530
aI2420
aF206.0
asg5
I1
sg6
(lp417
I21
aI-1
aI-1
aI60
aI-1
aI-1
asg8
(lp418
I36
aI-1
aI-1
aF-1.0
aF-1.0
aF-1.0
aI31
aI-1
aI-1
aF-1.0
aF-1.0
aF-1.0
asg10
(lp419
F0.006
aF-0.003
aF0.015
asba(i__main__
sensor_data_struct
p420
(dp421
g3
(lp422
I600
aI340
aI220
aI1075
aI2606
aF180.0
aI1019
aI475
aI337
aI1623
aI2361
aF172.0
asg5
I0
sg6
(lp423
I34
aI-1
aI-1
aI96
aI-1
aI-1
asg8
(lp424
I18
aI-1
aI-1
aF-1.0
aF-1.0
aF-1.0
aI24
aI-1
aI-1
aF-1.0
aF-1.0
aF-1.0
asg10
(lp425
F-0.005
aF-0.001
aF0.008
asba(i__main__
sensor_data_struct
p426
(dp427
g3
(lp428
I611
aI347
aI224
aI1096
aI2605
aF185.0
aI805
aI400
aI281
aI1331
aI2458
aF164.0
asg5
I0
sg6
(lp429
I31
aI-1
aI-1
aI94
aI-1
aI-1
asg8
(lp430
I15
aI-1
aI-1
aF-1.0
aF-1.0
aF-1.0
aI23
aI-1
aI-1
aF-1.0
aF-1.0
aF-1.0
asg10
(lp431
F-0.006999999999999999
aF0.002
aF0.008
asba(i__main__
sensor_data_struct
p432
(dp433
g3
(lp434
I586
aI338
aI216
aI1061
aI2623
aF185.0
aI934
aI443
aI310
aI1509
aI2387
aF169.0
asg5
I1
sg6
(lp435
I41
aI-1
aI-1
aI71
aI-1
aI-1
asg8
(lp436
I27
aI-1
aI-1
aF-1.0
aF-1.0
aF-1.0
aI24
aI-1
aI-1
aF-1.0
aF-1.0
aF-1.0
asg10
(lp437
F-0.001
aF0.002
aF0.012
asba(i__main__
sensor_data_struct
p438
(dp439
g3
(lp440
I679
aI372
aI243
aI1192
aI2555
aF188.0
aI690
aI368
aI251
aI1184
aI2537
aF173.0
asg5
I1
sg6
(lp441
I21
aI-1
aI-1
aI45
aI-1
aI-1
asg8
(lp442
I39
aI-1
aI-1
aF-1.0
aF-1.0
aF-1.0
aI28
aI-1
aI-1
aF-1.0
aF-1.0
aF-1.0
asg10
(lp443
F-0.008
aF0.001
aF0.013000000000000001
asba(i__main__
sensor_data_struct
p444
(dp445
g3
(lp446
I585
aI338
aI216
aI1060
aI2626
aF185.0
aI866
aI430
aI298
aI1422
aI2426
aF179.0
asg5
I0
sg6
(lp447
I44
aI-1
aI-1
aI78
aI-1
aI-1
asg8
(lp448
I22
aI-1
aI-1
aF-1.0
aF-1.0
aF-1.0
aI25
aI-1
aI-1
aF-1.0
aF-1.0
aF-1.0
asg10
(lp449
F-0.005
aF-0.002
aF0.011000000000000001
asba(i__main__
sensor_data_struct
p450
(dp451
g3
(lp452
I595
aI342
aI220
aI1075
aI2622
aF185.0
aI880
aI417
aI295
aI1437
aI2425
aF156.0
asg5
I1
sg6
(lp453
I27
aI-1
aI-1
aI87
aI-1
aI-1
asg8
(lp454
I32
aI-1
aI-1
aF-1.0
aF-1.0
aF-1.0
aI24
aI-1
aI-1
aF-1.0
aF-1.0
aF-1.0
asg10
(lp455
F-0.005
aF0.006
aF0.011000000000000001
asba(i__main__
sensor_data_struct
p456
(dp457
g3
(lp458
I697
aI381
aI250
aI1220
aI2552
aF192.0
aI775
aI384
aI270
aI1295
aI2483
aF156.0
asg5
I1
sg6
(lp459
I19
aI-1
aI-1
aI52
aI-1
aI-1
asg8
(lp460
I49
aI-1
aI-1
aF-1.0
aF-1.0
aF-1.0
aI32
aI-1
aI-1
aF-1.0
aF-1.0
aF-1.0
asg10
(lp461
F-0.003
aF0.013000000000000001
aF0.015
asba(i__main__
sensor_data_struct
p462
(dp463
g3
(lp464
I655
aI352
aI237
aI1137
aI2555
aF169.0
aI1173
aI498
aI362
aI1812
aI2294
aF140.0
asg5
I0
sg6
(lp465
I234
aI-1
aI-1
aI117
aI-1
aI-1
asg8
(lp466
I33
aI-1
aI-1
aF-1.0
aF-1.0
aF-1.0
aI25
aI-1
aI-1
aF-1.0
aF-1.0
aF-1.0
asg10
(lp467
F0.004
aF-0.003
aF0.003
asba(i__main__
sensor_data_struct
p468
(dp469
g3
(lp470
I632
aI348
aI228
aI1120
aI2583
aF177.0
aI924
aI406
aI300
aI1469
aI2384
aF121.0
asg5
I1
sg6
(lp471
I30
aI-1
aI-1
aI65
aI-1
aI-1
asg8
(lp472
I36
aI-1
aI-1
aF-1.0
aF-1.0
aF-1.0
aI24
aI-1
aI-1
aF-1.0
aF-1.0
aF-1.0
asg10
(lp473
F0.002
aF0.006
aF0.013000000000000001
asba(i__main__
sensor_data_struct
p474
(dp475
g3
(lp476
I596
aI339
aI219
aI1071
aI2612
aF181.0
aI965
aI440
aI320
aI1525
aI2360
aF146.0
asg5
I0
sg6
(lp477
I86
aI-1
aI-1
aI110
aI-1
aI-1
asg8
(lp478
I22
aI-1
aI-1
aF-1.0
aF-1.0
aF-1.0
aI26
aI-1
aI-1
aF-1.0
aF-1.0
aF-1.0
asg10
(lp479
F-0.003
aF-0.003
aF0.004
asba(i__main__
sensor_data_struct
p480
(dp481
g3
(lp482
I586
aI336
aI215
aI1060
aI2621
aF182.0
aI917
aI444
aI315
aI1480
aI2400
aF172.0
asg5
I0
sg6
(lp483
I70
aI-1
aI-1
aI100
aI-1
aI-1
asg8
(lp484
I30
aI-1
aI-1
aF-1.0
aF-1.0
aF-1.0
aI23
aI-1
aI-1
aF-1.0
aF-1.0
aF-1.0
asg10
(lp485
F-0.001
aF-0.005
aF0.008
asba(i__main__
sensor_data_struct
p486
(dp487
g3
(lp488
I555
aI325
aI205
aI1021
aI2651
aF182.0
aI749
aI401
aI258
aI1297
aI2505
aF200.0
asg5
I1
sg6
(lp489
I4
aI-1
aI-1
aI33
aI-1
aI-1
asg8
(lp490
I46
aI-1
aI-1
aF-1.0
aF-1.0
aF-1.0
aI35
aI-1
aI-1
aF-1.0
aF-1.0
aF-1.0
asg10
(lp491
F0.011000000000000001
aF-0.005
aF0.013999999999999999
asba(i__main__
sensor_data_struct
p492
(dp493
g3
(lp494
I631
aI358
aI229
aI1133
aI2600
aF192.0
aI1075
aI438
aI327
aI1657
aI2304
aF102.0
asg5
I0
sg6
(lp495
I83
aI-1
aI-1
aI107
aI-1
aI-1
asg8
(lp496
I20
aI-1
aI-1
aF-1.0
aF-1.0
aF-1.0
aI24
aI-1
aI-1
aF-1.0
aF-1.0
aF-1.0
asg10
(lp497
F-0.001
aF0.001
aF0.002
asba(i__main__
sensor_data_struct
p498
(dp499
g3
(lp500
I651
aI357
aI236
aI1144
aI2570
aF179.0
aI1168
aI508
aI366
aI1814
aI2301
aF154.0
asg5
I0
sg6
(lp501
I188
aI-1
aI-1
aI118
aI-1
aI-1
asg8
(lp502
I34
aI-1
aI-1
aF-1.0
aF-1.0
aF-1.0
aI26
aI-1
aI-1
aF-1.0
aF-1.0
aF-1.0
asg10
(lp503
F0.003
aF-0.005
aF0.004
asba(i__main__
sensor_data_struct
p504
(dp505
g3
(lp506
I575
aI332
aI209
aI1055
aI2642
aF184.0
aI960
aI470
aI315
aI1577
aI2395
aF199.0
asg5
I1
sg6
(lp507
I9
aI-1
aI-1
aI63
aI-1
aI-1
asg8
(lp508
I33
aI-1
aI-1
aF-1.0
aF-1.0
aF-1.0
aI27
aI-1
aI-1
aF-1.0
aF-1.0
aF-1.0
asg10
(lp509
F0.011000000000000001
aF0.001
aF0.013999999999999999
asba(i__main__
sensor_data_struct
p510
(dp511
g3
(lp512
I612
aI346
aI223
aI1100
aI2609
aF184.0
aI1017
aI495
aI337
aI1653
aI2381
aF204.0
asg5
I1
sg6
(lp513
I45
aI-1
aI-1
aI70
aI-1
aI-1
asg8
(lp514
I34
aI-1
aI-1
aF-1.0
aF-1.0
aF-1.0
aI24
aI-1
aI-1
aF-1.0
aF-1.0
aF-1.0
asg10
(lp515
F0.003
aF-0.004
aF0.013000000000000001
asba(i__main__
sensor_data_struct
p516
(dp517
g3
(lp518
I591
aI339
aI214
aI1078
aI2626
aF186.0
aI948
aI449
aI308
aI1542
aI2388
aF175.0
asg5
I1
sg6
(lp519
I22
aI-1
aI-1
aI69
aI-1
aI-1
asg8
(lp520
I31
aI-1
aI-1
aF-1.0
aF-1.0
aF-1.0
aI26
aI-1
aI-1
aF-1.0
aF-1.0
aF-1.0
asg10
(lp521
F0.008
aF0.001
aF0.013000000000000001
asba(i__main__
sensor_data_struct
p522
(dp523
g3
(lp524
I594
aI339
aI216
aI1078
aI2624
aF184.0
aI958
aI461
aI324
aI1543
aI2385
aF179.0
asg5
I0
sg6
(lp525
I72
aI-1
aI-1
aI101
aI-1
aI-1
asg8
(lp526
I36
aI-1
aI-1
aF-1.0
aF-1.0
aF-1.0
aI25
aI-1
aI-1
aF-1.0
aF-1.0
aF-1.0
asg10
(lp527
F-0.001
aF-0.008
aF0.008
asba(i__main__
sensor_data_struct
p528
(dp529
g3
(lp530
I582
aI335
aI212
aI1063
aI2633
aF184.0
aI978
aI452
aI318
aI1571
aI2375
aF163.0
asg5
I0
sg6
(lp531
I51
aI-1
aI-1
aI86
aI-1
aI-1
asg8
(lp532
I30
aI-1
aI-1
aF-1.0
aF-1.0
aF-1.0
aI23
aI-1
aI-1
aF-1.0
aF-1.0
aF-1.0
asg10
(lp533
F0.006
aF0.0
aF0.01
asba(i__main__
sensor_data_struct
p534
(dp535
g3
(lp536
I587
aI339
aI215
aI1070
aI2633
aF187.0
aI815
aI393
aI282
aI1326
aI2430
aF149.0
asg5
I0
sg6
(lp537
I57
aI-1
aI-1
aI109
aI-1
aI-1
asg8
(lp538
I16
aI-1
aI-1
aF-1.0
aF-1.0
aF-1.0
aI24
aI-1
aI-1
aF-1.0
aF-1.0
aF-1.0
asg10
(lp539
F-0.004
aF-0.001
aF0.004
asba(i__main__
sensor_data_struct
p540
(dp541
g3
(lp542
I582
aI337
aI214
aI1061
aI2633
aF186.0
aI1194
aI442
aI345
aI1790
aI2257
aF57.0
asg5
I0
sg6
(lp543
I72
aI-1
aI-1
aI109
aI-1
aI-1
asg8
(lp544
I30
aI-1
aI-1
aF-1.0
aF-1.0
aF-1.0
aI24
aI-1
aI-1
aF-1.0
aF-1.0
aF-1.0
asg10
(lp545
F0.005
aF0.002
aF0.005
asba(i__main__
sensor_data_struct
p546
(dp547
g3
(lp548
I615
aI349
aI227
aI1102
aI2612
aF185.0
aI1222
aI545
aI376
aI1946
aI2333
aF188.0
asg5
I1
sg6
(lp549
I21
aI-1
aI-1
aI34
aI-1
aI-1
asg8
(lp550
I49
aI-1
aI-1
aF-1.0
aF-1.0
aF-1.0
aI35
aI-1
aI-1
aF-1.0
aF-1.0
aF-1.0
asg10
(lp551
F0.003
aF0.01
aF0.015
asba(i__main__
sensor_data_struct
p552
(dp553
g3
(lp554
I625
aI352
aI229
aI1114
aI2595
aF185.0
aI1108
aI494
aI353
aI1741
aI2327
aF161.0
asg5
I0
sg6
(lp555
I37
aI-1
aI-1
aI104
aI-1
aI-1
asg8
(lp556
I14
aI-1
aI-1
aF-1.0
aF-1.0
aF-1.0
aI24
aI-1
aI-1
aF-1.0
aF-1.0
aF-1.0
asg10
(lp557
F-0.006999999999999999
aF-0.002
aF0.006
asba(i__main__
sensor_data_struct
p558
(dp559
g3
(lp560
I585
aI336
aI214
aI1062
aI2626
aF183.0
aI936
aI433
aI318
aI1483
aI2377
aF146.0
asg5
I0
sg6
(lp561
I226
aI-1
aI-1
aI114
aI-1
aI-1
asg8
(lp562
I29
aI-1
aI-1
aF-1.0
aF-1.0
aF-1.0
aI25
aI-1
aI-1
aF-1.0
aF-1.0
aF-1.0
asg10
(lp563
F0.002
aF-0.003
aF0.003
asba(i__main__
sensor_data_struct
p564
(dp565
g3
(lp566
I589
aI337
aI216
aI1067
aI2626
aF182.0
aI705
aI375
aI256
aI1212
aI2540
aF175.0
asg5
I1
sg6
(lp567
I20
aI-1
aI-1
aI63
aI-1
aI-1
asg8
(lp568
I50
aI-1
aI-1
aF-1.0
aF-1.0
aF-1.0
aI25
aI-1
aI-1
aF-1.0
aF-1.0
aF-1.0
asg10
(lp569
F-0.008
aF0.005
aF0.013000000000000001
asba(i__main__
sensor_data_struct
p570
(dp571
g3
(lp572
I594
aI344
aI219
aI1079
aI2626
aF189.0
aI685
aI368
aI253
aI1169
aI2533
aF173.0
asg5
I0
sg6
(lp573
I42
aI-1
aI-1
aI88
aI-1
aI-1
asg8
(lp574
I40
aI-1
aI-1
aF-1.0
aF-1.0
aF-1.0
aI24
aI-1
aI-1
aF-1.0
aF-1.0
aF-1.0
asg10
(lp575
F-0.002
aF-0.008
aF0.01
asba(i__main__
sensor_data_struct
p576
(dp577
g3
(lp578
I602
aI346
aI225
aI1082
aI2622
aF185.0
aI1257
aI531
aI378
aI1983
aI2328
aF153.0
asg5
I1
sg6
(lp579
I19
aI-1
aI-1
aI34
aI-1
aI-1
asg8
(lp580
I49
aI-1
aI-1
aF-1.0
aF-1.0
aF-1.0
aI36
aI-1
aI-1
aF-1.0
aF-1.0
aF-1.0
asg10
(lp581
F0.0
aF0.012
aF0.013000000000000001
asba(i__main__
sensor_data_struct
p582
(dp583
g3
(lp584
I624
aI348
aI228
aI1107
aI2590
aF179.0
aI1010
aI438
aI321
aI1584
aI2341
aF128.0
asg5
I0
sg6
(lp585
I102
aI-1
aI-1
aI106
aI-1
aI-1
asg8
(lp586
I22
aI-1
aI-1
aF-1.0
aF-1.0
aF-1.0
aI25
aI-1
aI-1
aF-1.0
aF-1.0
aF-1.0
asg10
(lp587
F-0.002
aF-0.002
aF0.0
asba(i__main__
sensor_data_struct
p588
(dp589
g3
(lp590
I581
aI336
aI214
aI1057
aI2630
aF185.0
aI1040
aI468
aI330
aI1658
aI2353
aF159.0
asg5
I1
sg6
(lp591
I27
aI-1
aI-1
aI66
aI-1
aI-1
asg8
(lp592
I38
aI-1
aI-1
aF-1.0
aF-1.0
aF-1.0
aI26
aI-1
aI-1
aF-1.0
aF-1.0
aF-1.0
asg10
(lp593
F0.005
aF0.006
aF0.013000000000000001
asba(i__main__
sensor_data_struct
p594
(dp595
g3
(lp596
I609
aI348
aI224
aI1100
aI2623
aF187.0
aI969
aI450
aI320
aI1549
aI2371
aF161.0
asg5
I0
sg6
(lp597
I57
aI-1
aI-1
aI78
aI-1
aI-1
asg8
(lp598
I23
aI-1
aI-1
aF-1.0
aF-1.0
aF-1.0
aI22
aI-1
aI-1
aF-1.0
aF-1.0
aF-1.0
asg10
(lp599
F0.001
aF0.002
aF0.011000000000000001
asba(i__main__
sensor_data_struct
p600
(dp601
g3
(lp602
I589
aI342
aI218
aI1071
aI2630
aF189.0
aI831
aI401
aI283
aI1373
aI2453
aF156.0
asg5
I1
sg6
(lp603
I25
aI-1
aI-1
aI72
aI-1
aI-1
asg8
(lp604
I39
aI-1
aI-1
aF-1.0
aF-1.0
aF-1.0
aI25
aI-1
aI-1
aF-1.0
aF-1.0
aF-1.0
asg10
(lp605
F-0.006999999999999999
aF0.009000000000000001
aF0.011000000000000001
asba.