(lp0
(i__main__
sensor_data_struct
p1
(dp2
S'color'
p3
(lp4
I600
aI332
aI212
aI1071
aI2579
aF174.0
aI1067
aI437
aI322
aI1653
aI2307
aF107.0
asS'button'
p5
I0
sS'IR'
p6
(lp7
I76
aI-1
aI-1
aI102
aI-1
aI-1
asS'TOF'
p8
(lp9
I22
aI-1
aI-1
aF-1.0
aF-1.0
aF-1.0
aI25
aI-1
aI-1
aF-1.0
aF-1.0
aF-1.0
asS'pt'
p10
(lp11
F-0.001
aF0.001
aF0.004
asba(i__main__
sensor_data_struct
p12
(dp13
g3
(lp14
I643
aI352
aI224
aI1141
aI2557
aF182.0
aI802
aI398
aI283
aI1312
aI2443
aF160.0
asg5
I0
sg6
(lp15
I128
aI-1
aI-1
aI109
aI-1
aI-1
asg8
(lp16
I25
aI-1
aI-1
aF-1.0
aF-1.0
aF-1.0
aI23
aI-1
aI-1
aF-1.0
aF-1.0
aF-1.0
asg10
(lp17
F-0.001
aF-0.004
aF0.005
asba(i__main__
sensor_data_struct
p18
(dp19
g3
(lp20
I656
aI357
aI228
aI1158
aI2549
aF183.0
aI728
aI380
aI253
aI1243
aI2495
aF178.0
asg5
I1
sg6
(lp21
I36
aI-1
aI-1
aI71
aI-1
aI-1
asg8
(lp22
I44
aI-1
aI-1
aF-1.0
aF-1.0
aF-1.0
aI24
aI-1
aI-1
aF-1.0
aF-1.0
aF-1.0
asg10
(lp23
F-0.001
aF-0.006999999999999999
aF0.013000000000000001
asba(i__main__
sensor_data_struct
p24
(dp25
g3
(lp26
I630
aI348
aI222
aI1121
aI2570
aF182.0
aI1079
aI483
aI341
aI1702
aI2328
aF162.0
asg5
I0
sg6
(lp27
I32
aI-1
aI-1
aI90
aI-1
aI-1
asg8
(lp28
I17
aI-1
aI-1
aF-1.0
aF-1.0
aF-1.0
aI22
aI-1
aI-1
aF-1.0
aF-1.0
aF-1.0
asg10
(lp29
F-0.006999999999999999
aF-0.005
aF0.009000000000000001
asba(i__main__
sensor_data_struct
p30
(dp31
g3
(lp32
I651
aI350
aI226
aI1145
aI2546
aF175.0
aI1158
aI470
aI345
aI1782
aI2287
aF113.0
asg5
I0
sg6
(lp33
I125
aI-1
aI-1
aI108
aI-1
aI-1
asg8
(lp34
I27
aI-1
aI-1
aF-1.0
aF-1.0
aF-1.0
aI26
aI-1
aI-1
aF-1.0
aF-1.0
aF-1.0
asg10
(lp35
F0.003
aF0.0
aF0.005
asba(i__main__
sensor_data_struct
p36
(dp37
g3
(lp38
I628
aI345
aI220
aI1118
aI2570
aF179.0
aI1026
aI463
aI327
aI1627
aI2343
aF158.0
asg5
I0
sg6
(lp39
I69
aI-1
aI-1
aI84
aI-1
aI-1
asg8
(lp40
I23
aI-1
aI-1
aF-1.0
aF-1.0
aF-1.0
aI26
aI-1
aI-1
aF-1.0
aF-1.0
aF-1.0
asg10
(lp41
F0.0
aF-0.002
aF0.01
asba(i__main__
sensor_data_struct
p42
(dp43
g3
(lp44
I643
aI352
aI223
aI1143
aI2560
aF183.0
aI818
aI394
aI276
aI1343
aI2432
aF154.0
asg5
I0
sg6
(lp45
I80
aI-1
aI-1
aI91
aI-1
aI-1
asg8
(lp46
I27
aI-1
aI-1
aF-1.0
aF-1.0
aF-1.0
aI24
aI-1
aI-1
aF-1.0
aF-1.0
aF-1.0
asg10
(lp47
F0.004
aF-0.003
aF0.01
asba(i__main__
sensor_data_struct
p48
(dp49
g3
(lp50
I703
aI374
aI238
aI1228
aI2516
aF187.0
aI760
aI378
aI257
aI1277
aI2467
aF161.0
asg5
I1
sg6
(lp51
I39
aI-1
aI-1
aI60
aI-1
aI-1
asg8
(lp52
I28
aI-1
aI-1
aF-1.0
aF-1.0
aF-1.0
aI28
aI-1
aI-1
aF-1.0
aF-1.0
aF-1.0
asg10
(lp53
F0.0
aF0.0
aF0.015
asba(i__main__
sensor_data_struct
p54
(dp55
g3
(lp56
I655
aI355
aI228
aI1156
aI2551
aF180.0
aI1068
aI482
aI337
aI1695
aI2335
aF167.0
asg5
I1
sg6
(lp57
I47
aI-1
aI-1
aI72
aI-1
aI-1
asg8
(lp58
I22
aI-1
aI-1
aF-1.0
aF-1.0
aF-1.0
aI23
aI-1
aI-1
aF-1.0
aF-1.0
aF-1.0
asg10
(lp59
F-0.001
aF0.0
aF0.012
asba(i__main__
sensor_data_struct
p60
(dp61
g3
(lp62
I715
aI379
aI243
aI1243
aI2508
aF188.0
aI640
aI350
aI222
aI1135
aI2555
aF182.0
asg5
I1
sg6
(lp63
I6
aI-1
aI-1
aI32
aI-1
aI-1
asg8
(lp64
I51
aI-1
aI-1
aF-1.0
aF-1.0
aF-1.0
aI35
aI-1
aI-1
aF-1.0
aF-1.0
aF-1.0
asg10
(lp65
F-0.011000000000000001
aF-0.006
aF0.013000000000000001
asba(i__main__
sensor_data_struct
p66
(dp67
g3
(lp68
I609
aI343
aI213
aI1102
aI2590
aF187.0
aI865
aI385
aI273
aI1392
aI2381
aF127.0
asg5
I0
sg6
(lp69
I40
aI-1
aI-1
aI97
aI-1
aI-1
asg8
(lp70
I15
aI-1
aI-1
aF-1.0
aF-1.0
aF-1.0
aI23
aI-1
aI-1
aF-1.0
aF-1.0
aF-1.0
asg10
(lp71
F-0.004
aF-0.001
aF0.0
asba(i__main__
sensor_data_struct
p72
(dp73
g3
(lp74
I582
aI328
aI202
aI1060
aI2597
aF180.0
aI948
aI431
aI304
aI1516
aI2364
aF149.0
asg5
I0
sg6
(lp75
I109
aI-1
aI-1
aI111
aI-1
aI-1
asg8
(lp76
I36
aI-1
aI-1
aF-1.0
aF-1.0
aF-1.0
aI22
aI-1
aI-1
aF-1.0
aF-1.0
aF-1.0
asg10
(lp77
F0.006999999999999999
aF-0.004
aF0.006
asba(i__main__
sensor_data_struct
p78
(dp79
g3
(lp80
I623
aI343
aI218
aI1113
aI2576
aF179.0
aI1064
aI474
aI337
aI1675
aI2327
aF156.0
asg5
I0
sg6
(lp81
I126
aI-1
aI-1
aI110
aI-1
aI-1
asg8
(lp82
I42
aI-1
aI-1
aF-1.0
aF-1.0
aF-1.0
aI23
aI-1
aI-1
aF-1.0
aF-1.0
aF-1.0
asg10
(lp83
F0.002
aF-0.006999999999999999
aF0.006999999999999999
asba(i__main__
sensor_data_struct
p84
(dp85
g3
(lp86
I630
aI347
aI222
aI1118
aI2566
aF180.0
aI1088
aI486
aI343
aI1714
aI2325
aF162.0
asg5
I0
sg6
(lp87
I27
aI-1
aI-1
aI88
aI-1
aI-1
asg8
(lp88
I19
aI-1
aI-1
aF-1.0
aF-1.0
aF-1.0
aI23
aI-1
aI-1
aF-1.0
aF-1.0
aF-1.0
asg10
(lp89
F-0.006999999999999999
aF-0.004
aF0.009000000000000001
asba(i__main__
sensor_data_struct
p90
(dp91
g3
(lp92
I610
aI343
aI215
aI1100
aI2588
aF185.0
aI1496
aI487
aI391
aI2209
aI2223
aF65533.0
asg5
I1
sg6
(lp93
I18
aI-1
aI-1
aI36
aI-1
aI-1
asg8
(lp94
I49
aI-1
aI-1
aF-1.0
aF-1.0
aF-1.0
aI33
aI-1
aI-1
aF-1.0
aF-1.0
aF-1.0
asg10
(lp95
F0.001
aF0.01
aF0.011000000000000001
asba(i__main__
sensor_data_struct
p96
(dp97
g3
(lp98
I624
aI343
aI218
aI1113
aI2570
aF179.0
aI979
aI423
aI305
aI1547
aI2344
aF126.0
asg5
I0
sg6
(lp99
I183
aI-1
aI-1
aI106
aI-1
aI-1
asg8
(lp100
I26
aI-1
aI-1
aF-1.0
aF-1.0
aF-1.0
aI22
aI-1
aI-1
aF-1.0
aF-1.0
aF-1.0
asg10
(lp101
F0.0
aF-0.003
aF0.001
asba(i__main__
sensor_data_struct
p102
(dp103
g3
(lp104
I574
aI325
aI199
aI1051
aI2607
aF180.0
aI936
aI450
aI299
aI1537
aI2385
aF187.0
asg5
I1
sg6
(lp105
I12
aI-1
aI-1
aI60
aI-1
aI-1
asg8
(lp106
I33
aI-1
aI-1
aF-1.0
aF-1.0
aF-1.0
aI29
aI-1
aI-1
aF-1.0
aF-1.0
aF-1.0
asg10
(lp107
F0.012
aF0.001
aF0.015
asba(i__main__
sensor_data_struct
p108
(dp109
g3
(lp110
I583
aI333
aI205
aI1069
aI2615
aF186.0
aI1093
aI427
aI312
aI1727
aI2342
aF90.0
asg5
I1
sg6
(lp111
I13
aI-1
aI-1
aI35
aI-1
aI-1
asg8
(lp112
I51
aI-1
aI-1
aF-1.0
aF-1.0
aF-1.0
aI34
aI-1
aI-1
aF-1.0
aF-1.0
aF-1.0
asg10
(lp113
F0.003
aF0.013000000000000001
aF0.013999999999999999
asba(i__main__
sensor_data_struct
p114
(dp115
g3
(lp116
I731
aI390
aI248
aI1276
aI2514
aF196.0
aI920
aI408
aI289
aI1483
aI2382
aF133.0
asg5
I1
sg6
(lp117
I25
aI-1
aI-1
aI67
aI-1
aI-1
asg8
(lp118
I41
aI-1
aI-1
aF-1.0
aF-1.0
aF-1.0
aI24
aI-1
aI-1
aF-1.0
aF-1.0
aF-1.0
asg10
(lp119
F-0.003
aF0.009000000000000001
aF0.013000000000000001
asba(i__main__
sensor_data_struct
p120
(dp121
g3
(lp122
I584
aI332
aI204
aI1067
aI2606
aF185.0
aI764
aI385
aI259
aI1288
aI2467
aF170.0
asg5
I0
sg6
(lp123
I55
aI-1
aI-1
aI83
aI-1
aI-1
asg8
(lp124
I39
aI-1
aI-1
aF-1.0
aF-1.0
aF-1.0
aI22
aI-1
aI-1
aF-1.0
aF-1.0
aF-1.0
asg10
(lp125
F0.005
aF-0.005
aF0.011000000000000001
asba(i__main__
sensor_data_struct
p126
(dp127
g3
(lp128
I614
aI341
aI213
aI1107
aI2584
aF182.0
aI1005
aI448
aI316
aI1601
aI2350
aF149.0
asg5
I1
sg6
(lp129
I41
aI-1
aI-1
aI69
aI-1
aI-1
asg8
(lp130
I26
aI-1
aI-1
aF-1.0
aF-1.0
aF-1.0
aI23
aI-1
aI-1
aF-1.0
aF-1.0
aF-1.0
asg10
(lp131
F0.004
aF0.002
aF0.013000000000000001
asba(i__main__
sensor_data_struct
p132
(dp133
g3
(lp134
I626
aI348
aI218
aI1123
aI2575
aF186.0
aI1205
aI440
aI337
aI1821
aI2261
aF56.0
asg5
I0
sg6
(lp135
I33
aI-1
aI-1
aI95
aI-1
aI-1
asg8
(lp136
I24
aI-1
aI-1
aF-1.0
aF-1.0
aF-1.0
aI22
aI-1
aI-1
aF-1.0
aF-1.0
aF-1.0
asg10
(lp137
F-0.003
aF0.006999999999999999
aF0.006999999999999999
asba(i__main__
sensor_data_struct
p138
(dp139
g3
(lp140
I743
aI377
aI249
aI1269
aI2485
aF171.0
aI701
aI365
aI243
aI1202
aI2508
aF170.0
asg5
I1
sg6
(lp141
I29
aI-1
aI-1
aI59
aI-1
aI-1
asg8
(lp142
I37
aI-1
aI-1
aF-1.0
aF-1.0
aF-1.0
aI27
aI-1
aI-1
aF-1.0
aF-1.0
aF-1.0
asg10
(lp143
F-0.005
aF0.0
aF0.015
asba(i__main__
sensor_data_struct
p144
(dp145
g3
(lp146
I581
aI329
aI201
aI1063
aI2601
aF183.0
aI860
aI444
aI279
aI1459
aI2427
aF217.0
asg5
I1
sg6
(lp147
I15
aI-1
aI-1
aI40
aI-1
aI-1
asg8
(lp148
I48
aI-1
aI-1
aF-1.0
aF-1.0
aF-1.0
aI32
aI-1
aI-1
aF-1.0
aF-1.0
aF-1.0
asg10
(lp149
F0.006
aF-0.006999999999999999
aF0.015
asba(i__main__
sensor_data_struct
p150
(dp151
g3
(lp152
I628
aI349
aI220
aI1124
aI2575
aF185.0
aI991
aI461
aI314
aI1602
aI2363
aF176.0
asg5
I1
sg6
(lp153
I22
aI-1
aI-1
aI57
aI-1
aI-1
asg8
(lp154
I47
aI-1
aI-1
aF-1.0
aF-1.0
aF-1.0
aI28
aI-1
aI-1
aF-1.0
aF-1.0
aF-1.0
asg10
(lp155
F-0.002
aF0.006999999999999999
aF0.015
asba(i__main__
sensor_data_struct
p156
(dp157
g3
(lp158
I649
aI355
aI226
aI1150
aI2554
aF184.0
aI1013
aI478
aI323
aI1638
aI2358
aF189.0
asg5
I1
sg6
(lp159
I28
aI-1
aI-1
aI57
aI-1
aI-1
asg8
(lp160
I41
aI-1
aI-1
aF-1.0
aF-1.0
aF-1.0
aI27
aI-1
aI-1
aF-1.0
aF-1.0
aF-1.0
asg10
(lp161
F-0.004
aF0.003
aF0.015
asba(i__main__
sensor_data_struct
p162
(dp163
g3
(lp164
I639
aI349
aI223
aI1131
aI2554
aF180.0
aI1109
aI468
aI339
aI1721
aI2302
aF130.0
asg5
I0
sg6
(lp165
I130
aI-1
aI-1
aI110
aI-1
aI-1
asg8
(lp166
I27
aI-1
aI-1
aF-1.0
aF-1.0
aF-1.0
aI22
aI-1
aI-1
aF-1.0
aF-1.0
aF-1.0
asg10
(lp167
F-0.001
aF-0.005
aF0.004
asba(i__main__
sensor_data_struct
p168
(dp169
g3
(lp170
I594
aI333
aI206
aI1077
aI2589
aF181.0
aI849
aI394
aI273
aI1391
aI2412
aF146.0
asg5
I0
sg6
(lp171
I44
aI-1
aI-1
aI87
aI-1
aI-1
asg8
(lp172
I30
aI-1
aI-1
aF-1.0
aF-1.0
aF-1.0
aI23
aI-1
aI-1
aF-1.0
aF-1.0
aF-1.0
asg10
(lp173
F0.006999999999999999
aF-0.001
aF0.01
asba(i__main__
sensor_data_struct
p174
(dp175
g3
(lp176
I606
aI339
aI212
aI1091
aI2581
aF183.0
aI941
aI433
aI302
aI1514
aI2370
aF156.0
asg5
I0
sg6
(lp177
I39
aI-1
aI-1
aI76
aI-1
aI-1
asg8
(lp178
I18
aI-1
aI-1
aF-1.0
aF-1.0
aF-1.0
aI24
aI-1
aI-1
aF-1.0
aF-1.0
aF-1.0
asg10
(lp179
F-0.004
aF0.001
aF0.011000000000000001
asba(i__main__
sensor_data_struct
p180
(dp181
g3
(lp182
I657
aI357
aI227
aI1163
aI2550
aF184.0
aI984
aI422
aI306
aI1551
aI2343
aF122.0
asg5
I0
sg6
(lp183
I49
aI-1
aI-1
aI92
aI-1
aI-1
asg8
(lp184
I18
aI-1
aI-1
aF-1.0
aF-1.0
aF-1.0
aI23
aI-1
aI-1
aF-1.0
aF-1.0
aF-1.0
asg10
(lp185
F-0.003
aF0.002
aF0.006999999999999999
asba(i__main__
sensor_data_struct
p186
(dp187
g3
(lp188
I606
aI339
aI212
aI1093
aI2585
aF183.0
aI1214
aI462
aI350
aI1846
aI2272
aF78.0
asg5
I0
sg6
(lp189
I55
aI-1
aI-1
aI98
aI-1
aI-1
asg8
(lp190
I28
aI-1
aI-1
aF-1.0
aF-1.0
aF-1.0
aI25
aI-1
aI-1
aF-1.0
aF-1.0
aF-1.0
asg10
(lp191
F0.005
aF0.002
aF0.006999999999999999
asba(i__main__
sensor_data_struct
p192
(dp193
g3
(lp194
I601
aI335
aI208
aI1088
aI2587
aF181.0
aI871
aI437
aI285
aI1454
aI2417
aF198.0
asg5
I1
sg6
(lp195
I35
aI-1
aI-1
aI93
aI-1
aI-1
asg8
(lp196
I51
aI-1
aI-1
aF-1.0
aF-1.0
aF-1.0
aI39
aI-1
aI-1
aF-1.0
aF-1.0
aF-1.0
asg10
(lp197
F0.001
aF-0.009000000000000001
aF0.01
asba(i__main__
sensor_data_struct
p198
(dp199
g3
(lp200
I653
aI351
aI224
aI1154
aI2547
aF178.0
aI1232
aI484
aI360
aI1880
aI2271
aF100.0
asg5
I0
sg6
(lp201
I54
aI-1
aI-1
aI98
aI-1
aI-1
asg8
(lp202
I27
aI-1
aI-1
aF-1.0
aF-1.0
aF-1.0
aI22
aI-1
aI-1
aF-1.0
aF-1.0
aF-1.0
asg10
(lp203
F0.004
aF0.002
aF0.008
asba(i__main__
sensor_data_struct
p204
(dp205
g3
(lp206
I720
aI372
aI241
aI1245
aI2501
aF177.0
aI700
aI366
aI244
aI1202
aI2511
aF171.0
asg5
I1
sg6
(lp207
I31
aI-1
aI-1
aI62
aI-1
aI-1
asg8
(lp208
I40
aI-1
aI-1
aF-1.0
aF-1.0
aF-1.0
aI25
aI-1
aI-1
aF-1.0
aF-1.0
aF-1.0
asg10
(lp209
F-0.004
aF-0.003
aF0.013999999999999999
asba(i__main__
sensor_data_struct
p210
(dp211
g3
(lp212
I687
aI371
aI234
aI1208
aI2525
aF191.0
aI804
aI387
aI269
aI1324
aI2431
aF152.0
asg5
I0
sg6
(lp213
I37
aI-1
aI-1
aI101
aI-1
aI-1
asg8
(lp214
I14
aI-1
aI-1
aF-1.0
aF-1.0
aF-1.0
aI25
aI-1
aI-1
aF-1.0
aF-1.0
aF-1.0
asg10
(lp215
F-0.006
aF-0.002
aF0.005
asba(i__main__
sensor_data_struct
p216
(dp217
g3
(lp218
I639
aI347
aI222
aI1132
aI2557
aF177.0
aI1042
aI426
aI311
aI1624
aI2314
aF106.0
asg5
I0
sg6
(lp219
I64
aI-1
aI-1
aI99
aI-1
aI-1
asg8
(lp220
I20
aI-1
aI-1
aF-1.0
aF-1.0
aF-1.0
aI24
aI-1
aI-1
aF-1.0
aF-1.0
aF-1.0
asg10
(lp221
F-0.002
aF0.0
aF0.001
asba(i__main__
sensor_data_struct
p222
(dp223
g3
(lp224
I591
aI333
aI206
aI1074
aI2595
aF182.0
aI684
aI353
aI231
aI1185
aI2516
aF166.0
asg5
I1
sg6
(lp225
I19
aI-1
aI-1
aI69
aI-1
aI-1
asg8
(lp226
I42
aI-1
aI-1
aF-1.0
aF-1.0
aF-1.0
aI25
aI-1
aI-1
aF-1.0
aF-1.0
aF-1.0
asg10
(lp227
F0.009000000000000001
aF-0.005
aF0.013000000000000001
asba(i__main__
sensor_data_struct
p228
(dp229
g3
(lp230
I599
aI340
aI212
aI1087
aI2600
aF187.0
aI2120
aI596
aI516
aI3007
aI2157
aF65411.0
asg5
I1
sg6
(lp231
I19
aI-1
aI-1
aI37
aI-1
aI-1
asg8
(lp232
I44
aI-1
aI-1
aF-1.0
aF-1.0
aF-1.0
aI35
aI-1
aI-1
aF-1.0
aF-1.0
aF-1.0
asg10
(lp233
F0.002
aF0.01
aF0.009000000000000001
asba(i__main__
sensor_data_struct
p234
(dp235
g3
(lp236
I593
aI337
aI208
aI1080
aI2600
aF187.0
aI666
aI357
aI232
aI1164
aI2538
aF177.0
asg5
I1
sg6
(lp237
I30
aI-1
aI-1
aI61
aI-1
aI-1
asg8
(lp238
I52
aI-1
aI-1
aF-1.0
aF-1.0
aF-1.0
aI34
aI-1
aI-1
aF-1.0
aF-1.0
aF-1.0
asg10
(lp239
F0.004
aF-0.009000000000000001
aF0.011000000000000001
asba(i__main__
sensor_data_struct
p240
(dp241
g3
(lp242
I602
aI340
aI210
aI1092
aI2589
aF187.0
aI739
aI393
aI252
aI1275
aI2492
aF195.0
asg5
I1
sg6
(lp243
I14
aI-1
aI-1
aI32
aI-1
aI-1
asg8
(lp244
I52
aI-1
aI-1
aF-1.0
aF-1.0
aF-1.0
aI33
aI-1
aI-1
aF-1.0
aF-1.0
aF-1.0
asg10
(lp245
F-0.01
aF0.005
aF0.015
asba(i__main__
sensor_data_struct
p246
(dp247
g3
(lp248
I650
aI354
aI227
aI1149
aI2554
aF181.0
aI1121
aI463
aI336
aI1740
aI2300
aF120.0
asg5
I0
sg6
(lp249
I88
aI-1
aI-1
aI108
aI-1
aI-1
asg8
(lp250
I21
aI-1
aI-1
aF-1.0
aF-1.0
aF-1.0
aI23
aI-1
aI-1
aF-1.0
aF-1.0
aF-1.0
asg10
(lp251
F-0.004
aF-0.004
aF0.002
asba(i__main__
sensor_data_struct
p252
(dp253
g3
(lp254
I623
aI345
aI217
aI1115
aI2570
aF183.0
aI967
aI462
aI311
aI1572
aI2370
aF187.0
asg5
I1
sg6
(lp255
I28
aI-1
aI-1
aI63
aI-1
aI-1
asg8
(lp256
I44
aI-1
aI-1
aF-1.0
aF-1.0
aF-1.0
aI26
aI-1
aI-1
aF-1.0
aF-1.0
aF-1.0
asg10
(lp257
F-0.005
aF-0.004
aF0.013999999999999999
asba(i__main__
sensor_data_struct
p258
(dp259
g3
(lp260
I682
aI370
aI231
aI1204
aI2528
aF193.0
aI633
aI345
aI219
aI1126
aI2563
aF178.0
asg5
I1
sg6
(lp261
I7
aI-1
aI-1
aI37
aI-1
aI-1
asg8
(lp262
I52
aI-1
aI-1
aF-1.0
aF-1.0
aF-1.0
aI34
aI-1
aI-1
aF-1.0
aF-1.0
aF-1.0
asg10
(lp263
F0.001
aF-0.011000000000000001
aF0.013999999999999999
asba(i__main__
sensor_data_struct
p264
(dp265
g3
(lp266
I631
aI350
aI213
aI1139
aI2564
aF191.0
aI762
aI389
aI263
aI1284
aI2473
aF174.0
asg5
I0
sg6
(lp267
I46
aI-1
aI-1
aI79
aI-1
aI-1
asg8
(lp268
I28
aI-1
aI-1
aF-1.0
aF-1.0
aF-1.0
aI22
aI-1
aI-1
aF-1.0
aF-1.0
aF-1.0
asg10
(lp269
F-0.003
aF-0.006999999999999999
aF0.011000000000000001
asba(i__main__
sensor_data_struct
p270
(dp271
g3
(lp272
I632
aI348
aI219
aI1129
aI2565
aF183.0
aI1116
aI436
aI324
aI1712
aI2282
aF88.0
asg5
I0
sg6
(lp273
I52
aI-1
aI-1
aI98
aI-1
aI-1
asg8
(lp274
I22
aI-1
aI-1
aF-1.0
aF-1.0
aF-1.0
aI24
aI-1
aI-1
aF-1.0
aF-1.0
aF-1.0
asg10
(lp275
F-0.002
aF0.002
aF0.004
asba(i__main__
sensor_data_struct
p276
(dp277
g3
(lp278
I626
aI348
aI219
aI1120
aI2572
aF185.0
aI986
aI420
aI301
aI1562
aI2345
aF122.0
asg5
I1
sg6
(lp279
I22
aI-1
aI-1
aI69
aI-1
aI-1
asg8
(lp280
I45
aI-1
aI-1
aF-1.0
aF-1.0
aF-1.0
aI23
aI-1
aI-1
aF-1.0
aF-1.0
aF-1.0
asg10
(lp281
F-0.005
aF0.011000000000000001
aF0.012
asba(i__main__
sensor_data_struct
p282
(dp283
g3
(lp284
I621
aI345
aI218
aI1112
aI2576
aF183.0
aI1083
aI467
aI334
aI1701
aI2324
aF141.0
asg5
I0
sg6
(lp285
I32
aI-1
aI-1
aI78
aI-1
aI-1
asg8
(lp286
I24
aI-1
aI-1
aF-1.0
aF-1.0
aF-1.0
aI23
aI-1
aI-1
aF-1.0
aF-1.0
aF-1.0
asg10
(lp287
F-0.004
aF0.005
aF0.01
asba(i__main__
sensor_data_struct
p288
(dp289
g3
(lp290
I624
aI343
aI217
aI1114
aI2568
aF179.0
aI1042
aI475
aI330
aI1657
aI2336
aF169.0
asg5
I0
sg6
(lp291
I69
aI-1
aI-1
aI81
aI-1
aI-1
asg8
(lp292
I27
aI-1
aI-1
aF-1.0
aF-1.0
aF-1.0
aI24
aI-1
aI-1
aF-1.0
aF-1.0
aF-1.0
asg10
(lp293
F0.001
aF-0.003
aF0.011000000000000001
asba(i__main__
sensor_data_struct
p294
(dp295
g3
(lp296
I676
aI361
aI235
aI1178
aI2529
aF178.0
aI1183
aI488
aI353
aI1828
aI2286
aF127.0
asg5
I0
sg6
(lp297
I24
aI-1
aI-1
aI99
aI-1
aI-1
asg8
(lp298
I10
aI-1
aI-1
aF-1.0
aF-1.0
aF-1.0
aI24
aI-1
aI-1
aF-1.0
aF-1.0
aF-1.0
asg10
(lp299
F-0.006999999999999999
aF-0.001
aF0.005
asba(i__main__
sensor_data_struct
p300
(dp301
g3
(lp302
I575
aI329
aI201
aI1055
aI2610
aF185.0
aI971
aI425
aI296
aI1561
aI2362
aF138.0
asg5
I1
sg6
(lp303
I9
aI-1
aI-1
aI49
aI-1
aI-1
asg8
(lp304
I39
aI-1
aI-1
aF-1.0
aF-1.0
aF-1.0
aI33
aI-1
aI-1
aF-1.0
aF-1.0
aF-1.0
asg10
(lp305
F0.011000000000000001
aF0.005
aF0.013999999999999999
asba(i__main__
sensor_data_struct
p306
(dp307
g3
(lp308
I628
aI347
aI219
aI1125
aI2577
aF183.0
aI1367
aI476
aI375
aI2026
aI2227
aF33.0
asg5
I0
sg6
(lp309
I64
aI-1
aI-1
aI102
aI-1
aI-1
asg8
(lp310
I26
aI-1
aI-1
aF-1.0
aF-1.0
aF-1.0
aI24
aI-1
aI-1
aF-1.0
aF-1.0
aF-1.0
asg10
(lp311
F0.002
aF0.003
aF0.005
asba(i__main__
sensor_data_struct
p312
(dp313
g3
(lp314
I607
aI344
aI216
aI1098
aI2601
aF187.0
aI956
aI441
aI303
aI1547
aI2373
aF163.0
asg5
I1
sg6
(lp315
I19
aI-1
aI-1
aI55
aI-1
aI-1
asg8
(lp316
I54
aI-1
aI-1
aF-1.0
aF-1.0
aF-1.0
aI30
aI-1
aI-1
aF-1.0
aF-1.0
aF-1.0
asg10
(lp317
F-0.003
aF0.011000000000000001
aF0.015
asba(i__main__
sensor_data_struct
p318
(dp319
g3
(lp320
I630
aI345
aI220
aI1121
aI2566
aF178.0
aI1076
aI478
aI339
aI1693
aI2323
aF157.0
asg5
I0
sg6
(lp321
I101
aI-1
aI-1
aI93
aI-1
aI-1
asg8
(lp322
I28
aI-1
aI-1
aF-1.0
aF-1.0
aF-1.0
aI24
aI-1
aI-1
aF-1.0
aF-1.0
aF-1.0
asg10
(lp323
F0.001
aF-0.003
aF0.009000000000000001
asba(i__main__
sensor_data_struct
p324
(dp325
g3
(lp326
I617
aI344
aI216
aI1110
aI2584
aF184.0
aI897
aI396
aI284
aI1434
aI2373
aF125.0
asg5
I0
sg6
(lp327
I66
aI-1
aI-1
aI102
aI-1
aI-1
asg8
(lp328
I17
aI-1
aI-1
aF-1.0
aF-1.0
aF-1.0
aI24
aI-1
aI-1
aF-1.0
aF-1.0
aF-1.0
asg10
(lp329
F-0.003
aF0.0
aF0.002
asba(i__main__
sensor_data_struct
p330
(dp331
g3
(lp332
I595
aI336
aI210
aI1080
aI2604
aF183.0
aI1813
aI543
aI462
aI2586
aI2167
aF65467.0
asg5
I0
sg6
(lp333
I28
aI-1
aI-1
aI99
aI-1
aI-1
asg8
(lp334
I32
aI-1
aI-1
aF-1.0
aF-1.0
aF-1.0
aI23
aI-1
aI-1
aF-1.0
aF-1.0
aF-1.0
asg10
(lp335
F0.006
aF0.006
aF0.006
asba(i__main__
sensor_data_struct
p336
(dp337
g3
(lp338
I640
aI351
aI224
aI1136
aI2563
aF182.0
aI1105
aI470
aI338
aI1727
aI2313
aF135.0
asg5
I0
sg6
(lp339
I30
aI-1
aI-1
aI85
aI-1
aI-1
asg8
(lp340
I21
aI-1
aI-1
aF-1.0
aF-1.0
aF-1.0
aI24
aI-1
aI-1
aF-1.0
aF-1.0
aF-1.0
asg10
(lp341
F-0.005
aF0.005
aF0.009000000000000001
asba(i__main__
sensor_data_struct
p342
(dp343
g3
(lp344
I614
aI341
aI215
aI1102
aI2579
aF181.0
aI1028
aI460
aI328
aI1624
aI2339
aF152.0
asg5
I0
sg6
(lp345
I90
aI-1
aI-1
aI94
aI-1
aI-1
asg8
(lp346
I22
aI-1
aI-1
aF-1.0
aF-1.0
aF-1.0
aI24
aI-1
aI-1
aF-1.0
aF-1.0
aF-1.0
asg10
(lp347
F0.001
aF-0.002
aF0.009000000000000001
asba(i__main__
sensor_data_struct
p348
(dp349
g3
(lp350
I598
aI337
aI207
aI1088
aI2592
aF186.0
aI724
aI387
aI240
aI1266
aI2497
aF200.0
asg5
I1
sg6
(lp351
I2
aI-1
aI-1
aI38
aI-1
aI-1
asg8
(lp352
I53
aI-1
aI-1
aF-1.0
aF-1.0
aF-1.0
aI33
aI-1
aI-1
aF-1.0
aF-1.0
aF-1.0
asg10
(lp353
F0.004
aF-0.012
aF0.015
asba(i__main__
sensor_data_struct
p354
(dp355
g3
(lp356
I603
aI341
aI210
aI1094
aI2587
aF188.0
aI829
aI392
aI270
aI1365
aI2420
aF151.0
asg5
I0
sg6
(lp357
I24
aI-1
aI-1
aI91
aI-1
aI-1
asg8
(lp358
I13
aI-1
aI-1
aF-1.0
aF-1.0
aF-1.0
aI23
aI-1
aI-1
aF-1.0
aF-1.0
aF-1.0
asg10
(lp359
F-0.006999999999999999
aF0.004
aF0.006999999999999999
asba(i__main__
sensor_data_struct
p360
(dp361
g3
(lp362
I589
aI336
aI208
aI1074
aI2608
aF186.0
aI1206
aI439
aI340
aI1827
aI2273
aF52.0
asg5
I0
sg6
(lp363
I32
aI-1
aI-1
aI96
aI-1
aI-1
asg8
(lp364
I29
aI-1
aI-1
aF-1.0
aF-1.0
aF-1.0
aI23
aI-1
aI-1
aF-1.0
aF-1.0
aF-1.0
asg10
(lp365
F0.008
aF0.004
aF0.008
asba(i__main__
sensor_data_struct
p366
(dp367
g3
(lp368
I673
aI356
aI230
aI1177
aI2530
aF175.0
aI1141
aI491
aI350
aI1783
aI2308
aF148.0
asg5
I0
sg6
(lp369
I50
aI-1
aI-1
aI79
aI-1
aI-1
asg8
(lp370
I26
aI-1
aI-1
aF-1.0
aF-1.0
aF-1.0
aI24
aI-1
aI-1
aF-1.0
aF-1.0
aF-1.0
asg10
(lp371
F0.004
aF0.003
aF0.011000000000000001
asba(i__main__
sensor_data_struct
p372
(dp373
g3
(lp374
I606
aI340
aI211
aI1097
aI2588
aF185.0
aI794
aI398
aI283
aI1304
aI2455
aF163.0
asg5
I0
sg6
(lp375
I132
aI-1
aI-1
aI110
aI-1
aI-1
asg8
(lp376
I28
aI-1
aI-1
aF-1.0
aF-1.0
aF-1.0
aI25
aI-1
aI-1
aF-1.0
aF-1.0
aF-1.0
asg10
(lp377
F-0.002
aF-0.006
aF0.005
asba(i__main__
sensor_data_struct
p378
(dp379
g3
(lp380
I641
aI352
aI223
aI1139
aI2559
aF184.0
aI801
aI388
aI266
aI1332
aI2446
aF157.0
asg5
I1
sg6
(lp381
I39
aI-1
aI-1
aI60
aI-1
aI-1
asg8
(lp382
I27
aI-1
aI-1
aF-1.0
aF-1.0
aF-1.0
aI28
aI-1
aI-1
aF-1.0
aF-1.0
aF-1.0
asg10
(lp383
F0.0
aF0.001
aF0.015
asba(i__main__
sensor_data_struct
p384
(dp385
g3
(lp386
I740
aI390
aI248
aI1281
aI2492
aF193.0
aI692
aI364
aI238
aI1200
aI2519
aF175.0
asg5
I1
sg6
(lp387
I19
aI-1
aI-1
aI67
aI-1
aI-1
asg8
(lp388
I43
aI-1
aI-1
aF-1.0
aF-1.0
aF-1.0
aI24
aI-1
aI-1
aF-1.0
aF-1.0
aF-1.0
asg10
(lp389
F0.005
aF-0.006
aF0.013999999999999999
asba(i__main__
sensor_data_struct
p390
(dp391
g3
(lp392
I608
aI342
aI211
aI1103
aI2588
aF187.0
aI925
aI408
aI290
aI1487
aI2377
aF131.0
asg5
I0
sg6
(lp393
I28
aI-1
aI-1
aI77
aI-1
aI-1
asg8
(lp394
I30
aI-1
aI-1
aF-1.0
aF-1.0
aF-1.0
aI24
aI-1
aI-1
aF-1.0
aF-1.0
aF-1.0
asg10
(lp395
F-0.005
aF0.006
aF0.01
asba(i__main__
sensor_data_struct
p396
(dp397
g3
(lp398
I677
aI364
aI233
aI1190
aI2537
aF184.0
aI927
aI431
aI297
aI1507
aI2387
aF161.0
asg5
I1
sg6
(lp399
I27
aI-1
aI-1
aI60
aI-1
aI-1
asg8
(lp400
I41
aI-1
aI-1
aF-1.0
aF-1.0
aF-1.0
aI26
aI-1
aI-1
aF-1.0
aF-1.0
aF-1.0
asg10
(lp401
F-0.003
aF0.005
aF0.013999999999999999
asba(i__main__
sensor_data_struct
p402
(dp403
g3
(lp404
I602
aI340
aI210
aI1094
aI2594
aF187.0
aI805
aI404
aI273
aI1344
aI2447
aF176.0
asg5
I1
sg6
(lp405
I31
aI-1
aI-1
aI76
aI-1
aI-1
asg8
(lp406
I46
aI-1
aI-1
aF-1.0
aF-1.0
aF-1.0
aI26
aI-1
aI-1
aF-1.0
aF-1.0
aF-1.0
asg10
(lp407
F-0.003
aF-0.008
aF0.012
asba(i__main__
sensor_data_struct
p408
(dp409
g3
(lp410
I619
aI345
aI213
aI1118
aI2579
aF187.0
aI712
aI382
aI243
aI1242
aI2513
aF193.0
asg5
I1
sg6
(lp411
I14
aI-1
aI-1
aI36
aI-1
aI-1
asg8
(lp412
I51
aI-1
aI-1
aF-1.0
aF-1.0
aF-1.0
aI34
aI-1
aI-1
aF-1.0
aF-1.0
aF-1.0
asg10
(lp413
F0.0
aF-0.011000000000000001
aF0.013000000000000001
asba(i__main__
sensor_data_struct
p414
(dp415
g3
(lp416
I691
aI364
aI235
aI1201
aI2515
aF178.0
aI1075
aI432
aI314
aI1668
aI2298
aF103.0
asg5
I0
sg6
(lp417
I38
aI-1
aI-1
aI93
aI-1
aI-1
asg8
(lp418
I15
aI-1
aI-1
aF-1.0
aF-1.0
aF-1.0
aI24
aI-1
aI-1
aF-1.0
aF-1.0
aF-1.0
asg10
(lp419
F-0.004
aF0.002
aF0.0
asba(i__main__
sensor_data_struct
p420
(dp421
g3
(lp422
I621
aI345
aI217
aI1113
aI2574
aF184.0
aI983
aI464
aI316
aI1591
aI2367
aF181.0
asg5
I1
sg6
(lp423
I20
aI-1
aI-1
aI64
aI-1
aI-1
asg8
(lp424
I33
aI-1
aI-1
aF-1.0
aF-1.0
aF-1.0
aI25
aI-1
aI-1
aF-1.0
aF-1.0
aF-1.0
asg10
(lp425
F-0.008
aF-0.002
aF0.013000000000000001
asba(i__main__
sensor_data_struct
p426
(dp427
g3
(lp428
I635
aI352
aI221
aI1135
aI2567
aF187.0
aI904
aI401
aI283
aI1457
aI2380
aF132.0
asg5
I0
sg6
(lp429
I30
aI-1
aI-1
aI95
aI-1
aI-1
asg8
(lp430
I14
aI-1
aI-1
aF-1.0
aF-1.0
aF-1.0
aI24
aI-1
aI-1
aF-1.0
aF-1.0
aF-1.0
asg10
(lp431
F-0.006
aF0.003
aF0.004
asba(i__main__
sensor_data_struct
p432
(dp433
g3
(lp434
I624
aI346
aI218
aI1118
aI2574
aF183.0
aI723
aI375
aI253
aI1230
aI2500
aF171.0
asg5
I1
sg6
(lp435
I35
aI-1
aI-1
aI75
aI-1
aI-1
asg8
(lp436
I29
aI-1
aI-1
aF-1.0
aF-1.0
aF-1.0
aI24
aI-1
aI-1
aF-1.0
aF-1.0
aF-1.0
asg10
(lp437
F-0.005
aF-0.005
aF0.011000000000000001
asba(i__main__
sensor_data_struct
p438
(dp439
g3
(lp440
I658
aI354
aI228
aI1158
aI2545
aF178.0
aI1159
aI473
aI346
aI1787
aI2289
aF117.0
asg5
I0
sg6
(lp441
I45
aI-1
aI-1
aI93
aI-1
aI-1
asg8
(lp442
I20
aI-1
aI-1
aF-1.0
aF-1.0
aF-1.0
aI24
aI-1
aI-1
aF-1.0
aF-1.0
aF-1.0
asg10
(lp443
F-0.003
aF0.003
aF0.006999999999999999
asba(i__main__
sensor_data_struct
p444
(dp445
g3
(lp446
I679
aI357
aI232
aI1191
aI2544
aF173.0
aI1769
aI600
aI466
aI2616
aI2210
aF31.0
asg5
I1
sg6
(lp447
I13
aI-1
aI-1
aI37
aI-1
aI-1
asg8
(lp448
I50
aI-1
aI-1
aF-1.0
aF-1.0
aF-1.0
aI37
aI-1
aI-1
aF-1.0
aF-1.0
aF-1.0
asg10
(lp449
F0.004
aF0.011000000000000001
aF0.012
asba(i__main__
sensor_data_struct
p450
(dp451
g3
(lp452
I623
aI349
aI218
aI1122
aI2581
aF189.0
aI780
aI388
aI268
aI1300
aI2461
aF163.0
asg5
I0
sg6
(lp453
I63
aI-1
aI-1
aI80
aI-1
aI-1
asg8
(lp454
I26
aI-1
aI-1
aF-1.0
aF-1.0
aF-1.0
aI25
aI-1
aI-1
aF-1.0
aF-1.0
aF-1.0
asg10
(lp455
F-0.001
aF-0.002
aF0.011000000000000001
asba(i__main__
sensor_data_struct
p456
(dp457
g3
(lp458
I649
aI356
aI224
aI1154
aI2555
aF187.0
aI1042
aI425
aI318
aI1618
aI2324
aF99.0
asg5
I0
sg6
(lp459
I65
aI-1
aI-1
aI97
aI-1
aI-1
asg8
(lp460
I20
aI-1
aI-1
aF-1.0
aF-1.0
aF-1.0
aI24
aI-1
aI-1
aF-1.0
aF-1.0
aF-1.0
asg10
(lp461
F-0.001
aF0.002
aF0.006999999999999999
asba(i__main__
sensor_data_struct
p462
(dp463
g3
(lp464
I622
aI346
aI217
aI1118
aI2581
aF185.0
aI1031
aI418
aI306
aI1618
aI2332
aF101.0
asg5
I0
sg6
(lp465
I38
aI-1
aI-1
aI79
aI-1
aI-1
asg8
(lp466
I26
aI-1
aI-1
aF-1.0
aF-1.0
aF-1.0
aI25
aI-1
aI-1
aF-1.0
aF-1.0
aF-1.0
asg10
(lp467
F0.006
aF0.004
aF0.011000000000000001
asba(i__main__
sensor_data_struct
p468
(dp469
g3
(lp470
I670
aI358
aI227
aI1182
aI2538
aF181.0
aI640
aI348
aI221
aI1136
aI2557
aF179.0
asg5
I1
sg6
(lp471
I6
aI-1
aI-1
aI44
aI-1
aI-1
asg8
(lp472
I54
aI-1
aI-1
aF-1.0
aF-1.0
aF-1.0
aI35
aI-1
aI-1
aF-1.0
aF-1.0
aF-1.0
asg10
(lp473
F0.003
aF-0.01
aF0.013999999999999999
asba(i__main__
sensor_data_struct
p474
(dp475
g3
(lp476
I610
aI343
aI211
aI1106
aI2584
aF188.0
aI948
aI408
aI290
aI1522
aI2371
aF123.0
asg5
I1
sg6
(lp477
I17
aI-1
aI-1
aI36
aI-1
aI-1
asg8
(lp478
I55
aI-1
aI-1
aF-1.0
aF-1.0
aF-1.0
aI32
aI-1
aI-1
aF-1.0
aF-1.0
aF-1.0
asg10
(lp479
F0.0
aF0.011000000000000001
aF0.015
asba(i__main__
sensor_data_struct
p480
(dp481
g3
(lp482
I618
aI351
aI216
aI1120
aI2587
aF195.0
aI1221
aI492
aI348
aI1918
aI2308
aF125.0
asg5
I1
sg6
(lp483
I7
aI-1
aI-1
aI34
aI-1
aI-1
asg8
(lp484
I45
aI-1
aI-1
aF-1.0
aF-1.0
aF-1.0
aI33
aI-1
aI-1
aF-1.0
aF-1.0
aF-1.0
asg10
(lp485
F0.008
aF0.01
aF0.013999999999999999
asba(i__main__
sensor_data_struct
p486
(dp487
g3
(lp488
I616
aI348
aI215
aI1113
aI2580
aF191.0
aI878
aI415
aI289
aI1434
aI2409
aF158.0
asg5
I0
sg6
(lp489
I30
aI-1
aI-1
aI81
aI-1
aI-1
asg8
(lp490
I16
aI-1
aI-1
aF-1.0
aF-1.0
aF-1.0
aI24
aI-1
aI-1
aF-1.0
aF-1.0
aF-1.0
asg10
(lp491
F-0.006
aF0.003
aF0.01
asba(i__main__
sensor_data_struct
p492
(dp493
g3
(lp494
I623
aI348
aI218
aI1120
aI2581
aF187.0
aI912
aI440
aI298
aI1494
aI2396
aF180.0
asg5
I1
sg6
(lp495
I34
aI-1
aI-1
aI63
aI-1
aI-1
asg8
(lp496
I37
aI-1
aI-1
aF-1.0
aF-1.0
aF-1.0
aI24
aI-1
aI-1
aF-1.0
aF-1.0
aF-1.0
asg10
(lp497
F-0.002
aF-0.001
aF0.013999999999999999
asba(i__main__
sensor_data_struct
p498
(dp499
g3
(lp500
I605
aI340
aI209
aI1099
aI2590
aF187.0
aI912
aI417
aI295
aI1470
aI2385
aF146.0
asg5
I0
sg6
(lp501
I163
aI-1
aI-1
aI112
aI-1
aI-1
asg8
(lp502
I31
aI-1
aI-1
aF-1.0
aF-1.0
aF-1.0
aI26
aI-1
aI-1
aF-1.0
aF-1.0
aF-1.0
asg10
(lp503
F0.006
aF-0.003
aF0.005
asba(i__main__
sensor_data_struct
p504
(dp505
g3
(lp506
I615
aI342
aI212
aI1111
aI2580
aF184.0
aI908
aI428
aI297
aI1476
aI2396
aF163.0
asg5
I1
sg6
(lp507
I72
aI-1
aI-1
aI81
aI-1
aI-1
asg8
(lp508
I28
aI-1
aI-1
aF-1.0
aF-1.0
aF-1.0
aI24
aI-1
aI-1
aF-1.0
aF-1.0
aF-1.0
asg10
(lp509
F0.004
aF-0.002
aF0.011000000000000001
asba(i__main__
sensor_data_struct
p510
(dp511
g3
(lp512
I626
aI346
aI218
aI1121
aI2575
aF183.0
aI1041
aI466
aI331
aI1643
aI2335
aF155.0
asg5
I0
sg6
(lp513
I88
aI-1
aI-1
aI108
aI-1
aI-1
asg8
(lp514
I27
aI-1
aI-1
aF-1.0
aF-1.0
aF-1.0
aI24
aI-1
aI-1
aF-1.0
aF-1.0
aF-1.0
asg10
(lp515
F-0.004
aF-0.008
aF0.006999999999999999
asba(i__main__
sensor_data_struct
p516
(dp517
g3
(lp518
I617
aI343
aI215
aI1111
aI2582
aF183.0
aI1025
aI462
aI328
aI1622
aI2342
aF156.0
asg5
I0
sg6
(lp519
I101
aI-1
aI-1
aI106
aI-1
aI-1
asg8
(lp520
I30
aI-1
aI-1
aF-1.0
aF-1.0
aF-1.0
aI25
aI-1
aI-1
aF-1.0
aF-1.0
aF-1.0
asg10
(lp521
F-0.002
aF-0.008
aF0.006999999999999999
asba(i__main__
sensor_data_struct
p522
(dp523
g3
(lp524
I603
aI338
aI209
aI1095
aI2594
aF184.0
aI969
aI446
aI310
aI1559
aI2367
aF162.0
asg5
I1
sg6
(lp525
I69
aI-1
aI-1
aI87
aI-1
aI-1
asg8
(lp526
I28
aI-1
aI-1
aF-1.0
aF-1.0
aF-1.0
aI23
aI-1
aI-1
aF-1.0
aF-1.0
aF-1.0
asg10
(lp527
F0.005
aF-0.003
aF0.01
asba(i__main__
sensor_data_struct
p528
(dp529
g3
(lp530
I673
aI359
aI233
aI1177
aI2535
aF177.0
aI1113
aI458
aI333
aI1723
aI2296
aF117.0
asg5
I0
sg6
(lp531
I176
aI-1
aI-1
aI108
aI-1
aI-1
asg8
(lp532
I25
aI-1
aI-1
aF-1.0
aF-1.0
aF-1.0
aI25
aI-1
aI-1
aF-1.0
aF-1.0
aF-1.0
asg10
(lp533
F0.001
aF-0.003
aF0.002
asba(i__main__
sensor_data_struct
p534
(dp535
g3
(lp536
I615
aI345
aI216
aI1104
aI2575
aF186.0
aI1021
aI432
aI310
aI1605
aI2325
aF123.0
asg5
I0
sg6
(lp537
I32
aI-1
aI-1
aI92
aI-1
aI-1
asg8
(lp538
I19
aI-1
aI-1
aF-1.0
aF-1.0
aF-1.0
aI23
aI-1
aI-1
aF-1.0
aF-1.0
aF-1.0
asg10
(lp539
F-0.006
aF0.006
aF0.006999999999999999
asba(i__main__
sensor_data_struct
p540
(dp541
g3
(lp542
I683
aI356
aI233
aI1185
aI2522
aF169.0
aI1205
aI496
aI360
aI1855
aI2279
aF128.0
asg5
I0
sg6
(lp543
I104
aI-1
aI-1
aI108
aI-1
aI-1
asg8
(lp544
I29
aI-1
aI-1
aF-1.0
aF-1.0
aF-1.0
aI22
aI-1
aI-1
aF-1.0
aF-1.0
aF-1.0
asg10
(lp545
F0.005
aF-0.001
aF0.006
asba(i__main__
sensor_data_struct
p546
(dp547
g3
(lp548
I593
aI334
aI205
aI1081
aI2598
aF184.0
aI816
aI425
aI270
aI1392
aI2452
aF208.0
asg5
I1
sg6
(lp549
I15
aI-1
aI-1
aI47
aI-1
aI-1
asg8
(lp550
I48
aI-1
aI-1
aF-1.0
aF-1.0
aF-1.0
aI34
aI-1
aI-1
aF-1.0
aF-1.0
aF-1.0
asg10
(lp551
F0.006
aF-0.008
aF0.013000000000000001
asba(i__main__
sensor_data_struct
p552
(dp553
g3
(lp554
I674
aI359
aI232
aI1179
aI2532
aF178.0
aI1266
aI465
aI352
aI1906
aI2244
aF65.0
asg5
I0
sg6
(lp555
I41
aI-1
aI-1
aI96
aI-1
aI-1
asg8
(lp556
I22
aI-1
aI-1
aF-1.0
aF-1.0
aF-1.0
aI24
aI-1
aI-1
aF-1.0
aF-1.0
aF-1.0
asg10
(lp557
F-0.002
aF0.004
aF0.002
asba(i__main__
sensor_data_struct
p558
(dp559
g3
(lp560
I634
aI350
aI222
aI1130
aI2567
aF184.0
aI898
aI420
aI294
aI1453
aI2391
aF156.0
asg5
I0
sg6
(lp561
I42
aI-1
aI-1
aI87
aI-1
aI-1
asg8
(lp562
I16
aI-1
aI-1
aF-1.0
aF-1.0
aF-1.0
aI23
aI-1
aI-1
aF-1.0
aF-1.0
aF-1.0
asg10
(lp563
F-0.005
aF0.0
aF0.009000000000000001
asba(i__main__
sensor_data_struct
p564
(dp565
g3
(lp566
I624
aI347
aI217
aI1120
aI2572
aF186.0
aI685
aI365
aI238
aI1190
aI2523
aF179.0
asg5
I1
sg6
(lp567
I16
aI-1
aI-1
aI64
aI-1
aI-1
asg8
(lp568
I54
aI-1
aI-1
aF-1.0
aF-1.0
aF-1.0
aI25
aI-1
aI-1
aF-1.0
aF-1.0
aF-1.0
asg10
(lp569
F-0.001
aF-0.01
aF0.013999999999999999
asba(i__main__
sensor_data_struct
p570
(dp571
g3
(lp572
I620
aI347
aI215
aI1119
aI2581
aF189.0
aI893
aI428
aI297
aI1453
aI2401
aF168.0
asg5
I0
sg6
(lp573
I49
aI-1
aI-1
aI91
aI-1
aI-1
asg8
(lp574
I21
aI-1
aI-1
aF-1.0
aF-1.0
aF-1.0
aI26
aI-1
aI-1
aF-1.0
aF-1.0
aF-1.0
asg10
(lp575
F-0.005
aF-0.006
aF0.009000000000000001
asba(i__main__
sensor_data_struct
p576
(dp577
g3
(lp578
I627
aI350
aI218
aI1127
aI2573
aF189.0
aI1042
aI422
aI314
aI1624
aI2326
aF97.0
asg5
I0
sg6
(lp579
I53
aI-1
aI-1
aI87
aI-1
aI-1
asg8
(lp580
I25
aI-1
aI-1
aF-1.0
aF-1.0
aF-1.0
aI22
aI-1
aI-1
aF-1.0
aF-1.0
aF-1.0
asg10
(lp581
F0.004
aF0.002
aF0.01
asba(i__main__
sensor_data_struct
p582
(dp583
g3
(lp584
I633
aI352
aI223
aI1135
aI2584
aF186.0
aI1925
aI590
aI486
aI2780
aI2180
aF65487.0
asg5
I1
sg6
(lp585
I16
aI-1
aI-1
aI37
aI-1
aI-1
asg8
(lp586
I43
aI-1
aI-1
aF-1.0
aF-1.0
aF-1.0
aI37
aI-1
aI-1
aF-1.0
aF-1.0
aF-1.0
asg10
(lp587
F0.004
aF0.01
aF0.011000000000000001
asba(i__main__
sensor_data_struct
p588
(dp589
g3
(lp590
I671
aI362
aI232
aI1180
aI2541
aF183.0
aI1135
aI441
aI328
aI1740
aI2281
aF87.0
asg5
I0
sg6
(lp591
I56
aI-1
aI-1
aI96
aI-1
aI-1
asg8
(lp592
I20
aI-1
aI-1
aF-1.0
aF-1.0
aF-1.0
aI25
aI-1
aI-1
aF-1.0
aF-1.0
aF-1.0
asg10
(lp593
F-0.002
aF0.003
aF0.001
asba(i__main__
sensor_data_struct
p594
(dp595
g3
(lp596
I618
aI345
aI217
aI1111
aI2584
aF185.0
aI1371
aI466
aI374
aI2025
aI2228
aF16.0
asg5
I0
sg6
(lp597
I73
aI-1
aI-1
aI104
aI-1
aI-1
asg8
(lp598
I27
aI-1
aI-1
aF-1.0
aF-1.0
aF-1.0
aI25
aI-1
aI-1
aF-1.0
aF-1.0
aF-1.0
asg10
(lp599
F0.004
aF0.004
aF0.004
asba(i__main__
sensor_data_struct
p600
(dp601
g3
(lp602
I802
aI390
aI264
aI1338
aI2442
aF161.0
aI634
aI347
aI222
aI1127
aI2567
aF179.0
asg5
I1
sg6
(lp603
I16
aI-1
aI-1
aI43
aI-1
aI-1
asg8
(lp604
I53
aI-1
aI-1
aF-1.0
aF-1.0
aF-1.0
aI38
aI-1
aI-1
aF-1.0
aF-1.0
aF-1.0
asg10
(lp605
F-0.006
aF-0.005
aF0.011000000000000001
asba.