(lp0
(i__main__
sensor_data_struct
p1
(dp2
S'color'
p3
(lp4
I562
aI323
aI213
aI1007
aI2629
aF171.0
aI728
aI400
aI261
aI1261
aI2521
aF203.0
asS'button'
p5
I1
sS'IR'
p6
(lp7
I6
aI-1
aI-1
aI35
aI-1
aI-1
asS'TOF'
p8
(lp9
I52
aI-1
aI-1
aF-1.0
aF-1.0
aF-1.0
aI33
aI-1
aI-1
aF-1.0
aF-1.0
aF-1.0
asS'pt'
p10
(lp11
F-0.002
aF-0.013000000000000001
aF0.015
asba(i__main__
sensor_data_struct
p12
(dp13
g3
(lp14
I583
aI340
aI219
aI1057
aI2637
aF187.0
aI934
aI408
aI304
aI1485
aI2390
aF118.0
asg5
I1
sg6
(lp15
I22
aI-1
aI-1
aI61
aI-1
aI-1
asg8
(lp16
I43
aI-1
aI-1
aF-1.0
aF-1.0
aF-1.0
aI26
aI-1
aI-1
aF-1.0
aF-1.0
aF-1.0
asg10
(lp17
F0.001
aF0.008
aF0.015
asba(i__main__
sensor_data_struct
p18
(dp19
g3
(lp20
I686
aI380
aI249
aI1205
aI2562
aF194.0
aI738
aI373
aI264
aI1228
aI2485
aF155.0
asg5
I0
sg6
(lp21
I65
aI-1
aI-1
aI93
aI-1
aI-1
asg8
(lp22
I32
aI-1
aI-1
aF-1.0
aF-1.0
aF-1.0
aI20
aI-1
aI-1
aF-1.0
aF-1.0
aF-1.0
asg10
(lp23
F0.004
aF-0.005
aF0.01
asba(i__main__
sensor_data_struct
p24
(dp25
g3
(lp26
I628
aI350
aI235
aI1104
aI2592
aF176.0
aI1148
aI508
aI366
aI1793
aI2319
aF161.0
asg5
I0
sg6
(lp27
I26
aI-1
aI-1
aI99
aI-1
aI-1
asg8
(lp28
I17
aI-1
aI-1
aF-1.0
aF-1.0
aF-1.0
aI21
aI-1
aI-1
aF-1.0
aF-1.0
aF-1.0
asg10
(lp29
F-0.008
aF0.004
aF0.008
asba(i__main__
sensor_data_struct
p30
(dp31
g3
(lp32
I645
aI360
aI238
aI1137
aI2581
aF184.0
aI837
aI410
aI289
aI1379
aI2450
aF163.0
asg5
I1
sg6
(lp33
I22
aI-1
aI-1
aI59
aI-1
aI-1
asg8
(lp34
I45
aI-1
aI-1
aF-1.0
aF-1.0
aF-1.0
aI27
aI-1
aI-1
aF-1.0
aF-1.0
aF-1.0
asg10
(lp35
F-0.005
aF0.008
aF0.015
asba(i__main__
sensor_data_struct
p36
(dp37
g3
(lp38
I731
aI361
aI252
aI1225
aI2485
aF148.0
aI1377
aI518
aI396
aI2059
aI2236
aF80.0
asg5
I0
sg6
(lp39
I71
aI-1
aI-1
aI108
aI-1
aI-1
asg8
(lp40
I27
aI-1
aI-1
aF-1.0
aF-1.0
aF-1.0
aI22
aI-1
aI-1
aF-1.0
aF-1.0
aF-1.0
asg10
(lp41
F0.005
aF0.001
aF0.002
asba(i__main__
sensor_data_struct
p42
(dp43
g3
(lp44
I558
aI325
aI209
aI1022
aI2658
aF178.0
aI1053
aI460
aI330
aI1662
aI2340
aF142.0
asg5
I1
sg6
(lp45
I8
aI-1
aI-1
aI54
aI-1
aI-1
asg8
(lp46
I36
aI-1
aI-1
aF-1.0
aF-1.0
aF-1.0
aI30
aI-1
aI-1
aF-1.0
aF-1.0
aF-1.0
asg10
(lp47
F0.012
aF0.004
aF0.013000000000000001
asba(i__main__
sensor_data_struct
p48
(dp49
g3
(lp50
I613
aI337
aI221
aI1089
aI2589
aF171.0
aI1210
aI511
aI372
aI1864
aI2287
aF141.0
asg5
I0
sg6
(lp51
I14
aI-1
aI-1
aI85
aI-1
aI-1
asg8
(lp52
I35
aI-1
aI-1
aF-1.0
aF-1.0
aF-1.0
aI22
aI-1
aI-1
aF-1.0
aF-1.0
aF-1.0
asg10
(lp53
F0.009000000000000001
aF0.004
aF0.011000000000000001
asba(i__main__
sensor_data_struct
p54
(dp55
g3
(lp56
I790
aI399
aI269
aI1336
aI2478
aF176.0
aI879
aI385
aI276
aI1425
aI2406
aF120.0
asg5
I1
sg6
(lp57
I7
aI-1
aI-1
aI32
aI-1
aI-1
asg8
(lp58
I41
aI-1
aI-1
aF-1.0
aF-1.0
aF-1.0
aI35
aI-1
aI-1
aF-1.0
aF-1.0
aF-1.0
asg10
(lp59
F0.008
aF0.006999999999999999
aF0.015
asba(i__main__
sensor_data_struct
p60
(dp61
g3
(lp62
I580
aI334
aI215
aI1052
aI2635
aF181.0
aI986
aI481
aI329
aI1602
aI2385
aF198.0
asg5
I1
sg6
(lp63
I14
aI-1
aI-1
aI68
aI-1
aI-1
asg8
(lp64
I33
aI-1
aI-1
aF-1.0
aF-1.0
aF-1.0
aI23
aI-1
aI-1
aF-1.0
aF-1.0
aF-1.0
asg10
(lp65
F0.006999999999999999
aF-0.003
aF0.013999999999999999
asba(i__main__
sensor_data_struct
p66
(dp67
g3
(lp68
I655
aI366
aI236
aI1164
aI2579
aF192.0
aI900
aI410
aI298
aI1439
aI2390
aF136.0
asg5
I0
sg6
(lp69
I64
aI-1
aI-1
aI101
aI-1
aI-1
asg8
(lp70
I29
aI-1
aI-1
aF-1.0
aF-1.0
aF-1.0
aI22
aI-1
aI-1
aF-1.0
aF-1.0
aF-1.0
asg10
(lp71
F0.006
aF-0.002
aF0.009000000000000001
asba(i__main__
sensor_data_struct
p72
(dp73
g3
(lp74
I584
aI335
aI216
aI1055
aI2623
aF181.0
aI826
aI412
aI300
aI1335
aI2436
aF162.0
asg5
I0
sg6
(lp75
I300
aI-1
aI-1
aI117
aI-1
aI-1
asg8
(lp76
I29
aI-1
aI-1
aF-1.0
aF-1.0
aF-1.0
aI24
aI-1
aI-1
aF-1.0
aF-1.0
aF-1.0
asg10
(lp77
F0.002
aF-0.006
aF0.003
asba(i__main__
sensor_data_struct
p78
(dp79
g3
(lp80
I574
aI334
aI216
aI1036
aI2627
aF182.0
aI848
aI451
aI295
aI1438
aI2464
aF220.0
asg5
I1
sg6
(lp81
I12
aI-1
aI-1
aI34
aI-1
aI-1
asg8
(lp82
I40
aI-1
aI-1
aF-1.0
aF-1.0
aF-1.0
aI29
aI-1
aI-1
aF-1.0
aF-1.0
aF-1.0
asg10
(lp83
F-0.012
aF-0.001
aF0.012
asba(i__main__
sensor_data_struct
p84
(dp85
g3
(lp86
I598
aI347
aI223
aI1081
aI2626
aF190.0
aI765
aI397
aI276
aI1277
aI2481
aF176.0
asg5
I1
sg6
(lp87
I34
aI-1
aI-1
aI79
aI-1
aI-1
asg8
(lp88
I31
aI-1
aI-1
aF-1.0
aF-1.0
aF-1.0
aI22
aI-1
aI-1
aF-1.0
aF-1.0
aF-1.0
asg10
(lp89
F-0.005
aF-0.006
aF0.01
asba(i__main__
sensor_data_struct
p90
(dp91
g3
(lp92
I572
aI333
aI213
aI1042
aI2639
aF183.0
aI791
aI427
aI274
aI1361
aI2487
aF216.0
asg5
I1
sg6
(lp93
I5
aI-1
aI-1
aI38
aI-1
aI-1
asg8
(lp94
I46
aI-1
aI-1
aF-1.0
aF-1.0
aF-1.0
aI31
aI-1
aI-1
aF-1.0
aF-1.0
aF-1.0
asg10
(lp95
F0.001
aF-0.013000000000000001
aF0.015
asba(i__main__
sensor_data_struct
p96
(dp97
g3
(lp98
I658
aI372
aI235
aI1179
aI2580
aF201.0
aI690
aI368
aI254
aI1173
aI2526
aF170.0
asg5
I1
sg6
(lp99
I49
aI-1
aI-1
aI72
aI-1
aI-1
asg8
(lp100
I31
aI-1
aI-1
aF-1.0
aF-1.0
aF-1.0
aI24
aI-1
aI-1
aF-1.0
aF-1.0
aF-1.0
asg10
(lp101
F-0.001
aF-0.006999999999999999
aF0.013000000000000001
asba(i__main__
sensor_data_struct
p102
(dp103
g3
(lp104
I612
aI347
aI227
aI1091
aI2604
aF182.0
aI1512
aI486
aI407
aI2169
aI2180
aF65515.0
asg5
I0
sg6
(lp105
I57
aI-1
aI-1
aI104
aI-1
aI-1
asg8
(lp106
I23
aI-1
aI-1
aF-1.0
aF-1.0
aF-1.0
aI22
aI-1
aI-1
aF-1.0
aF-1.0
aF-1.0
asg10
(lp107
F0.002
aF0.002
aF0.0
asba(i__main__
sensor_data_struct
p108
(dp109
g3
(lp110
I605
aI344
aI226
aI1078
aI2608
aF181.0
aI1062
aI473
aI346
aI1663
aI2338
aF148.0
asg5
I0
sg6
(lp111
I48
aI-1
aI-1
aI94
aI-1
aI-1
asg8
(lp112
I16
aI-1
aI-1
aF-1.0
aF-1.0
aF-1.0
aI20
aI-1
aI-1
aF-1.0
aF-1.0
aF-1.0
asg10
(lp113
F-0.004
aF0.002
aF0.009000000000000001
asba(i__main__
sensor_data_struct
p114
(dp115
g3
(lp116
I680
aI361
aI246
aI1168
aI2538
aF168.0
aI1260
aI472
aI364
aI1885
aI2245
aF69.0
asg5
I0
sg6
(lp117
I49
aI-1
aI-1
aI102
aI-1
aI-1
asg8
(lp118
I16
aI-1
aI-1
aF-1.0
aF-1.0
aF-1.0
aI21
aI-1
aI-1
aF-1.0
aF-1.0
aF-1.0
asg10
(lp119
F-0.002
aF0.002
aF0.0
asba(i__main__
sensor_data_struct
p120
(dp121
g3
(lp122
I633
aI352
aI234
aI1115
aI2584
aF178.0
aI956
aI408
aI308
aI1484
aI2336
aF108.0
asg5
I0
sg6
(lp123
I69
aI-1
aI-1
aI110
aI-1
aI-1
asg8
(lp124
I16
aI-1
aI-1
aF-1.0
aF-1.0
aF-1.0
aI23
aI-1
aI-1
aF-1.0
aF-1.0
aF-1.0
asg10
(lp125
F-0.003
aF0.0
aF0.004
asba(i__main__
sensor_data_struct
p126
(dp127
g3
(lp128
I579
aI331
aI214
aI1046
aI2625
aF177.0
aI1033
aI494
aI342
aI1659
aI2364
aF194.0
asg5
I1
sg6
(lp129
I17
aI-1
aI-1
aI80
aI-1
aI-1
asg8
(lp130
I37
aI-1
aI-1
aF-1.0
aF-1.0
aF-1.0
aI22
aI-1
aI-1
aF-1.0
aF-1.0
aF-1.0
asg10
(lp131
F0.006999999999999999
aF-0.006
aF0.012
asba(i__main__
sensor_data_struct
p132
(dp133
g3
(lp134
I627
aI350
aI233
aI1105
aI2590
aF178.0
aI1203
aI510
aI375
aI1857
aI2301
aF139.0
asg5
I0
sg6
(lp135
I32
aI-1
aI-1
aI89
aI-1
aI-1
asg8
(lp136
I31
aI-1
aI-1
aF-1.0
aF-1.0
aF-1.0
aI20
aI-1
aI-1
aF-1.0
aF-1.0
aF-1.0
asg10
(lp137
F-0.002
aF0.005
aF0.01
asba(i__main__
sensor_data_struct
p138
(dp139
g3
(lp140
I595
aI344
aI224
aI1071
aI2626
aF185.0
aI610
aI340
aI224
aI1080
aI2588
aF174.0
asg5
I1
sg6
(lp141
I7
aI-1
aI-1
aI43
aI-1
aI-1
asg8
(lp142
I46
aI-1
aI-1
aF-1.0
aF-1.0
aF-1.0
aI33
aI-1
aI-1
aF-1.0
aF-1.0
aF-1.0
asg10
(lp143
F0.004
aF-0.011000000000000001
aF0.015
asba(i__main__
sensor_data_struct
p144
(dp145
g3
(lp146
I580
aI338
aI217
aI1051
aI2630
aF186.0
aI764
aI388
aI272
aI1280
aI2492
aF165.0
asg5
I1
sg6
(lp147
I25
aI-1
aI-1
aI64
aI-1
aI-1
asg8
(lp148
I43
aI-1
aI-1
aF-1.0
aF-1.0
aF-1.0
aI25
aI-1
aI-1
aF-1.0
aF-1.0
aF-1.0
asg10
(lp149
F-0.006999999999999999
aF0.004
aF0.013999999999999999
asba(i__main__
sensor_data_struct
p150
(dp151
g3
(lp152
I563
aI330
aI212
aI1030
aI2658
aF182.0
aI769
aI396
aI267
aI1299
aI2480
aF179.0
asg5
I1
sg6
(lp153
I10
aI-1
aI-1
aI62
aI-1
aI-1
asg8
(lp154
I35
aI-1
aI-1
aF-1.0
aF-1.0
aF-1.0
aI25
aI-1
aI-1
aF-1.0
aF-1.0
aF-1.0
asg10
(lp155
F0.009000000000000001
aF-0.004
aF0.015
asba(i__main__
sensor_data_struct
p156
(dp157
g3
(lp158
I586
aI338
aI216
aI1066
aI2633
aF185.0
aI990
aI457
aI322
aI1584
aI2366
aF164.0
asg5
I0
sg6
(lp159
I17
aI-1
aI-1
aI75
aI-1
aI-1
asg8
(lp160
I30
aI-1
aI-1
aF-1.0
aF-1.0
aF-1.0
aI21
aI-1
aI-1
aF-1.0
aF-1.0
aF-1.0
asg10
(lp161
F0.011000000000000001
aF0.0
aF0.012
asba(i__main__
sensor_data_struct
p162
(dp163
g3
(lp164
I609
aI345
aI227
aI1082
aI2602
aF180.0
aI1008
aI430
aI321
aI1564
aI2327
aF116.0
asg5
I0
sg6
(lp165
I82
aI-1
aI-1
aI109
aI-1
aI-1
asg8
(lp166
I19
aI-1
aI-1
aF-1.0
aF-1.0
aF-1.0
aI24
aI-1
aI-1
aF-1.0
aF-1.0
aF-1.0
asg10
(lp167
F-0.003
aF-0.001
aF0.003
asba(i__main__
sensor_data_struct
p168
(dp169
g3
(lp170
I658
aI361
aI244
aI1152
aI2585
aF177.0
aI1151
aI522
aI371
aI1814
aI2332
aF178.0
asg5
I0
sg6
(lp171
I24
aI-1
aI-1
aI71
aI-1
aI-1
asg8
(lp172
I42
aI-1
aI-1
aF-1.0
aF-1.0
aF-1.0
aI21
aI-1
aI-1
aF-1.0
aF-1.0
aF-1.0
asg10
(lp173
F-0.002
aF0.009000000000000001
aF0.012
asba(i__main__
sensor_data_struct
p174
(dp175
g3
(lp176
I594
aI342
aI222
aI1067
aI2619
aF184.0
aI903
aI432
aI311
aI1447
aI2395
aF161.0
asg5
I0
sg6
(lp177
I49
aI-1
aI-1
aI101
aI-1
aI-1
asg8
(lp178
I17
aI-1
aI-1
aF-1.0
aF-1.0
aF-1.0
aI21
aI-1
aI-1
aF-1.0
aF-1.0
aF-1.0
asg10
(lp179
F-0.006
aF-0.004
aF0.006999999999999999
asba(i__main__
sensor_data_struct
p180
(dp181
g3
(lp182
I606
aI344
aI225
aI1080
aI2604
aF181.0
aI1148
aI483
aI360
aI1764
aI2300
aF126.0
asg5
I0
sg6
(lp183
I50
aI-1
aI-1
aI93
aI-1
aI-1
asg8
(lp184
I21
aI-1
aI-1
aF-1.0
aF-1.0
aF-1.0
aI21
aI-1
aI-1
aF-1.0
aF-1.0
aF-1.0
asg10
(lp185
F-0.001
aF0.003
aF0.009000000000000001
asba(i__main__
sensor_data_struct
p186
(dp187
g3
(lp188
I589
aI339
aI220
aI1062
aI2626
aF182.0
aI992
aI434
aI323
aI1548
aI2343
aF126.0
asg5
I0
sg6
(lp189
I166
aI-1
aI-1
aI113
aI-1
aI-1
asg8
(lp190
I27
aI-1
aI-1
aF-1.0
aF-1.0
aF-1.0
aI21
aI-1
aI-1
aF-1.0
aF-1.0
aF-1.0
asg10
(lp191
F0.002
aF-0.003
aF0.004
asba(i__main__
sensor_data_struct
p192
(dp193
g3
(lp194
I609
aI344
aI224
aI1088
aI2604
aF181.0
aI921
aI405
aI291
aI1475
aI2377
aF127.0
asg5
I1
sg6
(lp195
I9
aI-1
aI-1
aI59
aI-1
aI-1
asg8
(lp196
I36
aI-1
aI-1
aF-1.0
aF-1.0
aF-1.0
aI29
aI-1
aI-1
aF-1.0
aF-1.0
aF-1.0
asg10
(lp197
F0.008
aF0.004
aF0.013999999999999999
asba(i__main__
sensor_data_struct
p198
(dp199
g3
(lp200
I587
aI340
aI219
aI1066
aI2637
aF185.0
aI1133
aI488
aI343
aI1810
aI2350
aF151.0
asg5
I1
sg6
(lp201
I7
aI-1
aI-1
aI33
aI-1
aI-1
asg8
(lp202
I46
aI-1
aI-1
aF-1.0
aF-1.0
aF-1.0
aI34
aI-1
aI-1
aF-1.0
aF-1.0
aF-1.0
asg10
(lp203
F0.006999999999999999
aF0.01
aF0.015
asba(i__main__
sensor_data_struct
p204
(dp205
g3
(lp206
I585
aI339
aI219
aI1060
aI2637
aF184.0
aI803
aI416
aI299
aI1314
aI2461
aF177.0
asg5
I1
sg6
(lp207
I206
aI-1
aI-1
aI291
aI-1
aI-1
asg8
(lp208
I35
aI-1
aI-1
aF-1.0
aF-1.0
aF-1.0
aI36
aI-1
aI-1
aF-1.0
aF-1.0
aF-1.0
asg10
(lp209
F0.002
aF-0.006999999999999999
aF0.004
asba(i__main__
sensor_data_struct
p210
(dp211
g3
(lp212
I601
aI344
aI224
aI1076
aI2612
aF183.0
aI1757
aI547
aI463
aI2505
aI2168
aF65491.0
asg5
I1
sg6
(lp213
I27
aI-1
aI-1
aI58
aI-1
aI-1
asg8
(lp214
I36
aI-1
aI-1
aF-1.0
aF-1.0
aF-1.0
aI30
aI-1
aI-1
aF-1.0
aF-1.0
aF-1.0
asg10
(lp215
F0.001
aF0.006
aF0.008
asba(i__main__
sensor_data_struct
p216
(dp217
g3
(lp218
I607
aI346
aI227
aI1082
aI2606
aF182.0
aI675
aI363
aI251
aI1151
aI2535
aF170.0
asg5
I0
sg6
(lp219
I21
aI-1
aI-1
aI77
aI-1
aI-1
asg8
(lp220
I22
aI-1
aI-1
aF-1.0
aF-1.0
aF-1.0
aI24
aI-1
aI-1
aF-1.0
aF-1.0
aF-1.0
asg10
(lp221
F-0.01
aF-0.004
aF0.011000000000000001
asba(i__main__
sensor_data_struct
p222
(dp223
g3
(lp224
I572
aI330
aI213
aI1036
aI2634
aF179.0
aI1139
aI455
aI345
aI1733
aI2280
aF95.0
asg5
I0
sg6
(lp225
I57
aI-1
aI-1
aI111
aI-1
aI-1
asg8
(lp226
I30
aI-1
aI-1
aF-1.0
aF-1.0
aF-1.0
aI20
aI-1
aI-1
aF-1.0
aF-1.0
aF-1.0
asg10
(lp227
F0.006999999999999999
aF0.0
aF0.006
asba(i__main__
sensor_data_struct
p228
(dp229
g3
(lp230
I604
aI336
aI220
aI1076
aI2597
aF173.0
aI1098
aI497
aI356
aI1721
aI2325
aF167.0
asg5
I0
sg6
(lp231
I64
aI-1
aI-1
aI104
aI-1
aI-1
asg8
(lp232
I33
aI-1
aI-1
aF-1.0
aF-1.0
aF-1.0
aI18
aI-1
aI-1
aF-1.0
aF-1.0
aF-1.0
asg10
(lp233
F0.006999999999999999
aF-0.005
aF0.008
asba(i__main__
sensor_data_struct
p234
(dp235
g3
(lp236
I584
aI334
aI216
aI1054
aI2623
aF179.0
aI952
aI465
aI320
aI1546
aI2391
aF190.0
asg5
I1
sg6
(lp237
I32
aI-1
aI-1
aI67
aI-1
aI-1
asg8
(lp238
I32
aI-1
aI-1
aF-1.0
aF-1.0
aF-1.0
aI26
aI-1
aI-1
aF-1.0
aF-1.0
aF-1.0
asg10
(lp239
F0.003
aF-0.003
aF0.013999999999999999
asba(i__main__
sensor_data_struct
p240
(dp241
g3
(lp242
I612
aI348
aI225
aI1098
aI2609
aF185.0
aI822
aI409
aI292
aI1338
aI2434
aF164.0
asg5
I0
sg6
(lp243
I79
aI-1
aI-1
aI95
aI-1
aI-1
asg8
(lp244
I23
aI-1
aI-1
aF-1.0
aF-1.0
aF-1.0
aI21
aI-1
aI-1
aF-1.0
aF-1.0
aF-1.0
asg10
(lp245
F-0.002
aF-0.005
aF0.009000000000000001
asba(i__main__
sensor_data_struct
p246
(dp247
g3
(lp248
I598
aI343
aI223
aI1074
aI2617
aF184.0
aI1002
aI437
aI325
aI1570
aI2350
aF126.0
asg5
I0
sg6
(lp249
I42
aI-1
aI-1
aI89
aI-1
aI-1
asg8
(lp250
I23
aI-1
aI-1
aF-1.0
aF-1.0
aF-1.0
aI20
aI-1
aI-1
aF-1.0
aF-1.0
aF-1.0
asg10
(lp251
F-0.003
aF0.003
aF0.01
asba(i__main__
sensor_data_struct
p252
(dp253
g3
(lp254
I599
aI344
aI223
aI1073
aI2610
aF185.0
aI912
aI442
aI312
aI1475
aI2402
aF173.0
asg5
I0
sg6
(lp255
I24
aI-1
aI-1
aI88
aI-1
aI-1
asg8
(lp256
I12
aI-1
aI-1
aF-1.0
aF-1.0
aF-1.0
aI22
aI-1
aI-1
aF-1.0
aF-1.0
aF-1.0
asg10
(lp257
F-0.009000000000000001
aF-0.002
aF0.009000000000000001
asba(i__main__
sensor_data_struct
p258
(dp259
g3
(lp260
I947
aI405
aI300
aI1497
aI2367
aF112.0
aI2966
aI753
aI712
aI4001
aI2079
aF65241.0
asg5
I1
sg6
(lp261
I24
aI-1
aI-1
aI47
aI-1
aI-1
asg8
(lp262
I36
aI-1
aI-1
aF-1.0
aF-1.0
aF-1.0
aI34
aI-1
aI-1
aF-1.0
aF-1.0
aF-1.0
asg10
(lp263
F0.003
aF0.006
aF0.004
asba(i__main__
sensor_data_struct
p264
(dp265
g3
(lp266
I596
aI339
aI221
aI1066
aI2607
aF179.0
aI784
aI390
aI282
aI1278
aI2449
aF154.0
asg5
I0
sg6
(lp267
I131
aI-1
aI-1
aI108
aI-1
aI-1
asg8
(lp268
I28
aI-1
aI-1
aF-1.0
aF-1.0
aF-1.0
aI21
aI-1
aI-1
aF-1.0
aF-1.0
aF-1.0
asg10
(lp269
F0.003
aF-0.005
aF0.006999999999999999
asba(i__main__
sensor_data_struct
p270
(dp271
g3
(lp272
I588
aI337
aI220
aI1054
aI2618
aF179.0
aI937
aI459
aI319
aI1521
aI2397
aF186.0
asg5
I1
sg6
(lp273
I28
aI-1
aI-1
aI69
aI-1
aI-1
asg8
(lp274
I23
aI-1
aI-1
aF-1.0
aF-1.0
aF-1.0
aI21
aI-1
aI-1
aF-1.0
aF-1.0
aF-1.0
asg10
(lp275
F-0.006999999999999999
aF-0.001
aF0.013000000000000001
asba(i__main__
sensor_data_struct
p276
(dp277
g3
(lp278
I563
aI329
aI210
aI1028
aI2644
aF182.0
aI728
aI391
aI255
aI1257
aI2511
aF194.0
asg5
I1
sg6
(lp279
I12
aI-1
aI-1
aI37
aI-1
aI-1
asg8
(lp280
I44
aI-1
aI-1
aF-1.0
aF-1.0
aF-1.0
aI34
aI-1
aI-1
aF-1.0
aF-1.0
aF-1.0
asg10
(lp281
F0.006
aF-0.008
aF0.015
asba(i__main__
sensor_data_struct
p282
(dp283
g3
(lp284
I591
aI341
aI218
aI1074
aI2631
aF186.0
aI1484
aI487
aI403
aI2139
aI2188
aF65528.0
asg5
I0
sg6
(lp285
I36
aI-1
aI-1
aI106
aI-1
aI-1
asg8
(lp286
I28
aI-1
aI-1
aF-1.0
aF-1.0
aF-1.0
aI21
aI-1
aI-1
aF-1.0
aF-1.0
aF-1.0
asg10
(lp287
F0.006999999999999999
aF0.003
aF0.006
asba(i__main__
sensor_data_struct
p288
(dp289
g3
(lp290
I555
aI326
aI208
aI1018
aI2658
aF182.0
aI830
aI457
aI284
aI1438
aI2478
aF243.0
asg5
I1
sg6
(lp291
I2
aI-1
aI-1
aI24
aI-1
aI-1
asg8
(lp292
I47
aI-1
aI-1
aF-1.0
aF-1.0
aF-1.0
aI45
aI-1
aI-1
aF-1.0
aF-1.0
aF-1.0
asg10
(lp293
F0.012
aF0.002
aF0.013999999999999999
asba(i__main__
sensor_data_struct
p294
(dp295
g3
(lp296
I583
aI336
aI220
aI1048
aI2630
aF180.0
aI984
aI484
aI331
aI1599
aI2386
aF202.0
asg5
I1
sg6
(lp297
I14
aI-1
aI-1
aI64
aI-1
aI-1
asg8
(lp298
I48
aI-1
aI-1
aF-1.0
aF-1.0
aF-1.0
aI23
aI-1
aI-1
aF-1.0
aF-1.0
aF-1.0
asg10
(lp299
F-0.01
aF-0.004
aF0.013999999999999999
asba(i__main__
sensor_data_struct
p300
(dp301
g3
(lp302
I567
aI333
aI214
aI1032
aI2644
aF184.0
aI954
aI394
aI291
aI1498
aI2343
aF99.0
asg5
I1
sg6
(lp303
I11
aI-1
aI-1
aI65
aI-1
aI-1
asg8
(lp304
I38
aI-1
aI-1
aF-1.0
aF-1.0
aF-1.0
aI27
aI-1
aI-1
aF-1.0
aF-1.0
aF-1.0
asg10
(lp305
F0.011000000000000001
aF0.004
aF0.012
asba(i__main__
sensor_data_struct
p306
(dp307
g3
(lp308
I600
aI346
aI224
aI1081
aI2624
aF187.0
aI925
aI428
aI315
aI1466
aI2380
aF144.0
asg5
I0
sg6
(lp309
I193
aI-1
aI-1
aI115
aI-1
aI-1
asg8
(lp310
I27
aI-1
aI-1
aF-1.0
aF-1.0
aF-1.0
aI23
aI-1
aI-1
aF-1.0
aF-1.0
aF-1.0
asg10
(lp311
F0.002
aF-0.004
aF0.004
asba(i__main__
sensor_data_struct
p312
(dp313
g3
(lp314
I781
aI380
aI267
aI1293
aI2458
aF150.0
aI1565
aI542
aI429
aI2280
aI2189
aF33.0
asg5
I0
sg6
(lp315
I44
aI-1
aI-1
aI111
aI-1
aI-1
asg8
(lp316
I27
aI-1
aI-1
aF-1.0
aF-1.0
aF-1.0
aI25
aI-1
aI-1
aF-1.0
aF-1.0
aF-1.0
asg10
(lp317
F0.001
aF0.004
aF0.004
asba(i__main__
sensor_data_struct
p318
(dp319
g3
(lp320
I637
aI359
aI236
aI1130
aI2593
aF187.0
aI799
aI396
aI278
aI1327
aI2466
aF162.0
asg5
I1
sg6
(lp321
I22
aI-1
aI-1
aI61
aI-1
aI-1
asg8
(lp322
I45
aI-1
aI-1
aF-1.0
aF-1.0
aF-1.0
aI25
aI-1
aI-1
aF-1.0
aF-1.0
aF-1.0
asg10
(lp323
F-0.006999999999999999
aF0.009000000000000001
aF0.013999999999999999
asba(i__main__
sensor_data_struct
p324
(dp325
g3
(lp326
I623
aI349
aI230
aI1105
aI2596
aF180.0
aI1154
aI491
aI363
aI1777
aI2300
aF134.0
asg5
I0
sg6
(lp327
I68
aI-1
aI-1
aI95
aI-1
aI-1
asg8
(lp328
I24
aI-1
aI-1
aF-1.0
aF-1.0
aF-1.0
aI21
aI-1
aI-1
aF-1.0
aF-1.0
aF-1.0
asg10
(lp329
F0.003
aF0.002
aF0.009000000000000001
asba(i__main__
sensor_data_struct
p330
(dp331
g3
(lp332
I606
aI352
aI230
aI1088
aI2624
aF190.0
aI1293
aI498
aI382
aI1962
aI2279
aF86.0
asg5
I1
sg6
(lp333
I23
aI-1
aI-1
aI66
aI-1
aI-1
asg8
(lp334
I41
aI-1
aI-1
aF-1.0
aF-1.0
aF-1.0
aI25
aI-1
aI-1
aF-1.0
aF-1.0
aF-1.0
asg10
(lp335
F-0.002
aF0.011000000000000001
aF0.011000000000000001
asba(i__main__
sensor_data_struct
p336
(dp337
g3
(lp338
I578
aI338
aI218
aI1049
aI2642
aF186.0
aI1039
aI421
aI320
aI1598
aI2311
aF92.0
asg5
I0
sg6
(lp339
I57
aI-1
aI-1
aI125
aI-1
aI-1
asg8
(lp340
I28
aI-1
aI-1
aF-1.0
aF-1.0
aF-1.0
aI23
aI-1
aI-1
aF-1.0
aF-1.0
aF-1.0
asg10
(lp341
F0.005
aF0.001
aF0.006999999999999999
asba(i__main__
sensor_data_struct
p342
(dp343
g3
(lp344
I599
aI346
aI225
aI1075
aI2619
aF186.0
aI936
aI409
aI300
aI1475
aI2353
aF122.0
asg5
I0
sg6
(lp345
I38
aI-1
aI-1
aI105
aI-1
aI-1
asg8
(lp346
I14
aI-1
aI-1
aF-1.0
aF-1.0
aF-1.0
aI23
aI-1
aI-1
aF-1.0
aF-1.0
aF-1.0
asg10
(lp347
F-0.006
aF0.003
aF0.003
asba(i__main__
sensor_data_struct
p348
(dp349
g3
(lp350
I648
aI355
aI239
aI1127
aI2564
aF175.0
aI1190
aI513
aI376
aI1830
aI2291
aF148.0
asg5
I0
sg6
(lp351
I144
aI-1
aI-1
aI112
aI-1
aI-1
asg8
(lp352
I29
aI-1
aI-1
aF-1.0
aF-1.0
aF-1.0
aI22
aI-1
aI-1
aF-1.0
aF-1.0
aF-1.0
asg10
(lp353
F0.002
aF-0.004
aF0.006
asba(i__main__
sensor_data_struct
p354
(dp355
g3
(lp356
I611
aI346
aI226
aI1092
aI2609
aF182.0
aI1654
aI529
aI442
aI2363
aI2169
aF65511.0
asg5
I0
sg6
(lp357
I36
aI-1
aI-1
aI110
aI-1
aI-1
asg8
(lp358
I28
aI-1
aI-1
aF-1.0
aF-1.0
aF-1.0
aI26
aI-1
aI-1
aF-1.0
aF-1.0
aF-1.0
asg10
(lp359
F0.005
aF0.003
aF0.004
asba(i__main__
sensor_data_struct
p360
(dp361
g3
(lp362
I607
aI346
aI224
aI1091
aI2613
aF185.0
aI709
aI362
aI249
aI1202
aI2504
aF158.0
asg5
I1
sg6
(lp363
I13
aI-1
aI-1
aI79
aI-1
aI-1
asg8
(lp364
I33
aI-1
aI-1
aF-1.0
aF-1.0
aF-1.0
aI22
aI-1
aI-1
aF-1.0
aF-1.0
aF-1.0
asg10
(lp365
F0.011000000000000001
aF-0.004
aF0.012
asba(i__main__
sensor_data_struct
p366
(dp367
g3
(lp368
I584
aI342
aI220
aI1058
aI2632
aF189.0
aI838
aI398
aI286
aI1368
aI2437
aF146.0
asg5
I1
sg6
(lp369
I26
aI-1
aI-1
aI75
aI-1
aI-1
asg8
(lp370
I33
aI-1
aI-1
aF-1.0
aF-1.0
aF-1.0
aI22
aI-1
aI-1
aF-1.0
aF-1.0
aF-1.0
asg10
(lp371
F-0.008
aF0.006999999999999999
aF0.011000000000000001
asba(i__main__
sensor_data_struct
p372
(dp373
g3
(lp374
I592
aI345
aI223
aI1070
aI2630
aF189.0
aI753
aI385
aI275
aI1247
aI2482
aF161.0
asg5
I0
sg6
(lp375
I70
aI-1
aI-1
aI88
aI-1
aI-1
asg8
(lp376
I28
aI-1
aI-1
aF-1.0
aF-1.0
aF-1.0
aI21
aI-1
aI-1
aF-1.0
aF-1.0
aF-1.0
asg10
(lp377
F0.0
aF-0.004
aF0.01
asba(i__main__
sensor_data_struct
p378
(dp379
g3
(lp380
I601
aI345
aI223
aI1083
aI2620
aF186.0
aI737
aI388
aI269
aI1236
aI2491
aF176.0
asg5
I1
sg6
(lp381
I32
aI-1
aI-1
aI79
aI-1
aI-1
asg8
(lp382
I26
aI-1
aI-1
aF-1.0
aF-1.0
aF-1.0
aI21
aI-1
aI-1
aF-1.0
aF-1.0
aF-1.0
asg10
(lp383
F-0.008
aF-0.008
aF0.011000000000000001
asba(i__main__
sensor_data_struct
p384
(dp385
g3
(lp386
I605
aI349
aI224
aI1089
aI2613
aF190.0
aI1102
aI438
aI340
aI1674
aI2294
aF84.0
asg5
I0
sg6
(lp387
I57
aI-1
aI-1
aI97
aI-1
aI-1
asg8
(lp388
I23
aI-1
aI-1
aF-1.0
aF-1.0
aF-1.0
aI20
aI-1
aI-1
aF-1.0
aF-1.0
aF-1.0
asg10
(lp389
F0.002
aF0.001
aF0.009000000000000001
asba(i__main__
sensor_data_struct
p390
(dp391
g3
(lp392
I627
aI352
aI232
aI1109
aI2588
aF182.0
aI1050
aI439
aI330
aI1617
aI2310
aF110.0
asg5
I0
sg6
(lp393
I137
aI-1
aI-1
aI105
aI-1
aI-1
asg8
(lp394
I22
aI-1
aI-1
aF-1.0
aF-1.0
aF-1.0
aI23
aI-1
aI-1
aF-1.0
aF-1.0
aF-1.0
asg10
(lp395
F-0.001
aF-0.002
aF0.002
asba(i__main__
sensor_data_struct
p396
(dp397
g3
(lp398
I624
aI353
aI231
aI1108
aI2592
aF185.0
aI800
aI407
aI286
aI1320
aI2458
aF173.0
asg5
I1
sg6
(lp399
I44
aI-1
aI-1
aI79
aI-1
aI-1
asg8
(lp400
I23
aI-1
aI-1
aF-1.0
aF-1.0
aF-1.0
aI21
aI-1
aI-1
aF-1.0
aF-1.0
aF-1.0
asg10
(lp401
F-0.005
aF-0.004
aF0.011000000000000001
asba(i__main__
sensor_data_struct
p402
(dp403
g3
(lp404
I614
aI352
aI228
aI1099
aI2607
aF189.0
aI920
aI408
aI298
aI1460
aI2369
aF127.0
asg5
I0
sg6
(lp405
I34
aI-1
aI-1
aI106
aI-1
aI-1
asg8
(lp406
I15
aI-1
aI-1
aF-1.0
aF-1.0
aF-1.0
aI23
aI-1
aI-1
aF-1.0
aF-1.0
aF-1.0
asg10
(lp407
F-0.006
aF0.003
aF0.005
asba(i__main__
sensor_data_struct
p408
(dp409
g3
(lp410
I584
aI342
aI221
aI1059
aI2639
aF188.0
aI1146
aI496
aI349
aI1817
aI2333
aF155.0
asg5
I1
sg6
(lp411
I10
aI-1
aI-1
aI34
aI-1
aI-1
asg8
(lp412
I43
aI-1
aI-1
aF-1.0
aF-1.0
aF-1.0
aI36
aI-1
aI-1
aF-1.0
aF-1.0
aF-1.0
asg10
(lp413
F0.006
aF0.009000000000000001
aF0.015
asba(i__main__
sensor_data_struct
p414
(dp415
g3
(lp416
I624
aI361
aI232
aI1124
aI2617
aF197.0
aI881
aI409
aI296
aI1427
aI2421
aF142.0
asg5
I1
sg6
(lp417
I25
aI-1
aI-1
aI73
aI-1
aI-1
asg8
(lp418
I38
aI-1
aI-1
aF-1.0
aF-1.0
aF-1.0
aI23
aI-1
aI-1
aF-1.0
aF-1.0
aF-1.0
asg10
(lp419
F-0.006
aF0.006999999999999999
aF0.012
asba(i__main__
sensor_data_struct
p420
(dp421
g3
(lp422
I622
aI353
aI232
aI1103
aI2594
aF185.0
aI1086
aI503
aI358
aI1714
aI2341
aF179.0
asg5
I0
sg6
(lp423
I21
aI-1
aI-1
aI85
aI-1
aI-1
asg8
(lp424
I21
aI-1
aI-1
aF-1.0
aF-1.0
aF-1.0
aI21
aI-1
aI-1
aF-1.0
aF-1.0
aF-1.0
asg10
(lp425
F-0.009000000000000001
aF-0.002
aF0.01
asba(i__main__
sensor_data_struct
p426
(dp427
g3
(lp428
I604
aI344
aI224
aI1084
aI2615
aF182.0
aI1456
aI520
aI409
aI2150
aI2221
aF48.0
asg5
I1
sg6
(lp429
I19
aI-1
aI-1
aI49
aI-1
aI-1
asg8
(lp430
I37
aI-1
aI-1
aF-1.0
aF-1.0
aF-1.0
aI35
aI-1
aI-1
aF-1.0
aF-1.0
aF-1.0
asg10
(lp431
F0.006
aF0.005
aF0.01
asba(i__main__
sensor_data_struct
p432
(dp433
g3
(lp434
I579
aI336
aI216
aI1050
aI2635
aF184.0
aI757
aI396
aI271
aI1270
aI2477
aF180.0
asg5
I1
sg6
(lp435
I29
aI-1
aI-1
aI79
aI-1
aI-1
asg8
(lp436
I44
aI-1
aI-1
aF-1.0
aF-1.0
aF-1.0
aI24
aI-1
aI-1
aF-1.0
aF-1.0
aF-1.0
asg10
(lp437
F-0.003
aF-0.009000000000000001
aF0.013000000000000001
asba(i__main__
sensor_data_struct
p438
(dp439
g3
(lp440
I617
aI352
aI227
aI1106
aI2603
aF189.0
aI852
aI432
aI297
aI1406
aI2436
aF187.0
asg5
I1
sg6
(lp441
I31
aI-1
aI-1
aI71
aI-1
aI-1
asg8
(lp442
I40
aI-1
aI-1
aF-1.0
aF-1.0
aF-1.0
aI25
aI-1
aI-1
aF-1.0
aF-1.0
aF-1.0
asg10
(lp443
F-0.004
aF-0.006999999999999999
aF0.013000000000000001
asba(i__main__
sensor_data_struct
p444
(dp445
g3
(lp446
I633
aI360
aI233
aI1129
aI2595
aF192.0
aI841
aI405
aI290
aI1372
aI2435
aF153.0
asg5
I0
sg6
(lp447
I25
aI-1
aI-1
aI92
aI-1
aI-1
asg8
(lp448
I13
aI-1
aI-1
aF-1.0
aF-1.0
aF-1.0
aI24
aI-1
aI-1
aF-1.0
aF-1.0
aF-1.0
asg10
(lp449
F-0.008
aF0.002
aF0.009000000000000001
asba(i__main__
sensor_data_struct
p450
(dp451
g3
(lp452
I617
aI354
aI231
aI1101
aI2607
aF189.0
aI1051
aI476
aI342
aI1666
aI2357
aF159.0
asg5
I1
sg6
(lp453
I26
aI-1
aI-1
aI73
aI-1
aI-1
asg8
(lp454
I38
aI-1
aI-1
aF-1.0
aF-1.0
aF-1.0
aI24
aI-1
aI-1
aF-1.0
aF-1.0
aF-1.0
asg10
(lp455
F-0.004
aF0.006
aF0.012
asba(i__main__
sensor_data_struct
p456
(dp457
g3
(lp458
I695
aI380
aI254
aI1211
aI2559
aF188.0
aI686
aI371
aI253
aI1176
aI2535
aF177.0
asg5
I1
sg6
(lp459
I16
aI-1
aI-1
aI36
aI-1
aI-1
asg8
(lp460
I39
aI-1
aI-1
aF-1.0
aF-1.0
aF-1.0
aI18
aI-1
aI-1
aF-1.0
aF-1.0
aF-1.0
asg10
(lp461
F-0.011000000000000001
aF-0.001
aF0.012
asba(i__main__
sensor_data_struct
p462
(dp463
g3
(lp464
I577
aI337
aI216
aI1050
aI2639
aF186.0
aI722
aI376
aI261
aI1218
aI2507
aF168.0
asg5
I1
sg6
(lp465
I82
aI-1
aI-1
aI113
aI-1
aI-1
asg8
(lp466
I35
aI-1
aI-1
aF-1.0
aF-1.0
aF-1.0
aI37
aI-1
aI-1
aF-1.0
aF-1.0
aF-1.0
asg10
(lp467
F0.004
aF-0.006999999999999999
aF0.009000000000000001
asba(i__main__
sensor_data_struct
p468
(dp469
g3
(lp470
I598
aI344
aI221
aI1080
aI2622
aF187.0
aI899
aI429
aI311
aI1440
aI2400
aF157.0
asg5
I0
sg6
(lp471
I71
aI-1
aI-1
aI89
aI-1
aI-1
asg8
(lp472
I21
aI-1
aI-1
aF-1.0
aF-1.0
aF-1.0
aI21
aI-1
aI-1
aF-1.0
aF-1.0
aF-1.0
asg10
(lp473
F0.0
aF-0.003
aF0.01
asba(i__main__
sensor_data_struct
p474
(dp475
g3
(lp476
I603
aI348
aI227
aI1083
aI2624
aF187.0
aI1179
aI466
aI354
aI1789
aI2274
aF93.0
asg5
I0
sg6
(lp477
I27
aI-1
aI-1
aI81
aI-1
aI-1
asg8
(lp478
I31
aI-1
aI-1
aF-1.0
aF-1.0
aF-1.0
aI22
aI-1
aI-1
aF-1.0
aF-1.0
aF-1.0
asg10
(lp479
F0.005
aF0.004
aF0.011000000000000001
asba(i__main__
sensor_data_struct
p480
(dp481
g3
(lp482
I618
aI357
aI231
aI1112
aI2618
aF193.0
aI1262
aI514
aI375
aI1967
aI2312
aF127.0
asg5
I1
sg6
(lp483
I14
aI-1
aI-1
aI35
aI-1
aI-1
asg8
(lp484
I48
aI-1
aI-1
aF-1.0
aF-1.0
aF-1.0
aI32
aI-1
aI-1
aF-1.0
aF-1.0
aF-1.0
asg10
(lp485
F0.002
aF0.011000000000000001
aF0.013999999999999999
asba(i__main__
sensor_data_struct
p486
(dp487
g3
(lp488
I598
aI343
aI220
aI1082
aI2624
aF186.0
aI1020
aI483
aI335
aI1641
aI2370
aF186.0
asg5
I1
sg6
(lp489
I12
aI-1
aI-1
aI67
aI-1
aI-1
asg8
(lp490
I30
aI-1
aI-1
aF-1.0
aF-1.0
aF-1.0
aI25
aI-1
aI-1
aF-1.0
aF-1.0
aF-1.0
asg10
(lp491
F0.008
aF0.002
aF0.013999999999999999
asba(i__main__
sensor_data_struct
p492
(dp493
g3
(lp494
I590
aI344
aI221
aI1068
aI2630
aF189.0
aI689
aI381
aI255
aI1197
aI2555
aF191.0
asg5
I1
sg6
(lp495
I14
aI-1
aI-1
aI33
aI-1
aI-1
asg8
(lp496
I49
aI-1
aI-1
aF-1.0
aF-1.0
aF-1.0
aI32
aI-1
aI-1
aF-1.0
aF-1.0
aF-1.0
asg10
(lp497
F-0.012
aF0.004
aF0.013999999999999999
asba(i__main__
sensor_data_struct
p498
(dp499
g3
(lp500
I617
aI357
aI230
aI1112
aI2618
aF194.0
aI672
aI363
aI247
aI1154
aI2537
aF173.0
asg5
I1
sg6
(lp501
I31
aI-1
aI-1
aI63
aI-1
aI-1
asg8
(lp502
I34
aI-1
aI-1
aF-1.0
aF-1.0
aF-1.0
aI25
aI-1
aI-1
aF-1.0
aF-1.0
aF-1.0
asg10
(lp503
F-0.001
aF-0.006
aF0.015
asba(i__main__
sensor_data_struct
p504
(dp505
g3
(lp506
I598
aI343
aI220
aI1081
aI2620
aF186.0
aI912
aI438
aI310
aI1473
aI2400
aF168.0
asg5
I0
sg6
(lp507
I92
aI-1
aI-1
aI100
aI-1
aI-1
asg8
(lp508
I35
aI-1
aI-1
aF-1.0
aF-1.0
aF-1.0
aI21
aI-1
aI-1
aF-1.0
aF-1.0
aF-1.0
asg10
(lp509
F0.004
aF-0.006
aF0.009000000000000001
asba(i__main__
sensor_data_struct
p510
(dp511
g3
(lp512
I591
aI341
aI218
aI1070
aI2621
aF186.0
aI702
aI374
aI258
aI1191
aI2520
aF173.0
asg5
I1
sg6
(lp513
I22
aI-1
aI-1
aI73
aI-1
aI-1
asg8
(lp514
I32
aI-1
aI-1
aF-1.0
aF-1.0
aF-1.0
aI23
aI-1
aI-1
aF-1.0
aF-1.0
aF-1.0
asg10
(lp515
F-0.008
aF-0.002
aF0.012
asba(i__main__
sensor_data_struct
p516
(dp517
g3
(lp518
I604
aI347
aI225
aI1084
aI2613
aF186.0
aI1066
aI436
aI334
aI1624
aI2295
aF97.0
asg5
I0
sg6
(lp519
I89
aI-1
aI-1
aI108
aI-1
aI-1
asg8
(lp520
I21
aI-1
aI-1
aF-1.0
aF-1.0
aF-1.0
aI20
aI-1
aI-1
aF-1.0
aF-1.0
aF-1.0
asg10
(lp521
F-0.001
aF0.0
aF0.005
asba(i__main__
sensor_data_struct
p522
(dp523
g3
(lp524
I854
aI418
aI292
aI1403
aI2434
aF168.0
aI758
aI382
aI268
aI1260
aI2471
aF160.0
asg5
I1
sg6
(lp525
I38
aI-1
aI-1
aI61
aI-1
aI-1
asg8
(lp526
I27
aI-1
aI-1
aF-1.0
aF-1.0
aF-1.0
aI25
aI-1
aI-1
aF-1.0
aF-1.0
aF-1.0
asg10
(lp527
F0.001
aF-0.001
aF0.015
asba(i__main__
sensor_data_struct
p528
(dp529
g3
(lp530
I625
aI357
aI231
aI1117
aI2599
aF191.0
aI1195
aI445
aI348
aI1795
aI2264
aF59.0
asg5
I0
sg6
(lp531
I47
aI-1
aI-1
aI107
aI-1
aI-1
asg8
(lp532
I17
aI-1
aI-1
aF-1.0
aF-1.0
aF-1.0
aI23
aI-1
aI-1
aF-1.0
aF-1.0
aF-1.0
asg10
(lp533
F-0.003
aF0.003
aF0.003
asba(i__main__
sensor_data_struct
p534
(dp535
g3
(lp536
I585
aI340
aI219
aI1060
aI2632
aF186.0
aI849
aI410
aI284
aI1393
aI2419
aF163.0
asg5
I1
sg6
(lp537
I15
aI-1
aI-1
aI65
aI-1
aI-1
asg8
(lp538
I32
aI-1
aI-1
aF-1.0
aF-1.0
aF-1.0
aI24
aI-1
aI-1
aF-1.0
aF-1.0
aF-1.0
asg10
(lp539
F0.006999999999999999
aF0.0
aF0.013999999999999999
asba(i__main__
sensor_data_struct
p540
(dp541
g3
(lp542
I636
aI353
aI234
aI1115
aI2569
aF179.0
aI976
aI422
aI312
aI1523
aI2335
aF120.0
asg5
I0
sg6
(lp543
I86
aI-1
aI-1
aI102
aI-1
aI-1
asg8
(lp544
I17
aI-1
aI-1
aF-1.0
aF-1.0
aF-1.0
aI21
aI-1
aI-1
aF-1.0
aF-1.0
aF-1.0
asg10
(lp545
F-0.003
aF-0.003
aF0.0
asba(i__main__
sensor_data_struct
p546
(dp547
g3
(lp548
I569
aI331
aI212
aI1038
aI2644
aF182.0
aI752
aI400
aI262
aI1291
aI2499
aF195.0
asg5
I1
sg6
(lp549
I14
aI-1
aI-1
aI38
aI-1
aI-1
asg8
(lp550
I42
aI-1
aI-1
aF-1.0
aF-1.0
aF-1.0
aI33
aI-1
aI-1
aF-1.0
aF-1.0
aF-1.0
asg10
(lp551
F0.006
aF-0.008
aF0.013000000000000001
asba(i__main__
sensor_data_struct
p552
(dp553
g3
(lp554
I597
aI342
aI219
aI1080
aI2620
aF185.0
aI838
aI403
aI292
aI1353
aI2419
aF150.0
asg5
I0
sg6
(lp555
I281
aI-1
aI-1
aI115
aI-1
aI-1
asg8
(lp556
I31
aI-1
aI-1
aF-1.0
aF-1.0
aF-1.0
aI22
aI-1
aI-1
aF-1.0
aF-1.0
aF-1.0
asg10
(lp557
F0.003
aF-0.005
aF0.002
asba(i__main__
sensor_data_struct
p558
(dp559
g3
(lp560
I603
aI343
aI222
aI1081
aI2608
aF183.0
aI979
aI422
aI321
aI1515
aI2339
aF113.0
asg5
I0
sg6
(lp561
I99
aI-1
aI-1
aI104
aI-1
aI-1
asg8
(lp562
I23
aI-1
aI-1
aF-1.0
aF-1.0
aF-1.0
aI23
aI-1
aI-1
aF-1.0
aF-1.0
aF-1.0
asg10
(lp563
F0.0
aF-0.001
aF0.006999999999999999
asba(i__main__
sensor_data_struct
p564
(dp565
g3
(lp566
I582
aI335
aI215
aI1053
aI2625
aF182.0
aI868
aI460
aI301
aI1462
aI2449
aF223.0
asg5
I1
sg6
(lp567
I32
aI-1
aI-1
aI54
aI-1
aI-1
asg8
(lp568
I44
aI-1
aI-1
aF-1.0
aF-1.0
aF-1.0
aI31
aI-1
aI-1
aF-1.0
aF-1.0
aF-1.0
asg10
(lp569
F0.0
aF-0.01
aF0.01
asba(i__main__
sensor_data_struct
p570
(dp571
g3
(lp572
I735
aI380
aI262
aI1242
aI2503
aF169.0
aI1402
aI505
aI396
aI2072
aI2222
aF52.0
asg5
I0
sg6
(lp573
I50
aI-1
aI-1
aI105
aI-1
aI-1
asg8
(lp574
I20
aI-1
aI-1
aF-1.0
aF-1.0
aF-1.0
aI23
aI-1
aI-1
aF-1.0
aF-1.0
aF-1.0
asg10
(lp575
F-0.001
aF0.002
aF0.001
asba(i__main__
sensor_data_struct
p576
(dp577
g3
(lp578
I585
aI343
aI222
aI1062
aI2644
aF188.0
aI1080
aI474
aI332
aI1736
aI2365
aF154.0
asg5
I1
sg6
(lp579
I6
aI-1
aI-1
aI35
aI-1
aI-1
asg8
(lp580
I46
aI-1
aI-1
aF-1.0
aF-1.0
aF-1.0
aI32
aI-1
aI-1
aF-1.0
aF-1.0
aF-1.0
asg10
(lp581
F0.009000000000000001
aF0.008
aF0.013999999999999999
asba(i__main__
sensor_data_struct
p582
(dp583
g3
(lp584
I608
aI353
aI229
aI1093
aI2622
aF192.0
aI897
aI448
aI313
aI1466
aI2423
aF186.0
asg5
I1
sg6
(lp585
I26
aI-1
aI-1
aI72
aI-1
aI-1
asg8
(lp586
I30
aI-1
aI-1
aF-1.0
aF-1.0
aF-1.0
aI22
aI-1
aI-1
aF-1.0
aF-1.0
aF-1.0
asg10
(lp587
F-0.006999999999999999
aF-0.003
aF0.012
asba(i__main__
sensor_data_struct
p588
(dp589
g3
(lp590
I655
aI371
aI244
aI1159
aI2591
aF194.0
aI738
aI391
aI271
aI1252
aI2521
aF179.0
asg5
I1
sg6
(lp591
I20
aI-1
aI-1
aI47
aI-1
aI-1
asg8
(lp592
I40
aI-1
aI-1
aF-1.0
aF-1.0
aF-1.0
aI16
aI-1
aI-1
aF-1.0
aF-1.0
aF-1.0
asg10
(lp593
F-0.01
aF0.004
aF0.012
asba(i__main__
sensor_data_struct
p594
(dp595
g3
(lp596
I702
aI392
aI259
aI1229
aI2563
aF201.0
aI714
aI387
aI263
aI1223
aI2532
aF186.0
asg5
I1
sg6
(lp597
I22
aI-1
aI-1
aI59
aI-1
aI-1
asg8
(lp598
I42
aI-1
aI-1
aF-1.0
aF-1.0
aF-1.0
aI27
aI-1
aI-1
aF-1.0
aF-1.0
aF-1.0
asg10
(lp599
F-0.009000000000000001
aF-0.001
aF0.015
asba(i__main__
sensor_data_struct
p600
(dp601
g3
(lp602
I604
aI354
aI231
aI1087
aI2631
aF193.0
aI1050
aI478
aI342
aI1673
aI2367
aF163.0
asg5
I1
sg6
(lp603
I18
aI-1
aI-1
aI47
aI-1
aI-1
asg8
(lp604
I46
aI-1
aI-1
aF-1.0
aF-1.0
aF-1.0
aI33
aI-1
aI-1
aF-1.0
aF-1.0
aF-1.0
asg10
(lp605
F0.001
aF0.009000000000000001
aF0.015
asba.