(lp0
(i__main__
sensor_data_struct
p1
(dp2
S'color'
p3
(lp4
I536
aI311
aI191
aI989
aI2633
aF177.0
aI850
aI391
aI276
aI1377
aI2397
aF139.0
asS'button'
p5
I1
sS'IR'
p6
(lp7
I35
aI-1
aI-1
aI67
aI-1
aI-1
asS'TOF'
p8
(lp9
I27
aI-1
aI-1
aF-1.0
aF-1.0
aF-1.0
aI24
aI-1
aI-1
aF-1.0
aF-1.0
aF-1.0
asS'pt'
p10
(lp11
F0.003
aF0.002
aF0.013999999999999999
asba(i__main__
sensor_data_struct
p12
(dp13
g3
(lp14
I576
aI324
aI200
aI1050
aI2601
aF178.0
aI939
aI451
aI301
aI1536
aI2381
aF186.0
asg5
I1
sg6
(lp15
I14
aI-1
aI-1
aI65
aI-1
aI-1
asg8
(lp16
I44
aI-1
aI-1
aF-1.0
aF-1.0
aF-1.0
aI25
aI-1
aI-1
aF-1.0
aF-1.0
aF-1.0
asg10
(lp17
F0.006999999999999999
aF-0.005
aF0.013999999999999999
asba(i__main__
sensor_data_struct
p18
(dp19
g3
(lp20
I591
aI333
aI206
aI1073
aI2595
aF182.0
aI785
aI387
aI269
aI1293
aI2435
aF159.0
asg5
I0
sg6
(lp21
I43
aI-1
aI-1
aI99
aI-1
aI-1
asg8
(lp22
I18
aI-1
aI-1
aF-1.0
aF-1.0
aF-1.0
aI25
aI-1
aI-1
aF-1.0
aF-1.0
aF-1.0
asg10
(lp23
F-0.004
aF-0.003
aF0.006999999999999999
asba(i__main__
sensor_data_struct
p24
(dp25
g3
(lp26
I608
aI338
aI212
aI1092
aI2577
aF180.0
aI837
aI383
aI273
aI1352
aI2399
aF132.0
asg5
I0
sg6
(lp27
I94
aI-1
aI-1
aI106
aI-1
aI-1
asg8
(lp28
I22
aI-1
aI-1
aF-1.0
aF-1.0
aF-1.0
aI25
aI-1
aI-1
aF-1.0
aF-1.0
aF-1.0
asg10
(lp29
F-0.002
aF-0.004
aF0.001
asba(i__main__
sensor_data_struct
p30
(dp31
g3
(lp32
I608
aI337
aI213
aI1087
aI2574
aF178.0
aI1460
aI484
aI386
aI2138
aI2201
aF7.0
asg5
I0
sg6
(lp33
I34
aI-1
aI-1
aI96
aI-1
aI-1
asg8
(lp34
I29
aI-1
aI-1
aF-1.0
aF-1.0
aF-1.0
aI24
aI-1
aI-1
aF-1.0
aF-1.0
aF-1.0
asg10
(lp35
F0.0
aF0.006
aF0.006999999999999999
asba(i__main__
sensor_data_struct
p36
(dp37
g3
(lp38
I623
aI342
aI218
aI1106
aI2563
aF177.0
aI1135
aI424
aI320
aI1724
aI2266
aF66.0
asg5
I0
sg6
(lp39
I38
aI-1
aI-1
aI95
aI-1
aI-1
asg8
(lp40
I20
aI-1
aI-1
aF-1.0
aF-1.0
aF-1.0
aI24
aI-1
aI-1
aF-1.0
aF-1.0
aF-1.0
asg10
(lp41
F-0.003
aF0.004
aF0.002
asba(i__main__
sensor_data_struct
p42
(dp43
g3
(lp44
I685
aI356
aI233
aI1186
aI2514
aF168.0
aI1106
aI419
aI315
aI1700
aI2292
aF71.0
asg5
I1
sg6
(lp45
I24
aI-1
aI-1
aI38
aI-1
aI-1
asg8
(lp46
I38
aI-1
aI-1
aF-1.0
aF-1.0
aF-1.0
aI35
aI-1
aI-1
aF-1.0
aF-1.0
aF-1.0
asg10
(lp47
F0.004
aF0.006999999999999999
aF0.013000000000000001
asba(i__main__
sensor_data_struct
p48
(dp49
g3
(lp50
I639
aI353
aI222
aI1140
aI2561
aF187.0
aI1020
aI413
aI303
aI1590
aI2316
aF98.0
asg5
I0
sg6
(lp51
I30
aI-1
aI-1
aI88
aI-1
aI-1
asg8
(lp52
I25
aI-1
aI-1
aF-1.0
aF-1.0
aF-1.0
aI27
aI-1
aI-1
aF-1.0
aF-1.0
aF-1.0
asg10
(lp53
F-0.005
aF0.006
aF0.008
asba(i__main__
sensor_data_struct
p54
(dp55
g3
(lp56
I615
aI341
aI215
aI1099
aI2568
aF181.0
aI1000
aI439
aI312
aI1583
aI2339
aF139.0
asg5
I0
sg6
(lp57
I38
aI-1
aI-1
aI77
aI-1
aI-1
asg8
(lp58
I24
aI-1
aI-1
aF-1.0
aF-1.0
aF-1.0
aI22
aI-1
aI-1
aF-1.0
aF-1.0
aF-1.0
asg10
(lp59
F-0.003
aF0.003
aF0.011000000000000001
asba(i__main__
sensor_data_struct
p60
(dp61
g3
(lp62
I571
aI323
aI199
aI1043
aI2605
aF178.0
aI1002
aI424
aI307
aI1576
aI2335
aF119.0
asg5
I0
sg6
(lp63
I77
aI-1
aI-1
aI109
aI-1
aI-1
asg8
(lp64
I30
aI-1
aI-1
aF-1.0
aF-1.0
aF-1.0
aI24
aI-1
aI-1
aF-1.0
aF-1.0
aF-1.0
asg10
(lp65
F0.008
aF-0.001
aF0.006
asba(i__main__
sensor_data_struct
p66
(dp67
g3
(lp68
I600
aI334
aI210
aI1076
aI2575
aF178.0
aI999
aI456
aI319
aI1591
aI2347
aF161.0
asg5
I0
sg6
(lp69
I29
aI-1
aI-1
aI88
aI-1
aI-1
asg8
(lp70
I19
aI-1
aI-1
aF-1.0
aF-1.0
aF-1.0
aI24
aI-1
aI-1
aF-1.0
aF-1.0
aF-1.0
asg10
(lp71
F-0.006999999999999999
aF-0.004
aF0.009000000000000001
asba(i__main__
sensor_data_struct
p72
(dp73
g3
(lp74
I570
aI324
aI199
aI1044
aI2612
aF180.0
aI700
aI356
aI235
aI1201
aI2496
aF162.0
asg5
I0
sg6
(lp75
I18
aI-1
aI-1
aI77
aI-1
aI-1
asg8
(lp76
I40
aI-1
aI-1
aF-1.0
aF-1.0
aF-1.0
aI22
aI-1
aI-1
aF-1.0
aF-1.0
aF-1.0
asg10
(lp77
F0.009000000000000001
aF-0.004
aF0.012
asba(i__main__
sensor_data_struct
p78
(dp79
g3
(lp80
I601
aI337
aI207
aI1094
aI2594
aF185.0
aI746
aI386
aI264
aI1254
aI2480
aF173.0
asg5
I0
sg6
(lp81
I98
aI-1
aI-1
aI98
aI-1
aI-1
asg8
(lp82
I36
aI-1
aI-1
aF-1.0
aF-1.0
aF-1.0
aI24
aI-1
aI-1
aF-1.0
aF-1.0
aF-1.0
asg10
(lp83
F0.002
aF-0.006
aF0.009000000000000001
asba(i__main__
sensor_data_struct
p84
(dp85
g3
(lp86
I613
aI340
aI214
aI1102
aI2584
aF181.0
aI968
aI441
aI316
aI1535
aI2355
aF150.0
asg5
I0
sg6
(lp87
I149
aI-1
aI-1
aI113
aI-1
aI-1
asg8
(lp88
I32
aI-1
aI-1
aF-1.0
aF-1.0
aF-1.0
aI24
aI-1
aI-1
aF-1.0
aF-1.0
aF-1.0
asg10
(lp89
F0.0
aF-0.006
aF0.005
asba(i__main__
sensor_data_struct
p90
(dp91
g3
(lp92
I761
aI363
aI244
aI1283
aI2461
aF147.0
aI1929
aI587
aI496
aI2739
aI2155
aF65474.0
asg5
I1
sg6
(lp93
I19
aI-1
aI-1
aI52
aI-1
aI-1
asg8
(lp94
I35
aI-1
aI-1
aF-1.0
aF-1.0
aF-1.0
aI35
aI-1
aI-1
aF-1.0
aF-1.0
aF-1.0
asg10
(lp95
F0.006999999999999999
aF0.006
aF0.008
asba(i__main__
sensor_data_struct
p96
(dp97
g3
(lp98
I628
aI342
aI219
aI1113
aI2559
aF175.0
aI1110
aI476
aI344
aI1728
aI2308
aF139.0
asg5
I0
sg6
(lp99
I70
aI-1
aI-1
aI96
aI-1
aI-1
asg8
(lp100
I19
aI-1
aI-1
aF-1.0
aF-1.0
aF-1.0
aI25
aI-1
aI-1
aF-1.0
aF-1.0
aF-1.0
asg10
(lp101
F-0.001
aF-0.001
aF0.008
asba(i__main__
sensor_data_struct
p102
(dp103
g3
(lp104
I596
aI337
aI211
aI1081
aI2604
aF183.0
aI1527
aI521
aI406
aI2266
aI2220
aF29.0
asg5
I1
sg6
(lp105
I20
aI-1
aI-1
aI37
aI-1
aI-1
asg8
(lp106
I41
aI-1
aI-1
aF-1.0
aF-1.0
aF-1.0
aI37
aI-1
aI-1
aF-1.0
aF-1.0
aF-1.0
asg10
(lp107
F0.005
aF0.008
aF0.012
asba(i__main__
sensor_data_struct
p108
(dp109
g3
(lp110
I599
aI337
aI210
aI1085
aI2596
aF183.0
aI858
aI414
aI291
aI1397
aI2413
aF161.0
asg5
I0
sg6
(lp111
I77
aI-1
aI-1
aI103
aI-1
aI-1
asg8
(lp112
I25
aI-1
aI-1
aF-1.0
aF-1.0
aF-1.0
aI24
aI-1
aI-1
aF-1.0
aF-1.0
aF-1.0
asg10
(lp113
F-0.003
aF-0.006
aF0.006999999999999999
asba(i__main__
sensor_data_struct
p114
(dp115
g3
(lp116
I682
aI367
aI235
aI1196
aI2531
aF185.0
aI698
aI369
aI243
aI1204
aI2513
aF177.0
asg5
I1
sg6
(lp117
I20
aI-1
aI-1
aI64
aI-1
aI-1
asg8
(lp118
I52
aI-1
aI-1
aF-1.0
aF-1.0
aF-1.0
aI25
aI-1
aI-1
aF-1.0
aF-1.0
aF-1.0
asg10
(lp119
F-0.003
aF-0.008
aF0.013999999999999999
asba(i__main__
sensor_data_struct
p120
(dp121
g3
(lp122
I608
aI342
aI213
aI1100
aI2592
aF186.0
aI830
aI394
aI271
aI1368
aI2424
aF154.0
asg5
I0
sg6
(lp123
I24
aI-1
aI-1
aI94
aI-1
aI-1
asg8
(lp124
I13
aI-1
aI-1
aF-1.0
aF-1.0
aF-1.0
aI25
aI-1
aI-1
aF-1.0
aF-1.0
aF-1.0
asg10
(lp125
F-0.006999999999999999
aF0.003
aF0.006
asba(i__main__
sensor_data_struct
p126
(dp127
g3
(lp128
I638
aI346
aI222
aI1128
aI2554
aF176.0
aI1106
aI485
aI346
aI1732
aI2316
aF153.0
asg5
I0
sg6
(lp129
I98
aI-1
aI-1
aI93
aI-1
aI-1
asg8
(lp130
I24
aI-1
aI-1
aF-1.0
aF-1.0
aF-1.0
aI22
aI-1
aI-1
aF-1.0
aF-1.0
aF-1.0
asg10
(lp131
F0.001
aF-0.003
aF0.009000000000000001
asba(i__main__
sensor_data_struct
p132
(dp133
g3
(lp134
I592
aI336
aI209
aI1075
aI2599
aF185.0
aI761
aI407
aI258
aI1314
aI2482
aF206.0
asg5
I1
sg6
(lp135
I15
aI-1
aI-1
aI33
aI-1
aI-1
asg8
(lp136
I54
aI-1
aI-1
aF-1.0
aF-1.0
aF-1.0
aI34
aI-1
aI-1
aF-1.0
aF-1.0
aF-1.0
asg10
(lp137
F-0.011000000000000001
aF0.004
aF0.015
asba(i__main__
sensor_data_struct
p138
(dp139
g3
(lp140
I589
aI334
aI205
aI1076
aI2602
aF185.0
aI790
aI393
aI265
aI1325
aI2457
aF169.0
asg5
I0
sg6
(lp141
I53
aI-1
aI-1
aI83
aI-1
aI-1
asg8
(lp142
I38
aI-1
aI-1
aF-1.0
aF-1.0
aF-1.0
aI22
aI-1
aI-1
aF-1.0
aF-1.0
aF-1.0
asg10
(lp143
F0.006
aF-0.005
aF0.011000000000000001
asba(i__main__
sensor_data_struct
p144
(dp145
g3
(lp146
I663
aI359
aI224
aI1176
aI2537
aF187.0
aI774
aI387
aI259
aI1305
aI2464
aF169.0
asg5
I1
sg6
(lp147
I33
aI-1
aI-1
aI63
aI-1
aI-1
asg8
(lp148
I31
aI-1
aI-1
aF-1.0
aF-1.0
aF-1.0
aI26
aI-1
aI-1
aF-1.0
aF-1.0
aF-1.0
asg10
(lp149
F0.005
aF-0.002
aF0.015
asba(i__main__
sensor_data_struct
p150
(dp151
g3
(lp152
I627
aI343
aI216
aI1126
aI2578
aF179.0
aI1270
aI530
aI366
aI1998
aI2296
aF156.0
asg5
I1
sg6
(lp153
I7
aI-1
aI-1
aI32
aI-1
aI-1
asg8
(lp154
I49
aI-1
aI-1
aF-1.0
aF-1.0
aF-1.0
aI36
aI-1
aI-1
aF-1.0
aF-1.0
aF-1.0
asg10
(lp155
F0.008
aF0.01
aF0.015
asba(i__main__
sensor_data_struct
p156
(dp157
g3
(lp158
I832
aI413
aI264
aI1416
aI2447
aF188.0
aI957
aI405
aI294
aI1521
aI2362
aF113.0
asg5
I0
sg6
(lp159
I32
aI-1
aI-1
aI78
aI-1
aI-1
asg8
(lp160
I28
aI-1
aI-1
aF-1.0
aF-1.0
aF-1.0
aI24
aI-1
aI-1
aF-1.0
aF-1.0
aF-1.0
asg10
(lp161
F0.006
aF0.003
aF0.012
asba(i__main__
sensor_data_struct
p162
(dp163
g3
(lp164
I616
aI343
aI214
aI1110
aI2582
aF184.0
aI909
aI400
aI291
aI1448
aI2374
aF123.0
asg5
I0
sg6
(lp165
I93
aI-1
aI-1
aI104
aI-1
aI-1
asg8
(lp166
I21
aI-1
aI-1
aF-1.0
aF-1.0
aF-1.0
aI25
aI-1
aI-1
aF-1.0
aF-1.0
aF-1.0
asg10
(lp167
F-0.001
aF0.0
aF0.003
asba(i__main__
sensor_data_struct
p168
(dp169
g3
(lp170
I627
aI346
aI219
aI1120
aI2570
aF182.0
aI980
aI434
aI310
aI1557
aI2355
aF139.0
asg5
I0
sg6
(lp171
I42
aI-1
aI-1
aI83
aI-1
aI-1
asg8
(lp172
I17
aI-1
aI-1
aF-1.0
aF-1.0
aF-1.0
aI24
aI-1
aI-1
aF-1.0
aF-1.0
aF-1.0
asg10
(lp173
F-0.003
aF0.003
aF0.01
asba(i__main__
sensor_data_struct
p174
(dp175
g3
(lp176
I608
aI339
aI214
aI1093
aI2585
aF181.0
aI1061
aI483
aI337
aI1683
aI2333
aF171.0
asg5
I0
sg6
(lp177
I42
aI-1
aI-1
aI86
aI-1
aI-1
asg8
(lp178
I35
aI-1
aI-1
aF-1.0
aF-1.0
aF-1.0
aI24
aI-1
aI-1
aF-1.0
aF-1.0
aF-1.0
asg10
(lp179
F-0.003
aF-0.006
aF0.01
asba(i__main__
sensor_data_struct
p180
(dp181
g3
(lp182
I626
aI348
aI218
aI1123
aI2575
aF186.0
aI830
aI406
aI275
aI1377
aI2429
aF170.0
asg5
I1
sg6
(lp183
I39
aI-1
aI-1
aI60
aI-1
aI-1
asg8
(lp184
I29
aI-1
aI-1
aF-1.0
aF-1.0
aF-1.0
aI27
aI-1
aI-1
aF-1.0
aF-1.0
aF-1.0
asg10
(lp185
F0.001
aF-0.001
aF0.015
asba(i__main__
sensor_data_struct
p186
(dp187
g3
(lp188
I667
aI354
aI229
aI1169
aI2539
aF174.0
aI1237
aI452
aI346
aI1864
aI2254
aF58.0
asg5
I0
sg6
(lp189
I97
aI-1
aI-1
aI102
aI-1
aI-1
asg8
(lp190
I25
aI-1
aI-1
aF-1.0
aF-1.0
aF-1.0
aI25
aI-1
aI-1
aF-1.0
aF-1.0
aF-1.0
asg10
(lp191
F0.004
aF0.001
aF0.0
asba(i__main__
sensor_data_struct
p192
(dp193
g3
(lp194
I610
aI340
aI214
aI1096
aI2581
aF181.0
aI982
aI456
aI318
aI1574
aI2361
aF168.0
asg5
I0
sg6
(lp195
I49
aI-1
aI-1
aI87
aI-1
aI-1
asg8
(lp196
I28
aI-1
aI-1
aF-1.0
aF-1.0
aF-1.0
aI22
aI-1
aI-1
aF-1.0
aF-1.0
aF-1.0
asg10
(lp197
F-0.002
aF-0.005
aF0.01
asba(i__main__
sensor_data_struct
p198
(dp199
g3
(lp200
I629
aI348
aI219
aI1125
aI2571
aF184.0
aI839
aI391
aI279
aI1358
aI2408
aF140.0
asg5
I0
sg6
(lp201
I114
aI-1
aI-1
aI107
aI-1
aI-1
asg8
(lp202
I22
aI-1
aI-1
aF-1.0
aF-1.0
aF-1.0
aI23
aI-1
aI-1
aF-1.0
aF-1.0
aF-1.0
asg10
(lp203
F-0.001
aF-0.003
aF0.002
asba(i__main__
sensor_data_struct
p204
(dp205
g3
(lp206
I582
aI332
aI206
aI1062
aI2610
aF184.0
aI1106
aI469
aI324
aI1765
aI2333
aF144.0
asg5
I1
sg6
(lp207
I8
aI-1
aI-1
aI32
aI-1
aI-1
asg8
(lp208
I48
aI-1
aI-1
aF-1.0
aF-1.0
aF-1.0
aI35
aI-1
aI-1
aF-1.0
aF-1.0
aF-1.0
asg10
(lp209
F0.008
aF0.009000000000000001
aF0.015
asba(i__main__
sensor_data_struct
p210
(dp211
g3
(lp212
I834
aI387
aI269
aI1372
aI2423
aF143.0
aI1437
aI507
aI391
aI2135
aI2220
aF47.0
asg5
I0
sg6
(lp213
I41
aI-1
aI-1
aI97
aI-1
aI-1
asg8
(lp214
I23
aI-1
aI-1
aF-1.0
aF-1.0
aF-1.0
aI24
aI-1
aI-1
aF-1.0
aF-1.0
aF-1.0
asg10
(lp215
F0.0
aF0.005
aF0.001
asba(i__main__
sensor_data_struct
p216
(dp217
g3
(lp218
I610
aI342
aI216
aI1097
aI2590
aF183.0
aI938
aI448
aI302
aI1533
aI2386
aF181.0
asg5
I1
sg6
(lp219
I21
aI-1
aI-1
aI58
aI-1
aI-1
asg8
(lp220
I51
aI-1
aI-1
aF-1.0
aF-1.0
aF-1.0
aI27
aI-1
aI-1
aF-1.0
aF-1.0
aF-1.0
asg10
(lp221
F-0.006
aF0.006999999999999999
aF0.015
asba(i__main__
sensor_data_struct
p222
(dp223
g3
(lp224
I616
aI347
aI216
aI1111
aI2582
aF189.0
aI739
aI379
aI258
aI1246
aI2481
aF169.0
asg5
I0
sg6
(lp225
I32
aI-1
aI-1
aI84
aI-1
aI-1
asg8
(lp226
I28
aI-1
aI-1
aF-1.0
aF-1.0
aF-1.0
aI23
aI-1
aI-1
aF-1.0
aF-1.0
aF-1.0
asg10
(lp227
F-0.006
aF-0.005
aF0.01
asba(i__main__
sensor_data_struct
p228
(dp229
g3
(lp230
I604
aI340
aI213
aI1091
aI2592
aF184.0
aI852
aI436
aI282
aI1435
aI2434
aF205.0
asg5
I1
sg6
(lp231
I17
aI-1
aI-1
aI34
aI-1
aI-1
asg8
(lp232
I28
aI-1
aI-1
aF-1.0
aF-1.0
aF-1.0
aI25
aI-1
aI-1
aF-1.0
aF-1.0
aF-1.0
asg10
(lp233
F-0.009000000000000001
aF0.003
aF0.011000000000000001
asba(i__main__
sensor_data_struct
p234
(dp235
g3
(lp236
I599
aI337
aI210
aI1085
aI2596
aF183.0
aI857
aI401
aI286
aI1383
aI2401
aF145.0
asg5
I0
sg6
(lp237
I202
aI-1
aI-1
aI110
aI-1
aI-1
asg8
(lp238
I27
aI-1
aI-1
aF-1.0
aF-1.0
aF-1.0
aI25
aI-1
aI-1
aF-1.0
aF-1.0
aF-1.0
asg10
(lp239
F0.001
aF-0.004
aF0.002
asba(i__main__
sensor_data_struct
p240
(dp241
g3
(lp242
I617
aI341
aI214
aI1107
aI2576
aF181.0
aI674
aI358
aI234
aI1172
aI2527
aF174.0
asg5
I1
sg6
(lp243
I31
aI-1
aI-1
aI62
aI-1
aI-1
asg8
(lp244
I49
aI-1
aI-1
aF-1.0
aF-1.0
aF-1.0
aI33
aI-1
aI-1
aF-1.0
aF-1.0
aF-1.0
asg10
(lp245
F0.006
aF-0.008
aF0.011000000000000001
asba(i__main__
sensor_data_struct
p246
(dp247
g3
(lp248
I694
aI360
aI236
aI1199
aI2512
aF170.0
aI1298
aI476
aI360
aI1950
aI2237
aF66.0
asg5
I0
sg6
(lp249
I52
aI-1
aI-1
aI98
aI-1
aI-1
asg8
(lp250
I21
aI-1
aI-1
aF-1.0
aF-1.0
aF-1.0
aI24
aI-1
aI-1
aF-1.0
aF-1.0
aF-1.0
asg10
(lp251
F-0.001
aF0.003
aF0.002
asba(i__main__
sensor_data_struct
p252
(dp253
g3
(lp254
I596
aI335
aI209
aI1078
aI2591
aF182.0
aI796
aI399
aI273
aI1322
aI2444
aF171.0
asg5
I1
sg6
(lp255
I44
aI-1
aI-1
aI88
aI-1
aI-1
asg8
(lp256
I37
aI-1
aI-1
aF-1.0
aF-1.0
aF-1.0
aI25
aI-1
aI-1
aF-1.0
aF-1.0
aF-1.0
asg10
(lp257
F-0.003
aF-0.006999999999999999
aF0.01
asba(i__main__
sensor_data_struct
p258
(dp259
g3
(lp260
I610
aI343
aI213
aI1102
aI2584
aF187.0
aI835
aI391
aI270
aI1372
aI2416
aF148.0
asg5
I1
sg6
(lp261
I21
aI-1
aI-1
aI61
aI-1
aI-1
asg8
(lp262
I52
aI-1
aI-1
aF-1.0
aF-1.0
aF-1.0
aI26
aI-1
aI-1
aF-1.0
aF-1.0
aF-1.0
asg10
(lp263
F-0.005
aF0.008
aF0.013999999999999999
asba(i__main__
sensor_data_struct
p264
(dp265
g3
(lp266
I636
aI348
aI224
aI1126
aI2562
aF178.0
aI1102
aI460
aI333
aI1712
aI2302
aF124.0
asg5
I0
sg6
(lp267
I168
aI-1
aI-1
aI111
aI-1
aI-1
asg8
(lp268
I27
aI-1
aI-1
aF-1.0
aF-1.0
aF-1.0
aI24
aI-1
aI-1
aF-1.0
aF-1.0
aF-1.0
asg10
(lp269
F-0.001
aF-0.005
aF0.002
asba(i__main__
sensor_data_struct
p270
(dp271
g3
(lp272
I684
aI365
aI238
aI1190
aI2529
aF179.0
aI677
aI359
aI237
aI1171
aI2523
aF173.0
asg5
I1
sg6
(lp273
I31
aI-1
aI-1
aI59
aI-1
aI-1
asg8
(lp274
I43
aI-1
aI-1
aF-1.0
aF-1.0
aF-1.0
aI27
aI-1
aI-1
aF-1.0
aF-1.0
aF-1.0
asg10
(lp275
F-0.003
aF-0.003
aF0.015
asba(i__main__
sensor_data_struct
p276
(dp277
g3
(lp278
I629
aI351
aI219
aI1130
aI2575
aF189.0
aI758
aI390
aI257
aI1287
aI2470
aF181.0
asg5
I1
sg6
(lp279
I15
aI-1
aI-1
aI66
aI-1
aI-1
asg8
(lp280
I46
aI-1
aI-1
aF-1.0
aF-1.0
aF-1.0
aI24
aI-1
aI-1
aF-1.0
aF-1.0
aF-1.0
asg10
(lp281
F-0.009000000000000001
aF-0.004
aF0.013000000000000001
asba(i__main__
sensor_data_struct
p282
(dp283
g3
(lp284
I599
aI340
aI212
aI1087
aI2600
aF187.0
aI1058
aI433
aI319
aI1650
aI2322
aF106.0
asg5
I0
sg6
(lp285
I34
aI-1
aI-1
aI71
aI-1
aI-1
asg8
(lp286
I32
aI-1
aI-1
aF-1.0
aF-1.0
aF-1.0
aI25
aI-1
aI-1
aF-1.0
aF-1.0
aF-1.0
asg10
(lp287
F0.002
aF0.005
aF0.012
asba(i__main__
sensor_data_struct
p288
(dp289
g3
(lp290
I634
aI347
aI221
aI1128
aI2565
aF180.0
aI1135
aI458
aI338
aI1748
aI2292
aF107.0
asg5
I0
sg6
(lp291
I124
aI-1
aI-1
aI107
aI-1
aI-1
asg8
(lp292
I26
aI-1
aI-1
aF-1.0
aF-1.0
aF-1.0
aI24
aI-1
aI-1
aF-1.0
aF-1.0
aF-1.0
asg10
(lp293
F0.003
aF0.0
aF0.005
asba(i__main__
sensor_data_struct
p294
(dp295
g3
(lp296
I596
aI334
aI208
aI1080
aI2593
aF181.0
aI899
aI430
aI301
aI1456
aI2395
aF166.0
asg5
I0
sg6
(lp297
I122
aI-1
aI-1
aI107
aI-1
aI-1
asg8
(lp298
I43
aI-1
aI-1
aF-1.0
aF-1.0
aF-1.0
aI25
aI-1
aI-1
aF-1.0
aF-1.0
aF-1.0
asg10
(lp299
F0.0
aF-0.008
aF0.006999999999999999
asba(i__main__
sensor_data_struct
p300
(dp301
g3
(lp302
I631
aI348
aI219
aI1129
aI2571
aF184.0
aI677
aI361
aI240
aI1168
aI2524
aF174.0
asg5
I1
sg6
(lp303
I25
aI-1
aI-1
aI73
aI-1
aI-1
asg8
(lp304
I43
aI-1
aI-1
aF-1.0
aF-1.0
aF-1.0
aI23
aI-1
aI-1
aF-1.0
aF-1.0
aF-1.0
asg10
(lp305
F-0.006
aF-0.008
aF0.012
asba(i__main__
sensor_data_struct
p306
(dp307
g3
(lp308
I609
aI342
aI213
aI1101
aI2590
aF186.0
aI921
aI443
aI300
aI1506
aI2391
aF180.0
asg5
I1
sg6
(lp309
I39
aI-1
aI-1
aI61
aI-1
aI-1
asg8
(lp310
I33
aI-1
aI-1
aF-1.0
aF-1.0
aF-1.0
aI26
aI-1
aI-1
aF-1.0
aF-1.0
aF-1.0
asg10
(lp311
F-0.001
aF-0.002
aF0.015
asba(i__main__
sensor_data_struct
p312
(dp313
g3
(lp314
I699
aI364
aI238
aI1208
aI2511
aF173.0
aI1215
aI499
aI364
aI1868
aI2280
aF126.0
asg5
I0
sg6
(lp315
I39
aI-1
aI-1
aI91
aI-1
aI-1
asg8
(lp316
I21
aI-1
aI-1
aF-1.0
aF-1.0
aF-1.0
aI24
aI-1
aI-1
aF-1.0
aF-1.0
aF-1.0
asg10
(lp317
F-0.002
aF0.004
aF0.008
asba(i__main__
sensor_data_struct
p318
(dp319
g3
(lp320
I600
aI339
aI211
aI1088
aI2596
aF185.0
aI823
aI400
aI285
aI1340
aI2427
aF155.0
asg5
I0
sg6
(lp321
I232
aI-1
aI-1
aI117
aI-1
aI-1
asg8
(lp322
I31
aI-1
aI-1
aF-1.0
aF-1.0
aF-1.0
aI25
aI-1
aI-1
aF-1.0
aF-1.0
aF-1.0
asg10
(lp323
F0.002
aF-0.004
aF0.003
asba(i__main__
sensor_data_struct
p324
(dp325
g3
(lp326
I766
aI390
aI257
aI1299
aI2465
aF178.0
aI698
aI367
aI245
aI1198
aI2512
aF173.0
asg5
I1
sg6
(lp327
I41
aI-1
aI-1
aI75
aI-1
aI-1
asg8
(lp328
I38
aI-1
aI-1
aF-1.0
aF-1.0
aF-1.0
aI23
aI-1
aI-1
aF-1.0
aF-1.0
aF-1.0
asg10
(lp329
F0.001
aF-0.006
aF0.012
asba(i__main__
sensor_data_struct
p330
(dp331
g3
(lp332
I605
aI344
aI216
aI1093
aI2596
aF188.0
aI964
aI438
aI304
aI1550
aI2362
aF155.0
asg5
I1
sg6
(lp333
I22
aI-1
aI-1
aI64
aI-1
aI-1
asg8
(lp334
I47
aI-1
aI-1
aF-1.0
aF-1.0
aF-1.0
aI23
aI-1
aI-1
aF-1.0
aF-1.0
aF-1.0
asg10
(lp335
F-0.006
aF0.011000000000000001
aF0.013000000000000001
asba(i__main__
sensor_data_struct
p336
(dp337
g3
(lp338
I607
aI343
aI216
aI1096
aI2596
aF186.0
aI976
aI445
aI311
aI1566
aI2363
aF157.0
asg5
I0
sg6
(lp339
I31
aI-1
aI-1
aI70
aI-1
aI-1
asg8
(lp340
I26
aI-1
aI-1
aF-1.0
aF-1.0
aF-1.0
aI24
aI-1
aI-1
aF-1.0
aF-1.0
aF-1.0
asg10
(lp341
F-0.004
aF0.004
aF0.012
asba(i__main__
sensor_data_struct
p342
(dp343
g3
(lp344
I605
aI338
aI212
aI1089
aI2583
aF181.0
aI1002
aI469
aI323
aI1610
aI2358
aF178.0
asg5
I1
sg6
(lp345
I32
aI-1
aI-1
aI76
aI-1
aI-1
asg8
(lp346
I32
aI-1
aI-1
aF-1.0
aF-1.0
aF-1.0
aI23
aI-1
aI-1
aF-1.0
aF-1.0
aF-1.0
asg10
(lp347
F-0.006999999999999999
aF-0.009000000000000001
aF0.011000000000000001
asba(i__main__
sensor_data_struct
p348
(dp349
g3
(lp350
I598
aI337
aI208
aI1088
aI2598
aF185.0
aI751
aI388
aI261
aI1269
aI2479
aF177.0
asg5
I0
sg6
(lp351
I46
aI-1
aI-1
aI99
aI-1
aI-1
asg8
(lp352
I44
aI-1
aI-1
aF-1.0
aF-1.0
aF-1.0
aI22
aI-1
aI-1
aF-1.0
aF-1.0
aF-1.0
asg10
(lp353
F-0.001
aF-0.01
aF0.01
asba(i__main__
sensor_data_struct
p354
(dp355
g3
(lp356
I705
aI376
aI237
aI1234
aI2511
aF191.0
aI707
aI370
aI244
aI1218
aI2511
aF175.0
asg5
I1
sg6
(lp357
I29
aI-1
aI-1
aI63
aI-1
aI-1
asg8
(lp358
I43
aI-1
aI-1
aF-1.0
aF-1.0
aF-1.0
aI24
aI-1
aI-1
aF-1.0
aF-1.0
aF-1.0
asg10
(lp359
F0.003
aF-0.006
aF0.013999999999999999
asba(i__main__
sensor_data_struct
p360
(dp361
g3
(lp362
I619
aI345
aI215
aI1116
aI2583
aF186.0
aI967
aI424
aI309
aI1523
aI2348
aF129.0
asg5
I0
sg6
(lp363
I120
aI-1
aI-1
aI106
aI-1
aI-1
asg8
(lp364
I21
aI-1
aI-1
aF-1.0
aF-1.0
aF-1.0
aI25
aI-1
aI-1
aF-1.0
aF-1.0
aF-1.0
asg10
(lp365
F0.001
aF-0.002
aF0.006
asba(i__main__
sensor_data_struct
p366
(dp367
g3
(lp368
I643
aI351
aI224
aI1137
aI2553
aF181.0
aI1118
aI478
aI342
aI1746
aI2308
aF141.0
asg5
I0
sg6
(lp369
I26
aI-1
aI-1
aI90
aI-1
aI-1
asg8
(lp370
I14
aI-1
aI-1
aF-1.0
aF-1.0
aF-1.0
aI23
aI-1
aI-1
aF-1.0
aF-1.0
aF-1.0
asg10
(lp371
F-0.006
aF0.003
aF0.008
asba(i__main__
sensor_data_struct
p372
(dp373
g3
(lp374
I664
aI360
aI230
aI1171
aI2546
aF184.0
aI799
aI389
aI272
aI1314
aI2435
aF155.0
asg5
I0
sg6
(lp375
I39
aI-1
aI-1
aI92
aI-1
aI-1
asg8
(lp376
I17
aI-1
aI-1
aF-1.0
aF-1.0
aF-1.0
aI24
aI-1
aI-1
aF-1.0
aF-1.0
aF-1.0
asg10
(lp377
F-0.005
aF-0.001
aF0.008
asba(i__main__
sensor_data_struct
p378
(dp379
g3
(lp380
I642
aI353
aI224
aI1143
aI2564
aF184.0
aI757
aI386
aI262
aI1272
aI2471
aF171.0
asg5
I0
sg6
(lp381
I26
aI-1
aI-1
aI85
aI-1
aI-1
asg8
(lp382
I26
aI-1
aI-1
aF-1.0
aF-1.0
aF-1.0
aI24
aI-1
aI-1
aF-1.0
aF-1.0
aF-1.0
asg10
(lp383
F-0.008
aF-0.006
aF0.01
asba(i__main__
sensor_data_struct
p384
(dp385
g3
(lp386
I768
aI374
aI252
aI1296
aI2466
aF156.0
aI2467
aI664
aI600
aI3410
aI2117
aF65344.0
asg5
I1
sg6
(lp387
I22
aI-1
aI-1
aI49
aI-1
aI-1
asg8
(lp388
I38
aI-1
aI-1
aF-1.0
aF-1.0
aF-1.0
aI36
aI-1
aI-1
aF-1.0
aF-1.0
aF-1.0
asg10
(lp389
F0.002
aF0.008
aF0.006
asba(i__main__
sensor_data_struct
p390
(dp391
g3
(lp392
I612
aI343
aI217
aI1099
aI2588
aF183.0
aI688
aI364
aI246
aI1177
aI2519
aF171.0
asg5
I1
sg6
(lp393
I41
aI-1
aI-1
aI81
aI-1
aI-1
asg8
(lp394
I33
aI-1
aI-1
aF-1.0
aF-1.0
aF-1.0
aI23
aI-1
aI-1
aF-1.0
aF-1.0
aF-1.0
asg10
(lp395
F-0.005
aF-0.008
aF0.011000000000000001
asba(i__main__
sensor_data_struct
p396
(dp397
g3
(lp398
I608
aI345
aI215
aI1100
aI2592
aF189.0
aI925
aI432
aI298
aI1500
aI2383
aF163.0
asg5
I1
sg6
(lp399
I22
aI-1
aI-1
aI68
aI-1
aI-1
asg8
(lp400
I42
aI-1
aI-1
aF-1.0
aF-1.0
aF-1.0
aI24
aI-1
aI-1
aF-1.0
aF-1.0
aF-1.0
asg10
(lp401
F-0.008
aF0.006
aF0.012
asba(i__main__
sensor_data_struct
p402
(dp403
g3
(lp404
I619
aI343
aI218
aI1108
aI2580
aF180.0
aI1022
aI455
aI328
aI1609
aI2339
aF146.0
asg5
I0
sg6
(lp405
I154
aI-1
aI-1
aI109
aI-1
aI-1
asg8
(lp406
I29
aI-1
aI-1
aF-1.0
aF-1.0
aF-1.0
aI23
aI-1
aI-1
aF-1.0
aF-1.0
aF-1.0
asg10
(lp407
F0.0
aF-0.004
aF0.005
asba(i__main__
sensor_data_struct
p408
(dp409
g3
(lp410
I598
aI336
aI209
aI1084
aI2596
aF183.0
aI899
aI433
aI294
aI1474
aI2400
aF176.0
asg5
I1
sg6
(lp411
I48
aI-1
aI-1
aI70
aI-1
aI-1
asg8
(lp412
I32
aI-1
aI-1
aF-1.0
aF-1.0
aF-1.0
aI25
aI-1
aI-1
aF-1.0
aF-1.0
aF-1.0
asg10
(lp413
F0.005
aF-0.003
aF0.013000000000000001
asba(i__main__
sensor_data_struct
p414
(dp415
g3
(lp416
I617
aI339
aI213
aI1110
aI2583
aF178.0
aI1148
aI483
aI347
aI1791
aI2308
aF135.0
asg5
I0
sg6
(lp417
I22
aI-1
aI-1
aI79
aI-1
aI-1
asg8
(lp418
I30
aI-1
aI-1
aF-1.0
aF-1.0
aF-1.0
aI23
aI-1
aI-1
aF-1.0
aF-1.0
aF-1.0
asg10
(lp419
F0.01
aF0.004
aF0.011000000000000001
asba(i__main__
sensor_data_struct
p420
(dp421
g3
(lp422
I603
aI339
aI212
aI1092
aI2596
aF184.0
aI993
aI440
aI318
aI1571
aI2352
aF139.0
asg5
I0
sg6
(lp423
I87
aI-1
aI-1
aI94
aI-1
aI-1
asg8
(lp424
I24
aI-1
aI-1
aF-1.0
aF-1.0
aF-1.0
aI23
aI-1
aI-1
aF-1.0
aF-1.0
aF-1.0
asg10
(lp425
F0.003
aF-0.001
aF0.009000000000000001
asba(i__main__
sensor_data_struct
p426
(dp427
g3
(lp428
I583
aI330
aI203
aI1067
aI2611
aF183.0
aI875
aI450
aI287
aI1476
aI2424
aF216.0
asg5
I1
sg6
(lp429
I24
aI-1
aI-1
aI52
aI-1
aI-1
asg8
(lp430
I45
aI-1
aI-1
aF-1.0
aF-1.0
aF-1.0
aI33
aI-1
aI-1
aF-1.0
aF-1.0
aF-1.0
asg10
(lp431
F0.008
aF-0.006999999999999999
aF0.01
asba(i__main__
sensor_data_struct
p432
(dp433
g3
(lp434
I600
aI338
aI207
aI1093
aI2592
aF187.0
aI960
aI424
aI301
aI1537
aI2367
aF137.0
asg5
I0
sg6
(lp435
I52
aI-1
aI-1
aI95
aI-1
aI-1
asg8
(lp436
I28
aI-1
aI-1
aF-1.0
aF-1.0
aF-1.0
aI23
aI-1
aI-1
aF-1.0
aF-1.0
aF-1.0
asg10
(lp437
F0.009000000000000001
aF0.0
aF0.009000000000000001
asba(i__main__
sensor_data_struct
p438
(dp439
g3
(lp440
I630
aI349
aI222
aI1122
aI2570
aF183.0
aI869
aI443
aI287
aI1460
aI2429
aF207.0
asg5
I1
sg6
(lp441
I20
aI-1
aI-1
aI41
aI-1
aI-1
asg8
(lp442
I48
aI-1
aI-1
aF-1.0
aF-1.0
aF-1.0
aI39
aI-1
aI-1
aF-1.0
aF-1.0
aF-1.0
asg10
(lp443
F-0.006
aF0.005
aF0.011000000000000001
asba(i__main__
sensor_data_struct
p444
(dp445
g3
(lp446
I600
aI338
aI211
aI1086
aI2596
aF184.0
aI966
aI462
aI314
aI1569
aI2378
aF185.0
asg5
I1
sg6
(lp447
I31
aI-1
aI-1
aI68
aI-1
aI-1
asg8
(lp448
I43
aI-1
aI-1
aF-1.0
aF-1.0
aF-1.0
aI24
aI-1
aI-1
aF-1.0
aF-1.0
aF-1.0
asg10
(lp449
F-0.003
aF-0.006999999999999999
aF0.013000000000000001
asba(i__main__
sensor_data_struct
p450
(dp451
g3
(lp452
I643
aI356
aI224
aI1149
aI2566
aF189.0
aI946
aI455
aI309
aI1542
aI2385
aF184.0
asg5
I1
sg6
(lp453
I37
aI-1
aI-1
aI64
aI-1
aI-1
asg8
(lp454
I35
aI-1
aI-1
aF-1.0
aF-1.0
aF-1.0
aI25
aI-1
aI-1
aF-1.0
aF-1.0
aF-1.0
asg10
(lp455
F-0.002
aF-0.004
aF0.013999999999999999
asba(i__main__
sensor_data_struct
p456
(dp457
g3
(lp458
I726
aI388
aI247
aI1263
aI2505
aF195.0
aI1078
aI432
aI325
aI1669
aI2317
aF94.0
asg5
I0
sg6
(lp459
I50
aI-1
aI-1
aI86
aI-1
aI-1
asg8
(lp460
I24
aI-1
aI-1
aF-1.0
aF-1.0
aF-1.0
aI22
aI-1
aI-1
aF-1.0
aF-1.0
aF-1.0
asg10
(lp461
F0.003
aF0.002
aF0.01
asba(i__main__
sensor_data_struct
p462
(dp463
g3
(lp464
I623
aI348
aI218
aI1120
aI2581
aF187.0
aI823
aI404
aI288
aI1342
aI2435
aF159.0
asg5
I0
sg6
(lp465
I125
aI-1
aI-1
aI112
aI-1
aI-1
asg8
(lp466
I28
aI-1
aI-1
aF-1.0
aF-1.0
aF-1.0
aI23
aI-1
aI-1
aF-1.0
aF-1.0
aF-1.0
asg10
(lp467
F-0.002
aF-0.006
aF0.004
asba(i__main__
sensor_data_struct
p468
(dp469
g3
(lp470
I602
aI337
aI210
aI1091
aI2594
aF182.0
aI963
aI467
aI312
aI1576
aI2382
aF196.0
asg5
I1
sg6
(lp471
I17
aI-1
aI-1
aI61
aI-1
aI-1
asg8
(lp472
I40
aI-1
aI-1
aF-1.0
aF-1.0
aF-1.0
aI27
aI-1
aI-1
aF-1.0
aF-1.0
aF-1.0
asg10
(lp473
F0.006999999999999999
aF-0.004
aF0.015
asba(i__main__
sensor_data_struct
p474
(dp475
g3
(lp476
I600
aI339
aI208
aI1094
aI2599
aF188.0
aI745
aI398
aI247
aI1298
aI2486
aF205.0
asg5
I1
sg6
(lp477
I3
aI-1
aI-1
aI38
aI-1
aI-1
asg8
(lp478
I50
aI-1
aI-1
aF-1.0
aF-1.0
aF-1.0
aI35
aI-1
aI-1
aF-1.0
aF-1.0
aF-1.0
asg10
(lp479
F0.004
aF-0.013000000000000001
aF0.015
asba(i__main__
sensor_data_struct
p480
(dp481
g3
(lp482
I602
aI341
aI210
aI1093
aI2589
aF189.0
aI796
aI422
aI264
aI1370
aI2461
aF214.0
asg5
I1
sg6
(lp483
I5
aI-1
aI-1
aI33
aI-1
aI-1
asg8
(lp484
I52
aI-1
aI-1
aF-1.0
aF-1.0
aF-1.0
aI34
aI-1
aI-1
aF-1.0
aF-1.0
aF-1.0
asg10
(lp485
F-0.011000000000000001
aF-0.006
aF0.013000000000000001
asba(i__main__
sensor_data_struct
p486
(dp487
g3
(lp488
I610
aI343
aI214
aI1102
aI2590
aF186.0
aI1093
aI459
aI332
aI1711
aI2321
aF126.0
asg5
I0
sg6
(lp489
I38
aI-1
aI-1
aI79
aI-1
aI-1
asg8
(lp490
I27
aI-1
aI-1
aF-1.0
aF-1.0
aF-1.0
aI24
aI-1
aI-1
aF-1.0
aF-1.0
aF-1.0
asg10
(lp491
F0.006
aF0.003
aF0.011000000000000001
asba(i__main__
sensor_data_struct
p492
(dp493
g3
(lp494
I697
aI367
aI236
aI1216
aI2519
aF180.0
aI1038
aI424
aI317
aI1614
aI2327
aF100.0
asg5
I0
sg6
(lp495
I50
aI-1
aI-1
aI85
aI-1
aI-1
asg8
(lp496
I23
aI-1
aI-1
aF-1.0
aF-1.0
aF-1.0
aI23
aI-1
aI-1
aF-1.0
aF-1.0
aF-1.0
asg10
(lp497
F0.002
aF0.002
aF0.01
asba(i__main__
sensor_data_struct
p498
(dp499
g3
(lp500
I652
aI356
aI228
aI1153
aI2557
aF183.0
aI1167
aI442
aI337
aI1776
aI2278
aF72.0
asg5
I0
sg6
(lp501
I80
aI-1
aI-1
aI100
aI-1
aI-1
asg8
(lp502
I21
aI-1
aI-1
aF-1.0
aF-1.0
aF-1.0
aI24
aI-1
aI-1
aF-1.0
aF-1.0
aF-1.0
asg10
(lp503
F0.0
aF0.001
aF0.001
asba(i__main__
sensor_data_struct
p504
(dp505
g3
(lp506
I612
aI344
aI216
aI1103
aI2590
aF186.0
aI870
aI431
aI289
aI1440
aI2416
aF186.0
asg5
I1
sg6
(lp507
I19
aI-1
aI-1
aI62
aI-1
aI-1
asg8
(lp508
I50
aI-1
aI-1
aF-1.0
aF-1.0
aF-1.0
aI25
aI-1
aI-1
aF-1.0
aF-1.0
aF-1.0
asg10
(lp509
F-0.006
aF-0.005
aF0.013999999999999999
asba(i__main__
sensor_data_struct
p510
(dp511
g3
(lp512
I685
aI373
aI236
aI1207
aI2536
aF193.0
aI930
aI412
aI300
aI1482
aI2377
aF128.0
asg5
I0
sg6
(lp513
I54
aI-1
aI-1
aI84
aI-1
aI-1
asg8
(lp514
I18
aI-1
aI-1
aF-1.0
aF-1.0
aF-1.0
aI22
aI-1
aI-1
aF-1.0
aF-1.0
aF-1.0
asg10
(lp515
F0.0
aF0.001
aF0.01
asba(i__main__
sensor_data_struct
p516
(dp517
g3
(lp518
I603
aI345
aI215
aI1091
aI2593
aF191.0
aI843
aI445
aI280
aI1438
aI2443
aF223.0
asg5
I1
sg6
(lp519
I12
aI-1
aI-1
aI32
aI-1
aI-1
asg8
(lp520
I51
aI-1
aI-1
aF-1.0
aF-1.0
aF-1.0
aI32
aI-1
aI-1
aF-1.0
aF-1.0
aF-1.0
asg10
(lp521
F-0.011000000000000001
aF0.006999999999999999
aF0.015
asba(i__main__
sensor_data_struct
p522
(dp523
g3
(lp524
I617
aI346
aI218
aI1111
aI2588
aF186.0
aI999
aI460
aI321
aI1601
aI2362
aF166.0
asg5
I1
sg6
(lp525
I51
aI-1
aI-1
aI82
aI-1
aI-1
asg8
(lp526
I23
aI-1
aI-1
aF-1.0
aF-1.0
aF-1.0
aI25
aI-1
aI-1
aF-1.0
aF-1.0
aF-1.0
asg10
(lp527
F0.0
aF0.0
aF0.012
asba(i__main__
sensor_data_struct
p528
(dp529
g3
(lp530
I621
aI349
aI220
aI1116
aI2584
aF188.0
aI966
aI441
aI306
aI1555
aI2366
aF158.0
asg5
I1
sg6
(lp531
I25
aI-1
aI-1
aI65
aI-1
aI-1
asg8
(lp532
I40
aI-1
aI-1
aF-1.0
aF-1.0
aF-1.0
aI24
aI-1
aI-1
aF-1.0
aF-1.0
aF-1.0
asg10
(lp533
F-0.004
aF0.008
aF0.013000000000000001
asba(i__main__
sensor_data_struct
p534
(dp535
g3
(lp536
I689
aI371
aI238
aI1207
aI2532
aF187.0
aI781
aI383
aI265
aI1302
aI2462
aF157.0
asg5
I1
sg6
(lp537
I35
aI-1
aI-1
aI67
aI-1
aI-1
asg8
(lp538
I29
aI-1
aI-1
aF-1.0
aF-1.0
aF-1.0
aI24
aI-1
aI-1
aF-1.0
aF-1.0
aF-1.0
asg10
(lp539
F0.003
aF0.0
aF0.013999999999999999
asba(i__main__
sensor_data_struct
p540
(dp541
g3
(lp542
I595
aI339
aI210
aI1085
aI2609
aF188.0
aI1100
aI474
aI325
aI1761
aI2337
aF153.0
asg5
I1
sg6
(lp543
I8
aI-1
aI-1
aI33
aI-1
aI-1
asg8
(lp544
I45
aI-1
aI-1
aF-1.0
aF-1.0
aF-1.0
aI33
aI-1
aI-1
aF-1.0
aF-1.0
aF-1.0
asg10
(lp545
F0.009000000000000001
aF0.009000000000000001
aF0.015
asba(i__main__
sensor_data_struct
p546
(dp547
g3
(lp548
I601
aI337
aI209
aI1091
aI2594
aF183.0
aI873
aI441
aI286
aI1462
aI2419
aF203.0
asg5
I1
sg6
(lp549
I16
aI-1
aI-1
aI69
aI-1
aI-1
asg8
(lp550
I48
aI-1
aI-1
aF-1.0
aF-1.0
aF-1.0
aI36
aI-1
aI-1
aF-1.0
aF-1.0
aF-1.0
asg10
(lp551
F0.001
aF-0.01
aF0.012
asba(i__main__
sensor_data_struct
p552
(dp553
g3
(lp554
I660
aI357
aI228
aI1163
aI2542
aF182.0
aI828
aI435
aI271
aI1420
aI2448
aF219.0
asg5
I1
sg6
(lp555
I6
aI-1
aI-1
aI32
aI-1
aI-1
asg8
(lp556
I44
aI-1
aI-1
aF-1.0
aF-1.0
aF-1.0
aI39
aI-1
aI-1
aF-1.0
aF-1.0
aF-1.0
asg10
(lp557
F0.003
aF0.001
aF0.012
asba(i__main__
sensor_data_struct
p558
(dp559
g3
(lp560
I649
aI358
aI227
aI1154
aI2560
aF188.0
aI1043
aI471
aI328
aI1664
aI2345
aF164.0
asg5
I1
sg6
(lp561
I26
aI-1
aI-1
aI66
aI-1
aI-1
asg8
(lp562
I38
aI-1
aI-1
aF-1.0
aF-1.0
aF-1.0
aI24
aI-1
aI-1
aF-1.0
aF-1.0
aF-1.0
asg10
(lp563
F-0.003
aF0.006
aF0.013000000000000001
asba(i__main__
sensor_data_struct
p564
(dp565
g3
(lp566
I597
aI339
aI209
aI1088
aI2602
aF188.0
aI782
aI405
aI261
aI1337
aI2470
aF194.0
asg5
I1
sg6
(lp567
I20
aI-1
aI-1
aI47
aI-1
aI-1
asg8
(lp568
I46
aI-1
aI-1
aF-1.0
aF-1.0
aF-1.0
aI37
aI-1
aI-1
aF-1.0
aF-1.0
aF-1.0
asg10
(lp569
F0.004
aF-0.006999999999999999
aF0.015
asba(i__main__
sensor_data_struct
p570
(dp571
g3
(lp572
I666
aI360
aI231
aI1173
aI2544
aF182.0
aI1072
aI493
aI339
aI1712
aI2339
aF181.0
asg5
I1
sg6
(lp573
I35
aI-1
aI-1
aI64
aI-1
aI-1
asg8
(lp574
I28
aI-1
aI-1
aF-1.0
aF-1.0
aF-1.0
aI24
aI-1
aI-1
aF-1.0
aF-1.0
aF-1.0
asg10
(lp575
F0.002
aF0.003
aF0.013999999999999999
asba(i__main__
sensor_data_struct
p576
(dp577
g3
(lp578
I737
aI388
aI249
aI1275
aI2498
aF190.0
aI849
aI386
aI267
aI1396
aI2415
aF138.0
asg5
I1
sg6
(lp579
I13
aI-1
aI-1
aI66
aI-1
aI-1
asg8
(lp580
I30
aI-1
aI-1
aF-1.0
aF-1.0
aF-1.0
aI23
aI-1
aI-1
aF-1.0
aF-1.0
aF-1.0
asg10
(lp581
F0.009000000000000001
aF0.003
aF0.013999999999999999
asba(i__main__
sensor_data_struct
p582
(dp583
g3
(lp584
I606
aI344
aI213
aI1099
aI2592
aF190.0
aI859
aI396
aI276
aI1402
aI2407
aF144.0
asg5
I1
sg6
(lp585
I24
aI-1
aI-1
aI65
aI-1
aI-1
asg8
(lp586
I41
aI-1
aI-1
aF-1.0
aF-1.0
aF-1.0
aI24
aI-1
aI-1
aF-1.0
aF-1.0
aF-1.0
asg10
(lp587
F-0.005
aF0.008
aF0.013000000000000001
asba(i__main__
sensor_data_struct
p588
(dp589
g3
(lp590
I628
aI347
aI221
aI1120
aI2572
aF182.0
aI1099
aI477
aI344
aI1715
aI2315
aF144.0
asg5
I0
sg6
(lp591
I156
aI-1
aI-1
aI113
aI-1
aI-1
asg8
(lp592
I33
aI-1
aI-1
aF-1.0
aF-1.0
aF-1.0
aI24
aI-1
aI-1
aF-1.0
aF-1.0
aF-1.0
asg10
(lp593
F-0.001
aF-0.006999999999999999
aF0.005
asba(i__main__
sensor_data_struct
p594
(dp595
g3
(lp596
I603
aI339
aI210
aI1093
aI2592
aF185.0
aI896
aI438
aI297
aI1471
aI2404
aF183.0
asg5
I1
sg6
(lp597
I27
aI-1
aI-1
aI75
aI-1
aI-1
asg8
(lp598
I48
aI-1
aI-1
aF-1.0
aF-1.0
aF-1.0
aI23
aI-1
aI-1
aF-1.0
aF-1.0
aF-1.0
asg10
(lp599
F-0.004
aF-0.011000000000000001
aF0.012
asba(i__main__
sensor_data_struct
p600
(dp601
g3
(lp602
I784
aI404
aI261
aI1337
aI2463
aF192.0
aI692
aI369
aI245
aI1195
aI2527
aF178.0
asg5
I1
sg6
(lp603
I28
aI-1
aI-1
aI72
aI-1
aI-1
asg8
(lp604
I41
aI-1
aI-1
aF-1.0
aF-1.0
aF-1.0
aI24
aI-1
aI-1
aF-1.0
aF-1.0
aF-1.0
asg10
(lp605
F-0.005
aF-0.006999999999999999
aF0.013000000000000001
asba.