(lp0
(i__main__
sensor_data_struct
p1
(dp2
S'color'
p3
(lp4
I557
aI319
aI199
aI1014
aI2612
aF177.0
aI822
aI410
aI275
aI1367
aI2429
aF178.0
asS'button'
p5
I1
sS'IR'
p6
(lp7
I17
aI-1
aI-1
aI67
aI-1
aI-1
asS'TOF'
p8
(lp9
I47
aI-1
aI-1
aF-1.0
aF-1.0
aF-1.0
aI23
aI-1
aI-1
aF-1.0
aF-1.0
aF-1.0
asS'pt'
p10
(lp11
F-0.006999999999999999
aF-0.004
aF0.013000000000000001
asba(i__main__
sensor_data_struct
p12
(dp13
g3
(lp14
I610
aI345
aI215
aI1105
aI2597
aF189.0
aI1011
aI430
aI310
aI1598
aI2344
aF123.0
asg5
I1
sg6
(lp15
I35
aI-1
aI-1
aI73
aI-1
aI-1
asg8
(lp16
I28
aI-1
aI-1
aF-1.0
aF-1.0
aF-1.0
aI23
aI-1
aI-1
aF-1.0
aF-1.0
aF-1.0
asg10
(lp17
F0.005
aF0.003
aF0.012
asba(i__main__
sensor_data_struct
p18
(dp19
g3
(lp20
I624
aI348
aI218
aI1122
aI2579
aF187.0
aI775
aI395
aI266
aI1306
aI2469
aF177.0
asg5
I1
sg6
(lp21
I40
aI-1
aI-1
aI72
aI-1
aI-1
asg8
(lp22
I40
aI-1
aI-1
aF-1.0
aF-1.0
aF-1.0
aI24
aI-1
aI-1
aF-1.0
aF-1.0
aF-1.0
asg10
(lp23
F0.001
aF-0.006
aF0.013000000000000001
asba(i__main__
sensor_data_struct
p24
(dp25
g3
(lp26
I625
aI349
aI217
aI1125
aI2575
aF189.0
aI878
aI428
aI288
aI1451
aI2415
aF179.0
asg5
I1
sg6
(lp27
I32
aI-1
aI-1
aI62
aI-1
aI-1
asg8
(lp28
I29
aI-1
aI-1
aF-1.0
aF-1.0
aF-1.0
aI25
aI-1
aI-1
aF-1.0
aF-1.0
aF-1.0
asg10
(lp29
F0.005
aF-0.002
aF0.015
asba(i__main__
sensor_data_struct
p30
(dp31
g3
(lp32
I706
aI366
aI241
aI1216
aI2508
aF172.0
aI1312
aI479
aI364
aI1967
aI2235
aF63.0
asg5
I0
sg6
(lp33
I41
aI-1
aI-1
aI97
aI-1
aI-1
asg8
(lp34
I22
aI-1
aI-1
aF-1.0
aF-1.0
aF-1.0
aI23
aI-1
aI-1
aF-1.0
aF-1.0
aF-1.0
asg10
(lp35
F-0.001
aF0.004
aF0.002
asba(i__main__
sensor_data_struct
p36
(dp37
g3
(lp38
I710
aI369
aI243
aI1223
aI2509
aF174.0
aI959
aI468
aI314
aI1567
aI2382
aF197.0
asg5
I1
sg6
(lp39
I17
aI-1
aI-1
aI58
aI-1
aI-1
asg8
(lp40
I51
aI-1
aI-1
aF-1.0
aF-1.0
aF-1.0
aI26
aI-1
aI-1
aF-1.0
aF-1.0
aF-1.0
asg10
(lp41
F-0.009000000000000001
aF-0.009000000000000001
aF0.015
asba(i__main__
sensor_data_struct
p42
(dp43
g3
(lp44
I613
aI344
aI216
aI1104
aI2588
aF185.0
aI955
aI431
aI304
aI1530
aI2366
aF147.0
asg5
I0
sg6
(lp45
I32
aI-1
aI-1
aI81
aI-1
aI-1
asg8
(lp46
I22
aI-1
aI-1
aF-1.0
aF-1.0
aF-1.0
aI22
aI-1
aI-1
aF-1.0
aF-1.0
aF-1.0
asg10
(lp47
F-0.005
aF0.003
aF0.01
asba(i__main__
sensor_data_struct
p48
(dp49
g3
(lp50
I770
aI393
aI259
aI1310
aI2474
aF180.0
aI683
aI363
aI241
aI1181
aI2527
aF174.0
asg5
I1
sg6
(lp51
I30
aI-1
aI-1
aI59
aI-1
aI-1
asg8
(lp52
I39
aI-1
aI-1
aF-1.0
aF-1.0
aF-1.0
aI25
aI-1
aI-1
aF-1.0
aF-1.0
aF-1.0
asg10
(lp53
F-0.002
aF-0.004
aF0.015
asba(i__main__
sensor_data_struct
p54
(dp55
g3
(lp56
I598
aI338
aI210
aI1088
aI2602
aF185.0
aI865
aI411
aI288
aI1411
aI2414
aF157.0
asg5
I0
sg6
(lp57
I123
aI-1
aI-1
aI107
aI-1
aI-1
asg8
(lp58
I33
aI-1
aI-1
aF-1.0
aF-1.0
aF-1.0
aI23
aI-1
aI-1
aF-1.0
aF-1.0
aF-1.0
asg10
(lp59
F0.006
aF-0.004
aF0.006999999999999999
asba(i__main__
sensor_data_struct
p60
(dp61
g3
(lp62
I607
aI344
aI216
aI1092
aI2587
aF187.0
aI954
aI445
aI308
aI1538
aI2371
aF167.0
asg5
I0
sg6
(lp63
I17
aI-1
aI-1
aI78
aI-1
aI-1
asg8
(lp64
I28
aI-1
aI-1
aF-1.0
aF-1.0
aF-1.0
aI25
aI-1
aI-1
aF-1.0
aF-1.0
aF-1.0
asg10
(lp65
F-0.009000000000000001
aF0.005
aF0.01
asba(i__main__
sensor_data_struct
p66
(dp67
g3
(lp68
I609
aI337
aI213
aI1094
aI2586
aF178.0
aI979
aI497
aI317
aI1624
aI2382
aF234.0
asg5
I1
sg6
(lp69
I74
aI-1
aI-1
aI90
aI-1
aI-1
asg8
(lp70
I40
aI-1
aI-1
aF-1.0
aF-1.0
aF-1.0
aI36
aI-1
aI-1
aF-1.0
aF-1.0
aF-1.0
asg10
(lp71
F0.005
aF-0.006999999999999999
aF0.008
asba(i__main__
sensor_data_struct
p72
(dp73
g3
(lp74
I611
aI343
aI214
aI1102
aI2584
aF186.0
aI935
aI435
aI310
aI1496
aI2376
aF156.0
asg5
I0
sg6
(lp75
I85
aI-1
aI-1
aI107
aI-1
aI-1
asg8
(lp76
I24
aI-1
aI-1
aF-1.0
aF-1.0
aF-1.0
aI23
aI-1
aI-1
aF-1.0
aF-1.0
aF-1.0
asg10
(lp77
F-0.002
aF-0.005
aF0.006
asba(i__main__
sensor_data_struct
p78
(dp79
g3
(lp80
I612
aI345
aI217
aI1104
aI2592
aF187.0
aI1095
aI441
aI322
aI1708
aI2313
aF104.0
asg5
I1
sg6
(lp81
I18
aI-1
aI-1
aI37
aI-1
aI-1
asg8
(lp82
I42
aI-1
aI-1
aF-1.0
aF-1.0
aF-1.0
aI33
aI-1
aI-1
aF-1.0
aF-1.0
aF-1.0
asg10
(lp83
F0.004
aF0.006999999999999999
aF0.013999999999999999
asba(i__main__
sensor_data_struct
p84
(dp85
g3
(lp86
I639
aI356
aI224
aI1142
aI2570
aF190.0
aI685
aI366
aI240
aI1190
aI2531
aF179.0
asg5
I1
sg6
(lp87
I10
aI-1
aI-1
aI34
aI-1
aI-1
asg8
(lp88
I48
aI-1
aI-1
aF-1.0
aF-1.0
aF-1.0
aI30
aI-1
aI-1
aF-1.0
aF-1.0
aF-1.0
asg10
(lp89
F-0.011000000000000001
aF0.0
aF0.012
asba(i__main__
sensor_data_struct
p90
(dp91
g3
(lp92
I697
aI383
aI238
aI1230
aI2522
aF204.0
aI815
aI409
aI276
aI1359
aI2444
aF178.0
asg5
I1
sg6
(lp93
I21
aI-1
aI-1
aI69
aI-1
aI-1
asg8
(lp94
I37
aI-1
aI-1
aF-1.0
aF-1.0
aF-1.0
aI22
aI-1
aI-1
aF-1.0
aF-1.0
aF-1.0
asg10
(lp95
F-0.008
aF0.002
aF0.012
asba(i__main__
sensor_data_struct
p96
(dp97
g3
(lp98
I609
aI345
aI215
aI1102
aI2594
aF189.0
aI708
aI376
aI253
aI1211
aI2513
aF178.0
asg5
I0
sg6
(lp99
I51
aI-1
aI-1
aI88
aI-1
aI-1
asg8
(lp100
I42
aI-1
aI-1
aF-1.0
aF-1.0
aF-1.0
aI24
aI-1
aI-1
aF-1.0
aF-1.0
aF-1.0
asg10
(lp101
F0.001
aF-0.006999999999999999
aF0.01
asba(i__main__
sensor_data_struct
p102
(dp103
g3
(lp104
I594
aI339
aI211
aI1084
aI2613
aF187.0
aI1193
aI505
aI347
aI1892
aI2315
aF155.0
asg5
I1
sg6
(lp105
I5
aI-1
aI-1
aI33
aI-1
aI-1
asg8
(lp106
I45
aI-1
aI-1
aF-1.0
aF-1.0
aF-1.0
aI34
aI-1
aI-1
aF-1.0
aF-1.0
aF-1.0
asg10
(lp107
F0.009000000000000001
aF0.01
aF0.015
asba(i__main__
sensor_data_struct
p108
(dp109
g3
(lp110
I656
aI366
aI226
aI1176
aI2558
aF199.0
aI1526
aI500
aI405
aI2249
aI2224
aF65534.0
asg5
I1
sg6
(lp111
I20
aI-1
aI-1
aI37
aI-1
aI-1
asg8
(lp112
I42
aI-1
aI-1
aF-1.0
aF-1.0
aF-1.0
aI34
aI-1
aI-1
aF-1.0
aF-1.0
aF-1.0
asg10
(lp113
F0.003
aF0.009000000000000001
aF0.011000000000000001
asba(i__main__
sensor_data_struct
p114
(dp115
g3
(lp116
I635
aI354
aI224
aI1136
aI2578
aF188.0
aI748
aI388
aI259
aI1274
aI2493
aF179.0
asg5
I1
sg6
(lp117
I31
aI-1
aI-1
aI61
aI-1
aI-1
asg8
(lp118
I39
aI-1
aI-1
aF-1.0
aF-1.0
aF-1.0
aI26
aI-1
aI-1
aF-1.0
aF-1.0
aF-1.0
asg10
(lp119
F-0.003
aF-0.003
aF0.015
asba(i__main__
sensor_data_struct
p120
(dp121
g3
(lp122
I632
aI353
aI221
aI1133
aI2573
aF190.0
aI837
aI414
aI288
aI1376
aI2434
aF170.0
asg5
I0
sg6
(lp123
I72
aI-1
aI-1
aI96
aI-1
aI-1
asg8
(lp124
I35
aI-1
aI-1
aF-1.0
aF-1.0
aF-1.0
aI25
aI-1
aI-1
aF-1.0
aF-1.0
aF-1.0
asg10
(lp125
F-0.001
aF-0.006
aF0.009000000000000001
asba(i__main__
sensor_data_struct
p126
(dp127
g3
(lp128
I763
aI377
aI254
aI1286
aI2465
aF161.0
aI1437
aI525
aI401
aI2139
aI2222
aF68.0
asg5
I0
sg6
(lp129
I32
aI-1
aI-1
aI96
aI-1
aI-1
asg8
(lp130
I28
aI-1
aI-1
aF-1.0
aF-1.0
aF-1.0
aI25
aI-1
aI-1
aF-1.0
aF-1.0
aF-1.0
asg10
(lp131
F-0.001
aF0.006999999999999999
aF0.006
asba(i__main__
sensor_data_struct
p132
(dp133
g3
(lp134
I635
aI351
aI224
aI1132
aI2573
aF183.0
aI728
aI380
aI260
aI1233
aI2503
aF173.0
asg5
I0
sg6
(lp135
I64
aI-1
aI-1
aI89
aI-1
aI-1
asg8
(lp136
I35
aI-1
aI-1
aF-1.0
aF-1.0
aF-1.0
aI24
aI-1
aI-1
aF-1.0
aF-1.0
aF-1.0
asg10
(lp137
F0.001
aF-0.005
aF0.01
asba(i__main__
sensor_data_struct
p138
(dp139
g3
(lp140
I610
aI344
aI216
aI1102
aI2594
aF186.0
aI1458
aI479
aI388
aI2133
aI2207
aF65535.0
asg5
I0
sg6
(lp141
I46
aI-1
aI-1
aI110
aI-1
aI-1
asg8
(lp142
I22
aI-1
aI-1
aF-1.0
aF-1.0
aF-1.0
aI23
aI-1
aI-1
aF-1.0
aF-1.0
aF-1.0
asg10
(lp143
F0.0
aF0.005
aF0.003
asba(i__main__
sensor_data_struct
p144
(dp145
g3
(lp146
I611
aI343
aI217
aI1100
aI2594
aF184.0
aI879
aI403
aI292
aI1408
aI2391
aF136.0
asg5
I0
sg6
(lp147
I156
aI-1
aI-1
aI108
aI-1
aI-1
asg8
(lp148
I23
aI-1
aI-1
aF-1.0
aF-1.0
aF-1.0
aI24
aI-1
aI-1
aF-1.0
aF-1.0
aF-1.0
asg10
(lp149
F0.001
aF-0.002
aF0.003
asba(i__main__
sensor_data_struct
p150
(dp151
g3
(lp152
I604
aI341
aI214
aI1091
aI2594
aF185.0
aI2128
aI594
aI521
aI2991
aI2142
aF65402.0
asg5
I1
sg6
(lp153
I19
aI-1
aI-1
aI37
aI-1
aI-1
asg8
(lp154
I38
aI-1
aI-1
aF-1.0
aF-1.0
aF-1.0
aI34
aI-1
aI-1
aF-1.0
aF-1.0
aF-1.0
asg10
(lp155
F0.006
aF0.008
aF0.009000000000000001
asba(i__main__
sensor_data_struct
p156
(dp157
g3
(lp158
I658
aI356
aI230
aI1158
aI2549
aF179.0
aI1123
aI495
aI349
aI1768
aI2321
aF161.0
asg5
I1
sg6
(lp159
I32
aI-1
aI-1
aI72
aI-1
aI-1
asg8
(lp160
I30
aI-1
aI-1
aF-1.0
aF-1.0
aF-1.0
aI23
aI-1
aI-1
aF-1.0
aF-1.0
aF-1.0
asg10
(lp161
F-0.001
aF0.005
aF0.012
asba(i__main__
sensor_data_struct
p162
(dp163
g3
(lp164
I896
aI433
aI292
aI1477
aI2408
aF178.0
aI825
aI391
aI271
aI1362
aI2434
aF150.0
asg5
I1
sg6
(lp165
I29
aI-1
aI-1
aI58
aI-1
aI-1
asg8
(lp166
I38
aI-1
aI-1
aF-1.0
aF-1.0
aF-1.0
aI26
aI-1
aI-1
aF-1.0
aF-1.0
aF-1.0
asg10
(lp167
F-0.002
aF0.005
aF0.015
asba(i__main__
sensor_data_struct
p168
(dp169
g3
(lp170
I603
aI343
aI213
aI1095
aI2598
aF189.0
aI829
aI381
aI264
aI1367
aI2426
aF138.0
asg5
I1
sg6
(lp171
I19
aI-1
aI-1
aI69
aI-1
aI-1
asg8
(lp172
I29
aI-1
aI-1
aF-1.0
aF-1.0
aF-1.0
aI23
aI-1
aI-1
aF-1.0
aF-1.0
aF-1.0
asg10
(lp173
F0.01
aF0.002
aF0.013000000000000001
asba(i__main__
sensor_data_struct
p174
(dp175
g3
(lp176
I595
aI341
aI213
aI1081
aI2606
aF189.0
aI829
aI398
aI273
aI1371
aI2431
aF159.0
asg5
I1
sg6
(lp177
I19
aI-1
aI-1
aI59
aI-1
aI-1
asg8
(lp178
I52
aI-1
aI-1
aF-1.0
aF-1.0
aF-1.0
aI27
aI-1
aI-1
aF-1.0
aF-1.0
aF-1.0
asg10
(lp179
F-0.006999999999999999
aF0.011000000000000001
aF0.013999999999999999
asba(i__main__
sensor_data_struct
p180
(dp181
g3
(lp182
I646
aI352
aI229
aI1137
aI2557
aF178.0
aI1141
aI469
aI342
aI1764
aI2293
aF119.0
asg5
I0
sg6
(lp183
I87
aI-1
aI-1
aI107
aI-1
aI-1
asg8
(lp184
I21
aI-1
aI-1
aF-1.0
aF-1.0
aF-1.0
aI23
aI-1
aI-1
aF-1.0
aF-1.0
aF-1.0
asg10
(lp185
F-0.003
aF-0.003
aF0.002
asba(i__main__
sensor_data_struct
p186
(dp187
g3
(lp188
I629
aI348
aI221
aI1122
aI2570
aF183.0
aI1113
aI428
aI327
aI1696
aI2285
aF74.0
asg5
I0
sg6
(lp189
I93
aI-1
aI-1
aI104
aI-1
aI-1
asg8
(lp190
I24
aI-1
aI-1
aF-1.0
aF-1.0
aF-1.0
aI26
aI-1
aI-1
aF-1.0
aF-1.0
aF-1.0
asg10
(lp191
F0.002
aF0.001
aF0.005
asba(i__main__
sensor_data_struct
p192
(dp193
g3
(lp194
I727
aI371
aI249
aI1236
aI2490
aF167.0
aI1153
aI461
aI339
aI1775
aI2286
aF105.0
asg5
I0
sg6
(lp195
I79
aI-1
aI-1
aI101
aI-1
aI-1
asg8
(lp196
I19
aI-1
aI-1
aF-1.0
aF-1.0
aF-1.0
aI25
aI-1
aI-1
aF-1.0
aF-1.0
aF-1.0
asg10
(lp197
F-0.001
aF-0.001
aF0.0
asba(i__main__
sensor_data_struct
p198
(dp199
g3
(lp200
I586
aI332
aI205
aI1067
aI2599
aF183.0
aI880
aI459
aI288
aI1491
aI2423
aF227.0
asg5
I1
sg6
(lp201
I13
aI-1
aI-1
aI39
aI-1
aI-1
asg8
(lp202
I52
aI-1
aI-1
aF-1.0
aF-1.0
aF-1.0
aI33
aI-1
aI-1
aF-1.0
aF-1.0
aF-1.0
asg10
(lp203
F0.001
aF-0.01
aF0.015
asba(i__main__
sensor_data_struct
p204
(dp205
g3
(lp206
I654
aI356
aI228
aI1155
aI2553
aF182.0
aI1018
aI430
aI312
aI1598
aI2330
aF119.0
asg5
I0
sg6
(lp207
I66
aI-1
aI-1
aI102
aI-1
aI-1
asg8
(lp208
I17
aI-1
aI-1
aF-1.0
aF-1.0
aF-1.0
aI25
aI-1
aI-1
aF-1.0
aF-1.0
aF-1.0
asg10
(lp209
F-0.002
aF-0.001
aF0.001
asba(i__main__
sensor_data_struct
p210
(dp211
g3
(lp212
I647
aI354
aI227
aI1145
aI2560
aF182.0
aI1675
aI517
aI434
aI2413
aI2187
aF65491.0
asg5
I0
sg6
(lp213
I33
aI-1
aI-1
aI98
aI-1
aI-1
asg8
(lp214
I29
aI-1
aI-1
aF-1.0
aF-1.0
aF-1.0
aI24
aI-1
aI-1
aF-1.0
aF-1.0
aF-1.0
asg10
(lp215
F0.001
aF0.006
aF0.006
asba(i__main__
sensor_data_struct
p216
(dp217
g3
(lp218
I617
aI346
aI219
aI1105
aI2582
aF185.0
aI978
aI444
aI312
aI1566
aI2362
aF154.0
asg5
I0
sg6
(lp219
I24
aI-1
aI-1
aI84
aI-1
aI-1
asg8
(lp220
I16
aI-1
aI-1
aF-1.0
aF-1.0
aF-1.0
aI23
aI-1
aI-1
aF-1.0
aF-1.0
aF-1.0
asg10
(lp221
F-0.006999999999999999
aF0.004
aF0.009000000000000001
asba(i__main__
sensor_data_struct
p222
(dp223
g3
(lp224
I604
aI336
aI211
aI1088
aI2587
aF179.0
aI899
aI447
aI296
aI1486
aI2402
aF197.0
asg5
I1
sg6
(lp225
I74
aI-1
aI-1
aI126
aI-1
aI-1
asg8
(lp226
I41
aI-1
aI-1
aF-1.0
aF-1.0
aF-1.0
aI34
aI-1
aI-1
aF-1.0
aF-1.0
aF-1.0
asg10
(lp227
F0.004
aF-0.006999999999999999
aF0.009000000000000001
asba(i__main__
sensor_data_struct
p228
(dp229
g3
(lp230
I602
aI339
aI210
aI1095
aI2599
aF185.0
aI1372
aI515
aI377
aI2099
aI2262
aF91.0
asg5
I1
sg6
(lp231
I9
aI-1
aI-1
aI33
aI-1
aI-1
asg8
(lp232
I37
aI-1
aI-1
aF-1.0
aF-1.0
aF-1.0
aI36
aI-1
aI-1
aF-1.0
aF-1.0
aF-1.0
asg10
(lp233
F0.01
aF0.006
aF0.012
asba(i__main__
sensor_data_struct
p234
(dp235
g3
(lp236
I605
aI344
aI214
aI1098
aI2601
aF189.0
aI1147
aI450
aI335
aI1765
aI2293
aF92.0
asg5
I0
sg6
(lp237
I27
aI-1
aI-1
aI79
aI-1
aI-1
asg8
(lp238
I35
aI-1
aI-1
aF-1.0
aF-1.0
aF-1.0
aI24
aI-1
aI-1
aF-1.0
aF-1.0
aF-1.0
asg10
(lp239
F-0.002
aF0.006999999999999999
aF0.01
asba(i__main__
sensor_data_struct
p240
(dp241
g3
(lp242
I603
aI338
aI211
aI1091
aI2594
aF183.0
aI978
aI472
aI316
aI1595
aI2376
aF196.0
asg5
I1
sg6
(lp243
I20
aI-1
aI-1
aI60
aI-1
aI-1
asg8
(lp244
I34
aI-1
aI-1
aF-1.0
aF-1.0
aF-1.0
aI26
aI-1
aI-1
aF-1.0
aF-1.0
aF-1.0
asg10
(lp245
F0.006
aF-0.003
aF0.015
asba(i__main__
sensor_data_struct
p246
(dp247
g3
(lp248
I604
aI343
aI213
aI1098
aI2601
aF189.0
aI1325
aI487
aI367
aI2017
aI2266
aF69.0
asg5
I1
sg6
(lp249
I18
aI-1
aI-1
aI39
aI-1
aI-1
asg8
(lp250
I45
aI-1
aI-1
aF-1.0
aF-1.0
aF-1.0
aI35
aI-1
aI-1
aF-1.0
aF-1.0
aF-1.0
asg10
(lp251
F0.005
aF0.009000000000000001
aF0.013000000000000001
asba(i__main__
sensor_data_struct
p252
(dp253
g3
(lp254
I712
aI362
aI238
aI1227
aI2505
aF166.0
aI1256
aI509
aI373
aI1921
aI2270
aF122.0
asg5
I0
sg6
(lp255
I60
aI-1
aI-1
aI107
aI-1
aI-1
asg8
(lp256
I30
aI-1
aI-1
aF-1.0
aF-1.0
aF-1.0
aI23
aI-1
aI-1
aF-1.0
aF-1.0
aF-1.0
asg10
(lp257
F0.008
aF0.001
aF0.006
asba(i__main__
sensor_data_struct
p258
(dp259
g3
(lp260
I639
aI351
aI226
aI1131
aI2565
aF181.0
aI1149
aI488
aI352
aI1782
aI2297
aF139.0
asg5
I0
sg6
(lp261
I67
aI-1
aI-1
aI106
aI-1
aI-1
asg8
(lp262
I21
aI-1
aI-1
aF-1.0
aF-1.0
aF-1.0
aI25
aI-1
aI-1
aF-1.0
aF-1.0
aF-1.0
asg10
(lp263
F-0.004
aF-0.005
aF0.006
asba(i__main__
sensor_data_struct
p264
(dp265
g3
(lp266
I610
aI343
aI216
aI1100
aI2594
aF185.0
aI1322
aI472
aI370
aI1971
aI2242
aF44.0
asg5
I0
sg6
(lp267
I53
aI-1
aI-1
aI97
aI-1
aI-1
asg8
(lp268
I26
aI-1
aI-1
aF-1.0
aF-1.0
aF-1.0
aI24
aI-1
aI-1
aF-1.0
aF-1.0
aF-1.0
asg10
(lp269
F0.003
aF0.004
aF0.006999999999999999
asba(i__main__
sensor_data_struct
p270
(dp271
g3
(lp272
I626
aI348
aI221
aI1120
aI2581
aF184.0
aI1213
aI438
aI337
aI1823
aI2250
aF50.0
asg5
I0
sg6
(lp273
I41
aI-1
aI-1
aI97
aI-1
aI-1
asg8
(lp274
I22
aI-1
aI-1
aF-1.0
aF-1.0
aF-1.0
aI24
aI-1
aI-1
aF-1.0
aF-1.0
aF-1.0
asg10
(lp275
F-0.002
aF0.005
aF0.003
asba(i__main__
sensor_data_struct
p276
(dp277
g3
(lp278
I587
aI333
aI207
aI1069
aI2606
aF183.0
aI835
aI413
aI287
aI1373
aI2431
aF170.0
asg5
I0
sg6
(lp279
I94
aI-1
aI-1
aI105
aI-1
aI-1
asg8
(lp280
I36
aI-1
aI-1
aF-1.0
aF-1.0
aF-1.0
aI24
aI-1
aI-1
aF-1.0
aF-1.0
aF-1.0
asg10
(lp281
F0.003
aF-0.006
aF0.008
asba(i__main__
sensor_data_struct
p282
(dp283
g3
(lp284
I751
aI389
aI252
aI1287
aI2481
aF185.0
aI735
aI375
aI254
aI1244
aI2486
aF167.0
asg5
I1
sg6
(lp285
I40
aI-1
aI-1
aI67
aI-1
aI-1
asg8
(lp286
I31
aI-1
aI-1
aF-1.0
aF-1.0
aF-1.0
aI24
aI-1
aI-1
aF-1.0
aF-1.0
aF-1.0
asg10
(lp287
F0.001
aF-0.003
aF0.013999999999999999
asba(i__main__
sensor_data_struct
p288
(dp289
g3
(lp290
I631
aI349
aI220
aI1129
aI2573
aF184.0
aI1069
aI460
aI334
aI1670
aI2322
aF134.0
asg5
I0
sg6
(lp291
I89
aI-1
aI-1
aI100
aI-1
aI-1
asg8
(lp292
I25
aI-1
aI-1
aF-1.0
aF-1.0
aF-1.0
aI24
aI-1
aI-1
aF-1.0
aF-1.0
aF-1.0
asg10
(lp293
F0.003
aF-0.001
aF0.008
asba(i__main__
sensor_data_struct
p294
(dp295
g3
(lp296
I643
aI353
aI223
aI1145
aI2560
aF185.0
aI892
aI405
aI293
aI1428
aI2386
aF135.0
asg5
I0
sg6
(lp297
I198
aI-1
aI-1
aI110
aI-1
aI-1
asg8
(lp298
I25
aI-1
aI-1
aF-1.0
aF-1.0
aF-1.0
aI23
aI-1
aI-1
aF-1.0
aF-1.0
aF-1.0
asg10
(lp299
F0.002
aF-0.003
aF0.003
asba(i__main__
sensor_data_struct
p300
(dp301
g3
(lp302
I632
aI348
aI221
aI1128
aI2573
aF182.0
aI890
aI432
aI292
aI1465
aI2408
aF179.0
asg5
I1
sg6
(lp303
I40
aI-1
aI-1
aI61
aI-1
aI-1
asg8
(lp304
I27
aI-1
aI-1
aF-1.0
aF-1.0
aF-1.0
aI26
aI-1
aI-1
aF-1.0
aF-1.0
aF-1.0
asg10
(lp305
F0.003
aF-0.001
aF0.015
asba(i__main__
sensor_data_struct
p306
(dp307
g3
(lp308
I713
aI381
aI241
aI1245
aI2508
aF193.0
aI644
aI352
aI229
aI1132
aI2556
aF178.0
asg5
I1
sg6
(lp309
I20
aI-1
aI-1
aI58
aI-1
aI-1
asg8
(lp310
I49
aI-1
aI-1
aF-1.0
aF-1.0
aF-1.0
aI27
aI-1
aI-1
aF-1.0
aF-1.0
aF-1.0
asg10
(lp311
F-0.006999999999999999
aF-0.011000000000000001
aF0.015
asba(i__main__
sensor_data_struct
p312
(dp313
g3
(lp314
I775
aI404
aI258
aI1329
aI2469
aF197.0
aI696
aI367
aI244
aI1199
aI2518
aF174.0
asg5
I1
sg6
(lp315
I33
aI-1
aI-1
aI59
aI-1
aI-1
asg8
(lp316
I38
aI-1
aI-1
aF-1.0
aF-1.0
aF-1.0
aI26
aI-1
aI-1
aF-1.0
aF-1.0
aF-1.0
asg10
(lp317
F-0.003
aF-0.004
aF0.015
asba(i__main__
sensor_data_struct
p318
(dp319
g3
(lp320
I598
aI339
aI209
aI1089
aI2600
aF187.0
aI912
aI399
aI282
aI1472
aI2383
aF127.0
asg5
I1
sg6
(lp321
I19
aI-1
aI-1
aI75
aI-1
aI-1
asg8
(lp322
I33
aI-1
aI-1
aF-1.0
aF-1.0
aF-1.0
aI23
aI-1
aI-1
aF-1.0
aF-1.0
aF-1.0
asg10
(lp323
F0.01
aF0.002
aF0.012
asba(i__main__
sensor_data_struct
p324
(dp325
g3
(lp326
I609
aI345
aI216
aI1097
aI2587
aF188.0
aI888
aI461
aI292
aI1501
aI2425
aF225.0
asg5
I1
sg6
(lp327
I16
aI-1
aI-1
aI33
aI-1
aI-1
asg8
(lp328
I51
aI-1
aI-1
aF-1.0
aF-1.0
aF-1.0
aI33
aI-1
aI-1
aF-1.0
aF-1.0
aF-1.0
asg10
(lp329
F-0.01
aF0.004
aF0.013000000000000001
asba(i__main__
sensor_data_struct
p330
(dp331
g3
(lp332
I631
aI349
aI221
aI1127
aI2571
aF184.0
aI1053
aI468
aI335
aI1658
aI2333
aF151.0
asg5
I0
sg6
(lp333
I93
aI-1
aI-1
aI93
aI-1
aI-1
asg8
(lp334
I23
aI-1
aI-1
aF-1.0
aF-1.0
aF-1.0
aI23
aI-1
aI-1
aF-1.0
aF-1.0
aF-1.0
asg10
(lp335
F0.001
aF-0.002
aF0.009000000000000001
asba(i__main__
sensor_data_struct
p336
(dp337
g3
(lp338
I634
aI351
aI222
aI1133
aI2571
aF185.0
aI806
aI392
aI276
aI1322
aI2434
aF155.0
asg5
I0
sg6
(lp339
I58
aI-1
aI-1
aI105
aI-1
aI-1
asg8
(lp340
I17
aI-1
aI-1
aF-1.0
aF-1.0
aF-1.0
aI24
aI-1
aI-1
aF-1.0
aF-1.0
aF-1.0
asg10
(lp341
F-0.005
aF-0.004
aF0.005
asba(i__main__
sensor_data_struct
p342
(dp343
g3
(lp344
I652
aI353
aI229
aI1148
aI2554
aF177.0
aI1126
aI481
aI349
aI1748
aI2304
aF138.0
asg5
I0
sg6
(lp345
I157
aI-1
aI-1
aI110
aI-1
aI-1
asg8
(lp346
I26
aI-1
aI-1
aF-1.0
aF-1.0
aF-1.0
aI25
aI-1
aI-1
aF-1.0
aF-1.0
aF-1.0
asg10
(lp347
F0.001
aF-0.004
aF0.005
asba(i__main__
sensor_data_struct
p348
(dp349
g3
(lp350
I627
aI350
aI223
aI1122
aI2583
aF185.0
aI1398
aI543
aI395
aI2149
aI2272
aF114.0
asg5
I1
sg6
(lp351
I14
aI-1
aI-1
aI34
aI-1
aI-1
asg8
(lp352
I53
aI-1
aI-1
aF-1.0
aF-1.0
aF-1.0
aI34
aI-1
aI-1
aF-1.0
aF-1.0
aF-1.0
asg10
(lp353
F0.003
aF0.011000000000000001
aF0.013999999999999999
asba(i__main__
sensor_data_struct
p354
(dp355
g3
(lp356
I607
aI344
aI214
aI1101
aI2596
aF189.0
aI947
aI446
aI305
aI1539
aI2383
aF173.0
asg5
I1
sg6
(lp357
I34
aI-1
aI-1
aI68
aI-1
aI-1
asg8
(lp358
I25
aI-1
aI-1
aF-1.0
aF-1.0
aF-1.0
aI24
aI-1
aI-1
aF-1.0
aF-1.0
aF-1.0
asg10
(lp359
F0.005
aF0.001
aF0.013999999999999999
asba(i__main__
sensor_data_struct
p360
(dp361
g3
(lp362
I596
aI336
aI207
aI1085
aI2596
aF185.0
aI796
aI416
aI272
aI1349
aI2462
aF199.0
asg5
I1
sg6
(lp363
I75
aI-1
aI-1
aI81
aI-1
aI-1
asg8
(lp364
I46
aI-1
aI-1
aF-1.0
aF-1.0
aF-1.0
aI34
aI-1
aI-1
aF-1.0
aF-1.0
aF-1.0
asg10
(lp365
F0.004
aF-0.008
aF0.009000000000000001
asba(i__main__
sensor_data_struct
p366
(dp367
g3
(lp368
I627
aI346
aI216
aI1125
aI2569
aF184.0
aI1027
aI462
aI326
aI1629
aI2341
aF157.0
asg5
I0
sg6
(lp369
I124
aI-1
aI-1
aI108
aI-1
aI-1
asg8
(lp370
I35
aI-1
aI-1
aF-1.0
aF-1.0
aF-1.0
aI22
aI-1
aI-1
aF-1.0
aF-1.0
aF-1.0
asg10
(lp371
F0.006
aF-0.005
aF0.006999999999999999
asba(i__main__
sensor_data_struct
p372
(dp373
g3
(lp374
I660
aI356
aI230
aI1163
aI2554
aF179.0
aI1543
aI528
aI421
aI2267
aI2213
aF24.0
asg5
I0
sg6
(lp375
I27
aI-1
aI-1
aI79
aI-1
aI-1
asg8
(lp376
I35
aI-1
aI-1
aF-1.0
aF-1.0
aF-1.0
aI25
aI-1
aI-1
aF-1.0
aF-1.0
aF-1.0
asg10
(lp377
F0.003
aF0.006999999999999999
aF0.009000000000000001
asba(i__main__
sensor_data_struct
p378
(dp379
g3
(lp380
I792
aI386
aI259
aI1333
aI2456
aF162.0
aI692
aI364
aI243
aI1191
aI2519
aF172.0
asg5
I1
sg6
(lp381
I36
aI-1
aI-1
aI65
aI-1
aI-1
asg8
(lp382
I36
aI-1
aI-1
aF-1.0
aF-1.0
aF-1.0
aI25
aI-1
aI-1
aF-1.0
aF-1.0
aF-1.0
asg10
(lp383
F0.001
aF-0.004
aF0.013999999999999999
asba(i__main__
sensor_data_struct
p384
(dp385
g3
(lp386
I620
aI348
aI219
aI1116
aI2589
aF187.0
aI1081
aI448
aI325
aI1688
aI2314
aF118.0
asg5
I1
sg6
(lp387
I28
aI-1
aI-1
aI76
aI-1
aI-1
asg8
(lp388
I35
aI-1
aI-1
aF-1.0
aF-1.0
aF-1.0
aI22
aI-1
aI-1
aF-1.0
aF-1.0
aF-1.0
asg10
(lp389
F-0.002
aF0.006999999999999999
aF0.011000000000000001
asba(i__main__
sensor_data_struct
p390
(dp391
g3
(lp392
I649
aI357
aI229
aI1151
aI2564
aF185.0
aI1077
aI487
aI340
aI1708
aI2332
aF170.0
asg5
I0
sg6
(lp393
I27
aI-1
aI-1
aI71
aI-1
aI-1
asg8
(lp394
I26
aI-1
aI-1
aF-1.0
aF-1.0
aF-1.0
aI23
aI-1
aI-1
aF-1.0
aF-1.0
aF-1.0
asg10
(lp395
F-0.006
aF0.003
aF0.012
asba(i__main__
sensor_data_struct
p396
(dp397
g3
(lp398
I635
aI346
aI220
aI1130
aI2565
aF178.0
aI1070
aI488
aI337
aI1706
aI2339
aF176.0
asg5
I1
sg6
(lp399
I24
aI-1
aI-1
aI70
aI-1
aI-1
asg8
(lp400
I29
aI-1
aI-1
aF-1.0
aF-1.0
aF-1.0
aI24
aI-1
aI-1
aF-1.0
aF-1.0
aF-1.0
asg10
(lp401
F0.006999999999999999
aF0.002
aF0.013000000000000001
asba(i__main__
sensor_data_struct
p402
(dp403
g3
(lp404
I597
aI341
aI213
aI1085
aI2606
aF188.0
aI745
aI401
aI256
aI1289
aI2496
aF203.0
asg5
I1
sg6
(lp405
I11
aI-1
aI-1
aI33
aI-1
aI-1
asg8
(lp406
I51
aI-1
aI-1
aF-1.0
aF-1.0
aF-1.0
aI33
aI-1
aI-1
aF-1.0
aF-1.0
aF-1.0
asg10
(lp407
F-0.011000000000000001
aF0.006
aF0.013999999999999999
asba(i__main__
sensor_data_struct
p408
(dp409
g3
(lp410
I627
aI348
aI221
aI1120
aI2574
aF183.0
aI1103
aI488
aI347
aI1731
aI2320
aF158.0
asg5
I0
sg6
(lp411
I60
aI-1
aI-1
aI98
aI-1
aI-1
asg8
(lp412
I27
aI-1
aI-1
aF-1.0
aF-1.0
aF-1.0
aI25
aI-1
aI-1
aF-1.0
aF-1.0
aF-1.0
asg10
(lp413
F-0.004
aF-0.006999999999999999
aF0.008
asba(i__main__
sensor_data_struct
p414
(dp415
g3
(lp416
I635
aI352
aI222
aI1133
aI2565
aF186.0
aI1034
aI462
aI326
aI1639
aI2340
aF154.0
asg5
I0
sg6
(lp417
I22
aI-1
aI-1
aI93
aI-1
aI-1
asg8
(lp418
I12
aI-1
aI-1
aF-1.0
aF-1.0
aF-1.0
aI23
aI-1
aI-1
aF-1.0
aF-1.0
aF-1.0
asg10
(lp419
F-0.008
aF-0.003
aF0.006999999999999999
asba(i__main__
sensor_data_struct
p420
(dp421
g3
(lp422
I599
aI336
aI208
aI1088
aI2596
aF183.0
aI955
aI461
aI308
aI1564
aI2383
aF192.0
asg5
I1
sg6
(lp423
I20
aI-1
aI-1
aI60
aI-1
aI-1
asg8
(lp424
I36
aI-1
aI-1
aF-1.0
aF-1.0
aF-1.0
aI27
aI-1
aI-1
aF-1.0
aF-1.0
aF-1.0
asg10
(lp425
F0.006999999999999999
aF-0.003
aF0.015
asba(i__main__
sensor_data_struct
p426
(dp427
g3
(lp428
I605
aI342
aI212
aI1097
aI2592
aF188.0
aI903
aI403
aI284
aI1454
aI2376
aF135.0
asg5
I0
sg6
(lp429
I29
aI-1
aI-1
aI94
aI-1
aI-1
asg8
(lp430
I14
aI-1
aI-1
aF-1.0
aF-1.0
aF-1.0
aI23
aI-1
aI-1
aF-1.0
aF-1.0
aF-1.0
asg10
(lp431
F-0.006
aF0.004
aF0.006
asba(i__main__
sensor_data_struct
p432
(dp433
g3
(lp434
I607
aI341
aI214
aI1096
aI2592
aF184.0
aI995
aI449
aI321
aI1577
aI2350
aF150.0
asg5
I0
sg6
(lp435
I74
aI-1
aI-1
aI106
aI-1
aI-1
asg8
(lp436
I24
aI-1
aI-1
aF-1.0
aF-1.0
aF-1.0
aI23
aI-1
aI-1
aF-1.0
aF-1.0
aF-1.0
asg10
(lp437
F-0.004
aF-0.006
aF0.006
asba(i__main__
sensor_data_struct
p438
(dp439
g3
(lp440
I640
aI353
aI223
aI1141
aI2566
aF186.0
aI709
aI377
aI255
aI1211
aI2515
aF178.0
asg5
I0
sg6
(lp441
I70
aI-1
aI-1
aI96
aI-1
aI-1
asg8
(lp442
I42
aI-1
aI-1
aF-1.0
aF-1.0
aF-1.0
aI22
aI-1
aI-1
aF-1.0
aF-1.0
aF-1.0
asg10
(lp443
F-0.002
aF-0.01
aF0.009000000000000001
asba(i__main__
sensor_data_struct
p444
(dp445
g3
(lp446
I719
aI372
aI250
aI1228
aI2505
aF170.0
aI1151
aI469
aI340
aI1779
aI2288
aF117.0
asg5
I0
sg6
(lp447
I238
aI-1
aI-1
aI108
aI-1
aI-1
asg8
(lp448
I26
aI-1
aI-1
aF-1.0
aF-1.0
aF-1.0
aI24
aI-1
aI-1
aF-1.0
aF-1.0
aF-1.0
asg10
(lp449
F0.002
aF-0.004
aF0.0
asba(i__main__
sensor_data_struct
p450
(dp451
g3
(lp452
I664
aI357
aI229
aI1168
aI2540
aF180.0
aI634
aI346
aI220
aI1126
aI2558
aF179.0
asg5
I1
sg6
(lp453
I7
aI-1
aI-1
aI37
aI-1
aI-1
asg8
(lp454
I52
aI-1
aI-1
aF-1.0
aF-1.0
aF-1.0
aI36
aI-1
aI-1
aF-1.0
aF-1.0
aF-1.0
asg10
(lp455
F0.001
aF-0.011000000000000001
aF0.013999999999999999
asba(i__main__
sensor_data_struct
p456
(dp457
g3
(lp458
I833
aI388
aI267
aI1375
aI2425
aF146.0
aI1589
aI540
aI426
aI2324
aI2194
aF24.0
asg5
I0
sg6
(lp459
I40
aI-1
aI-1
aI102
aI-1
aI-1
asg8
(lp460
I27
aI-1
aI-1
aF-1.0
aF-1.0
aF-1.0
aI22
aI-1
aI-1
aF-1.0
aF-1.0
aF-1.0
asg10
(lp461
F0.003
aF0.005
aF0.004
asba(i__main__
sensor_data_struct
p462
(dp463
g3
(lp464
I600
aI338
aI210
aI1088
aI2594
aF184.0
aI721
aI382
aI260
aI1226
aI2511
aF178.0
asg5
I0
sg6
(lp465
I74
aI-1
aI-1
aI106
aI-1
aI-1
asg8
(lp466
I44
aI-1
aI-1
aF-1.0
aF-1.0
aF-1.0
aI22
aI-1
aI-1
aF-1.0
aF-1.0
aF-1.0
asg10
(lp467
F0.001
aF-0.008
aF0.008
asba(i__main__
sensor_data_struct
p468
(dp469
g3
(lp470
I658
aI360
aI225
aI1170
aI2548
aF189.0
aI781
aI405
aI285
aI1295
aI2474
aF177.0
asg5
I0
sg6
(lp471
I121
aI-1
aI-1
aI114
aI-1
aI-1
asg8
(lp472
I35
aI-1
aI-1
aF-1.0
aF-1.0
aF-1.0
aI25
aI-1
aI-1
aF-1.0
aF-1.0
aF-1.0
asg10
(lp473
F0.0
aF-0.006999999999999999
aF0.006
asba(i__main__
sensor_data_struct
p474
(dp475
g3
(lp476
I604
aI341
aI212
aI1095
aI2594
aF186.0
aI902
aI403
aI284
aI1452
aI2377
aF135.0
asg5
I0
sg6
(lp477
I27
aI-1
aI-1
aI87
aI-1
aI-1
asg8
(lp478
I16
aI-1
aI-1
aF-1.0
aF-1.0
aF-1.0
aI24
aI-1
aI-1
aF-1.0
aF-1.0
aF-1.0
asg10
(lp479
F-0.006999999999999999
aF0.006
aF0.008
asba(i__main__
sensor_data_struct
p480
(dp481
g3
(lp482
I593
aI337
aI209
aI1081
aI2606
aF186.0
aI798
aI407
aI269
aI1345
aI2455
aF186.0
asg5
I1
sg6
(lp483
I13
aI-1
aI-1
aI59
aI-1
aI-1
asg8
(lp484
I52
aI-1
aI-1
aF-1.0
aF-1.0
aF-1.0
aI28
aI-1
aI-1
aF-1.0
aF-1.0
aF-1.0
asg10
(lp485
F-0.008
aF-0.009000000000000001
aF0.015
asba(i__main__
sensor_data_struct
p486
(dp487
g3
(lp488
I616
aI345
aI217
aI1108
aI2584
aF185.0
aI1630
aI523
aI430
aI2360
aI2191
aF65518.0
asg5
I0
sg6
(lp489
I40
aI-1
aI-1
aI100
aI-1
aI-1
asg8
(lp490
I28
aI-1
aI-1
aF-1.0
aF-1.0
aF-1.0
aI22
aI-1
aI-1
aF-1.0
aF-1.0
aF-1.0
asg10
(lp491
F0.002
aF0.005
aF0.006
asba(i__main__
sensor_data_struct
p492
(dp493
g3
(lp494
I640
aI350
aI222
aI1138
aI2559
aF182.0
aI806
aI398
aI273
aI1339
aI2445
aF166.0
asg5
I1
sg6
(lp495
I52
aI-1
aI-1
aI78
aI-1
aI-1
asg8
(lp496
I29
aI-1
aI-1
aF-1.0
aF-1.0
aF-1.0
aI25
aI-1
aI-1
aF-1.0
aF-1.0
aF-1.0
asg10
(lp497
F0.003
aF-0.003
aF0.012
asba(i__main__
sensor_data_struct
p498
(dp499
g3
(lp500
I603
aI341
aI212
aI1093
aI2596
aF187.0
aI776
aI403
aI264
aI1320
aI2472
aF190.0
asg5
I1
sg6
(lp501
I15
aI-1
aI-1
aI35
aI-1
aI-1
asg8
(lp502
I54
aI-1
aI-1
aF-1.0
aF-1.0
aF-1.0
aI33
aI-1
aI-1
aF-1.0
aF-1.0
aF-1.0
asg10
(lp503
F-0.009000000000000001
aF0.002
aF0.013999999999999999
asba(i__main__
sensor_data_struct
p504
(dp505
g3
(lp506
I647
aI359
aI226
aI1154
aI2562
aF191.0
aI979
aI452
aI312
aI1579
aI2367
aF167.0
asg5
I1
sg6
(lp507
I27
aI-1
aI-1
aI65
aI-1
aI-1
asg8
(lp508
I39
aI-1
aI-1
aF-1.0
aF-1.0
aF-1.0
aI23
aI-1
aI-1
aF-1.0
aF-1.0
aF-1.0
asg10
(lp509
F-0.005
aF0.005
aF0.013000000000000001
asba(i__main__
sensor_data_struct
p510
(dp511
g3
(lp512
I596
aI338
aI209
aI1085
aI2600
aF187.0
aI772
aI396
aI264
aI1303
aI2467
aF181.0
asg5
I1
sg6
(lp513
I28
aI-1
aI-1
aI74
aI-1
aI-1
asg8
(lp514
I45
aI-1
aI-1
aF-1.0
aF-1.0
aF-1.0
aI24
aI-1
aI-1
aF-1.0
aF-1.0
aF-1.0
asg10
(lp515
F-0.004
aF-0.011000000000000001
aF0.012
asba(i__main__
sensor_data_struct
p516
(dp517
g3
(lp518
I605
aI343
aI213
aI1097
aI2594
aF189.0
aI1471
aI495
aI390
aI2191
aI2235
aF18.0
asg5
I1
sg6
(lp519
I16
aI-1
aI-1
aI36
aI-1
aI-1
asg8
(lp520
I44
aI-1
aI-1
aF-1.0
aF-1.0
aF-1.0
aI35
aI-1
aI-1
aF-1.0
aF-1.0
aF-1.0
asg10
(lp521
F0.005
aF0.009000000000000001
aF0.012
asba(i__main__
sensor_data_struct
p522
(dp523
g3
(lp524
I766
aI388
aI251
aI1315
aI2479
aF180.0
aI860
aI394
aI276
aI1404
aI2409
aF140.0
asg5
I0
sg6
(lp525
I36
aI-1
aI-1
aI77
aI-1
aI-1
asg8
(lp526
I29
aI-1
aI-1
aF-1.0
aF-1.0
aF-1.0
aI23
aI-1
aI-1
aF-1.0
aF-1.0
aF-1.0
asg10
(lp527
F0.006
aF0.001
aF0.012
asba(i__main__
sensor_data_struct
p528
(dp529
g3
(lp530
I631
aI349
aI217
aI1133
aI2567
aF187.0
aI716
aI377
aI252
aI1227
aI2510
aF178.0
asg5
I1
sg6
(lp531
I30
aI-1
aI-1
aI74
aI-1
aI-1
asg8
(lp532
I42
aI-1
aI-1
aF-1.0
aF-1.0
aF-1.0
aI24
aI-1
aI-1
aF-1.0
aF-1.0
aF-1.0
asg10
(lp533
F-0.002
aF-0.006
aF0.012
asba(i__main__
sensor_data_struct
p534
(dp535
g3
(lp536
I589
aI334
aI205
aI1077
aI2606
aF185.0
aI836
aI425
aI273
aI1413
aI2436
aF199.0
asg5
I1
sg6
(lp537
I12
aI-1
aI-1
aI51
aI-1
aI-1
asg8
(lp538
I47
aI-1
aI-1
aF-1.0
aF-1.0
aF-1.0
aI37
aI-1
aI-1
aF-1.0
aF-1.0
aF-1.0
asg10
(lp539
F0.006
aF-0.006999999999999999
aF0.013999999999999999
asba(i__main__
sensor_data_struct
p540
(dp541
g3
(lp542
I624
aI346
aI215
aI1122
aI2573
aF186.0
aI914
aI450
aI299
aI1507
aI2398
aF194.0
asg5
I0
sg6
(lp543
I57
aI-1
aI-1
aI93
aI-1
aI-1
asg8
(lp544
I42
aI-1
aI-1
aF-1.0
aF-1.0
aF-1.0
aI31
aI-1
aI-1
aF-1.0
aF-1.0
aF-1.0
asg10
(lp545
F0.003
aF-0.006999999999999999
aF0.01
asba(i__main__
sensor_data_struct
p546
(dp547
g3
(lp548
I611
aI341
aI211
aI1105
aI2582
aF185.0
aI921
aI441
aI306
aI1494
aI2391
aF173.0
asg5
I0
sg6
(lp549
I77
aI-1
aI-1
aI98
aI-1
aI-1
asg8
(lp550
I42
aI-1
aI-1
aF-1.0
aF-1.0
aF-1.0
aI24
aI-1
aI-1
aF-1.0
aF-1.0
aF-1.0
asg10
(lp551
F-0.001
aF-0.009000000000000001
aF0.009000000000000001
asba(i__main__
sensor_data_struct
p552
(dp553
g3
(lp554
I614
aI347
aI218
aI1102
aI2581
aF188.0
aI976
aI466
aI314
aI1585
aI2370
aF188.0
asg5
I1
sg6
(lp555
I16
aI-1
aI-1
aI59
aI-1
aI-1
asg8
(lp556
I50
aI-1
aI-1
aF-1.0
aF-1.0
aF-1.0
aI27
aI-1
aI-1
aF-1.0
aF-1.0
aF-1.0
asg10
(lp557
F-0.01
aF0.008
aF0.013999999999999999
asba(i__main__
sensor_data_struct
p558
(dp559
g3
(lp560
I650
aI354
aI229
aI1145
aI2554
aF180.0
aI1145
aI496
aI356
aI1784
aI2307
aF150.0
asg5
I0
sg6
(lp561
I70
aI-1
aI-1
aI96
aI-1
aI-1
asg8
(lp562
I21
aI-1
aI-1
aF-1.0
aF-1.0
aF-1.0
aI25
aI-1
aI-1
aF-1.0
aF-1.0
aF-1.0
asg10
(lp563
F-0.002
aF-0.002
aF0.008
asba(i__main__
sensor_data_struct
p564
(dp565
g3
(lp566
I693
aI370
aI239
aI1208
aI2523
aF184.0
aI711
aI372
aI250
aI1216
aI2511
aF173.0
asg5
I1
sg6
(lp567
I24
aI-1
aI-1
aI76
aI-1
aI-1
asg8
(lp568
I24
aI-1
aI-1
aF-1.0
aF-1.0
aF-1.0
aI24
aI-1
aI-1
aF-1.0
aF-1.0
aF-1.0
asg10
(lp569
F-0.006999999999999999
aF-0.003
aF0.011000000000000001
asba(i__main__
sensor_data_struct
p570
(dp571
g3
(lp572
I609
aI344
aI214
aI1102
aI2592
aF188.0
aI1024
aI430
aI319
aI1597
aI2331
aF112.0
asg5
I0
sg6
(lp573
I72
aI-1
aI-1
aI98
aI-1
aI-1
asg8
(lp574
I25
aI-1
aI-1
aF-1.0
aF-1.0
aF-1.0
aI23
aI-1
aI-1
aF-1.0
aF-1.0
aF-1.0
asg10
(lp575
F0.001
aF0.001
aF0.008
asba(i__main__
sensor_data_struct
p576
(dp577
g3
(lp578
I602
aI339
aI210
aI1092
aI2594
aF185.0
aI700
aI374
aI243
aI1214
aI2518
aF185.0
asg5
I1
sg6
(lp579
I29
aI-1
aI-1
aI69
aI-1
aI-1
asg8
(lp580
I50
aI-1
aI-1
aF-1.0
aF-1.0
aF-1.0
aI33
aI-1
aI-1
aF-1.0
aF-1.0
aF-1.0
asg10
(lp581
F0.004
aF-0.009000000000000001
aF0.01
asba(i__main__
sensor_data_struct
p582
(dp583
g3
(lp584
I620
aI348
aI217
aI1116
aI2580
aF189.0
aI1139
aI466
aI340
aI1771
aI2307
aF116.0
asg5
I0
sg6
(lp585
I25
aI-1
aI-1
aI69
aI-1
aI-1
asg8
(lp586
I43
aI-1
aI-1
aF-1.0
aF-1.0
aF-1.0
aI22
aI-1
aI-1
aF-1.0
aF-1.0
aF-1.0
asg10
(lp587
F-0.001
aF0.008
aF0.012
asba(i__main__
sensor_data_struct
p588
(dp589
g3
(lp590
I797
aI404
aI266
aI1350
aI2463
aF184.0
aI696
aI368
aI244
aI1201
aI2522
aF176.0
asg5
I1
sg6
(lp591
I28
aI-1
aI-1
aI59
aI-1
aI-1
asg8
(lp592
I39
aI-1
aI-1
aF-1.0
aF-1.0
aF-1.0
aI26
aI-1
aI-1
aF-1.0
aF-1.0
aF-1.0
asg10
(lp593
F-0.005
aF-0.002
aF0.015
asba(i__main__
sensor_data_struct
p594
(dp595
g3
(lp596
I636
aI351
aI222
aI1134
aI2567
aF185.0
aI1166
aI438
aI335
aI1769
aI2272
aF67.0
asg5
I0
sg6
(lp597
I106
aI-1
aI-1
aI102
aI-1
aI-1
asg8
(lp598
I25
aI-1
aI-1
aF-1.0
aF-1.0
aF-1.0
aI23
aI-1
aI-1
aF-1.0
aF-1.0
aF-1.0
asg10
(lp599
F0.002
aF0.001
aF0.001
asba(i__main__
sensor_data_struct
p600
(dp601
g3
(lp602
I704
aI367
aI240
aI1218
aI2514
aF175.0
aI916
aI409
aI296
aI1466
aI2385
aF131.0
asg5
I0
sg6
(lp603
I67
aI-1
aI-1
aI89
aI-1
aI-1
asg8
(lp604
I23
aI-1
aI-1
aF-1.0
aF-1.0
aF-1.0
aI24
aI-1
aI-1
aF-1.0
aF-1.0
aF-1.0
asg10
(lp605
F0.003
aF0.0
aF0.01
asba.