(lp0
(i__main__
sensor_data_struct
p1
(dp2
S'color'
p3
(lp4
I653
aI346
aI225
aI1141
aI2536
aF169.0
aI929
aI431
aI298
aI1505
aI2382
aF160.0
asS'button'
p5
I1
sS'IR'
p6
(lp7
I35
aI-1
aI-1
aI66
aI-1
aI-1
asS'TOF'
p8
(lp9
I25
aI-1
aI-1
aF-1.0
aF-1.0
aF-1.0
aI24
aI-1
aI-1
aF-1.0
aF-1.0
aF-1.0
asS'pt'
p10
(lp11
F0.004
aF0.002
aF0.013999999999999999
asba(i__main__
sensor_data_struct
p12
(dp13
g3
(lp14
I602
aI335
aI211
aI1078
aI2573
aF178.0
aI991
aI447
aI314
aI1579
aI2350
aF153.0
asg5
I0
sg6
(lp15
I22
aI-1
aI-1
aI90
aI-1
aI-1
asg8
(lp16
I12
aI-1
aI-1
aF-1.0
aF-1.0
aF-1.0
aI22
aI-1
aI-1
aF-1.0
aF-1.0
aF-1.0
asg10
(lp17
F-0.006999999999999999
aF0.0
aF0.008
asba(i__main__
sensor_data_struct
p18
(dp19
g3
(lp20
I776
aI392
aI259
aI1311
aI2457
aF177.0
aI654
aI355
aI231
aI1146
aI2545
aF178.0
asg5
I1
sg6
(lp21
I12
aI-1
aI-1
aI33
aI-1
aI-1
asg8
(lp22
I52
aI-1
aI-1
aF-1.0
aF-1.0
aF-1.0
aI35
aI-1
aI-1
aF-1.0
aF-1.0
aF-1.0
asg10
(lp23
F-0.01
aF0.003
aF0.015
asba(i__main__
sensor_data_struct
p24
(dp25
g3
(lp26
I598
aI330
aI207
aI1078
aI2587
aF175.0
aI1077
aI486
aI336
aI1714
aI2334
aF171.0
asg5
I0
sg6
(lp27
I19
aI-1
aI-1
aI74
aI-1
aI-1
asg8
(lp28
I29
aI-1
aI-1
aF-1.0
aF-1.0
aF-1.0
aI23
aI-1
aI-1
aF-1.0
aF-1.0
aF-1.0
asg10
(lp29
F0.01
aF0.001
aF0.012
asba(i__main__
sensor_data_struct
p30
(dp31
g3
(lp32
I577
aI329
aI204
aI1051
aI2607
aF182.0
aI806
aI384
aI264
aI1332
aI2429
aF151.0
asg5
I0
sg6
(lp33
I22
aI-1
aI-1
aI70
aI-1
aI-1
asg8
(lp34
I41
aI-1
aI-1
aF-1.0
aF-1.0
aF-1.0
aI23
aI-1
aI-1
aF-1.0
aF-1.0
aF-1.0
asg10
(lp35
F-0.006
aF0.006
aF0.012
asba(i__main__
sensor_data_struct
p36
(dp37
g3
(lp38
I572
aI325
aI200
aI1045
aI2605
aF180.0
aI839
aI413
aI282
aI1383
aI2423
aF173.0
asg5
I0
sg6
(lp39
I36
aI-1
aI-1
aI88
aI-1
aI-1
asg8
(lp40
I41
aI-1
aI-1
aF-1.0
aF-1.0
aF-1.0
aI24
aI-1
aI-1
aF-1.0
aF-1.0
aF-1.0
asg10
(lp41
F-0.004
aF-0.01
aF0.01
asba(i__main__
sensor_data_struct
p42
(dp43
g3
(lp44
I591
aI333
aI207
aI1068
aI2588
aF182.0
aI815
aI407
aI270
aI1366
aI2439
aF180.0
asg5
I1
sg6
(lp45
I18
aI-1
aI-1
aI41
aI-1
aI-1
asg8
(lp46
I11
aI-1
aI-1
aF-1.0
aF-1.0
aF-1.0
aI11
aI-1
aI-1
aF-1.0
aF-1.0
aF-1.0
asg10
(lp47
F-0.008
aF0.0
aF0.006
asba(i__main__
sensor_data_struct
p48
(dp49
g3
(lp50
I611
aI340
aI214
aI1094
aI2575
aF181.0
aI1023
aI467
aI326
aI1634
aI2351
aF166.0
asg5
I0
sg6
(lp51
I32
aI-1
aI-1
aI76
aI-1
aI-1
asg8
(lp52
I18
aI-1
aI-1
aF-1.0
aF-1.0
aF-1.0
aI25
aI-1
aI-1
aF-1.0
aF-1.0
aF-1.0
asg10
(lp53
F-0.005
aF0.0
aF0.011000000000000001
asba(i__main__
sensor_data_struct
p54
(dp55
g3
(lp56
I570
aI325
aI200
aI1043
aI2609
aF181.0
aI829
aI379
aI263
aI1360
aI2414
aF136.0
asg5
I0
sg6
(lp57
I24
aI-1
aI-1
aI83
aI-1
aI-1
asg8
(lp58
I31
aI-1
aI-1
aF-1.0
aF-1.0
aF-1.0
aI22
aI-1
aI-1
aF-1.0
aF-1.0
aF-1.0
asg10
(lp59
F0.01
aF-0.001
aF0.011000000000000001
asba(i__main__
sensor_data_struct
p60
(dp61
g3
(lp62
I579
aI329
aI203
aI1055
aI2601
aF182.0
aI1062
aI420
aI312
aI1640
aI2299
aF89.0
asg5
I0
sg6
(lp63
I41
aI-1
aI-1
aI95
aI-1
aI-1
asg8
(lp64
I18
aI-1
aI-1
aF-1.0
aF-1.0
aF-1.0
aI25
aI-1
aI-1
aF-1.0
aF-1.0
aF-1.0
asg10
(lp65
F-0.002
aF0.004
aF0.006999999999999999
asba(i__main__
sensor_data_struct
p66
(dp67
g3
(lp68
I612
aI338
aI213
aI1094
aI2570
aF178.0
aI657
aI354
aI233
aI1143
aI2539
aF174.0
asg5
I1
sg6
(lp69
I20
aI-1
aI-1
aI68
aI-1
aI-1
asg8
(lp70
I51
aI-1
aI-1
aF-1.0
aF-1.0
aF-1.0
aI23
aI-1
aI-1
aF-1.0
aF-1.0
aF-1.0
asg10
(lp71
F-0.006
aF-0.009000000000000001
aF0.013000000000000001
asba(i__main__
sensor_data_struct
p72
(dp73
g3
(lp74
I614
aI342
aI212
aI1104
aI2569
aF185.0
aI754
aI382
aI261
aI1262
aI2466
aF167.0
asg5
I0
sg6
(lp75
I31
aI-1
aI-1
aI91
aI-1
aI-1
asg8
(lp76
I22
aI-1
aI-1
aF-1.0
aF-1.0
aF-1.0
aI25
aI-1
aI-1
aF-1.0
aF-1.0
aF-1.0
asg10
(lp77
F-0.005
aF-0.005
aF0.009000000000000001
asba(i__main__
sensor_data_struct
p78
(dp79
g3
(lp80
I576
aI328
aI202
aI1051
aI2605
aF182.0
aI873
aI413
aI280
aI1439
aI2411
aF163.0
asg5
I1
sg6
(lp81
I21
aI-1
aI-1
aI59
aI-1
aI-1
asg8
(lp82
I31
aI-1
aI-1
aF-1.0
aF-1.0
aF-1.0
aI26
aI-1
aI-1
aF-1.0
aF-1.0
aF-1.0
asg10
(lp83
F0.006999999999999999
aF0.003
aF0.015
asba(i__main__
sensor_data_struct
p84
(dp85
g3
(lp86
I764
aI370
aI253
aI1276
aI2455
aF150.0
aI1246
aI473
aI352
aI1891
aI2254
aF84.0
asg5
I0
sg6
(lp87
I116
aI-1
aI-1
aI103
aI-1
aI-1
asg8
(lp88
I26
aI-1
aI-1
aF-1.0
aF-1.0
aF-1.0
aI22
aI-1
aI-1
aF-1.0
aF-1.0
aF-1.0
asg10
(lp89
F0.004
aF0.0
aF0.0
asba(i__main__
sensor_data_struct
p90
(dp91
g3
(lp92
I594
aI331
aI207
aI1071
aI2586
aF178.0
aI884
aI424
aI302
aI1425
aI2401
aF161.0
asg5
I0
sg6
(lp93
I161
aI-1
aI-1
aI113
aI-1
aI-1
asg8
(lp94
I33
aI-1
aI-1
aF-1.0
aF-1.0
aF-1.0
aI25
aI-1
aI-1
aF-1.0
aF-1.0
aF-1.0
asg10
(lp95
F0.002
aF-0.005
aF0.005
asba(i__main__
sensor_data_struct
p96
(dp97
g3
(lp98
I602
aI334
aI210
aI1082
aI2580
aF178.0
aI961
aI415
aI302
aI1514
aI2344
aF121.0
asg5
I0
sg6
(lp99
I144
aI-1
aI-1
aI109
aI-1
aI-1
asg8
(lp100
I26
aI-1
aI-1
aF-1.0
aF-1.0
aF-1.0
aI23
aI-1
aI-1
aF-1.0
aF-1.0
aF-1.0
asg10
(lp101
F0.003
aF-0.002
aF0.004
asba(i__main__
sensor_data_struct
p102
(dp103
g3
(lp104
I611
aI337
aI213
aI1092
aI2572
aF177.0
aI903
aI420
aI297
aI1453
aI2385
aF152.0
asg5
I0
sg6
(lp105
I87
aI-1
aI-1
aI94
aI-1
aI-1
asg8
(lp106
I21
aI-1
aI-1
aF-1.0
aF-1.0
aF-1.0
aI24
aI-1
aI-1
aF-1.0
aF-1.0
aF-1.0
asg10
(lp107
F0.001
aF-0.003
aF0.009000000000000001
asba(i__main__
sensor_data_struct
p108
(dp109
g3
(lp110
I597
aI334
aI209
aI1077
aI2589
aF180.0
aI657
aI356
aI230
aI1152
aI2542
aF180.0
asg5
I1
sg6
(lp111
I9
aI-1
aI-1
aI33
aI-1
aI-1
asg8
(lp112
I49
aI-1
aI-1
aF-1.0
aF-1.0
aF-1.0
aI33
aI-1
aI-1
aF-1.0
aF-1.0
aF-1.0
asg10
(lp113
F-0.011000000000000001
aF0.0
aF0.013000000000000001
asba(i__main__
sensor_data_struct
p114
(dp115
g3
(lp116
I593
aI335
aI208
aI1074
aI2590
aF183.0
aI935
aI418
aI299
aI1489
aI2363
aF137.0
asg5
I0
sg6
(lp117
I57
aI-1
aI-1
aI94
aI-1
aI-1
asg8
(lp118
I18
aI-1
aI-1
aF-1.0
aF-1.0
aF-1.0
aI25
aI-1
aI-1
aF-1.0
aF-1.0
aF-1.0
asg10
(lp119
F-0.003
aF0.0
aF0.008
asba(i__main__
sensor_data_struct
p120
(dp121
g3
(lp122
I621
aI341
aI217
aI1105
aI2565
aF177.0
aI1087
aI462
aI335
aI1692
aI2309
aF131.0
asg5
I0
sg6
(lp123
I76
aI-1
aI-1
aI104
aI-1
aI-1
asg8
(lp124
I20
aI-1
aI-1
aF-1.0
aF-1.0
aF-1.0
aI23
aI-1
aI-1
aF-1.0
aF-1.0
aF-1.0
asg10
(lp125
F-0.001
aF-0.002
aF0.006
asba(i__main__
sensor_data_struct
p126
(dp127
g3
(lp128
I660
aI348
aI225
aI1153
aI2527
aF170.0
aI1234
aI499
aI366
aI1890
aI2274
aF119.0
asg5
I0
sg6
(lp129
I56
aI-1
aI-1
aI96
aI-1
aI-1
asg8
(lp130
I28
aI-1
aI-1
aF-1.0
aF-1.0
aF-1.0
aI23
aI-1
aI-1
aF-1.0
aF-1.0
aF-1.0
asg10
(lp131
F0.005
aF0.002
aF0.008
asba(i__main__
sensor_data_struct
p132
(dp133
g3
(lp134
I640
aI345
aI220
aI1132
aI2551
aF175.0
aI930
aI435
aI297
aI1514
aI2383
aF167.0
asg5
I1
sg6
(lp135
I26
aI-1
aI-1
aI61
aI-1
aI-1
asg8
(lp136
I27
aI-1
aI-1
aF-1.0
aF-1.0
aF-1.0
aI25
aI-1
aI-1
aF-1.0
aF-1.0
aF-1.0
asg10
(lp137
F0.006
aF0.003
aF0.015
asba(i__main__
sensor_data_struct
p138
(dp139
g3
(lp140
I587
aI332
aI206
aI1065
aI2594
aF182.0
aI853
aI418
aI283
aI1407
aI2416
aF175.0
asg5
I1
sg6
(lp141
I19
aI-1
aI-1
aI72
aI-1
aI-1
asg8
(lp142
I44
aI-1
aI-1
aF-1.0
aF-1.0
aF-1.0
aI22
aI-1
aI-1
aF-1.0
aF-1.0
aF-1.0
asg10
(lp143
F-0.006
aF-0.005
aF0.012
asba(i__main__
sensor_data_struct
p144
(dp145
g3
(lp146
I646
aI351
aI226
aI1141
aI2556
aF178.0
aI1518
aI568
aI417
aI2309
aI2248
aF98.0
asg5
I1
sg6
(lp147
I15
aI-1
aI-1
aI35
aI-1
aI-1
asg8
(lp148
I53
aI-1
aI-1
aF-1.0
aF-1.0
aF-1.0
aI35
aI-1
aI-1
aF-1.0
aF-1.0
aF-1.0
asg10
(lp149
F0.002
aF0.012
aF0.012
asba(i__main__
sensor_data_struct
p150
(dp151
g3
(lp152
I571
aI326
aI200
aI1047
aI2612
aF182.0
aI738
aI388
aI247
aI1273
aI2481
aF192.0
asg5
I1
sg6
(lp153
I9
aI-1
aI-1
aI49
aI-1
aI-1
asg8
(lp154
I51
aI-1
aI-1
aF-1.0
aF-1.0
aF-1.0
aI35
aI-1
aI-1
aF-1.0
aF-1.0
aF-1.0
asg10
(lp155
F-0.001
aF-0.012
aF0.013999999999999999
asba(i__main__
sensor_data_struct
p156
(dp157
g3
(lp158
I598
aI337
aI209
aI1080
aI2582
aF184.0
aI800
aI411
aI267
aI1354
aI2449
aF193.0
asg5
I1
sg6
(lp159
I14
aI-1
aI-1
aI34
aI-1
aI-1
asg8
(lp160
I10
aI-1
aI-1
aF-1.0
aF-1.0
aF-1.0
aI12
aI-1
aI-1
aF-1.0
aF-1.0
aF-1.0
asg10
(lp161
F-0.009000000000000001
aF-0.001
aF0.006999999999999999
asba(i__main__
sensor_data_struct
p162
(dp163
g3
(lp164
I587
aI333
aI205
aI1068
aI2597
aF184.0
aI766
aI395
aI277
aI1269
aI2469
aF172.0
asg5
I0
sg6
(lp165
I103
aI-1
aI-1
aI112
aI-1
aI-1
asg8
(lp166
I34
aI-1
aI-1
aF-1.0
aF-1.0
aF-1.0
aI23
aI-1
aI-1
aF-1.0
aF-1.0
aF-1.0
asg10
(lp167
F0.0
aF-0.006999999999999999
aF0.006
asba(i__main__
sensor_data_struct
p168
(dp169
g3
(lp170
I575
aI326
aI200
aI1053
aI2607
aF181.0
aI855
aI443
aI281
aI1448
aI2432
aF215.0
asg5
I1
sg6
(lp171
I12
aI-1
aI-1
aI55
aI-1
aI-1
asg8
(lp172
I50
aI-1
aI-1
aF-1.0
aF-1.0
aF-1.0
aI35
aI-1
aI-1
aF-1.0
aF-1.0
aF-1.0
asg10
(lp173
F0.005
aF-0.01
aF0.012
asba(i__main__
sensor_data_struct
p174
(dp175
g3
(lp176
I610
aI338
aI211
aI1097
aI2575
aF181.0
aI963
aI436
aI312
aI1529
aI2356
aF147.0
asg5
I0
sg6
(lp177
I192
aI-1
aI-1
aI114
aI-1
aI-1
asg8
(lp178
I30
aI-1
aI-1
aF-1.0
aF-1.0
aF-1.0
aI25
aI-1
aI-1
aF-1.0
aF-1.0
aF-1.0
asg10
(lp179
F0.003
aF-0.005
aF0.004
asba(i__main__
sensor_data_struct
p180
(dp181
g3
(lp182
I649
aI349
aI223
aI1142
aI2540
aF176.0
aI727
aI371
aI252
aI1226
aI2479
aF165.0
asg5
I1
sg6
(lp183
I36
aI-1
aI-1
aI73
aI-1
aI-1
asg8
(lp184
I27
aI-1
aI-1
aF-1.0
aF-1.0
aF-1.0
aI24
aI-1
aI-1
aF-1.0
aF-1.0
aF-1.0
asg10
(lp185
F-0.003
aF-0.003
aF0.012
asba(i__main__
sensor_data_struct
p186
(dp187
g3
(lp188
I635
aI348
aI223
aI1127
aI2567
aF179.0
aI1911
aI598
aI485
aI2771
aI2182
aF65505.0
asg5
I1
sg6
(lp189
I19
aI-1
aI-1
aI36
aI-1
aI-1
asg8
(lp190
I47
aI-1
aI-1
aF-1.0
aF-1.0
aF-1.0
aI34
aI-1
aI-1
aF-1.0
aF-1.0
aF-1.0
asg10
(lp191
F0.003
aF0.01
aF0.011000000000000001
asba(i__main__
sensor_data_struct
p192
(dp193
g3
(lp194
I604
aI341
aI212
aI1093
aI2589
aF186.0
aI954
aI413
aI285
aI1549
aI2378
aF133.0
asg5
I1
sg6
(lp195
I5
aI-1
aI-1
aI32
aI-1
aI-1
asg8
(lp196
I40
aI-1
aI-1
aF-1.0
aF-1.0
aF-1.0
aI34
aI-1
aI-1
aF-1.0
aF-1.0
aF-1.0
asg10
(lp197
F0.011000000000000001
aF0.006
aF0.013999999999999999
asba(i__main__
sensor_data_struct
p198
(dp199
g3
(lp200
I582
aI330
aI203
aI1063
aI2603
aF183.0
aI734
aI383
aI250
aI1255
aI2481
aF183.0
asg5
I1
sg6
(lp201
I16
aI-1
aI-1
aI60
aI-1
aI-1
asg8
(lp202
I52
aI-1
aI-1
aF-1.0
aF-1.0
aF-1.0
aI27
aI-1
aI-1
aF-1.0
aF-1.0
aF-1.0
asg10
(lp203
F-0.006
aF-0.01
aF0.015
asba(i__main__
sensor_data_struct
p204
(dp205
g3
(lp206
I592
aI333
aI204
aI1077
aI2589
aF184.0
aI741
aI367
aI245
aI1254
aI2470
aF159.0
asg5
I1
sg6
(lp207
I24
aI-1
aI-1
aI76
aI-1
aI-1
asg8
(lp208
I35
aI-1
aI-1
aF-1.0
aF-1.0
aF-1.0
aI24
aI-1
aI-1
aF-1.0
aF-1.0
aF-1.0
asg10
(lp209
F0.008
aF-0.003
aF0.012
asba(i__main__
sensor_data_struct
p210
(dp211
g3
(lp212
I584
aI332
aI206
aI1063
aI2606
aF183.0
aI944
aI402
aI286
aI1517
aI2374
aF118.0
asg5
I1
sg6
(lp213
I15
aI-1
aI-1
aI35
aI-1
aI-1
asg8
(lp214
I54
aI-1
aI-1
aF-1.0
aF-1.0
aF-1.0
aI34
aI-1
aI-1
aF-1.0
aF-1.0
aF-1.0
asg10
(lp215
F-0.001
aF0.013000000000000001
aF0.015
asba(i__main__
sensor_data_struct
p216
(dp217
g3
(lp218
I596
aI336
aI209
aI1078
aI2591
aF183.0
aI898
aI427
aI297
aI1455
aI2391
aF165.0
asg5
I0
sg6
(lp219
I49
aI-1
aI-1
aI93
aI-1
aI-1
asg8
(lp220
I22
aI-1
aI-1
aF-1.0
aF-1.0
aF-1.0
aI23
aI-1
aI-1
aF-1.0
aF-1.0
aF-1.0
asg10
(lp221
F-0.003
aF-0.004
aF0.009000000000000001
asba(i__main__
sensor_data_struct
p222
(dp223
g3
(lp224
I627
aI344
aI219
aI1114
aI2561
aF179.0
aI1040
aI436
aI313
aI1627
aI2312
aF121.0
asg5
I0
sg6
(lp225
I33
aI-1
aI-1
aI98
aI-1
aI-1
asg8
(lp226
I15
aI-1
aI-1
aF-1.0
aF-1.0
aF-1.0
aI23
aI-1
aI-1
aF-1.0
aF-1.0
aF-1.0
asg10
(lp227
F-0.005
aF0.001
aF0.004
asba(i__main__
sensor_data_struct
p228
(dp229
g3
(lp230
I852
aI385
aI270
aI1389
aI2404
aF133.0
aI1565
aI535
aI419
aI2298
aI2200
aF29.0
asg5
I0
sg6
(lp231
I40
aI-1
aI-1
aI101
aI-1
aI-1
asg8
(lp232
I26
aI-1
aI-1
aF-1.0
aF-1.0
aF-1.0
aI23
aI-1
aI-1
aF-1.0
aF-1.0
aF-1.0
asg10
(lp233
F0.002
aF0.005
aF0.003
asba(i__main__
sensor_data_struct
p234
(dp235
g3
(lp236
I601
aI336
aI212
aI1080
aI2587
aF180.0
aI882
aI416
aI290
aI1431
aI2395
aF157.0
asg5
I0
sg6
(lp237
I34
aI-1
aI-1
aI90
aI-1
aI-1
asg8
(lp238
I15
aI-1
aI-1
aF-1.0
aF-1.0
aF-1.0
aI24
aI-1
aI-1
aF-1.0
aF-1.0
aF-1.0
asg10
(lp239
F-0.006
aF-0.001
aF0.008
asba(i__main__
sensor_data_struct
p240
(dp241
g3
(lp242
I659
aI357
aI228
aI1161
aI2543
aF182.0
aI633
aI348
aI217
aI1130
aI2554
aF184.0
asg5
I1
sg6
(lp243
I9
aI-1
aI-1
aI33
aI-1
aI-1
asg8
(lp244
I51
aI-1
aI-1
aF-1.0
aF-1.0
aF-1.0
aI36
aI-1
aI-1
aF-1.0
aF-1.0
aF-1.0
asg10
(lp245
F-0.003
aF-0.004
aF0.013999999999999999
asba(i__main__
sensor_data_struct
p246
(dp247
g3
(lp248
I820
aI424
aI271
aI1394
aI2448
aF204.0
aI709
aI364
aI245
aI1204
aI2489
aF165.0
asg5
I1
sg6
(lp249
I38
aI-1
aI-1
aI65
aI-1
aI-1
asg8
(lp250
I33
aI-1
aI-1
aF-1.0
aF-1.0
aF-1.0
aI25
aI-1
aI-1
aF-1.0
aF-1.0
aF-1.0
asg10
(lp251
F0.001
aF-0.003
aF0.013999999999999999
asba(i__main__
sensor_data_struct
p252
(dp253
g3
(lp254
I599
aI338
aI211
aI1083
aI2593
aF184.0
aI913
aI401
aI285
aI1463
aI2369
aF127.0
asg5
I0
sg6
(lp255
I25
aI-1
aI-1
aI72
aI-1
aI-1
asg8
(lp256
I32
aI-1
aI-1
aF-1.0
aF-1.0
aF-1.0
aI22
aI-1
aI-1
aF-1.0
aF-1.0
aF-1.0
asg10
(lp257
F-0.005
aF0.008
aF0.011000000000000001
asba(i__main__
sensor_data_struct
p258
(dp259
g3
(lp260
I627
aI342
aI220
aI1109
aI2559
aF175.0
aI1043
aI442
aI319
aI1630
aI2315
aF125.0
asg5
I0
sg6
(lp261
I81
aI-1
aI-1
aI104
aI-1
aI-1
asg8
(lp262
I21
aI-1
aI-1
aF-1.0
aF-1.0
aF-1.0
aI22
aI-1
aI-1
aF-1.0
aF-1.0
aF-1.0
asg10
(lp263
F-0.002
aF-0.002
aF0.003
asba(i__main__
sensor_data_struct
p264
(dp265
g3
(lp266
I604
aI335
aI211
aI1083
aI2578
aF178.0
aI1641
aI509
aI423
aI2358
aI2175
aF65498.0
asg5
I0
sg6
(lp267
I46
aI-1
aI-1
aI103
aI-1
aI-1
asg8
(lp268
I27
aI-1
aI-1
aF-1.0
aF-1.0
aF-1.0
aI24
aI-1
aI-1
aF-1.0
aF-1.0
aF-1.0
asg10
(lp269
F0.005
aF0.004
aF0.003
asba(i__main__
sensor_data_struct
p270
(dp271
g3
(lp272
I604
aI335
aI211
aI1082
aI2574
aF178.0
aI978
aI443
aI317
aI1549
aI2352
aF149.0
asg5
I0
sg6
(lp273
I120
aI-1
aI-1
aI103
aI-1
aI-1
asg8
(lp274
I25
aI-1
aI-1
aF-1.0
aF-1.0
aF-1.0
aI22
aI-1
aI-1
aF-1.0
aF-1.0
aF-1.0
asg10
(lp275
F0.001
aF-0.004
aF0.006999999999999999
asba(i__main__
sensor_data_struct
p276
(dp277
g3
(lp278
I590
aI334
aI208
aI1067
aI2592
aF183.0
aI1612
aI496
aI412
aI2322
aI2179
aF65494.0
asg5
I0
sg6
(lp279
I30
aI-1
aI-1
aI96
aI-1
aI-1
asg8
(lp280
I31
aI-1
aI-1
aF-1.0
aF-1.0
aF-1.0
aI23
aI-1
aI-1
aF-1.0
aF-1.0
aF-1.0
asg10
(lp281
F0.0
aF0.008
aF0.006999999999999999
asba(i__main__
sensor_data_struct
p282
(dp283
g3
(lp284
I623
aI344
aI219
aI1109
aI2569
aF180.0
aI1033
aI478
aI328
aI1657
aI2349
aF179.0
asg5
I1
sg6
(lp285
I25
aI-1
aI-1
aI64
aI-1
aI-1
asg8
(lp286
I33
aI-1
aI-1
aF-1.0
aF-1.0
aF-1.0
aI24
aI-1
aI-1
aF-1.0
aF-1.0
aF-1.0
asg10
(lp287
F-0.006
aF0.004
aF0.013000000000000001
asba(i__main__
sensor_data_struct
p288
(dp289
g3
(lp290
I593
aI334
aI209
aI1072
aI2593
aF181.0
aI745
aI383
aI255
aI1261
aI2471
aF176.0
asg5
I1
sg6
(lp291
I19
aI-1
aI-1
aI67
aI-1
aI-1
asg8
(lp292
I51
aI-1
aI-1
aF-1.0
aF-1.0
aF-1.0
aI24
aI-1
aI-1
aF-1.0
aF-1.0
aF-1.0
asg10
(lp293
F-0.004
aF-0.006999999999999999
aF0.013000000000000001
asba(i__main__
sensor_data_struct
p294
(dp295
g3
(lp296
I807
aI377
aI262
aI1323
aI2417
aF141.0
aI1319
aI492
aI369
aI1984
aI2236
aF78.0
asg5
I0
sg6
(lp297
I92
aI-1
aI-1
aI102
aI-1
aI-1
asg8
(lp298
I26
aI-1
aI-1
aF-1.0
aF-1.0
aF-1.0
aI25
aI-1
aI-1
aF-1.0
aF-1.0
aF-1.0
asg10
(lp299
F0.002
aF0.001
aF0.001
asba(i__main__
sensor_data_struct
p300
(dp301
g3
(lp302
I638
aI341
aI220
aI1123
aI2546
aF170.0
aI1548
aI526
aI419
aI2263
aI2199
aF20.0
asg5
I0
sg6
(lp303
I33
aI-1
aI-1
aI97
aI-1
aI-1
asg8
(lp304
I30
aI-1
aI-1
aF-1.0
aF-1.0
aF-1.0
aI22
aI-1
aI-1
aF-1.0
aF-1.0
aF-1.0
asg10
(lp305
F0.005
aF0.005
aF0.006999999999999999
asba(i__main__
sensor_data_struct
p306
(dp307
g3
(lp308
I580
aI326
aI202
aI1052
aI2591
aF178.0
aI935
aI450
aI303
aI1524
aI2378
aF184.0
asg5
I1
sg6
(lp309
I21
aI-1
aI-1
aI69
aI-1
aI-1
asg8
(lp310
I50
aI-1
aI-1
aF-1.0
aF-1.0
aF-1.0
aI23
aI-1
aI-1
aF-1.0
aF-1.0
aF-1.0
asg10
(lp311
F-0.003
aF-0.011000000000000001
aF0.013000000000000001
asba(i__main__
sensor_data_struct
p312
(dp313
g3
(lp314
I622
aI344
aI219
aI1106
aI2567
aF180.0
aI1041
aI481
aI329
aI1671
aI2348
aF180.0
asg5
I1
sg6
(lp315
I22
aI-1
aI-1
aI61
aI-1
aI-1
asg8
(lp316
I48
aI-1
aI-1
aF-1.0
aF-1.0
aF-1.0
aI26
aI-1
aI-1
aF-1.0
aF-1.0
aF-1.0
asg10
(lp317
F-0.004
aF0.009000000000000001
aF0.013999999999999999
asba(i__main__
sensor_data_struct
p318
(dp319
g3
(lp320
I588
aI332
aI207
aI1069
aI2604
aF181.0
aI1481
aI535
aI399
aI2239
aI2241
aF71.0
asg5
I1
sg6
(lp321
I7
aI-1
aI-1
aI33
aI-1
aI-1
asg8
(lp322
I41
aI-1
aI-1
aF-1.0
aF-1.0
aF-1.0
aI34
aI-1
aI-1
aF-1.0
aF-1.0
aF-1.0
asg10
(lp323
F0.009000000000000001
aF0.008
aF0.012
asba(i__main__
sensor_data_struct
p324
(dp325
g3
(lp326
I601
aI338
aI210
aI1090
aI2596
aF184.0
aI1021
aI413
aI308
aI1587
aI2323
aF94.0
asg5
I0
sg6
(lp327
I117
aI-1
aI-1
aI108
aI-1
aI-1
asg8
(lp328
I26
aI-1
aI-1
aF-1.0
aF-1.0
aF-1.0
aI24
aI-1
aI-1
aF-1.0
aF-1.0
aF-1.0
asg10
(lp329
F0.004
aF0.001
aF0.005
asba(i__main__
sensor_data_struct
p330
(dp331
g3
(lp332
I673
aI354
aI229
aI1175
aI2528
aF172.0
aI568
aI321
aI296
aI1039
aI3107
aF105.0
asg5
I1
sg6
(lp333
I1
aI-1
aI-1
aI32
aI-1
aI-1
asg8
(lp334
I52
aI-1
aI-1
aF-1.0
aF-1.0
aF-1.0
aI32
aI-1
aI-1
aF-1.0
aF-1.0
aF-1.0
asg10
(lp335
F0.009000000000000001
aF-0.009000000000000001
aF0.015
asba(i__main__
sensor_data_struct
p336
(dp337
g3
(lp338
I588
aI333
aI205
aI1072
aI2599
aF184.0
aI849
aI400
aI287
aI1369
aI2405
aF145.0
asg5
I0
sg6
(lp339
I79
aI-1
aI-1
aI99
aI-1
aI-1
asg8
(lp340
I19
aI-1
aI-1
aF-1.0
aF-1.0
aF-1.0
aI24
aI-1
aI-1
aF-1.0
aF-1.0
aF-1.0
asg10
(lp341
F-0.001
aF-0.002
aF0.006999999999999999
asba(i__main__
sensor_data_struct
p342
(dp343
g3
(lp344
I610
aI341
aI215
aI1097
aI2588
aF182.0
aI1046
aI441
aI317
aI1645
aI2328
aF124.0
asg5
I1
sg6
(lp345
I18
aI-1
aI-1
aI62
aI-1
aI-1
asg8
(lp346
I41
aI-1
aI-1
aF-1.0
aF-1.0
aF-1.0
aI26
aI-1
aI-1
aF-1.0
aF-1.0
aF-1.0
asg10
(lp347
F0.004
aF0.006
aF0.013999999999999999
asba(i__main__
sensor_data_struct
p348
(dp349
g3
(lp350
I589
aI330
aI206
aI1064
aI2590
aF178.0
aI959
aI460
aI310
aI1559
aI2371
aF187.0
asg5
I1
sg6
(lp351
I23
aI-1
aI-1
aI68
aI-1
aI-1
asg8
(lp352
I50
aI-1
aI-1
aF-1.0
aF-1.0
aF-1.0
aI23
aI-1
aI-1
aF-1.0
aF-1.0
aF-1.0
asg10
(lp353
F-0.005
aF-0.01
aF0.013000000000000001
asba(i__main__
sensor_data_struct
p354
(dp355
g3
(lp356
I666
aI353
aI230
aI1159
aI2526
aF172.0
aI1196
aI476
aI351
aI1828
aI2271
aF106.0
asg5
I0
sg6
(lp357
I96
aI-1
aI-1
aI103
aI-1
aI-1
asg8
(lp358
I22
aI-1
aI-1
aF-1.0
aF-1.0
aF-1.0
aI25
aI-1
aI-1
aF-1.0
aF-1.0
aF-1.0
asg10
(lp359
F0.0
aF-0.001
aF0.004
asba(i__main__
sensor_data_struct
p360
(dp361
g3
(lp362
I631
aI343
aI219
aI1116
aI2553
aF176.0
aI1076
aI426
aI316
aI1657
aI2293
aF91.0
asg5
I0
sg6
(lp363
I155
aI-1
aI-1
aI104
aI-1
aI-1
asg8
(lp364
I25
aI-1
aI-1
aF-1.0
aF-1.0
aF-1.0
aI23
aI-1
aI-1
aF-1.0
aF-1.0
aF-1.0
asg10
(lp365
F0.003
aF-0.001
aF0.0
asba(i__main__
sensor_data_struct
p366
(dp367
g3
(lp368
I603
aI337
aI212
aI1081
aI2578
aF180.0
aI925
aI475
aI300
aI1552
aI2402
aF229.0
asg5
I1
sg6
(lp369
I14
aI-1
aI-1
aI33
aI-1
aI-1
asg8
(lp370
I27
aI-1
aI-1
aF-1.0
aF-1.0
aF-1.0
aI25
aI-1
aI-1
aF-1.0
aF-1.0
aF-1.0
asg10
(lp371
F-0.009000000000000001
aF-0.003
aF0.011000000000000001
asba(i__main__
sensor_data_struct
p372
(dp373
g3
(lp374
I599
aI339
aI210
aI1086
aI2591
aF186.0
aI861
aI399
aI287
aI1386
aI2400
aF140.0
asg5
I0
sg6
(lp375
I89
aI-1
aI-1
aI92
aI-1
aI-1
asg8
(lp376
I22
aI-1
aI-1
aF-1.0
aF-1.0
aF-1.0
aI23
aI-1
aI-1
aF-1.0
aF-1.0
aF-1.0
asg10
(lp377
F0.002
aF-0.001
aF0.009000000000000001
asba(i__main__
sensor_data_struct
p378
(dp379
g3
(lp380
I614
aI341
aI215
aI1101
aI2579
aF181.0
aI935
aI425
aI306
aI1485
aI2364
aF143.0
asg5
I0
sg6
(lp381
I133
aI-1
aI-1
aI107
aI-1
aI-1
asg8
(lp382
I27
aI-1
aI-1
aF-1.0
aF-1.0
aF-1.0
aI23
aI-1
aI-1
aF-1.0
aF-1.0
aF-1.0
asg10
(lp383
F0.002
aF-0.003
aF0.006
asba(i__main__
sensor_data_struct
p384
(dp385
g3
(lp386
I612
aI340
aI214
aI1098
aI2577
aF181.0
aI892
aI392
aI282
aI1418
aI2359
aF122.0
asg5
I0
sg6
(lp387
I60
aI-1
aI-1
aI100
aI-1
aI-1
asg8
(lp388
I18
aI-1
aI-1
aF-1.0
aF-1.0
aF-1.0
aI23
aI-1
aI-1
aF-1.0
aF-1.0
aF-1.0
asg10
(lp389
F-0.003
aF0.0
aF0.004
asba(i__main__
sensor_data_struct
p390
(dp391
g3
(lp392
I638
aI347
aI222
aI1128
aI2554
aF178.0
aI748
aI383
aI256
aI1264
aI2472
aF174.0
asg5
I1
sg6
(lp393
I31
aI-1
aI-1
aI65
aI-1
aI-1
asg8
(lp394
I40
aI-1
aI-1
aF-1.0
aF-1.0
aF-1.0
aI25
aI-1
aI-1
aF-1.0
aF-1.0
aF-1.0
asg10
(lp395
F-0.001
aF-0.005
aF0.013999999999999999
asba(i__main__
sensor_data_struct
p396
(dp397
g3
(lp398
I622
aI344
aI218
aI1107
aI2565
aF181.0
aI1026
aI449
aI318
aI1621
aI2331
aF142.0
asg5
I0
sg6
(lp399
I22
aI-1
aI-1
aI96
aI-1
aI-1
asg8
(lp400
I13
aI-1
aI-1
aF-1.0
aF-1.0
aF-1.0
aI24
aI-1
aI-1
aF-1.0
aF-1.0
aF-1.0
asg10
(lp401
F-0.006999999999999999
aF0.001
aF0.006
asba(i__main__
sensor_data_struct
p402
(dp403
g3
(lp404
I617
aI340
aI216
aI1099
aI2566
aF178.0
aI1151
aI475
aI349
aI1777
aI2296
aF120.0
asg5
I0
sg6
(lp405
I52
aI-1
aI-1
aI88
aI-1
aI-1
asg8
(lp406
I22
aI-1
aI-1
aF-1.0
aF-1.0
aF-1.0
aI24
aI-1
aI-1
aF-1.0
aF-1.0
aF-1.0
asg10
(lp407
F0.001
aF0.003
aF0.009000000000000001
asba(i__main__
sensor_data_struct
p408
(dp409
g3
(lp410
I577
aI328
aI203
aI1053
aI2610
aF181.0
aI980
aI431
aI304
aI1564
aI2355
aF139.0
asg5
I0
sg6
(lp411
I29
aI-1
aI-1
aI83
aI-1
aI-1
asg8
(lp412
I31
aI-1
aI-1
aF-1.0
aF-1.0
aF-1.0
aI23
aI-1
aI-1
aF-1.0
aF-1.0
aF-1.0
asg10
(lp413
F0.009000000000000001
aF0.001
aF0.011000000000000001
asba(i__main__
sensor_data_struct
p414
(dp415
g3
(lp416
I612
aI340
aI215
aI1095
aI2575
aF180.0
aI1026
aI454
aI323
aI1620
aI2336
aF147.0
asg5
I0
sg6
(lp417
I38
aI-1
aI-1
aI87
aI-1
aI-1
asg8
(lp418
I17
aI-1
aI-1
aF-1.0
aF-1.0
aF-1.0
aI22
aI-1
aI-1
aF-1.0
aF-1.0
aF-1.0
asg10
(lp419
F-0.004
aF0.001
aF0.009000000000000001
asba(i__main__
sensor_data_struct
p420
(dp421
g3
(lp422
I573
aI327
aI202
aI1048
aI2612
aF182.0
aI890
aI423
aI285
aI1464
aI2400
aF170.0
asg5
I1
sg6
(lp423
I13
aI-1
aI-1
aI64
aI-1
aI-1
asg8
(lp424
I29
aI-1
aI-1
aF-1.0
aF-1.0
aF-1.0
aI26
aI-1
aI-1
aF-1.0
aF-1.0
aF-1.0
asg10
(lp425
F0.009000000000000001
aF0.001
aF0.013999999999999999
asba(i__main__
sensor_data_struct
p426
(dp427
g3
(lp428
I603
aI339
aI214
aI1083
aI2587
aF182.0
aI1032
aI460
aI322
aI1640
aI2338
aF155.0
asg5
I1
sg6
(lp429
I23
aI-1
aI-1
aI70
aI-1
aI-1
asg8
(lp430
I44
aI-1
aI-1
aF-1.0
aF-1.0
aF-1.0
aI22
aI-1
aI-1
aF-1.0
aF-1.0
aF-1.0
asg10
(lp431
F-0.005
aF0.006999999999999999
aF0.012
asba(i__main__
sensor_data_struct
p432
(dp433
g3
(lp434
I575
aI327
aI202
aI1050
aI2607
aF181.0
aI723
aI382
aI261
aI1220
aI2492
aF177.0
asg5
I0
sg6
(lp435
I108
aI-1
aI-1
aI106
aI-1
aI-1
asg8
(lp436
I44
aI-1
aI-1
aF-1.0
aF-1.0
aF-1.0
aI24
aI-1
aI-1
aF-1.0
aF-1.0
aF-1.0
asg10
(lp437
F0.001
aF-0.008
aF0.006999999999999999
asba(i__main__
sensor_data_struct
p438
(dp439
g3
(lp440
I705
aI357
aI236
aI1207
aI2493
aF161.0
aI1223
aI495
aI361
aI1875
aI2271
aF120.0
asg5
I0
sg6
(lp441
I80
aI-1
aI-1
aI108
aI-1
aI-1
asg8
(lp442
I28
aI-1
aI-1
aF-1.0
aF-1.0
aF-1.0
aI25
aI-1
aI-1
aF-1.0
aF-1.0
aF-1.0
asg10
(lp443
F0.006
aF0.0
aF0.005
asba(i__main__
sensor_data_struct
p444
(dp445
g3
(lp446
I596
aI336
aI211
aI1073
aI2586
aF182.0
aI1225
aI454
aI345
aI1851
aI2257
aF66.0
asg5
I0
sg6
(lp447
I32
aI-1
aI-1
aI96
aI-1
aI-1
asg8
(lp448
I24
aI-1
aI-1
aF-1.0
aF-1.0
aF-1.0
aI25
aI-1
aI-1
aF-1.0
aF-1.0
aF-1.0
asg10
(lp449
F-0.003
aF0.008
aF0.006999999999999999
asba(i__main__
sensor_data_struct
p450
(dp451
g3
(lp452
I615
aI339
aI217
aI1095
aI2572
aF176.0
aI1136
aI490
aI352
aI1767
aI2303
aF146.0
asg5
I0
sg6
(lp453
I111
aI-1
aI-1
aI111
aI-1
aI-1
asg8
(lp454
I40
aI-1
aI-1
aF-1.0
aF-1.0
aF-1.0
aI23
aI-1
aI-1
aF-1.0
aF-1.0
aF-1.0
asg10
(lp455
F0.0
aF-0.008
aF0.006
asba(i__main__
sensor_data_struct
p456
(dp457
g3
(lp458
I597
aI335
aI209
aI1079
aI2589
aF181.0
aI856
aI393
aI276
aI1389
aI2396
aF140.0
asg5
I1
sg6
(lp459
I34
aI-1
aI-1
aI72
aI-1
aI-1
asg8
(lp460
I28
aI-1
aI-1
aF-1.0
aF-1.0
aF-1.0
aI25
aI-1
aI-1
aF-1.0
aF-1.0
aF-1.0
asg10
(lp461
F-0.003
aF0.003
aF0.012
asba(i__main__
sensor_data_struct
p462
(dp463
g3
(lp464
I586
aI333
aI207
aI1066
aI2603
aF183.0
aI1627
aI537
aI422
aI2403
aI2212
aF10.0
asg5
I1
sg6
(lp465
I11
aI-1
aI-1
aI34
aI-1
aI-1
asg8
(lp466
I42
aI-1
aI-1
aF-1.0
aF-1.0
aF-1.0
aI38
aI-1
aI-1
aF-1.0
aF-1.0
aF-1.0
asg10
(lp467
F0.008
aF0.008
aF0.011000000000000001
asba(i__main__
sensor_data_struct
p468
(dp469
g3
(lp470
I602
aI339
aI213
aI1085
aI2591
aF183.0
aI941
aI442
aI303
aI1527
aI2381
aF170.0
asg5
I1
sg6
(lp471
I31
aI-1
aI-1
aI62
aI-1
aI-1
asg8
(lp472
I34
aI-1
aI-1
aF-1.0
aF-1.0
aF-1.0
aI26
aI-1
aI-1
aF-1.0
aF-1.0
aF-1.0
asg10
(lp473
F-0.003
aF0.003
aF0.013999999999999999
asba(i__main__
sensor_data_struct
p474
(dp475
g3
(lp476
I556
aI319
aI195
aI1022
aI2615
aF180.0
aI951
aI453
aI303
aI1557
aI2382
aF184.0
asg5
I1
sg6
(lp477
I14
aI-1
aI-1
aI58
aI-1
aI-1
asg8
(lp478
I31
aI-1
aI-1
aF-1.0
aF-1.0
aF-1.0
aI28
aI-1
aI-1
aF-1.0
aF-1.0
aF-1.0
asg10
(lp479
F0.013000000000000001
aF0.003
aF0.015
asba(i__main__
sensor_data_struct
p480
(dp481
g3
(lp482
I575
aI327
aI201
aI1053
aI2610
aF182.0
aI749
aI385
aI254
aI1272
aI2471
aF178.0
asg5
I1
sg6
(lp483
I23
aI-1
aI-1
aI62
aI-1
aI-1
asg8
(lp484
I45
aI-1
aI-1
aF-1.0
aF-1.0
aF-1.0
aI24
aI-1
aI-1
aF-1.0
aF-1.0
aF-1.0
asg10
(lp485
F0.003
aF-0.006
aF0.015
asba(i__main__
sensor_data_struct
p486
(dp487
g3
(lp488
I645
aI348
aI224
aI1134
aI2545
aF175.0
aI1123
aI478
aI346
aI1743
aI2301
aF136.0
asg5
I0
sg6
(lp489
I94
aI-1
aI-1
aI100
aI-1
aI-1
asg8
(lp490
I22
aI-1
aI-1
aF-1.0
aF-1.0
aF-1.0
aI24
aI-1
aI-1
aF-1.0
aF-1.0
aF-1.0
asg10
(lp491
F0.0
aF-0.002
aF0.006999999999999999
asba(i__main__
sensor_data_struct
p492
(dp493
g3
(lp494
I693
aI365
aI238
aI1200
aI2513
aF176.0
aI921
aI394
aI283
aI1472
aI2367
aF115.0
asg5
I1
sg6
(lp495
I32
aI-1
aI-1
aI69
aI-1
aI-1
asg8
(lp496
I27
aI-1
aI-1
aF-1.0
aF-1.0
aF-1.0
aI24
aI-1
aI-1
aF-1.0
aF-1.0
aF-1.0
asg10
(lp497
F0.006
aF0.003
aF0.013000000000000001
asba(i__main__
sensor_data_struct
p498
(dp499
g3
(lp500
I596
aI335
aI209
aI1077
aI2591
aF182.0
aI817
aI403
aI286
aI1330
aI2425
aF161.0
asg5
I0
sg6
(lp501
I132
aI-1
aI-1
aI109
aI-1
aI-1
asg8
(lp502
I27
aI-1
aI-1
aF-1.0
aF-1.0
aF-1.0
aI24
aI-1
aI-1
aF-1.0
aF-1.0
aF-1.0
asg10
(lp503
F0.0
aF-0.005
aF0.005
asba(i__main__
sensor_data_struct
p504
(dp505
g3
(lp506
I721
aI368
aI250
aI1218
aI2486
aF163.0
aI1250
aI491
aI359
aI1908
aI2259
aF106.0
asg5
I0
sg6
(lp507
I86
aI-1
aI-1
aI103
aI-1
aI-1
asg8
(lp508
I20
aI-1
aI-1
aF-1.0
aF-1.0
aF-1.0
aI23
aI-1
aI-1
aF-1.0
aF-1.0
aF-1.0
asg10
(lp509
F-0.002
aF-0.003
aF0.0
asba(i__main__
sensor_data_struct
p510
(dp511
g3
(lp512
I611
aI339
aI214
aI1091
aI2570
aF180.0
aI945
aI448
aI304
aI1538
aI2380
aF177.0
asg5
I1
sg6
(lp513
I34
aI-1
aI-1
aI60
aI-1
aI-1
asg8
(lp514
I31
aI-1
aI-1
aF-1.0
aF-1.0
aF-1.0
aI26
aI-1
aI-1
aF-1.0
aF-1.0
aF-1.0
asg10
(lp515
F-0.001
aF0.002
aF0.015
asba(i__main__
sensor_data_struct
p516
(dp517
g3
(lp518
I619
aI344
aI216
aI1108
aI2571
aF183.0
aI754
aI386
aI257
aI1272
aI2464
aF176.0
asg5
I1
sg6
(lp519
I22
aI-1
aI-1
aI66
aI-1
aI-1
asg8
(lp520
I40
aI-1
aI-1
aF-1.0
aF-1.0
aF-1.0
aI24
aI-1
aI-1
aF-1.0
aF-1.0
aF-1.0
asg10
(lp521
F-0.006999999999999999
aF-0.006
aF0.013000000000000001
asba(i__main__
sensor_data_struct
p522
(dp523
g3
(lp524
I608
aI341
aI212
aI1097
aI2581
aF185.0
aI802
aI384
aI268
aI1318
aI2429
aF149.0
asg5
I1
sg6
(lp525
I54
aI-1
aI-1
aI74
aI-1
aI-1
asg8
(lp526
I23
aI-1
aI-1
aF-1.0
aF-1.0
aF-1.0
aI23
aI-1
aI-1
aF-1.0
aF-1.0
aF-1.0
asg10
(lp527
F0.003
aF-0.001
aF0.012
asba(i__main__
sensor_data_struct
p528
(dp529
g3
(lp530
I610
aI341
aI214
aI1096
aI2581
aF183.0
aI843
aI410
aI277
aI1394
aI2418
aF170.0
asg5
I1
sg6
(lp531
I27
aI-1
aI-1
aI56
aI-1
aI-1
asg8
(lp532
I38
aI-1
aI-1
aF-1.0
aF-1.0
aF-1.0
aI27
aI-1
aI-1
aF-1.0
aF-1.0
aF-1.0
asg10
(lp533
F-0.003
aF0.002
aF0.015
asba(i__main__
sensor_data_struct
p534
(dp535
g3
(lp536
I932
aI351
aI225
aI1539
aI2310
aF86.0
aI1091
aI494
aI341
aI1734
aI2329
aF175.0
asg5
I1
sg6
(lp537
I22
aI-1
aI-1
aI63
aI-1
aI-1
asg8
(lp538
I42
aI-1
aI-1
aF-1.0
aF-1.0
aF-1.0
aI24
aI-1
aI-1
aF-1.0
aF-1.0
aF-1.0
asg10
(lp539
F0.0
aF0.006
aF0.013999999999999999
asba(i__main__
sensor_data_struct
p540
(dp541
g3
(lp542
I830
aI417
aI275
aI1395
aI2444
aF187.0
aI1213
aI444
aI346
aI1826
aI2264
aF53.0
asg5
I0
sg6
(lp543
I43
aI-1
aI-1
aI93
aI-1
aI-1
asg8
(lp544
I21
aI-1
aI-1
aF-1.0
aF-1.0
aF-1.0
aI24
aI-1
aI-1
aF-1.0
aF-1.0
aF-1.0
asg10
(lp545
F0.0
aF0.004
aF0.008
asba(i__main__
sensor_data_struct
p546
(dp547
g3
(lp548
I637
aI349
aI224
aI1128
aI2560
aF180.0
aI1868
aI562
aI474
aI2663
aI2162
aF65470.0
asg5
I0
sg6
(lp549
I30
aI-1
aI-1
aI99
aI-1
aI-1
asg8
(lp550
I32
aI-1
aI-1
aF-1.0
aF-1.0
aF-1.0
aI23
aI-1
aI-1
aF-1.0
aF-1.0
aF-1.0
asg10
(lp551
F0.001
aF0.008
aF0.006
asba(i__main__
sensor_data_struct
p552
(dp553
g3
(lp554
I623
aI342
aI219
aI1107
aI2569
aF177.0
aI1025
aI475
aI327
aI1643
aI2350
aF177.0
asg5
I1
sg6
(lp555
I47
aI-1
aI-1
aI67
aI-1
aI-1
asg8
(lp556
I22
aI-1
aI-1
aF-1.0
aF-1.0
aF-1.0
aI25
aI-1
aI-1
aF-1.0
aF-1.0
aF-1.0
asg10
(lp557
F-0.001
aF0.0
aF0.013000000000000001
asba(i__main__
sensor_data_struct
p558
(dp559
g3
(lp560
I606
aI339
aI213
aI1090
aI2583
aF182.0
aI863
aI427
aI285
aI1429
aI2413
aF185.0
asg5
I1
sg6
(lp561
I17
aI-1
aI-1
aI65
aI-1
aI-1
asg8
(lp562
I48
aI-1
aI-1
aF-1.0
aF-1.0
aF-1.0
aI26
aI-1
aI-1
aF-1.0
aF-1.0
aF-1.0
asg10
(lp563
F-0.005
aF-0.005
aF0.013999999999999999
asba(i__main__
sensor_data_struct
p564
(dp565
g3
(lp566
I577
aI326
aI201
aI1052
aI2601
aF180.0
aI907
aI432
aI292
aI1485
aI2391
aF173.0
asg5
I1
sg6
(lp567
I25
aI-1
aI-1
aI72
aI-1
aI-1
asg8
(lp568
I33
aI-1
aI-1
aF-1.0
aF-1.0
aF-1.0
aI24
aI-1
aI-1
aF-1.0
aF-1.0
aF-1.0
asg10
(lp569
F0.008
aF-0.002
aF0.013000000000000001
asba(i__main__
sensor_data_struct
p570
(dp571
g3
(lp572
I574
aI327
aI200
aI1053
aI2610
aF183.0
aI806
aI424
aI263
aI1386
aI2453
aF215.0
asg5
I1
sg6
(lp573
I2
aI-1
aI-1
aI36
aI-1
aI-1
asg8
(lp574
I54
aI-1
aI-1
aF-1.0
aF-1.0
aF-1.0
aI33
aI-1
aI-1
aF-1.0
aF-1.0
aF-1.0
asg10
(lp575
F0.008
aF-0.011000000000000001
aF0.015
asba(i__main__
sensor_data_struct
p576
(dp577
g3
(lp578
I591
aI334
aI207
aI1071
aI2593
aF183.0
aI768
aI378
aI258
aI1281
aI2452
aF158.0
asg5
I1
sg6
(lp579
I20
aI-1
aI-1
aI35
aI-1
aI-1
asg8
(lp580
I14
aI-1
aI-1
aF-1.0
aF-1.0
aF-1.0
aI15
aI-1
aI-1
aF-1.0
aF-1.0
aF-1.0
asg10
(lp581
F-0.006999999999999999
aF-0.001
aF0.004
asba(i__main__
sensor_data_struct
p582
(dp583
g3
(lp584
I592
aI335
aI209
aI1075
aI2604
aF183.0
aI1873
aI575
aI471
aI2705
aI2176
aF65491.0
asg5
I1
sg6
(lp585
I17
aI-1
aI-1
aI34
aI-1
aI-1
asg8
(lp586
I39
aI-1
aI-1
aF-1.0
aF-1.0
aF-1.0
aI34
aI-1
aI-1
aF-1.0
aF-1.0
aF-1.0
asg10
(lp587
F0.006999999999999999
aF0.006999999999999999
aF0.01
asba(i__main__
sensor_data_struct
p588
(dp589
g3
(lp590
I621
aI345
aI219
aI1109
aI2573
aF182.0
aI713
aI390
aI238
aI1258
aI2507
aF209.0
asg5
I1
sg6
(lp591
I1
aI-1
aI-1
aI31
aI-1
aI-1
asg8
(lp592
I48
aI-1
aI-1
aF-1.0
aF-1.0
aF-1.0
aI32
aI-1
aI-1
aF-1.0
aF-1.0
aF-1.0
asg10
(lp593
F-0.005
aF0.008
aF0.01
asba(i__main__
sensor_data_struct
p594
(dp595
g3
(lp596
I761
aI385
aI252
aI1299
aI2477
aF176.0
aI737
aI374
aI256
aI1241
aI2481
aF163.0
asg5
I1
sg6
(lp597
I35
aI-1
aI-1
aI72
aI-1
aI-1
asg8
(lp598
I25
aI-1
aI-1
aF-1.0
aF-1.0
aF-1.0
aI25
aI-1
aI-1
aF-1.0
aF-1.0
aF-1.0
asg10
(lp599
F-0.004
aF-0.001
aF0.012
asba(i__main__
sensor_data_struct
p600
(dp601
g3
(lp602
I616
aI343
aI216
aI1105
aI2577
aF183.0
aI865
aI411
aI290
aI1400
aI2399
aF155.0
asg5
I0
sg6
(lp603
I59
aI-1
aI-1
aI103
aI-1
aI-1
asg8
(lp604
I20
aI-1
aI-1
aF-1.0
aF-1.0
aF-1.0
aI23
aI-1
aI-1
aF-1.0
aF-1.0
aF-1.0
asg10
(lp605
F-0.004
aF-0.004
aF0.006
asba.