(lp0
(i__main__
sensor_data_struct
p1
(dp2
S'color'
p3
(lp4
I531
aI291
aI179
aI981
aI2626
aF155.0
aI894
aI388
aI242
aI1487
aI2365
aF145.0
asS'button'
p5
I1
sS'IR'
p6
(lp7
I-1
aI-1
aI-1
aI-1
aI-1
aI-1
asS'TOF'
p8
(lp9
I41
aI34
aI-1
aF-1.0
aF-1.0
aF-1.0
aI28
aI29
aI-1
aF-1.0
aF-1.0
aF-1.0
asS'pt'
p10
(lp11
F0.004
aF0.002
aF0.015
asba(i__main__
sensor_data_struct
p12
(dp13
g3
(lp14
I657
aI332
aI198
aI1165
aI2493
aF165.0
aI656
aI319
aI199
aI1146
aI2488
aF144.0
asg5
I1
sg6
(lp15
I-1
aI-1
aI-1
aI-1
aI-1
aI-1
asg8
(lp16
I39
aI36
aI-1
aF-1.0
aF-1.0
aF-1.0
aI25
aI28
aI-1
aF-1.0
aF-1.0
aF-1.0
asg10
(lp17
F0.003
aF-0.005
aF0.015
asba(i__main__
sensor_data_struct
p18
(dp19
g3
(lp20
I548
aI299
aI179
aI1007
aI2592
aF163.0
aI823
aI369
aI226
aI1382
aI2375
aF149.0
asg5
I1
sg6
(lp21
I-1
aI-1
aI-1
aI-1
aI-1
aI-1
asg8
(lp22
I49
aI42
aI-1
aF-1.0
aF-1.0
aF-1.0
aI25
aI25
aI-1
aF-1.0
aF-1.0
aF-1.0
asg10
(lp23
F-0.006
aF-0.008
aF0.013999999999999999
asba(i__main__
sensor_data_struct
p24
(dp25
g3
(lp26
I572
aI302
aI183
aI1037
aI2563
aF157.0
aI1016
aI398
aI265
aI1625
aI2307
aF104.0
asg5
I0
sg6
(lp27
I-1
aI-1
aI-1
aI-1
aI-1
aI-1
asg8
(lp28
I33
aI43
aI-1
aF-1.0
aF-1.0
aF-1.0
aI24
aI25
aI-1
aF-1.0
aF-1.0
aF-1.0
asg10
(lp29
F-0.002
aF0.008
aF0.012
asba(i__main__
sensor_data_struct
p30
(dp31
g3
(lp32
I579
aI302
aI186
aI1044
aI2564
aF152.0
aI989
aI381
aI259
aI1567
aI2297
aF90.0
asg5
I0
sg6
(lp33
I-1
aI-1
aI-1
aI-1
aI-1
aI-1
asg8
(lp34
I21
aI24
aI-1
aF-1.0
aF-1.0
aF-1.0
aI25
aI24
aI-1
aF-1.0
aF-1.0
aF-1.0
asg10
(lp35
F-0.002
aF-0.004
aF0.002
asba(i__main__
sensor_data_struct
p36
(dp37
g3
(lp38
I620
aI308
aI193
aI1094
aI2520
aF143.0
aI1068
aI405
aI272
aI1681
aI2273
aF93.0
asg5
I0
sg6
(lp39
I-1
aI-1
aI-1
aI-1
aI-1
aI-1
asg8
(lp40
I22
aI25
aI-1
aF-1.0
aF-1.0
aF-1.0
aI24
aI25
aI-1
aF-1.0
aF-1.0
aF-1.0
asg10
(lp41
F0.001
aF-0.001
aF0.006999999999999999
asba(i__main__
sensor_data_struct
p42
(dp43
g3
(lp44
I616
aI307
aI193
aI1087
aI2523
aF143.0
aI1079
aI401
aI274
aI1685
aI2266
aF82.0
asg5
I0
sg6
(lp45
I-1
aI-1
aI-1
aI-1
aI-1
aI-1
asg8
(lp46
I19
aI25
aI-1
aF-1.0
aF-1.0
aF-1.0
aI24
aI25
aI-1
aF-1.0
aF-1.0
aF-1.0
asg10
(lp47
F-0.002
aF-0.005
aF0.001
asba(i__main__
sensor_data_struct
p48
(dp49
g3
(lp50
I540
aI297
aI178
aI997
aI2603
aF163.0
aI779
aI379
aI223
aI1356
aI2439
aF182.0
asg5
I1
sg6
(lp51
I-1
aI-1
aI-1
aI-1
aI-1
aI-1
asg8
(lp52
I45
aI45
aI-1
aF-1.0
aF-1.0
aF-1.0
aI33
aI37
aI-1
aF-1.0
aF-1.0
aF-1.0
asg10
(lp53
F-0.011000000000000001
aF0.004
aF0.013999999999999999
asba(i__main__
sensor_data_struct
p54
(dp55
g3
(lp56
I561
aI305
aI181
aI1028
aI2578
aF166.0
aI1146
aI433
aI285
aI1802
aI2258
aF102.0
asg5
I0
sg6
(lp57
I-1
aI-1
aI-1
aI-1
aI-1
aI-1
asg8
(lp58
I29
aI31
aI-1
aF-1.0
aF-1.0
aF-1.0
aI255
aI25
aI-1
aF-1.0
aF-1.0
aF-1.0
asg10
(lp59
F-0.004
aF0.005
aF0.008
asba(i__main__
sensor_data_struct
p60
(dp61
g3
(lp62
I647
aI321
aI197
aI1139
aI2496
aF152.0
aI607
aI309
aI191
aI1082
aI2537
aF150.0
asg5
I1
sg6
(lp63
I-1
aI-1
aI-1
aI-1
aI-1
aI-1
asg8
(lp64
I255
aI43
aI-1
aF-1.0
aF-1.0
aF-1.0
aI255
aI33
aI-1
aF-1.0
aF-1.0
aF-1.0
asg10
(lp65
F-0.01
aF-0.005
aF0.012
asba(i__main__
sensor_data_struct
p66
(dp67
g3
(lp68
I564
aI304
aI182
aI1029
aI2573
aF163.0
aI848
aI383
aI231
aI1430
aI2375
aF160.0
asg5
I1
sg6
(lp69
I-1
aI-1
aI-1
aI-1
aI-1
aI-1
asg8
(lp70
I255
aI45
aI-1
aF-1.0
aF-1.0
aF-1.0
aI255
aI27
aI-1
aF-1.0
aF-1.0
aF-1.0
asg10
(lp71
F-0.008
aF-0.003
aF0.015
asba(i__main__
sensor_data_struct
p72
(dp73
g3
(lp74
I564
aI304
aI182
aI1031
aI2578
aF163.0
aI860
aI368
aI236
aI1422
aI2367
aF128.0
asg5
I1
sg6
(lp75
I-1
aI-1
aI-1
aI-1
aI-1
aI-1
asg8
(lp76
I255
aI30
aI-1
aF-1.0
aF-1.0
aF-1.0
aI255
aI23
aI-1
aF-1.0
aF-1.0
aF-1.0
asg10
(lp77
F-0.008
aF0.004
aF0.011000000000000001
asba(i__main__
sensor_data_struct
p78
(dp79
g3
(lp80
I737
aI328
aI216
aI1243
aI2436
aF120.0
aI1448
aI464
aI349
aI2153
aI2197
aF6.0
asg5
I0
sg6
(lp81
I-1
aI-1
aI-1
aI-1
aI-1
aI-1
asg8
(lp82
I255
aI30
aI-1
aF-1.0
aF-1.0
aF-1.0
aI255
aI22
aI-1
aF-1.0
aF-1.0
aF-1.0
asg10
(lp83
F0.003
aF0.004
aF0.005
asba(i__main__
sensor_data_struct
p84
(dp85
g3
(lp86
I564
aI302
aI183
aI1027
aI2576
aF159.0
aI930
aI383
aI247
aI1512
aI2328
aF121.0
asg5
I0
sg6
(lp87
I-1
aI-1
aI-1
aI-1
aI-1
aI-1
asg8
(lp88
I255
aI17
aI-1
aF-1.0
aF-1.0
aF-1.0
aI255
aI23
aI-1
aF-1.0
aF-1.0
aF-1.0
asg10
(lp89
F-0.008
aF-0.004
aF0.008
asba(i__main__
sensor_data_struct
p90
(dp91
g3
(lp92
I538
aI296
aI176
aI992
aI2593
aF163.0
aI708
aI336
aI207
aI1221
aI2446
aF148.0
asg5
I1
sg6
(lp93
I-1
aI-1
aI-1
aI-1
aI-1
aI-1
asg8
(lp94
I255
aI47
aI-1
aF-1.0
aF-1.0
aF-1.0
aI255
aI26
aI-1
aF-1.0
aF-1.0
aF-1.0
asg10
(lp95
F0.0
aF-0.01
aF0.013000000000000001
asba(i__main__
sensor_data_struct
p96
(dp97
g3
(lp98
I677
aI321
aI202
aI1170
aI2467
aF139.0
aI1217
aI417
aI303
aI1850
aI2234
aF41.0
asg5
I0
sg6
(lp99
I-1
aI-1
aI-1
aI-1
aI-1
aI-1
asg8
(lp100
I255
aI23
aI-1
aF-1.0
aF-1.0
aF-1.0
aI255
aI24
aI-1
aF-1.0
aF-1.0
aF-1.0
asg10
(lp101
F-0.003
aF0.004
aF0.001
asba(i__main__
sensor_data_struct
p102
(dp103
g3
(lp104
I554
aI300
aI179
aI1016
aI2584
aF162.0
aI899
aI367
aI244
aI1459
aI2345
aF108.0
asg5
I0
sg6
(lp105
I-1
aI-1
aI-1
aI-1
aI-1
aI-1
asg8
(lp106
I255
aI27
aI-1
aF-1.0
aF-1.0
aF-1.0
aI255
aI25
aI-1
aF-1.0
aF-1.0
aF-1.0
asg10
(lp107
F0.003
aF0.001
aF0.012
asba(i__main__
sensor_data_struct
p108
(dp109
g3
(lp110
I576
aI306
aI184
aI1047
aI2566
aF161.0
aI2186
aI586
aI495
aI3122
aI2153
aF65389.0
asg5
I1
sg6
(lp111
I-1
aI-1
aI-1
aI-1
aI-1
aI-1
asg8
(lp112
I255
aI46
aI-1
aF-1.0
aF-1.0
aF-1.0
aI255
aI39
aI-1
aF-1.0
aF-1.0
aF-1.0
asg10
(lp113
F0.006999999999999999
aF0.008
aF0.01
asba(i__main__
sensor_data_struct
p114
(dp115
g3
(lp116
I584
aI306
aI185
aI1055
aI2552
aF157.0
aI1007
aI395
aI262
aI1610
aI2304
aF104.0
asg5
I0
sg6
(lp117
I-1
aI-1
aI-1
aI-1
aI-1
aI-1
asg8
(lp118
I255
aI26
aI-1
aF-1.0
aF-1.0
aF-1.0
aI255
aI23
aI-1
aF-1.0
aF-1.0
aF-1.0
asg10
(lp119
F-0.006
aF0.006
aF0.009000000000000001
asba(i__main__
sensor_data_struct
p120
(dp121
g3
(lp122
I610
aI312
aI191
aI1091
aI2535
aF154.0
aI1149
aI395
aI292
aI1767
aI2272
aF36.0
asg5
I1
sg6
(lp123
I-1
aI-1
aI-1
aI-1
aI-1
aI-1
asg8
(lp124
I255
aI45
aI-1
aF-1.0
aF-1.0
aF-1.0
aI255
aI38
aI-1
aF-1.0
aF-1.0
aF-1.0
asg10
(lp125
F0.001
aF0.01
aF0.012
asba(i__main__
sensor_data_struct
p126
(dp127
g3
(lp128
I564
aI305
aI182
aI1033
aI2578
aF165.0
aI832
aI397
aI232
aI1435
aI2409
aF186.0
asg5
I1
sg6
(lp129
I-1
aI-1
aI-1
aI-1
aI-1
aI-1
asg8
(lp130
I255
aI43
aI-1
aF-1.0
aF-1.0
aF-1.0
aI255
aI38
aI-1
aF-1.0
aF-1.0
aF-1.0
asg10
(lp131
F-0.011000000000000001
aF0.004
aF0.013000000000000001
asba(i__main__
sensor_data_struct
p132
(dp133
g3
(lp134
I582
aI312
aI184
aI1059
aI2554
aF168.0
aI747
aI339
aI216
aI1267
aI2429
aF134.0
asg5
I1
sg6
(lp135
I-1
aI-1
aI-1
aI-1
aI-1
aI-1
asg8
(lp136
I255
aI14
aI-1
aF-1.0
aF-1.0
aF-1.0
aI255
aI16
aI-1
aF-1.0
aF-1.0
aF-1.0
asg10
(lp137
F-0.008
aF0.002
aF0.006
asba(i__main__
sensor_data_struct
p138
(dp139
g3
(lp140
I548
aI302
aI179
aI1012
aI2597
aF167.0
aI632
aI314
aI195
aI1117
aI2515
aF147.0
asg5
I1
sg6
(lp141
I-1
aI-1
aI-1
aI-1
aI-1
aI-1
asg8
(lp142
I255
aI36
aI-1
aF-1.0
aF-1.0
aF-1.0
aI255
aI28
aI-1
aF-1.0
aF-1.0
aF-1.0
asg10
(lp143
F0.008
aF-0.004
aF0.015
asba(i__main__
sensor_data_struct
p144
(dp145
g3
(lp146
I546
aI300
aI179
aI1007
aI2597
aF165.0
aI818
aI374
aI230
aI1389
aI2407
aF156.0
asg5
I1
sg6
(lp147
I-1
aI-1
aI-1
aI-1
aI-1
aI-1
asg8
(lp148
I255
aI46
aI-1
aF-1.0
aF-1.0
aF-1.0
aI255
aI31
aI-1
aF-1.0
aF-1.0
aF-1.0
asg10
(lp149
F-0.011000000000000001
aF0.008
aF0.015
asba(i__main__
sensor_data_struct
p150
(dp151
g3
(lp152
I552
aI302
aI180
aI1016
aI2590
aF165.0
aI1860
aI509
aI433
aI2641
aI2146
aF65419.0
asg5
I0
sg6
(lp153
I-1
aI-1
aI-1
aI-1
aI-1
aI-1
asg8
(lp154
I255
aI36
aI-1
aF-1.0
aF-1.0
aF-1.0
aI255
aI25
aI-1
aF-1.0
aF-1.0
aF-1.0
asg10
(lp155
F0.002
aF0.006
aF0.006
asba(i__main__
sensor_data_struct
p156
(dp157
g3
(lp158
I555
aI300
aI180
aI1017
aI2584
aF161.0
aI867
aI362
aI236
aI1417
aI2349
aF117.0
asg5
I0
sg6
(lp159
I-1
aI-1
aI-1
aI-1
aI-1
aI-1
asg8
(lp160
I255
aI29
aI-1
aF-1.0
aF-1.0
aF-1.0
aI255
aI24
aI-1
aF-1.0
aF-1.0
aF-1.0
asg10
(lp161
F0.001
aF-0.006
aF0.006
asba(i__main__
sensor_data_struct
p162
(dp163
g3
(lp164
I554
aI301
aI180
aI1016
aI2586
aF163.0
aI812
aI395
aI228
aI1410
aI2419
aF192.0
asg5
I1
sg6
(lp165
I-1
aI-1
aI-1
aI-1
aI-1
aI-1
asg8
(lp166
I255
aI47
aI-1
aF-1.0
aF-1.0
aF-1.0
aI255
aI39
aI-1
aF-1.0
aF-1.0
aF-1.0
asg10
(lp167
F0.0
aF-0.011000000000000001
aF0.015
asba(i__main__
sensor_data_struct
p168
(dp169
g3
(lp170
I646
aI337
aI196
aI1160
aI2509
aF178.0
aI708
aI323
aI209
aI1203
aI2445
aF126.0
asg5
I1
sg6
(lp171
I-1
aI-1
aI-1
aI-1
aI-1
aI-1
asg8
(lp172
I255
aI32
aI-1
aF-1.0
aF-1.0
aF-1.0
aI255
aI26
aI-1
aF-1.0
aF-1.0
aF-1.0
asg10
(lp173
F0.003
aF-0.004
aF0.012
asba(i__main__
sensor_data_struct
p174
(dp175
g3
(lp176
I564
aI304
aI181
aI1030
aI2571
aF164.0
aI2305
aI581
aI524
aI3200
aI2116
aF65322.0
asg5
I0
sg6
(lp177
I-1
aI-1
aI-1
aI-1
aI-1
aI-1
asg8
(lp178
I255
aI39
aI-1
aF-1.0
aF-1.0
aF-1.0
aI255
aI27
aI-1
aF-1.0
aF-1.0
aF-1.0
asg10
(lp179
F0.002
aF0.006999999999999999
aF0.005
asba(i__main__
sensor_data_struct
p180
(dp181
g3
(lp182
I545
aI301
aI179
aI1008
aI2604
aF167.0
aI686
aI324
aI207
aI1185
aI2477
aF137.0
asg5
I0
sg6
(lp183
I-1
aI-1
aI-1
aI-1
aI-1
aI-1
asg8
(lp184
I255
aI39
aI-1
aF-1.0
aF-1.0
aF-1.0
aI255
aI26
aI-1
aF-1.0
aF-1.0
aF-1.0
asg10
(lp185
F0.008
aF-0.004
aF0.009000000000000001
asba(i__main__
sensor_data_struct
p186
(dp187
g3
(lp188
I548
aI300
aI179
aI1009
aI2592
aF164.0
aI801
aI347
aI226
aI1332
aI2392
aF122.0
asg5
I1
sg6
(lp189
I-1
aI-1
aI-1
aI-1
aI-1
aI-1
asg8
(lp190
I255
aI31
aI-1
aF-1.0
aF-1.0
aF-1.0
aI255
aI28
aI-1
aF-1.0
aF-1.0
aF-1.0
asg10
(lp191
F-0.004
aF0.002
aF0.012
asba(i__main__
sensor_data_struct
p192
(dp193
g3
(lp194
I552
aI301
aI179
aI1014
aI2583
aF164.0
aI830
aI357
aI231
aI1375
aI2379
aF124.0
asg5
I0
sg6
(lp195
I-1
aI-1
aI-1
aI-1
aI-1
aI-1
asg8
(lp196
I255
aI30
aI-1
aF-1.0
aF-1.0
aF-1.0
aI255
aI24
aI-1
aF-1.0
aF-1.0
aF-1.0
asg10
(lp197
F0.004
aF-0.003
aF0.011000000000000001
asba(i__main__
sensor_data_struct
p198
(dp199
g3
(lp200
I565
aI303
aI181
aI1031
aI2569
aF162.0
aI1605
aI465
aI383
aI2317
aI2171
aF65469.0
asg5
I0
sg6
(lp201
I-1
aI-1
aI-1
aI-1
aI-1
aI-1
asg8
(lp202
I255
aI38
aI-1
aF-1.0
aF-1.0
aF-1.0
aI255
aI25
aI-1
aF-1.0
aF-1.0
aF-1.0
asg10
(lp203
F0.0
aF0.006
aF0.004
asba(i__main__
sensor_data_struct
p204
(dp205
g3
(lp206
I649
aI317
aI198
aI1137
aI2499
aF144.0
aI605
aI306
aI191
aI1075
aI2536
aF146.0
asg5
I1
sg6
(lp207
I-1
aI-1
aI-1
aI-1
aI-1
aI-1
asg8
(lp208
I255
aI48
aI-1
aF-1.0
aF-1.0
aF-1.0
aI255
aI28
aI-1
aF-1.0
aF-1.0
aF-1.0
asg10
(lp209
F-0.004
aF-0.006999999999999999
aF0.013999999999999999
asba(i__main__
sensor_data_struct
p210
(dp211
g3
(lp212
I569
aI307
aI182
aI1039
aI2568
aF166.0
aI775
aI355
aI221
aI1317
aI2416
aF146.0
asg5
I0
sg6
(lp213
I-1
aI-1
aI-1
aI-1
aI-1
aI-1
asg8
(lp214
I255
aI35
aI-1
aF-1.0
aF-1.0
aF-1.0
aI255
aI23
aI-1
aF-1.0
aF-1.0
aF-1.0
asg10
(lp215
F-0.008
aF0.0
aF0.012
asba(i__main__
sensor_data_struct
p216
(dp217
g3
(lp218
I702
aI343
aI207
aI1227
aI2467
aF161.0
aI706
aI333
aI208
aI1216
aI2455
aF144.0
asg5
I1
sg6
(lp219
I-1
aI-1
aI-1
aI-1
aI-1
aI-1
asg8
(lp220
I255
aI42
aI-1
aF-1.0
aF-1.0
aF-1.0
aI255
aI29
aI-1
aF-1.0
aF-1.0
aF-1.0
asg10
(lp221
F-0.006999999999999999
aF-0.001
aF0.013999999999999999
asba(i__main__
sensor_data_struct
p222
(dp223
g3
(lp224
I562
aI305
aI181
aI1029
aI2576
aF166.0
aI798
aI362
aI222
aI1348
aI2391
aF149.0
asg5
I1
sg6
(lp225
I-1
aI-1
aI-1
aI-1
aI-1
aI-1
asg8
(lp226
I255
aI44
aI-1
aF-1.0
aF-1.0
aF-1.0
aI255
aI30
aI-1
aF-1.0
aF-1.0
aF-1.0
asg10
(lp227
F-0.002
aF-0.006999999999999999
aF0.013999999999999999
asba(i__main__
sensor_data_struct
p228
(dp229
g3
(lp230
I564
aI305
aI181
aI1031
aI2571
aF165.0
aI833
aI352
aI231
aI1373
aI2376
aF116.0
asg5
I1
sg6
(lp231
I-1
aI-1
aI-1
aI-1
aI-1
aI-1
asg8
(lp232
I255
aI45
aI-1
aF-1.0
aF-1.0
aF-1.0
aI255
aI27
aI-1
aF-1.0
aF-1.0
aF-1.0
asg10
(lp233
F-0.003
aF0.005
aF0.013000000000000001
asba(i__main__
sensor_data_struct
p234
(dp235
g3
(lp236
I716
aI342
aI209
aI1239
aI2449
aF154.0
aI1082
aI379
aI280
aI1665
aI2274
aF41.0
asg5
I0
sg6
(lp237
I-1
aI-1
aI-1
aI-1
aI-1
aI-1
asg8
(lp238
I255
aI37
aI-1
aF-1.0
aF-1.0
aF-1.0
aI255
aI25
aI-1
aF-1.0
aF-1.0
aF-1.0
asg10
(lp239
F0.001
aF0.006
aF0.011000000000000001
asba(i__main__
sensor_data_struct
p240
(dp241
g3
(lp242
I562
aI303
aI181
aI1028
aI2576
aF163.0
aI663
aI320
aI201
aI1154
aI2484
aF142.0
asg5
I1
sg6
(lp243
I-1
aI-1
aI-1
aI-1
aI-1
aI-1
asg8
(lp244
I255
aI15
aI-1
aF-1.0
aF-1.0
aF-1.0
aI255
aI12
aI-1
aF-1.0
aF-1.0
aF-1.0
asg10
(lp245
F-0.01
aF0.0
aF0.009000000000000001
asba(i__main__
sensor_data_struct
p246
(dp247
g3
(lp248
I560
aI304
aI180
aI1026
aI2573
aF166.0
aI867
aI344
aI239
aI1393
aI2349
aF86.0
asg5
I0
sg6
(lp249
I-1
aI-1
aI-1
aI-1
aI-1
aI-1
asg8
(lp250
I255
aI22
aI-1
aF-1.0
aF-1.0
aF-1.0
aI255
aI24
aI-1
aF-1.0
aF-1.0
aF-1.0
asg10
(lp251
F-0.002
aF0.001
aF0.006999999999999999
asba(i__main__
sensor_data_struct
p252
(dp253
g3
(lp254
I655
aI315
aI199
aI1140
aI2490
aF138.0
aI1163
aI411
aI291
aI1787
aI2245
aF58.0
asg5
I0
sg6
(lp255
I-1
aI-1
aI-1
aI-1
aI-1
aI-1
asg8
(lp256
I255
aI33
aI-1
aF-1.0
aF-1.0
aF-1.0
aI255
aI26
aI-1
aF-1.0
aF-1.0
aF-1.0
asg10
(lp257
F0.004
aF0.0
aF0.002
asba(i__main__
sensor_data_struct
p258
(dp259
g3
(lp260
I617
aI310
aI191
aI1095
aI2522
aF149.0
aI1265
aI438
aI312
aI1936
aI2239
aF52.0
asg5
I0
sg6
(lp261
I-1
aI-1
aI-1
aI-1
aI-1
aI-1
asg8
(lp262
I255
aI43
aI-1
aF-1.0
aF-1.0
aF-1.0
aI255
aI25
aI-1
aF-1.0
aF-1.0
aF-1.0
asg10
(lp263
F0.0
aF0.008
aF0.009000000000000001
asba(i__main__
sensor_data_struct
p264
(dp265
g3
(lp266
I547
aI300
aI179
aI1008
aI2594
aF164.0
aI790
aI387
aI224
aI1377
aI2429
aF190.0
asg5
I1
sg6
(lp267
I-1
aI-1
aI-1
aI-1
aI-1
aI-1
asg8
(lp268
I255
aI49
aI-1
aF-1.0
aF-1.0
aF-1.0
aI255
aI38
aI-1
aF-1.0
aF-1.0
aF-1.0
asg10
(lp269
F-0.012
aF-0.006
aF0.015
asba(i__main__
sensor_data_struct
p270
(dp271
g3
(lp272
I552
aI302
aI179
aI1016
aI2588
aF166.0
aI1480
aI446
aI356
aI2170
aI2193
aF65499.0
asg5
I0
sg6
(lp273
I-1
aI-1
aI-1
aI-1
aI-1
aI-1
asg8
(lp274
I255
aI43
aI-1
aF-1.0
aF-1.0
aF-1.0
aI255
aI28
aI-1
aF-1.0
aF-1.0
aF-1.0
asg10
(lp275
F0.005
aF0.006
aF0.01
asba(i__main__
sensor_data_struct
p276
(dp277
g3
(lp278
I564
aI303
aI181
aI1030
aI2571
aF162.0
aI674
aI315
aI203
aI1157
aI2469
aF129.0
asg5
I0
sg6
(lp279
I-1
aI-1
aI-1
aI-1
aI-1
aI-1
asg8
(lp280
I255
aI21
aI-1
aF-1.0
aF-1.0
aF-1.0
aI255
aI26
aI-1
aF-1.0
aF-1.0
aF-1.0
asg10
(lp281
F-0.006
aF-0.003
aF0.008
asba(i__main__
sensor_data_struct
p282
(dp283
g3
(lp284
I624
aI312
aI193
aI1103
aI2513
aF148.0
aI1214
aI412
aI302
aI1841
aI2233
aF35.0
asg5
I0
sg6
(lp285
I-1
aI-1
aI-1
aI-1
aI-1
aI-1
asg8
(lp286
I255
aI26
aI-1
aF-1.0
aF-1.0
aF-1.0
aI255
aI26
aI-1
aF-1.0
aF-1.0
aF-1.0
asg10
(lp287
F-0.003
aF0.004
aF0.002
asba(i__main__
sensor_data_struct
p288
(dp289
g3
(lp290
I597
aI309
aI187
aI1070
aI2535
aF157.0
aI802
aI352
aI225
aI1340
aI2393
aF130.0
asg5
I1
sg6
(lp291
I-1
aI-1
aI-1
aI-1
aI-1
aI-1
asg8
(lp292
I255
aI29
aI-1
aF-1.0
aF-1.0
aF-1.0
aI255
aI26
aI-1
aF-1.0
aF-1.0
aF-1.0
asg10
(lp293
F-0.004
aF0.001
aF0.013000000000000001
asba(i__main__
sensor_data_struct
p294
(dp295
g3
(lp296
I608
aI308
aI190
aI1082
aI2528
aF149.0
aI1048
aI393
aI270
aI1644
aI2280
aF82.0
asg5
I0
sg6
(lp297
I-1
aI-1
aI-1
aI-1
aI-1
aI-1
asg8
(lp298
I255
aI30
aI-1
aF-1.0
aF-1.0
aF-1.0
aI255
aI25
aI-1
aF-1.0
aF-1.0
aF-1.0
asg10
(lp299
F0.004
aF-0.002
aF0.003
asba(i__main__
sensor_data_struct
p300
(dp301
g3
(lp302
I553
aI300
aI180
aI1016
aI2593
aF162.0
aI923
aI385
aI246
aI1508
aI2335
aF127.0
asg5
I0
sg6
(lp303
I-1
aI-1
aI-1
aI-1
aI-1
aI-1
asg8
(lp304
I255
aI38
aI-1
aF-1.0
aF-1.0
aF-1.0
aI255
aI26
aI-1
aF-1.0
aF-1.0
aF-1.0
asg10
(lp305
F0.008
aF-0.004
aF0.01
asba(i__main__
sensor_data_struct
p306
(dp307
g3
(lp308
I552
aI301
aI179
aI1014
aI2583
aF164.0
aI607
aI307
aI191
aI1078
aI2532
aF147.0
asg5
I1
sg6
(lp309
I-1
aI-1
aI-1
aI-1
aI-1
aI-1
asg8
(lp310
I255
aI40
aI-1
aF-1.0
aF-1.0
aF-1.0
aI255
aI28
aI-1
aF-1.0
aF-1.0
aF-1.0
asg10
(lp311
F-0.003
aF-0.008
aF0.013000000000000001
asba(i__main__
sensor_data_struct
p312
(dp313
g3
(lp314
I569
aI303
aI182
aI1034
aI2563
aF160.0
aI891
aI380
aI239
aI1468
aI2345
aF135.0
asg5
I0
sg6
(lp315
I-1
aI-1
aI-1
aI-1
aI-1
aI-1
asg8
(lp316
I255
aI27
aI-1
aF-1.0
aF-1.0
aF-1.0
aI255
aI26
aI-1
aF-1.0
aF-1.0
aF-1.0
asg10
(lp317
F0.0
aF-0.003
aF0.012
asba(i__main__
sensor_data_struct
p318
(dp319
g3
(lp320
I604
aI309
aI189
aI1079
aI2534
aF153.0
aI1041
aI390
aI269
aI1634
aI2283
aF80.0
asg5
I0
sg6
(lp321
I-1
aI-1
aI-1
aI-1
aI-1
aI-1
asg8
(lp322
I255
aI31
aI-1
aF-1.0
aF-1.0
aF-1.0
aI255
aI26
aI-1
aF-1.0
aF-1.0
aF-1.0
asg10
(lp323
F0.006
aF-0.002
aF0.003
asba(i__main__
sensor_data_struct
p324
(dp325
g3
(lp326
I545
aI299
aI178
aI1004
aI2592
aF164.0
aI830
aI403
aI232
aI1440
aI2415
aF196.0
asg5
I1
sg6
(lp327
I-1
aI-1
aI-1
aI-1
aI-1
aI-1
asg8
(lp328
I255
aI48
aI-1
aF-1.0
aF-1.0
aF-1.0
aI255
aI41
aI-1
aF-1.0
aF-1.0
aF-1.0
asg10
(lp329
F0.002
aF-0.013000000000000001
aF0.015
asba(i__main__
sensor_data_struct
p330
(dp331
g3
(lp332
I560
aI303
aI181
aI1025
aI2580
aF163.0
aI878
aI364
aI240
aI1435
aI2357
aF113.0
asg5
I0
sg6
(lp333
I-1
aI-1
aI-1
aI-1
aI-1
aI-1
asg8
(lp334
I255
aI23
aI-1
aF-1.0
aF-1.0
aF-1.0
aI255
aI26
aI-1
aF-1.0
aF-1.0
aF-1.0
asg10
(lp335
F-0.008
aF0.004
aF0.008
asba(i__main__
sensor_data_struct
p336
(dp337
g3
(lp338
I568
aI305
aI182
aI1036
aI2570
aF163.0
aI637
aI311
aI196
aI1115
aI2504
aF140.0
asg5
I1
sg6
(lp339
I-1
aI-1
aI-1
aI-1
aI-1
aI-1
asg8
(lp340
I255
aI38
aI-1
aF-1.0
aF-1.0
aF-1.0
aI255
aI28
aI-1
aF-1.0
aF-1.0
aF-1.0
asg10
(lp341
F0.002
aF-0.005
aF0.013999999999999999
asba(i__main__
sensor_data_struct
p342
(dp343
g3
(lp344
I799
aI338
aI226
aI1318
aI2391
aF108.0
aI1310
aI439
aI316
aI1975
aI2207
aF36.0
asg5
I0
sg6
(lp345
I-1
aI-1
aI-1
aI-1
aI-1
aI-1
asg8
(lp346
I255
aI31
aI-1
aF-1.0
aF-1.0
aF-1.0
aI255
aI27
aI-1
aF-1.0
aF-1.0
aF-1.0
asg10
(lp347
F0.0
aF0.004
aF0.003
asba(i__main__
sensor_data_struct
p348
(dp349
g3
(lp350
I621
aI312
aI192
aI1100
aI2517
aF150.0
aI1096
aI416
aI278
aI1729
aI2277
aF97.0
asg5
I0
sg6
(lp351
I-1
aI-1
aI-1
aI-1
aI-1
aI-1
asg8
(lp352
I255
aI40
aI-1
aF-1.0
aF-1.0
aF-1.0
aI255
aI25
aI-1
aF-1.0
aF-1.0
aF-1.0
asg10
(lp353
F-0.001
aF0.006
aF0.01
asba(i__main__
sensor_data_struct
p354
(dp355
g3
(lp356
I581
aI305
aI185
aI1049
aI2554
aF157.0
aI994
aI393
aI259
aI1591
aI2305
aF108.0
asg5
I0
sg6
(lp357
I-1
aI-1
aI-1
aI-1
aI-1
aI-1
asg8
(lp358
I255
aI31
aI-1
aF-1.0
aF-1.0
aF-1.0
aI255
aI26
aI-1
aF-1.0
aF-1.0
aF-1.0
asg10
(lp359
F0.004
aF-0.001
aF0.009000000000000001
asba(i__main__
sensor_data_struct
p360
(dp361
g3
(lp362
I558
aI302
aI181
aI1021
aI2579
aF163.0
aI814
aI365
aI225
aI1368
aI2381
aF147.0
asg5
I1
sg6
(lp363
I-1
aI-1
aI-1
aI-1
aI-1
aI-1
asg8
(lp364
I255
aI43
aI-1
aF-1.0
aF-1.0
aF-1.0
aI255
aI26
aI-1
aF-1.0
aF-1.0
aF-1.0
asg10
(lp365
F0.001
aF-0.008
aF0.013000000000000001
asba(i__main__
sensor_data_struct
p366
(dp367
g3
(lp368
I554
aI302
aI180
aI1017
aI2586
aF165.0
aI752
aI342
aI216
aI1274
aI2418
aF137.0
asg5
I0
sg6
(lp369
I-1
aI-1
aI-1
aI-1
aI-1
aI-1
asg8
(lp370
I255
aI22
aI-1
aF-1.0
aF-1.0
aF-1.0
aI255
aI26
aI-1
aF-1.0
aF-1.0
aF-1.0
asg10
(lp371
F-0.008
aF-0.002
aF0.01
asba(i__main__
sensor_data_struct
p372
(dp373
g3
(lp374
I803
aI338
aI228
aI1321
aI2388
aF105.0
aI1289
aI435
aI315
aI1948
aI2217
aF37.0
asg5
I0
sg6
(lp375
I-1
aI-1
aI-1
aI-1
aI-1
aI-1
asg8
(lp376
I255
aI30
aI-1
aF-1.0
aF-1.0
aF-1.0
aI255
aI25
aI-1
aF-1.0
aF-1.0
aF-1.0
asg10
(lp377
F0.002
aF0.002
aF0.001
asba(i__main__
sensor_data_struct
p378
(dp379
g3
(lp380
I571
aI303
aI183
aI1037
aI2565
aF158.0
aI966
aI370
aI255
aI1531
aI2306
aF83.0
asg5
I0
sg6
(lp381
I-1
aI-1
aI-1
aI-1
aI-1
aI-1
asg8
(lp382
I255
aI22
aI-1
aF-1.0
aF-1.0
aF-1.0
aI255
aI26
aI-1
aF-1.0
aF-1.0
aF-1.0
asg10
(lp383
F-0.003
aF0.001
aF0.006999999999999999
asba(i__main__
sensor_data_struct
p384
(dp385
g3
(lp386
I528
aI294
aI175
aI980
aI2614
aF164.0
aI852
aI379
aI233
aI1428
aI2373
aF151.0
asg5
I1
sg6
(lp387
I-1
aI-1
aI-1
aI-1
aI-1
aI-1
asg8
(lp388
I255
aI37
aI-1
aF-1.0
aF-1.0
aF-1.0
aI255
aI29
aI-1
aF-1.0
aF-1.0
aF-1.0
asg10
(lp389
F0.012
aF-0.003
aF0.013999999999999999
asba(i__main__
sensor_data_struct
p390
(dp391
g3
(lp392
I561
aI301
aI179
aI1023
aI2564
aF161.0
aI1499
aI448
aI368
aI2186
aI2198
aF65488.0
asg5
I0
sg6
(lp393
I-1
aI-1
aI-1
aI-1
aI-1
aI-1
asg8
(lp394
I255
aI34
aI-1
aF-1.0
aF-1.0
aF-1.0
aI255
aI27
aI-1
aF-1.0
aF-1.0
aF-1.0
asg10
(lp395
F0.004
aF0.003
aF0.002
asba(i__main__
sensor_data_struct
p396
(dp397
g3
(lp398
I685
aI322
aI203
aI1179
aI2460
aF137.0
aI1034
aI369
aI272
aI1598
aI2286
aF47.0
asg5
I0
sg6
(lp399
I-1
aI-1
aI-1
aI-1
aI-1
aI-1
asg8
(lp400
I255
aI30
aI-1
aF-1.0
aF-1.0
aF-1.0
aI255
aI26
aI-1
aF-1.0
aF-1.0
aF-1.0
asg10
(lp401
F0.003
aF0.0
aF0.006
asba(i__main__
sensor_data_struct
p402
(dp403
g3
(lp404
I581
aI306
aI183
aI1050
aI2545
aF160.0
aI709
aI320
aI210
aI1199
aI2441
aF121.0
asg5
I0
sg6
(lp405
I-1
aI-1
aI-1
aI-1
aI-1
aI-1
asg8
(lp406
I255
aI28
aI-1
aF-1.0
aF-1.0
aF-1.0
aI255
aI24
aI-1
aF-1.0
aF-1.0
aF-1.0
asg10
(lp407
F-0.002
aF-0.006
aF0.006
asba(i__main__
sensor_data_struct
p408
(dp409
g3
(lp410
I551
aI300
aI178
aI1012
aI2583
aF164.0
aI901
aI367
aI246
aI1468
aI2358
aF106.0
asg5
I1
sg6
(lp411
I-1
aI-1
aI-1
aI-1
aI-1
aI-1
asg8
(lp412
I255
aI45
aI-1
aF-1.0
aF-1.0
aF-1.0
aI255
aI28
aI-1
aF-1.0
aF-1.0
aF-1.0
asg10
(lp413
F-0.004
aF0.01
aF0.013000000000000001
asba(i__main__
sensor_data_struct
p414
(dp415
g3
(lp416
I553
aI301
aI179
aI1016
aI2586
aF164.0
aI1244
aI407
aI313
aI1867
aI2235
aF9.0
asg5
I0
sg6
(lp417
I-1
aI-1
aI-1
aI-1
aI-1
aI-1
asg8
(lp418
I255
aI32
aI-1
aF-1.0
aF-1.0
aF-1.0
aI255
aI25
aI-1
aF-1.0
aF-1.0
aF-1.0
asg10
(lp419
F0.001
aF0.005
aF0.008
asba(i__main__
sensor_data_struct
p420
(dp421
g3
(lp422
I557
aI303
aI180
aI1022
aI2579
aF165.0
aI806
aI349
aI226
aI1338
aI2385
aF123.0
asg5
I0
sg6
(lp423
I-1
aI-1
aI-1
aI-1
aI-1
aI-1
asg8
(lp424
I255
aI37
aI-1
aF-1.0
aF-1.0
aF-1.0
aI255
aI27
aI-1
aF-1.0
aF-1.0
aF-1.0
asg10
(lp425
F0.002
aF-0.006999999999999999
aF0.006
asba(i__main__
sensor_data_struct
p426
(dp427
g3
(lp428
I564
aI302
aI181
aI1027
aI2567
aF161.0
aI1075
aI397
aI281
aI1685
aI2295
aF71.0
asg5
I0
sg6
(lp429
I-1
aI-1
aI-1
aI-1
aI-1
aI-1
asg8
(lp430
I255
aI34
aI-1
aF-1.0
aF-1.0
aF-1.0
aI255
aI26
aI-1
aF-1.0
aF-1.0
aF-1.0
asg10
(lp431
F0.003
aF0.004
aF0.011000000000000001
asba(i__main__
sensor_data_struct
p432
(dp433
g3
(lp434
I779
aI352
aI220
aI1317
aI2406
aF141.0
aI893
aI352
aI245
aI1435
aI2350
aF86.0
asg5
I1
sg6
(lp435
I-1
aI-1
aI-1
aI-1
aI-1
aI-1
asg8
(lp436
I255
aI40
aI-1
aF-1.0
aF-1.0
aF-1.0
aI255
aI28
aI-1
aF-1.0
aF-1.0
aF-1.0
asg10
(lp437
F0.001
aF0.005
aF0.013000000000000001
asba(i__main__
sensor_data_struct
p438
(dp439
g3
(lp440
I576
aI306
aI184
aI1047
aI2566
aF161.0
aI1855
aI528
aI424
aI2688
aI2165
aF65457.0
asg5
I1
sg6
(lp441
I-1
aI-1
aI-1
aI-1
aI-1
aI-1
asg8
(lp442
I255
aI47
aI-1
aF-1.0
aF-1.0
aF-1.0
aI255
aI40
aI-1
aF-1.0
aF-1.0
aF-1.0
asg10
(lp443
F0.004
aF0.01
aF0.011000000000000001
asba(i__main__
sensor_data_struct
p444
(dp445
g3
(lp446
I542
aI299
aI178
aI1002
aI2603
aF165.0
aI821
aI399
aI230
aI1425
aI2417
aF194.0
asg5
I1
sg6
(lp447
I-1
aI-1
aI-1
aI-1
aI-1
aI-1
asg8
(lp448
I255
aI49
aI-1
aF-1.0
aF-1.0
aF-1.0
aI255
aI40
aI-1
aF-1.0
aF-1.0
aF-1.0
asg10
(lp449
F0.005
aF-0.012
aF0.013999999999999999
asba(i__main__
sensor_data_struct
p450
(dp451
g3
(lp452
I556
aI304
aI180
aI1021
aI2582
aF167.0
aI719
aI355
aI211
aI1259
aI2459
aF172.0
asg5
I1
sg6
(lp453
I-1
aI-1
aI-1
aI-1
aI-1
aI-1
asg8
(lp454
I255
aI47
aI-1
aF-1.0
aF-1.0
aF-1.0
aI255
aI38
aI-1
aF-1.0
aF-1.0
aF-1.0
asg10
(lp455
F0.0
aF-0.011000000000000001
aF0.013000000000000001
asba(i__main__
sensor_data_struct
p456
(dp457
g3
(lp458
I560
aI304
aI180
aI1025
aI2573
aF166.0
aI913
aI370
aI246
aI1481
aI2342
aF107.0
asg5
I0
sg6
(lp459
I-1
aI-1
aI-1
aI-1
aI-1
aI-1
asg8
(lp460
I255
aI45
aI-1
aF-1.0
aF-1.0
aF-1.0
aI255
aI27
aI-1
aF-1.0
aF-1.0
aF-1.0
asg10
(lp461
F-0.003
aF0.006
aF0.012
asba(i__main__
sensor_data_struct
p462
(dp463
g3
(lp464
I548
aI301
aI179
aI1010
aI2592
aF166.0
aI764
aI346
aI218
aI1292
aI2412
aF138.0
asg5
I0
sg6
(lp465
I-1
aI-1
aI-1
aI-1
aI-1
aI-1
asg8
(lp466
I255
aI40
aI-1
aF-1.0
aF-1.0
aF-1.0
aI255
aI26
aI-1
aF-1.0
aF-1.0
aF-1.0
asg10
(lp467
F-0.001
aF-0.008
aF0.011000000000000001
asba(i__main__
sensor_data_struct
p468
(dp469
g3
(lp470
I558
aI301
aI180
aI1020
aI2577
aF162.0
aI1269
aI424
aI315
aI1920
aI2233
aF26.0
asg5
I0
sg6
(lp471
I-1
aI-1
aI-1
aI-1
aI-1
aI-1
asg8
(lp472
I255
aI39
aI-1
aF-1.0
aF-1.0
aF-1.0
aI255
aI25
aI-1
aF-1.0
aF-1.0
aF-1.0
asg10
(lp473
F0.005
aF0.005
aF0.01
asba(i__main__
sensor_data_struct
p474
(dp475
g3
(lp476
I789
aI353
aI223
aI1330
aI2407
aF137.0
aI1042
aI372
aI273
aI1619
aI2294
aF49.0
asg5
I0
sg6
(lp477
I-1
aI-1
aI-1
aI-1
aI-1
aI-1
asg8
(lp478
I255
aI41
aI-1
aF-1.0
aF-1.0
aF-1.0
aI255
aI28
aI-1
aF-1.0
aF-1.0
aF-1.0
asg10
(lp479
F0.006
aF0.005
aF0.012
asba(i__main__
sensor_data_struct
p480
(dp481
g3
(lp482
I589
aI309
aI187
aI1065
aI2555
aF159.0
aI914
aI351
aI249
aI1451
aI2331
aF75.0
asg5
I0
sg6
(lp483
I-1
aI-1
aI-1
aI-1
aI-1
aI-1
asg8
(lp484
I255
aI32
aI-1
aF-1.0
aF-1.0
aF-1.0
aI255
aI25
aI-1
aF-1.0
aF-1.0
aF-1.0
asg10
(lp485
F0.003
aF-0.001
aF0.005
asba(i__main__
sensor_data_struct
p486
(dp487
g3
(lp488
I570
aI304
aI183
aI1036
aI2568
aF160.0
aI790
aI347
aI224
aI1320
aI2400
aF127.0
asg5
I0
sg6
(lp489
I-1
aI-1
aI-1
aI-1
aI-1
aI-1
asg8
(lp490
I255
aI31
aI-1
aF-1.0
aF-1.0
aF-1.0
aI255
aI25
aI-1
aF-1.0
aF-1.0
aF-1.0
asg10
(lp491
F0.0
aF-0.004
aF0.01
asba(i__main__
sensor_data_struct
p492
(dp493
g3
(lp494
I575
aI304
aI184
aI1042
aI2564
aF158.0
aI963
aI384
aI252
aI1544
aI2306
aF109.0
asg5
I0
sg6
(lp495
I-1
aI-1
aI-1
aI-1
aI-1
aI-1
asg8
(lp496
I255
aI34
aI-1
aF-1.0
aF-1.0
aF-1.0
aI255
aI26
aI-1
aF-1.0
aF-1.0
aF-1.0
asg10
(lp497
F0.0
aF-0.006999999999999999
aF0.006
asba(i__main__
sensor_data_struct
p498
(dp499
g3
(lp500
I565
aI303
aI181
aI1030
aI2569
aF162.0
aI890
aI361
aI242
aI1441
aI2343
aF103.0
asg5
I0
sg6
(lp501
I-1
aI-1
aI-1
aI-1
aI-1
aI-1
asg8
(lp502
I255
aI24
aI-1
aF-1.0
aF-1.0
aF-1.0
aI255
aI25
aI-1
aF-1.0
aF-1.0
aF-1.0
asg10
(lp503
F-0.001
aF0.0
aF0.01
asba(i__main__
sensor_data_struct
p504
(dp505
g3
(lp506
I579
aI306
aI184
aI1049
aI2556
aF160.0
aI801
aI349
aI225
aI1332
aI2387
aF126.0
asg5
I0
sg6
(lp507
I-1
aI-1
aI-1
aI-1
aI-1
aI-1
asg8
(lp508
I255
aI27
aI-1
aF-1.0
aF-1.0
aF-1.0
aI255
aI26
aI-1
aF-1.0
aF-1.0
aF-1.0
asg10
(lp509
F-0.002
aF-0.004
aF0.01
asba(i__main__
sensor_data_struct
p510
(dp511
g3
(lp512
I575
aI304
aI183
aI1042
aI2557
aF159.0
aI1098
aI382
aI288
aI1682
aI2275
aF35.0
asg5
I0
sg6
(lp513
I-1
aI-1
aI-1
aI-1
aI-1
aI-1
asg8
(lp514
I255
aI25
aI-1
aF-1.0
aF-1.0
aF-1.0
aI255
aI26
aI-1
aF-1.0
aF-1.0
aF-1.0
asg10
(lp515
F0.001
aF0.0
aF0.0
asba(i__main__
sensor_data_struct
p516
(dp517
g3
(lp518
I580
aI304
aI184
aI1047
aI2554
aF156.0
aI1001
aI383
aI263
aI1583
aI2299
aF87.0
asg5
I0
sg6
(lp519
I-1
aI-1
aI-1
aI-1
aI-1
aI-1
asg8
(lp520
I255
aI29
aI-1
aF-1.0
aF-1.0
aF-1.0
aI255
aI25
aI-1
aF-1.0
aF-1.0
aF-1.0
asg10
(lp521
F0.001
aF-0.002
aF0.006
asba(i__main__
sensor_data_struct
p522
(dp523
g3
(lp524
I569
aI303
aI182
aI1034
aI2563
aF160.0
aI1048
aI394
aI272
aI1651
aI2293
aF82.0
asg5
I0
sg6
(lp525
I-1
aI-1
aI-1
aI-1
aI-1
aI-1
asg8
(lp526
I255
aI32
aI-1
aF-1.0
aF-1.0
aF-1.0
aI255
aI27
aI-1
aF-1.0
aF-1.0
aF-1.0
asg10
(lp527
F-0.004
aF0.006
aF0.009000000000000001
asba(i__main__
sensor_data_struct
p528
(dp529
g3
(lp530
I543
aI300
aI178
aI1003
aI2596
aF166.0
aI1339
aI414
aI329
aI1981
aI2215
aF65514.0
asg5
I0
sg6
(lp531
I-1
aI-1
aI-1
aI-1
aI-1
aI-1
asg8
(lp532
I255
aI42
aI-1
aF-1.0
aF-1.0
aF-1.0
aI255
aI25
aI-1
aF-1.0
aF-1.0
aF-1.0
asg10
(lp533
F0.009000000000000001
aF0.005
aF0.01
asba(i__main__
sensor_data_struct
p534
(dp535
g3
(lp536
I566
aI302
aI182
aI1032
aI2574
aF159.0
aI1041
aI393
aI271
aI1642
aI2296
aF83.0
asg5
I0
sg6
(lp537
I-1
aI-1
aI-1
aI-1
aI-1
aI-1
asg8
(lp538
I255
aI32
aI-1
aF-1.0
aF-1.0
aF-1.0
aI255
aI25
aI-1
aF-1.0
aF-1.0
aF-1.0
asg10
(lp539
F0.008
aF0.001
aF0.008
asba(i__main__
sensor_data_struct
p540
(dp541
g3
(lp542
I557
aI301
aI181
aI1020
aI2586
aF161.0
aI853
aI407
aI238
aI1467
aI2404
aF191.0
asg5
I1
sg6
(lp543
I-1
aI-1
aI-1
aI-1
aI-1
aI-1
asg8
(lp544
I255
aI42
aI-1
aF-1.0
aF-1.0
aF-1.0
aI255
aI40
aI-1
aF-1.0
aF-1.0
aF-1.0
asg10
(lp545
F0.004
aF-0.006999999999999999
aF0.015
asba(i__main__
sensor_data_struct
p546
(dp547
g3
(lp548
I565
aI306
aI181
aI1034
aI2569
aF167.0
aI1519
aI453
aI374
aI2221
aI2206
aF65485.0
asg5
I0
sg6
(lp549
I-1
aI-1
aI-1
aI-1
aI-1
aI-1
asg8
(lp550
I255
aI40
aI-1
aF-1.0
aF-1.0
aF-1.0
aI255
aI24
aI-1
aF-1.0
aF-1.0
aF-1.0
asg10
(lp551
F0.003
aF0.006
aF0.009000000000000001
asba(i__main__
sensor_data_struct
p552
(dp553
g3
(lp554
I710
aI323
aI210
aI1205
aI2444
aF125.0
aI1121
aI407
aI281
aI1736
aI2251
aF72.0
asg5
I0
sg6
(lp555
I-1
aI-1
aI-1
aI-1
aI-1
aI-1
asg8
(lp556
I255
aI21
aI-1
aF-1.0
aF-1.0
aF-1.0
aI255
aI26
aI-1
aF-1.0
aF-1.0
aF-1.0
asg10
(lp557
F-0.002
aF-0.001
aF0.0
asba(i__main__
sensor_data_struct
p558
(dp559
g3
(lp560
I561
aI302
aI181
aI1025
aI2578
aF162.0
aI2112
aI539
aI480
aI2941
aI2118
aF65350.0
asg5
I1
sg6
(lp561
I-1
aI-1
aI-1
aI-1
aI-1
aI-1
asg8
(lp562
I255
aI41
aI-1
aF-1.0
aF-1.0
aF-1.0
aI255
aI41
aI-1
aF-1.0
aF-1.0
aF-1.0
asg10
(lp563
F0.005
aF0.006
aF0.006999999999999999
asba(i__main__
sensor_data_struct
p564
(dp565
g3
(lp566
I537
aI297
aI177
aI994
aI2608
aF164.0
aI785
aI352
aI225
aI1327
aI2422
aF136.0
asg5
I1
sg6
(lp567
I-1
aI-1
aI-1
aI-1
aI-1
aI-1
asg8
(lp568
I255
aI48
aI-1
aF-1.0
aF-1.0
aF-1.0
aI255
aI31
aI-1
aF-1.0
aF-1.0
aF-1.0
asg10
(lp569
F-0.008
aF0.009000000000000001
aF0.013999999999999999
asba(i__main__
sensor_data_struct
p570
(dp571
g3
(lp572
I532
aI296
aI176
aI988
aI2612
aF165.0
aI873
aI352
aI244
aI1417
aI2371
aF93.0
asg5
I0
sg6
(lp573
I-1
aI-1
aI-1
aI-1
aI-1
aI-1
asg8
(lp574
I255
aI34
aI-1
aF-1.0
aF-1.0
aF-1.0
aI255
aI25
aI-1
aF-1.0
aF-1.0
aF-1.0
asg10
(lp575
F0.01
aF0.001
aF0.01
asba(i__main__
sensor_data_struct
p576
(dp577
g3
(lp578
I541
aI298
aI178
aI999
aI2601
aF164.0
aI660
aI336
aI200
aI1174
aI2500
aF169.0
asg5
I1
sg6
(lp579
I-1
aI-1
aI-1
aI-1
aI-1
aI-1
asg8
(lp580
I255
aI50
aI-1
aF-1.0
aF-1.0
aF-1.0
aI255
aI40
aI-1
aF-1.0
aF-1.0
aF-1.0
asg10
(lp581
F0.003
aF-0.012
aF0.015
asba(i__main__
sensor_data_struct
p582
(dp583
g3
(lp584
I593
aI319
aI186
aI1081
aI2550
aF174.0
aI732
aI336
aI212
aI1246
aI2430
aF137.0
asg5
I1
sg6
(lp585
I-1
aI-1
aI-1
aI-1
aI-1
aI-1
asg8
(lp586
I255
aI31
aI-1
aF-1.0
aF-1.0
aF-1.0
aI255
aI27
aI-1
aF-1.0
aF-1.0
aF-1.0
asg10
(lp587
F0.003
aF-0.003
aF0.013999999999999999
asba(i__main__
sensor_data_struct
p588
(dp589
g3
(lp590
I560
aI303
aI180
aI1025
aI2573
aF164.0
aI1034
aI388
aI271
aI1630
aI2302
aF78.0
asg5
I0
sg6
(lp591
I-1
aI-1
aI-1
aI-1
aI-1
aI-1
asg8
(lp592
I255
aI34
aI-1
aF-1.0
aF-1.0
aF-1.0
aI255
aI27
aI-1
aF-1.0
aF-1.0
aF-1.0
asg10
(lp593
F0.008
aF0.002
aF0.01
asba(i__main__
sensor_data_struct
p594
(dp595
g3
(lp596
I694
aI333
aI204
aI1205
aI2459
aF150.0
aI583
aI307
aI187
aI1056
aI2567
aF158.0
asg5
I1
sg6
(lp597
I-1
aI-1
aI-1
aI-1
aI-1
aI-1
asg8
(lp598
I255
aI45
aI-1
aF-1.0
aF-1.0
aF-1.0
aI255
aI41
aI-1
aF-1.0
aF-1.0
aF-1.0
asg10
(lp599
F0.009000000000000001
aF-0.008
aF0.013999999999999999
asba(i__main__
sensor_data_struct
p600
(dp601
g3
(lp602
I562
aI304
aI181
aI1029
aI2576
aF164.0
aI1120
aI387
aI292
aI1712
aI2271
aF33.0
asg5
I0
sg6
(lp603
I-1
aI-1
aI-1
aI-1
aI-1
aI-1
asg8
(lp604
I255
aI30
aI-1
aF-1.0
aF-1.0
aF-1.0
aI255
aI26
aI-1
aF-1.0
aF-1.0
aF-1.0
asg10
(lp605
F0.002
aF0.001
aF0.005
asba.