(lp0
(i__main__
sensor_data_struct
p1
(dp2
S'color'
p3
(lp4
I-1
aI-1
aI-1
aI-1
aI-1
aF-1.0
aI-1
aI-1
aI-1
aI-1
aI-1
aF-1.0
asS'button'
p5
I0
sS'IR'
p6
(lp7
I-1
aI-1
aI-1
aI-1
aI-1
aI-1
asS'TOF'
p8
(lp9
I58
aI37
aI30
aF2.111999988555908
aF1.6639999151229858
aF1.6639999151229858
aI28
aI23
aI20
aF1.4079999923706055
aF1.215999960899353
aF1.4079999923706055
asS'pt'
p10
(lp11
F-0.006999999999999999
aF-0.006999999999999999
aF0.013000000000000001
asba(i__main__
sensor_data_struct
p12
(dp13
g3
(lp14
I-1
aI-1
aI-1
aI-1
aI-1
aF-1.0
aI-1
aI-1
aI-1
aI-1
aI-1
aF-1.0
asg5
I1
sg6
(lp15
I-1
aI-1
aI-1
aI-1
aI-1
aI-1
asg8
(lp16
I50
aI48
aI55
aF1.6639999151229858
aF1.1519999504089355
aF2.111999988555908
aI37
aI34
aI31
aF1.4719997644424438
aF1.0880000591278076
aF1.4719997644424438
asg10
(lp17
F-0.011000000000000001
aF0.006
aF0.013999999999999999
asba(i__main__
sensor_data_struct
p18
(dp19
g3
(lp20
I-1
aI-1
aI-1
aI-1
aI-1
aF-1.0
aI-1
aI-1
aI-1
aI-1
aI-1
aF-1.0
asg5
I0
sg6
(lp21
I-1
aI-1
aI-1
aI-1
aI-1
aI-1
asg8
(lp22
I55
aI34
aI30
aF1.343999981880188
aF1.215999960899353
aF1.8559999465942383
aI30
aI24
aI22
aF1.1519999504089355
aF1.0239999294281006
aF1.215999960899353
asg10
(lp23
F-0.006999999999999999
aF-0.008
aF0.013000000000000001
asba(i__main__
sensor_data_struct
p24
(dp25
g3
(lp26
I-1
aI-1
aI-1
aI-1
aI-1
aF-1.0
aI-1
aI-1
aI-1
aI-1
aI-1
aF-1.0
asg5
I0
sg6
(lp27
I-1
aI-1
aI-1
aI-1
aI-1
aI-1
asg8
(lp28
I23
aI22
aI28
aF1.1519999504089355
aF1.343999981880188
aF1.7920001745224
aI27
aI21
aI21
aF1.1519999504089355
aF1.0239999294281006
aF1.215999960899353
asg10
(lp29
F-0.001
aF-0.003
aF0.006
asba(i__main__
sensor_data_struct
p30
(dp31
g3
(lp32
I-1
aI-1
aI-1
aI-1
aI-1
aF-1.0
aI-1
aI-1
aI-1
aI-1
aI-1
aF-1.0
asg5
I0
sg6
(lp33
I-1
aI-1
aI-1
aI-1
aI-1
aI-1
asg8
(lp34
I31
aI27
aI18
aF1.4719997644424438
aF1.2799999713897705
aF1.4719997644424438
aI29
aI22
aI22
aF1.215999960899353
aF1.0880000591278076
aF1.215999960899353
asg10
(lp35
F0.0
aF0.006
aF0.01
asba(i__main__
sensor_data_struct
p36
(dp37
g3
(lp38
I-1
aI-1
aI-1
aI-1
aI-1
aF-1.0
aI-1
aI-1
aI-1
aI-1
aI-1
aF-1.0
asg5
I0
sg6
(lp39
I-1
aI-1
aI-1
aI-1
aI-1
aI-1
asg8
(lp40
I22
aI26
aI22
aF1.215999960899353
aF1.4719997644424438
aF1.5360000133514404
aI27
aI24
aI24
aF1.1519999504089355
aF1.0880000591278076
aF1.215999960899353
asg10
(lp41
F0.005
aF0.002
aF0.003
asba(i__main__
sensor_data_struct
p42
(dp43
g3
(lp44
I-1
aI-1
aI-1
aI-1
aI-1
aF-1.0
aI-1
aI-1
aI-1
aI-1
aI-1
aF-1.0
asg5
I1
sg6
(lp45
I-1
aI-1
aI-1
aI-1
aI-1
aI-1
asg8
(lp46
I55
aI42
aI30
aF1.343999981880188
aF1.1519999504089355
aF1.8559999465942383
aI34
aI28
aI26
aF1.215999960899353
aF1.0239999294281006
aF1.215999960899353
asg10
(lp47
F-0.006
aF-0.004
aF0.015
asba(i__main__
sensor_data_struct
p48
(dp49
g3
(lp50
I-1
aI-1
aI-1
aI-1
aI-1
aF-1.0
aI-1
aI-1
aI-1
aI-1
aI-1
aF-1.0
asg5
I0
sg6
(lp51
I-1
aI-1
aI-1
aI-1
aI-1
aI-1
asg8
(lp52
I33
aI28
aI15
aF1.4719997644424438
aF1.343999981880188
aF1.215999960899353
aI29
aI20
aI22
aF1.215999960899353
aF1.0880000591278076
aF1.215999960899353
asg10
(lp53
F0.003
aF0.006999999999999999
aF0.009000000000000001
asba(i__main__
sensor_data_struct
p54
(dp55
g3
(lp56
I-1
aI-1
aI-1
aI-1
aI-1
aF-1.0
aI-1
aI-1
aI-1
aI-1
aI-1
aF-1.0
asg5
I0
sg6
(lp57
I-1
aI-1
aI-1
aI-1
aI-1
aI-1
asg8
(lp58
I24
aI22
aI28
aF1.343999981880188
aF1.4719997644424438
aF1.6639999151229858
aI30
aI22
aI22
aF1.1519999504089355
aF1.0239999294281006
aF1.215999960899353
asg10
(lp59
F0.0
aF0.0
aF0.006999999999999999
asba(i__main__
sensor_data_struct
p60
(dp61
g3
(lp62
I-1
aI-1
aI-1
aI-1
aI-1
aF-1.0
aI-1
aI-1
aI-1
aI-1
aI-1
aF-1.0
asg5
I0
sg6
(lp63
I-1
aI-1
aI-1
aI-1
aI-1
aI-1
asg8
(lp64
I30
aI14
aI26
aF1.5360000133514404
aF1.0880000591278076
aF1.8559999465942383
aI28
aI22
aI22
aF1.1519999504089355
aF1.0239999294281006
aF1.215999960899353
asg10
(lp65
F-0.004
aF0.003
aF0.006999999999999999
asba(i__main__
sensor_data_struct
p66
(dp67
g3
(lp68
I-1
aI-1
aI-1
aI-1
aI-1
aF-1.0
aI-1
aI-1
aI-1
aI-1
aI-1
aF-1.0
asg5
I0
sg6
(lp69
I-1
aI-1
aI-1
aI-1
aI-1
aI-1
asg8
(lp70
I32
aI22
aI18
aF1.4079999923706055
aF1.2799999713897705
aF1.4719997644424438
aI26
aI23
aI23
aF1.215999960899353
aF1.0880000591278076
aF1.215999960899353
asg10
(lp71
F0.001
aF0.004
aF0.012
asba(i__main__
sensor_data_struct
p72
(dp73
g3
(lp74
I-1
aI-1
aI-1
aI-1
aI-1
aF-1.0
aI-1
aI-1
aI-1
aI-1
aI-1
aF-1.0
asg5
I1
sg6
(lp75
I-1
aI-1
aI-1
aI-1
aI-1
aI-1
asg8
(lp76
I17
aI37
aI44
aF0.9599999189376831
aF1.600000023841858
aF1.6639999151229858
aI17
aI35
aI34
aF0.8319999575614929
aF1.343999981880188
aF1.343999981880188
asg10
(lp77
F0.008
aF-0.003
aF0.006999999999999999
asba(i__main__
sensor_data_struct
p78
(dp79
g3
(lp80
I-1
aI-1
aI-1
aI-1
aI-1
aF-1.0
aI-1
aI-1
aI-1
aI-1
aI-1
aF-1.0
asg5
I0
sg6
(lp81
I-1
aI-1
aI-1
aI-1
aI-1
aI-1
asg8
(lp82
I42
aI12
aI41
aF1.600000023841858
aF1.0239999294281006
aF2.047999858856201
aI27
aI22
aI24
aF1.215999960899353
aF1.0880000591278076
aF1.215999960899353
asg10
(lp83
F-0.008
aF0.004
aF0.009000000000000001
asba(i__main__
sensor_data_struct
p84
(dp85
g3
(lp86
I-1
aI-1
aI-1
aI-1
aI-1
aF-1.0
aI-1
aI-1
aI-1
aI-1
aI-1
aF-1.0
asg5
I0
sg6
(lp87
I-1
aI-1
aI-1
aI-1
aI-1
aI-1
asg8
(lp88
I31
aI17
aI22
aF1.4719997644424438
aF1.1519999504089355
aF1.7920001745224
aI29
aI23
aI22
aF1.215999960899353
aF1.0880000591278076
aF1.215999960899353
asg10
(lp89
F-0.003
aF0.002
aF0.005
asba(i__main__
sensor_data_struct
p90
(dp91
g3
(lp92
I-1
aI-1
aI-1
aI-1
aI-1
aF-1.0
aI-1
aI-1
aI-1
aI-1
aI-1
aF-1.0
asg5
I0
sg6
(lp93
I-1
aI-1
aI-1
aI-1
aI-1
aI-1
asg8
(lp94
I48
aI28
aI19
aF1.2799999713897705
aF1.343999981880188
aF1.215999960899353
aI28
aI23
aI21
aF1.215999960899353
aF1.1519999504089355
aF1.1519999504089355
asg10
(lp95
F0.008
aF0.005
aF0.011000000000000001
asba(i__main__
sensor_data_struct
p96
(dp97
g3
(lp98
I-1
aI-1
aI-1
aI-1
aI-1
aF-1.0
aI-1
aI-1
aI-1
aI-1
aI-1
aF-1.0
asg5
I0
sg6
(lp99
I-1
aI-1
aI-1
aI-1
aI-1
aI-1
asg8
(lp100
I37
aI38
aI40
aF1.600000023841858
aF1.1519999504089355
aF1.8559999465942383
aI30
aI24
aI23
aF1.215999960899353
aF1.0880000591278076
aF1.215999960899353
asg10
(lp101
F-0.006999999999999999
aF0.004
aF0.013999999999999999
asba(i__main__
sensor_data_struct
p102
(dp103
g3
(lp104
I-1
aI-1
aI-1
aI-1
aI-1
aF-1.0
aI-1
aI-1
aI-1
aI-1
aI-1
aF-1.0
asg5
I0
sg6
(lp105
I-1
aI-1
aI-1
aI-1
aI-1
aI-1
asg8
(lp106
I44
aI11
aI34
aF1.600000023841858
aF1.0880000591278076
aF2.047999858856201
aI30
aI21
aI21
aF1.1519999504089355
aF1.0239999294281006
aF1.215999960899353
asg10
(lp107
F-0.008
aF-0.003
aF0.006
asba(i__main__
sensor_data_struct
p108
(dp109
g3
(lp110
I-1
aI-1
aI-1
aI-1
aI-1
aF-1.0
aI-1
aI-1
aI-1
aI-1
aI-1
aF-1.0
asg5
I0
sg6
(lp111
I-1
aI-1
aI-1
aI-1
aI-1
aI-1
asg8
(lp112
I59
aI32
aI29
aF1.4079999923706055
aF1.215999960899353
aF1.8559999465942383
aI30
aI24
aI22
aF1.0880000591278076
aF1.0239999294281006
aF1.215999960899353
asg10
(lp113
F-0.006999999999999999
aF-0.006
aF0.013000000000000001
asba(i__main__
sensor_data_struct
p114
(dp115
g3
(lp116
I-1
aI-1
aI-1
aI-1
aI-1
aF-1.0
aI-1
aI-1
aI-1
aI-1
aI-1
aF-1.0
asg5
I1
sg6
(lp117
I-1
aI-1
aI-1
aI-1
aI-1
aI-1
asg8
(lp118
I50
aI32
aI47
aF1.2799999713897705
aF1.4079999923706055
aF1.4079999923706055
aI32
aI28
aI25
aF1.215999960899353
aF1.1519999504089355
aF1.1519999504089355
asg10
(lp119
F0.012
aF0.005
aF0.015
asba(i__main__
sensor_data_struct
p120
(dp121
g3
(lp122
I-1
aI-1
aI-1
aI-1
aI-1
aF-1.0
aI-1
aI-1
aI-1
aI-1
aI-1
aF-1.0
asg5
I0
sg6
(lp123
I-1
aI-1
aI-1
aI-1
aI-1
aI-1
asg8
(lp124
I47
aI37
aI23
aF1.4079999923706055
aF1.343999981880188
aF1.2799999713897705
aI30
aI24
aI22
aF1.215999960899353
aF1.1519999504089355
aF1.1519999504089355
asg10
(lp125
F0.006
aF0.008
aF0.013000000000000001
asba(i__main__
sensor_data_struct
p126
(dp127
g3
(lp128
I-1
aI-1
aI-1
aI-1
aI-1
aF-1.0
aI-1
aI-1
aI-1
aI-1
aI-1
aF-1.0
asg5
I0
sg6
(lp129
I-1
aI-1
aI-1
aI-1
aI-1
aI-1
asg8
(lp130
I32
aI17
aI28
aF1.343999981880188
aF1.343999981880188
aF1.8559999465942383
aI27
aI22
aI20
aF1.1519999504089355
aF1.0239999294281006
aF1.215999960899353
asg10
(lp131
F-0.003
aF-0.001
aF0.006999999999999999
asba(i__main__
sensor_data_struct
p132
(dp133
g3
(lp134
I-1
aI-1
aI-1
aI-1
aI-1
aF-1.0
aI-1
aI-1
aI-1
aI-1
aI-1
aF-1.0
asg5
I0
sg6
(lp135
I-1
aI-1
aI-1
aI-1
aI-1
aI-1
asg8
(lp136
I54
aI39
aI30
aF1.215999960899353
aF1.343999981880188
aF1.7279999256134033
aI29
aI23
aI23
aF1.1519999504089355
aF1.0239999294281006
aF1.215999960899353
asg10
(lp137
F-0.003
aF-0.01
aF0.012
asba(i__main__
sensor_data_struct
p138
(dp139
g3
(lp140
I-1
aI-1
aI-1
aI-1
aI-1
aF-1.0
aI-1
aI-1
aI-1
aI-1
aI-1
aF-1.0
asg5
I0
sg6
(lp141
I-1
aI-1
aI-1
aI-1
aI-1
aI-1
asg8
(lp142
I21
aI31
aI29
aF1.0880000591278076
aF1.7279999256134033
aF1.7920001745224
aI30
aI22
aI22
aF1.215999960899353
aF1.0880000591278076
aF1.215999960899353
asg10
(lp143
F0.001
aF-0.005
aF0.006
asba(i__main__
sensor_data_struct
p144
(dp145
g3
(lp146
I-1
aI-1
aI-1
aI-1
aI-1
aF-1.0
aI-1
aI-1
aI-1
aI-1
aI-1
aF-1.0
asg5
I0
sg6
(lp147
I-1
aI-1
aI-1
aI-1
aI-1
aI-1
asg8
(lp148
I31
aI23
aI19
aF1.5360000133514404
aF1.2799999713897705
aF1.6639999151229858
aI26
aI20
aI21
aF1.2799999713897705
aF1.0880000591278076
aF1.215999960899353
asg10
(lp149
F-0.002
aF0.005
aF0.01
asba(i__main__
sensor_data_struct
p150
(dp151
g3
(lp152
I-1
aI-1
aI-1
aI-1
aI-1
aF-1.0
aI-1
aI-1
aI-1
aI-1
aI-1
aF-1.0
asg5
I0
sg6
(lp153
I-1
aI-1
aI-1
aI-1
aI-1
aI-1
asg8
(lp154
I29
aI17
aI29
aF1.5360000133514404
aF1.343999981880188
aF1.8559999465942383
aI28
aI22
aI21
aF1.215999960899353
aF1.0880000591278076
aF1.215999960899353
asg10
(lp155
F-0.003
aF0.0
aF0.006999999999999999
asba(i__main__
sensor_data_struct
p156
(dp157
g3
(lp158
I-1
aI-1
aI-1
aI-1
aI-1
aF-1.0
aI-1
aI-1
aI-1
aI-1
aI-1
aF-1.0
asg5
I0
sg6
(lp159
I-1
aI-1
aI-1
aI-1
aI-1
aI-1
asg8
(lp160
I52
aI38
aI28
aF1.2799999713897705
aF1.5360000133514404
aF1.7279999256134033
aI26
aI21
aI22
aF1.2799999713897705
aF1.0880000591278076
aF1.215999960899353
asg10
(lp161
F-0.003
aF-0.009000000000000001
aF0.012
asba(i__main__
sensor_data_struct
p162
(dp163
g3
(lp164
I-1
aI-1
aI-1
aI-1
aI-1
aF-1.0
aI-1
aI-1
aI-1
aI-1
aI-1
aF-1.0
asg5
I1
sg6
(lp165
I-1
aI-1
aI-1
aI-1
aI-1
aI-1
asg8
(lp166
I33
aI22
aI26
aF1.4079999923706055
aF1.343999981880188
aF1.7920001745224
aI29
aI26
aI22
aF1.215999960899353
aF1.0880000591278076
aF1.215999960899353
asg10
(lp167
F-0.003
aF-0.001
aF0.013999999999999999
asba(i__main__
sensor_data_struct
p168
(dp169
g3
(lp170
I-1
aI-1
aI-1
aI-1
aI-1
aF-1.0
aI-1
aI-1
aI-1
aI-1
aI-1
aF-1.0
asg5
I0
sg6
(lp171
I-1
aI-1
aI-1
aI-1
aI-1
aI-1
asg8
(lp172
I22
aI27
aI27
aF1.1519999504089355
aF1.6639999151229858
aF1.6639999151229858
aI27
aI23
aI22
aF1.215999960899353
aF1.0880000591278076
aF1.215999960899353
asg10
(lp173
F0.004
aF-0.002
aF0.004
asba(i__main__
sensor_data_struct
p174
(dp175
g3
(lp176
I-1
aI-1
aI-1
aI-1
aI-1
aF-1.0
aI-1
aI-1
aI-1
aI-1
aI-1
aF-1.0
asg5
I0
sg6
(lp177
I-1
aI-1
aI-1
aI-1
aI-1
aI-1
asg8
(lp178
I25
aI26
aI22
aF1.343999981880188
aF1.4719997644424438
aF1.4079999923706055
aI26
aI24
aI22
aF1.215999960899353
aF1.0880000591278076
aF1.215999960899353
asg10
(lp179
F0.004
aF0.002
aF0.006999999999999999
asba(i__main__
sensor_data_struct
p180
(dp181
g3
(lp182
I-1
aI-1
aI-1
aI-1
aI-1
aF-1.0
aI-1
aI-1
aI-1
aI-1
aI-1
aF-1.0
asg5
I0
sg6
(lp183
I-1
aI-1
aI-1
aI-1
aI-1
aI-1
asg8
(lp184
I37
aI11
aI35
aF1.6639999151229858
aF1.0239999294281006
aF1.9839999675750732
aI25
aI22
aI24
aF1.2799999713897705
aF1.0880000591278076
aF1.2799999713897705
asg10
(lp185
F-0.006999999999999999
aF0.003
aF0.008
asba(i__main__
sensor_data_struct
p186
(dp187
g3
(lp188
I-1
aI-1
aI-1
aI-1
aI-1
aF-1.0
aI-1
aI-1
aI-1
aI-1
aI-1
aF-1.0
asg5
I1
sg6
(lp189
I-1
aI-1
aI-1
aI-1
aI-1
aI-1
asg8
(lp190
I16
aI39
aI38
aF0.8960000872612
aF1.7920001745224
aF1.8559999465942383
aI20
aI36
aI33
aF0.5119999647140503
aF1.343999981880188
aF1.343999981880188
asg10
(lp191
F0.004
aF-0.005
aF0.003
asba(i__main__
sensor_data_struct
p192
(dp193
g3
(lp194
I-1
aI-1
aI-1
aI-1
aI-1
aF-1.0
aI-1
aI-1
aI-1
aI-1
aI-1
aF-1.0
asg5
I0
sg6
(lp195
I-1
aI-1
aI-1
aI-1
aI-1
aI-1
asg8
(lp196
I36
aI11
aI34
aF1.6639999151229858
aF0.9599999189376831
aF2.111999988555908
aI28
aI20
aI23
aF1.2799999713897705
aF1.0239999294281006
aF1.2799999713897705
asg10
(lp197
F-0.006
aF0.003
aF0.003
asba(i__main__
sensor_data_struct
p198
(dp199
g3
(lp200
I-1
aI-1
aI-1
aI-1
aI-1
aF-1.0
aI-1
aI-1
aI-1
aI-1
aI-1
aF-1.0
asg5
I1
sg6
(lp201
I-1
aI-1
aI-1
aI-1
aI-1
aI-1
asg8
(lp202
I18
aI37
aI38
aF0.8960000872612
aF1.7279999256134033
aF1.7279999256134033
aI15
aI37
aI32
aF0.7680000066757202
aF1.343999981880188
aF1.343999981880188
asg10
(lp203
F0.006
aF-0.004
aF0.006
asba(i__main__
sensor_data_struct
p204
(dp205
g3
(lp206
I-1
aI-1
aI-1
aI-1
aI-1
aF-1.0
aI-1
aI-1
aI-1
aI-1
aI-1
aF-1.0
asg5
I1
sg6
(lp207
I-1
aI-1
aI-1
aI-1
aI-1
aI-1
asg8
(lp208
I20
aI26
aI27
aF1.1519999504089355
aF1.5360000133514404
aF1.7920001745224
aI28
aI21
aI22
aF1.1519999504089355
aF1.0239999294281006
aF1.215999960899353
asg10
(lp209
F0.0
aF-0.004
aF0.005
asba(i__main__
sensor_data_struct
p210
(dp211
g3
(lp212
I-1
aI-1
aI-1
aI-1
aI-1
aF-1.0
aI-1
aI-1
aI-1
aI-1
aI-1
aF-1.0
asg5
I0
sg6
(lp213
I-1
aI-1
aI-1
aI-1
aI-1
aI-1
asg8
(lp214
I20
aI30
aI30
aF1.0239999294281006
aF1.7279999256134033
aF1.6639999151229858
aI27
aI22
aI22
aF1.215999960899353
aF1.0880000591278076
aF1.215999960899353
asg10
(lp215
F0.005
aF-0.002
aF0.006
asba(i__main__
sensor_data_struct
p216
(dp217
g3
(lp218
I-1
aI-1
aI-1
aI-1
aI-1
aF-1.0
aI-1
aI-1
aI-1
aI-1
aI-1
aF-1.0
asg5
I0
sg6
(lp219
I-1
aI-1
aI-1
aI-1
aI-1
aI-1
asg8
(lp220
I43
aI34
aI14
aF1.4719997644424438
aF1.4719997644424438
aF1.0880000591278076
aI27
aI22
aI25
aF1.2799999713897705
aF1.215999960899353
aF1.215999960899353
asg10
(lp221
F0.006
aF0.008
aF0.011000000000000001
asba(i__main__
sensor_data_struct
p222
(dp223
g3
(lp224
I-1
aI-1
aI-1
aI-1
aI-1
aF-1.0
aI-1
aI-1
aI-1
aI-1
aI-1
aF-1.0
asg5
I0
sg6
(lp225
I-1
aI-1
aI-1
aI-1
aI-1
aI-1
asg8
(lp226
I34
aI29
aI16
aF1.2799999713897705
aF1.4079999923706055
aF1.1519999504089355
aI27
aI22
aI22
aF1.215999960899353
aF1.0880000591278076
aF1.1519999504089355
asg10
(lp227
F0.006999999999999999
aF0.005
aF0.008
asba(i__main__
sensor_data_struct
p228
(dp229
g3
(lp230
I-1
aI-1
aI-1
aI-1
aI-1
aF-1.0
aI-1
aI-1
aI-1
aI-1
aI-1
aF-1.0
asg5
I1
sg6
(lp231
I-1
aI-1
aI-1
aI-1
aI-1
aI-1
asg8
(lp232
I54
aI44
aI39
aF1.5360000133514404
aF1.2799999713897705
aF1.9839999675750732
aI35
aI33
aI34
aF1.4719997644424438
aF1.1519999504089355
aF1.4079999923706055
asg10
(lp233
F-0.009000000000000001
aF-0.005
aF0.015
asba(i__main__
sensor_data_struct
p234
(dp235
g3
(lp236
I-1
aI-1
aI-1
aI-1
aI-1
aF-1.0
aI-1
aI-1
aI-1
aI-1
aI-1
aF-1.0
asg5
I0
sg6
(lp237
I-1
aI-1
aI-1
aI-1
aI-1
aI-1
asg8
(lp238
I28
aI30
aI18
aF1.2799999713897705
aF1.5360000133514404
aF1.343999981880188
aI28
aI21
aI20
aF1.215999960899353
aF1.0880000591278076
aF1.215999960899353
asg10
(lp239
F0.006999999999999999
aF0.003
aF0.006999999999999999
asba(i__main__
sensor_data_struct
p240
(dp241
g3
(lp242
I-1
aI-1
aI-1
aI-1
aI-1
aF-1.0
aI-1
aI-1
aI-1
aI-1
aI-1
aF-1.0
asg5
I1
sg6
(lp243
I-1
aI-1
aI-1
aI-1
aI-1
aI-1
asg8
(lp244
I52
aI37
aI41
aF1.0880000591278076
aF1.6639999151229858
aF1.4719997644424438
aI37
aI34
aI34
aF1.0239999294281006
aF1.343999981880188
aF1.2799999713897705
asg10
(lp245
F0.006
aF-0.003
aF0.015
asba(i__main__
sensor_data_struct
p246
(dp247
g3
(lp248
I-1
aI-1
aI-1
aI-1
aI-1
aF-1.0
aI-1
aI-1
aI-1
aI-1
aI-1
aF-1.0
asg5
I1
sg6
(lp249
I-1
aI-1
aI-1
aI-1
aI-1
aI-1
asg8
(lp250
I58
aI43
aI46
aF1.1519999504089355
aF1.7279999256134033
aF1.600000023841858
aI37
aI36
aI33
aF1.0239999294281006
aF1.343999981880188
aF1.2799999713897705
asg10
(lp251
F0.008
aF-0.006
aF0.015
asba(i__main__
sensor_data_struct
p252
(dp253
g3
(lp254
I-1
aI-1
aI-1
aI-1
aI-1
aF-1.0
aI-1
aI-1
aI-1
aI-1
aI-1
aF-1.0
asg5
I0
sg6
(lp255
I-1
aI-1
aI-1
aI-1
aI-1
aI-1
asg8
(lp256
I34
aI30
aI13
aF1.5360000133514404
aF1.343999981880188
aF1.343999981880188
aI26
aI22
aI21
aF1.215999960899353
aF1.1519999504089355
aF1.215999960899353
asg10
(lp257
F0.001
aF0.008
aF0.009000000000000001
asba(i__main__
sensor_data_struct
p258
(dp259
g3
(lp260
I-1
aI-1
aI-1
aI-1
aI-1
aF-1.0
aI-1
aI-1
aI-1
aI-1
aI-1
aF-1.0
asg5
I0
sg6
(lp261
I-1
aI-1
aI-1
aI-1
aI-1
aI-1
asg8
(lp262
I38
aI39
aI15
aF1.5360000133514404
aF1.4079999923706055
aF1.2799999713897705
aI28
aI21
aI23
aF1.2799999713897705
aF1.1519999504089355
aF1.1519999504089355
asg10
(lp263
F0.002
aF0.01
aF0.011000000000000001
asba(i__main__
sensor_data_struct
p264
(dp265
g3
(lp266
I-1
aI-1
aI-1
aI-1
aI-1
aF-1.0
aI-1
aI-1
aI-1
aI-1
aI-1
aF-1.0
asg5
I0
sg6
(lp267
I-1
aI-1
aI-1
aI-1
aI-1
aI-1
asg8
(lp268
I26
aI25
aI21
aF1.343999981880188
aF1.4719997644424438
aF1.4719997644424438
aI28
aI23
aI23
aF1.215999960899353
aF1.0880000591278076
aF1.215999960899353
asg10
(lp269
F0.003
aF0.004
aF0.004
asba(i__main__
sensor_data_struct
p270
(dp271
g3
(lp272
I-1
aI-1
aI-1
aI-1
aI-1
aF-1.0
aI-1
aI-1
aI-1
aI-1
aI-1
aF-1.0
asg5
I0
sg6
(lp273
I-1
aI-1
aI-1
aI-1
aI-1
aI-1
asg8
(lp274
I32
aI15
aI29
aF1.4719997644424438
aF1.5360000133514404
aF1.8559999465942383
aI29
aI21
aI21
aF1.215999960899353
aF1.0239999294281006
aF1.2799999713897705
asg10
(lp275
F-0.006
aF-0.005
aF0.006
asba(i__main__
sensor_data_struct
p276
(dp277
g3
(lp278
I-1
aI-1
aI-1
aI-1
aI-1
aF-1.0
aI-1
aI-1
aI-1
aI-1
aI-1
aF-1.0
asg5
I1
sg6
(lp279
I-1
aI-1
aI-1
aI-1
aI-1
aI-1
asg8
(lp280
I20
aI31
aI30
aF1.0880000591278076
aF1.7279999256134033
aF1.6639999151229858
aI19
aI31
aI34
aF1.0239999294281006
aF1.215999960899353
aF1.343999981880188
asg10
(lp281
F0.004
aF-0.003
aF0.008
asba(i__main__
sensor_data_struct
p282
(dp283
g3
(lp284
I-1
aI-1
aI-1
aI-1
aI-1
aF-1.0
aI-1
aI-1
aI-1
aI-1
aI-1
aF-1.0
asg5
I0
sg6
(lp285
I-1
aI-1
aI-1
aI-1
aI-1
aI-1
asg8
(lp286
I31
aI27
aI16
aF1.5360000133514404
aF1.343999981880188
aF1.4079999923706055
aI28
aI21
aI22
aF1.215999960899353
aF1.0880000591278076
aF1.215999960899353
asg10
(lp287
F0.001
aF0.006
aF0.005
asba(i__main__
sensor_data_struct
p288
(dp289
g3
(lp290
I-1
aI-1
aI-1
aI-1
aI-1
aF-1.0
aI-1
aI-1
aI-1
aI-1
aI-1
aF-1.0
asg5
I1
sg6
(lp291
I-1
aI-1
aI-1
aI-1
aI-1
aI-1
asg8
(lp292
I56
aI43
aI50
aF1.7279999256134033
aF1.343999981880188
aF2.111999988555908
aI40
aI35
aI33
aF1.4719997644424438
aF1.0880000591278076
aF1.4719997644424438
asg10
(lp293
F-0.013000000000000001
aF-0.001
aF0.015
asba(i__main__
sensor_data_struct
p294
(dp295
g3
(lp296
I-1
aI-1
aI-1
aI-1
aI-1
aF-1.0
aI-1
aI-1
aI-1
aI-1
aI-1
aF-1.0
asg5
I0
sg6
(lp297
I-1
aI-1
aI-1
aI-1
aI-1
aI-1
asg8
(lp298
I25
aI30
aI30
aF1.215999960899353
aF1.6639999151229858
aF1.7279999256134033
aI27
aI20
aI22
aF1.215999960899353
aF1.0880000591278076
aF1.215999960899353
asg10
(lp299
F-0.001
aF-0.006
aF0.009000000000000001
asba(i__main__
sensor_data_struct
p300
(dp301
g3
(lp302
I-1
aI-1
aI-1
aI-1
aI-1
aF-1.0
aI-1
aI-1
aI-1
aI-1
aI-1
aF-1.0
asg5
I1
sg6
(lp303
I-1
aI-1
aI-1
aI-1
aI-1
aI-1
asg8
(lp304
I57
aI44
aI46
aF1.6639999151229858
aF1.343999981880188
aF2.047999858856201
aI39
aI35
aI35
aF1.4719997644424438
aF1.0239999294281006
aF1.4719997644424438
asg10
(lp305
F-0.011000000000000001
aF-0.003
aF0.013000000000000001
asba(i__main__
sensor_data_struct
p306
(dp307
g3
(lp308
I-1
aI-1
aI-1
aI-1
aI-1
aF-1.0
aI-1
aI-1
aI-1
aI-1
aI-1
aF-1.0
asg5
I0
sg6
(lp309
I-1
aI-1
aI-1
aI-1
aI-1
aI-1
asg8
(lp310
I23
aI26
aI22
aF1.215999960899353
aF1.600000023841858
aF1.5360000133514404
aI29
aI21
aI22
aF1.215999960899353
aF1.0880000591278076
aF1.215999960899353
asg10
(lp311
F0.004
aF0.0
aF0.008
asba(i__main__
sensor_data_struct
p312
(dp313
g3
(lp314
I-1
aI-1
aI-1
aI-1
aI-1
aF-1.0
aI-1
aI-1
aI-1
aI-1
aI-1
aF-1.0
asg5
I0
sg6
(lp315
I-1
aI-1
aI-1
aI-1
aI-1
aI-1
asg8
(lp316
I31
aI21
aI23
aF1.4079999923706055
aF1.343999981880188
aF1.7279999256134033
aI28
aI23
aI22
aF1.215999960899353
aF1.0880000591278076
aF1.215999960899353
asg10
(lp317
F-0.002
aF0.0
aF0.012
asba(i__main__
sensor_data_struct
p318
(dp319
g3
(lp320
I-1
aI-1
aI-1
aI-1
aI-1
aF-1.0
aI-1
aI-1
aI-1
aI-1
aI-1
aF-1.0
asg5
I1
sg6
(lp321
I-1
aI-1
aI-1
aI-1
aI-1
aI-1
asg8
(lp322
I55
aI45
aI35
aF1.5360000133514404
aF1.4079999923706055
aF1.9199998378753662
aI34
aI29
aI27
aF1.2799999713897705
aF1.0880000591278076
aF1.2799999713897705
asg10
(lp323
F-0.01
aF-0.009000000000000001
aF0.015
asba(i__main__
sensor_data_struct
p324
(dp325
g3
(lp326
I-1
aI-1
aI-1
aI-1
aI-1
aF-1.0
aI-1
aI-1
aI-1
aI-1
aI-1
aF-1.0
asg5
I0
sg6
(lp327
I-1
aI-1
aI-1
aI-1
aI-1
aI-1
asg8
(lp328
I25
aI28
aI17
aF1.4079999923706055
aF1.5360000133514404
aF1.343999981880188
aI25
aI22
aI22
aF1.215999960899353
aF1.1519999504089355
aF1.215999960899353
asg10
(lp329
F0.004
aF0.003
aF0.006999999999999999
asba(i__main__
sensor_data_struct
p330
(dp331
g3
(lp332
I-1
aI-1
aI-1
aI-1
aI-1
aF-1.0
aI-1
aI-1
aI-1
aI-1
aI-1
aF-1.0
asg5
I0
sg6
(lp333
I-1
aI-1
aI-1
aI-1
aI-1
aI-1
asg8
(lp334
I35
aI11
aI32
aF1.6639999151229858
aF1.343999981880188
aF1.9839999675750732
aI28
aI22
aI23
aF1.2799999713897705
aF1.0239999294281006
aF1.2799999713897705
asg10
(lp335
F-0.006
aF-0.001
aF0.006
asba(i__main__
sensor_data_struct
p336
(dp337
g3
(lp338
I-1
aI-1
aI-1
aI-1
aI-1
aF-1.0
aI-1
aI-1
aI-1
aI-1
aI-1
aF-1.0
asg5
I1
sg6
(lp339
I-1
aI-1
aI-1
aI-1
aI-1
aI-1
asg8
(lp340
I58
aI44
aI51
aF1.8559999465942383
aF1.2799999713897705
aF2.111999988555908
aI37
aI33
aI32
aF1.5360000133514404
aF1.0880000591278076
aF1.4719997644424438
asg10
(lp341
F-0.013000000000000001
aF0.003
aF0.013999999999999999
asba(i__main__
sensor_data_struct
p342
(dp343
g3
(lp344
I-1
aI-1
aI-1
aI-1
aI-1
aF-1.0
aI-1
aI-1
aI-1
aI-1
aI-1
aF-1.0
asg5
I0
sg6
(lp345
I-1
aI-1
aI-1
aI-1
aI-1
aI-1
asg8
(lp346
I24
aI23
aI28
aF1.215999960899353
aF1.7279999256134033
aF1.7920001745224
aI28
aI23
aI24
aF1.215999960899353
aF1.0880000591278076
aF1.215999960899353
asg10
(lp347
F0.0
aF-0.003
aF0.006
asba(i__main__
sensor_data_struct
p348
(dp349
g3
(lp350
I-1
aI-1
aI-1
aI-1
aI-1
aF-1.0
aI-1
aI-1
aI-1
aI-1
aI-1
aF-1.0
asg5
I1
sg6
(lp351
I-1
aI-1
aI-1
aI-1
aI-1
aI-1
asg8
(lp352
I48
aI29
aI41
aF1.215999960899353
aF1.7279999256134033
aF1.4079999923706055
aI31
aI30
aI27
aF1.215999960899353
aF1.1519999504089355
aF1.215999960899353
asg10
(lp353
F0.009000000000000001
aF0.001
aF0.015
asba(i__main__
sensor_data_struct
p354
(dp355
g3
(lp356
I-1
aI-1
aI-1
aI-1
aI-1
aF-1.0
aI-1
aI-1
aI-1
aI-1
aI-1
aF-1.0
asg5
I1
sg6
(lp357
I-1
aI-1
aI-1
aI-1
aI-1
aI-1
asg8
(lp358
I53
aI39
aI43
aF1.0880000591278076
aF1.7279999256134033
aF1.600000023841858
aI35
aI36
aI36
aF0.9599999189376831
aF1.343999981880188
aF1.343999981880188
asg10
(lp359
F0.006999999999999999
aF-0.004
aF0.012
asba(i__main__
sensor_data_struct
p360
(dp361
g3
(lp362
I-1
aI-1
aI-1
aI-1
aI-1
aF-1.0
aI-1
aI-1
aI-1
aI-1
aI-1
aF-1.0
asg5
I1
sg6
(lp363
I-1
aI-1
aI-1
aI-1
aI-1
aI-1
asg8
(lp364
I15
aI39
aI42
aF0.8960000872612
aF1.8559999465942383
aF1.7279999256134033
aI13
aI36
aI33
aF0.7039999961853027
aF1.343999981880188
aF1.343999981880188
asg10
(lp365
F0.006999999999999999
aF-0.004
aF0.006
asba(i__main__
sensor_data_struct
p366
(dp367
g3
(lp368
I-1
aI-1
aI-1
aI-1
aI-1
aF-1.0
aI-1
aI-1
aI-1
aI-1
aI-1
aF-1.0
asg5
I1
sg6
(lp369
I-1
aI-1
aI-1
aI-1
aI-1
aI-1
asg8
(lp370
I18
aI43
aI40
aF0.9599999189376831
aF1.7920001745224
aF1.7279999256134033
aI20
aI34
aI34
aF0.8319999575614929
aF1.343999981880188
aF1.343999981880188
asg10
(lp371
F0.005
aF-0.006999999999999999
aF0.009000000000000001
asba(i__main__
sensor_data_struct
p372
(dp373
g3
(lp374
I-1
aI-1
aI-1
aI-1
aI-1
aF-1.0
aI-1
aI-1
aI-1
aI-1
aI-1
aF-1.0
asg5
I1
sg6
(lp375
I-1
aI-1
aI-1
aI-1
aI-1
aI-1
asg8
(lp376
I51
aI38
aI27
aF1.2799999713897705
aF1.5360000133514404
aF1.7279999256134033
aI31
aI26
aI26
aF1.2799999713897705
aF1.0880000591278076
aF1.215999960899353
asg10
(lp377
F-0.003
aF-0.006999999999999999
aF0.013999999999999999
asba(i__main__
sensor_data_struct
p378
(dp379
g3
(lp380
I-1
aI-1
aI-1
aI-1
aI-1
aF-1.0
aI-1
aI-1
aI-1
aI-1
aI-1
aF-1.0
asg5
I1
sg6
(lp381
I-1
aI-1
aI-1
aI-1
aI-1
aI-1
asg8
(lp382
I34
aI36
aI21
aF1.4719997644424438
aF1.343999981880188
aF1.4079999923706055
aI28
aI24
aI24
aF1.2799999713897705
aF1.1519999504089355
aF1.215999960899353
asg10
(lp383
F0.002
aF0.006999999999999999
aF0.013999999999999999
asba(i__main__
sensor_data_struct
p384
(dp385
g3
(lp386
I-1
aI-1
aI-1
aI-1
aI-1
aF-1.0
aI-1
aI-1
aI-1
aI-1
aI-1
aF-1.0
asg5
I0
sg6
(lp387
I-1
aI-1
aI-1
aI-1
aI-1
aI-1
asg8
(lp388
I30
aI13
aI27
aF1.5360000133514404
aF1.0880000591278076
aF1.9839999675750732
aI28
aI21
aI24
aF1.2799999713897705
aF1.0880000591278076
aF1.2799999713897705
asg10
(lp389
F-0.004
aF0.002
aF0.003
asba(i__main__
sensor_data_struct
p390
(dp391
g3
(lp392
I-1
aI-1
aI-1
aI-1
aI-1
aF-1.0
aI-1
aI-1
aI-1
aI-1
aI-1
aF-1.0
asg5
I0
sg6
(lp393
I-1
aI-1
aI-1
aI-1
aI-1
aI-1
asg8
(lp394
I51
aI28
aI33
aF1.1519999504089355
aF1.6639999151229858
aF1.4719997644424438
aI27
aI21
aI22
aF1.215999960899353
aF1.0880000591278076
aF1.215999960899353
asg10
(lp395
F0.006999999999999999
aF-0.001
aF0.012
asba(i__main__
sensor_data_struct
p396
(dp397
g3
(lp398
I-1
aI-1
aI-1
aI-1
aI-1
aF-1.0
aI-1
aI-1
aI-1
aI-1
aI-1
aF-1.0
asg5
I1
sg6
(lp399
I-1
aI-1
aI-1
aI-1
aI-1
aI-1
asg8
(lp400
I53
aI40
aI28
aF1.2799999713897705
aF1.5360000133514404
aF1.7279999256134033
aI30
aI25
aI22
aF1.215999960899353
aF1.0880000591278076
aF1.215999960899353
asg10
(lp401
F-0.003
aF-0.008
aF0.013000000000000001
asba(i__main__
sensor_data_struct
p402
(dp403
g3
(lp404
I-1
aI-1
aI-1
aI-1
aI-1
aF-1.0
aI-1
aI-1
aI-1
aI-1
aI-1
aF-1.0
asg5
I0
sg6
(lp405
I-1
aI-1
aI-1
aI-1
aI-1
aI-1
asg8
(lp406
I27
aI25
aI22
aF1.2799999713897705
aF1.4719997644424438
aF1.4719997644424438
aI29
aI21
aI22
aF1.215999960899353
aF1.0880000591278076
aF1.215999960899353
asg10
(lp407
F0.003
aF0.0
aF0.011000000000000001
asba(i__main__
sensor_data_struct
p408
(dp409
g3
(lp410
I-1
aI-1
aI-1
aI-1
aI-1
aF-1.0
aI-1
aI-1
aI-1
aI-1
aI-1
aF-1.0
asg5
I0
sg6
(lp411
I-1
aI-1
aI-1
aI-1
aI-1
aI-1
asg8
(lp412
I37
aI13
aI29
aF1.4719997644424438
aF1.2799999713897705
aF1.9199998378753662
aI27
aI21
aI23
aF1.215999960899353
aF1.0880000591278076
aF1.215999960899353
asg10
(lp413
F-0.006
aF-0.002
aF0.008
asba(i__main__
sensor_data_struct
p414
(dp415
g3
(lp416
I-1
aI-1
aI-1
aI-1
aI-1
aF-1.0
aI-1
aI-1
aI-1
aI-1
aI-1
aF-1.0
asg5
I1
sg6
(lp417
I-1
aI-1
aI-1
aI-1
aI-1
aI-1
asg8
(lp418
I48
aI46
aI47
aF1.5360000133514404
aF1.4719997644424438
aF1.5360000133514404
aI37
aI32
aI35
aF1.343999981880188
aF1.2799999713897705
aF1.0880000591278076
asg10
(lp419
F0.003
aF0.012
aF0.015
asba(i__main__
sensor_data_struct
p420
(dp421
g3
(lp422
I-1
aI-1
aI-1
aI-1
aI-1
aF-1.0
aI-1
aI-1
aI-1
aI-1
aI-1
aF-1.0
asg5
I0
sg6
(lp423
I-1
aI-1
aI-1
aI-1
aI-1
aI-1
asg8
(lp424
I20
aI23
aI23
aF1.215999960899353
aF1.600000023841858
aF1.600000023841858
aI28
aI22
aI24
aF1.1519999504089355
aF1.0880000591278076
aF1.2799999713897705
asg10
(lp425
F0.004
aF0.002
aF0.002
asba(i__main__
sensor_data_struct
p426
(dp427
g3
(lp428
I-1
aI-1
aI-1
aI-1
aI-1
aF-1.0
aI-1
aI-1
aI-1
aI-1
aI-1
aF-1.0
asg5
I1
sg6
(lp429
I-1
aI-1
aI-1
aI-1
aI-1
aI-1
asg8
(lp430
I34
aI28
aI28
aF1.2799999713897705
aF1.6639999151229858
aF1.4079999923706055
aI31
aI27
aI26
aF1.215999960899353
aF1.1519999504089355
aF1.215999960899353
asg10
(lp431
F0.003
aF0.001
aF0.015
asba(i__main__
sensor_data_struct
p432
(dp433
g3
(lp434
I-1
aI-1
aI-1
aI-1
aI-1
aF-1.0
aI-1
aI-1
aI-1
aI-1
aI-1
aF-1.0
asg5
I1
sg6
(lp435
I-1
aI-1
aI-1
aI-1
aI-1
aI-1
asg8
(lp436
I46
aI38
aI39
aF1.0239999294281006
aF1.7920001745224
aF1.6639999151229858
aI31
aI37
aI35
aF0.9599999189376831
aF1.343999981880188
aF1.343999981880188
asg10
(lp437
F0.006
aF-0.005
aF0.011000000000000001
asba(i__main__
sensor_data_struct
p438
(dp439
g3
(lp440
I-1
aI-1
aI-1
aI-1
aI-1
aF-1.0
aI-1
aI-1
aI-1
aI-1
aI-1
aF-1.0
asg5
I0
sg6
(lp441
I-1
aI-1
aI-1
aI-1
aI-1
aI-1
asg8
(lp442
I21
aI25
aI27
aF1.215999960899353
aF1.7279999256134033
aF1.7920001745224
aI29
aI22
aI21
aF1.215999960899353
aF1.0880000591278076
aF1.2799999713897705
asg10
(lp443
F-0.001
aF-0.005
aF0.006
asba(i__main__
sensor_data_struct
p444
(dp445
g3
(lp446
I-1
aI-1
aI-1
aI-1
aI-1
aF-1.0
aI-1
aI-1
aI-1
aI-1
aI-1
aF-1.0
asg5
I0
sg6
(lp447
I-1
aI-1
aI-1
aI-1
aI-1
aI-1
asg8
(lp448
I35
aI38
aI30
aF1.600000023841858
aF1.2799999713897705
aF1.7279999256134033
aI27
aI23
aI22
aF1.2799999713897705
aF1.1519999504089355
aF1.215999960899353
asg10
(lp449
F-0.004
aF0.009000000000000001
aF0.012
asba(i__main__
sensor_data_struct
p450
(dp451
g3
(lp452
I-1
aI-1
aI-1
aI-1
aI-1
aF-1.0
aI-1
aI-1
aI-1
aI-1
aI-1
aF-1.0
asg5
I1
sg6
(lp453
I-1
aI-1
aI-1
aI-1
aI-1
aI-1
asg8
(lp454
I17
aI42
aI39
aF1.0239999294281006
aF1.7920001745224
aF1.7920001745224
aI24
aI36
aI33
aF0.8960000872612
aF1.343999981880188
aF1.343999981880188
asg10
(lp455
F0.0
aF-0.009000000000000001
aF0.008
asba(i__main__
sensor_data_struct
p456
(dp457
g3
(lp458
I-1
aI-1
aI-1
aI-1
aI-1
aF-1.0
aI-1
aI-1
aI-1
aI-1
aI-1
aF-1.0
asg5
I1
sg6
(lp459
I-1
aI-1
aI-1
aI-1
aI-1
aI-1
asg8
(lp460
I32
aI25
aI23
aF1.343999981880188
aF1.4719997644424438
aF1.4719997644424438
aI33
aI29
aI24
aF1.2799999713897705
aF1.1519999504089355
aF1.215999960899353
asg10
(lp461
F0.001
aF0.001
aF0.015
asba(i__main__
sensor_data_struct
p462
(dp463
g3
(lp464
I-1
aI-1
aI-1
aI-1
aI-1
aF-1.0
aI-1
aI-1
aI-1
aI-1
aI-1
aF-1.0
asg5
I0
sg6
(lp465
I-1
aI-1
aI-1
aI-1
aI-1
aI-1
asg8
(lp466
I27
aI25
aI20
aF1.343999981880188
aF1.5360000133514404
aF1.5360000133514404
aI25
aI24
aI22
aF1.2799999713897705
aF1.1519999504089355
aF1.2799999713897705
asg10
(lp467
F0.005
aF0.003
aF0.002
asba(i__main__
sensor_data_struct
p468
(dp469
g3
(lp470
I-1
aI-1
aI-1
aI-1
aI-1
aF-1.0
aI-1
aI-1
aI-1
aI-1
aI-1
aF-1.0
asg5
I0
sg6
(lp471
I-1
aI-1
aI-1
aI-1
aI-1
aI-1
asg8
(lp472
I26
aI21
aI24
aF1.4079999923706055
aF1.5360000133514404
aF1.600000023841858
aI26
aI22
aI22
aF1.2799999713897705
aF1.0880000591278076
aF1.215999960899353
asg10
(lp473
F0.0
aF0.001
aF0.005
asba(i__main__
sensor_data_struct
p474
(dp475
g3
(lp476
I-1
aI-1
aI-1
aI-1
aI-1
aF-1.0
aI-1
aI-1
aI-1
aI-1
aI-1
aF-1.0
asg5
I1
sg6
(lp477
I-1
aI-1
aI-1
aI-1
aI-1
aI-1
asg8
(lp478
I59
aI46
aI50
aF1.1519999504089355
aF1.8559999465942383
aF1.7279999256134033
aI37
aI33
aI34
aF1.0880000591278076
aF1.343999981880188
aF1.343999981880188
asg10
(lp479
F0.009000000000000001
aF-0.008
aF0.015
asba(i__main__
sensor_data_struct
p480
(dp481
g3
(lp482
I-1
aI-1
aI-1
aI-1
aI-1
aF-1.0
aI-1
aI-1
aI-1
aI-1
aI-1
aF-1.0
asg5
I0
sg6
(lp483
I-1
aI-1
aI-1
aI-1
aI-1
aI-1
asg8
(lp484
I26
aI19
aI29
aF1.343999981880188
aF1.600000023841858
aF1.8559999465942383
aI28
aI22
aI19
aF1.215999960899353
aF1.0239999294281006
aF1.215999960899353
asg10
(lp485
F-0.004
aF-0.006
aF0.006999999999999999
asba(i__main__
sensor_data_struct
p486
(dp487
g3
(lp488
I-1
aI-1
aI-1
aI-1
aI-1
aF-1.0
aI-1
aI-1
aI-1
aI-1
aI-1
aF-1.0
asg5
I1
sg6
(lp489
I-1
aI-1
aI-1
aI-1
aI-1
aI-1
asg8
(lp490
I17
aI39
aI38
aF0.8960000872612
aF1.7279999256134033
aF1.6639999151229858
aI13
aI35
aI34
aF0.6399999856948853
aF1.4079999923706055
aF1.2799999713897705
asg10
(lp491
F0.005
aF-0.006
aF0.006
asba(i__main__
sensor_data_struct
p492
(dp493
g3
(lp494
I-1
aI-1
aI-1
aI-1
aI-1
aF-1.0
aI-1
aI-1
aI-1
aI-1
aI-1
aF-1.0
asg5
I1
sg6
(lp495
I-1
aI-1
aI-1
aI-1
aI-1
aI-1
asg8
(lp496
I54
aI41
aI30
aF1.343999981880188
aF1.2799999713897705
aF1.7279999256134033
aI31
aI30
aI26
aF1.1519999504089355
aF1.0239999294281006
aF1.215999960899353
asg10
(lp497
F-0.006
aF-0.006
aF0.015
asba(i__main__
sensor_data_struct
p498
(dp499
g3
(lp500
I-1
aI-1
aI-1
aI-1
aI-1
aF-1.0
aI-1
aI-1
aI-1
aI-1
aI-1
aF-1.0
asg5
I1
sg6
(lp501
I-1
aI-1
aI-1
aI-1
aI-1
aI-1
asg8
(lp502
I54
aI44
aI43
aF1.0880000591278076
aF1.7279999256134033
aF1.600000023841858
aI36
aI35
aI32
aF0.9599999189376831
aF1.343999981880188
aF1.2799999713897705
asg10
(lp503
F0.003
aF-0.009000000000000001
aF0.013999999999999999
asba(i__main__
sensor_data_struct
p504
(dp505
g3
(lp506
I-1
aI-1
aI-1
aI-1
aI-1
aF-1.0
aI-1
aI-1
aI-1
aI-1
aI-1
aF-1.0
asg5
I1
sg6
(lp507
I-1
aI-1
aI-1
aI-1
aI-1
aI-1
asg8
(lp508
I51
aI36
aI43
aF1.2799999713897705
aF1.5360000133514404
aF1.343999981880188
aI32
aI27
aI27
aF1.215999960899353
aF1.215999960899353
aF1.1519999504089355
asg10
(lp509
F0.008
aF0.006999999999999999
aF0.015
asba(i__main__
sensor_data_struct
p510
(dp511
g3
(lp512
I-1
aI-1
aI-1
aI-1
aI-1
aF-1.0
aI-1
aI-1
aI-1
aI-1
aI-1
aF-1.0
asg5
I0
sg6
(lp513
I-1
aI-1
aI-1
aI-1
aI-1
aI-1
asg8
(lp514
I48
aI28
aI38
aF1.1519999504089355
aF1.7279999256134033
aF1.2799999713897705
aI29
aI26
aI25
aF1.215999960899353
aF1.1519999504089355
aF1.1519999504089355
asg10
(lp515
F0.012
aF0.003
aF0.013999999999999999
asba(i__main__
sensor_data_struct
p516
(dp517
g3
(lp518
I-1
aI-1
aI-1
aI-1
aI-1
aF-1.0
aI-1
aI-1
aI-1
aI-1
aI-1
aF-1.0
asg5
I0
sg6
(lp519
I-1
aI-1
aI-1
aI-1
aI-1
aI-1
asg8
(lp520
I17
aI30
aI35
aF0.9599999189376831
aF1.8559999465942383
aF1.5360000133514404
aI27
aI21
aI23
aF1.215999960899353
aF1.0880000591278076
aF1.215999960899353
asg10
(lp521
F0.005
aF-0.002
aF0.006999999999999999
asba(i__main__
sensor_data_struct
p522
(dp523
g3
(lp524
I-1
aI-1
aI-1
aI-1
aI-1
aF-1.0
aI-1
aI-1
aI-1
aI-1
aI-1
aF-1.0
asg5
I0
sg6
(lp525
I-1
aI-1
aI-1
aI-1
aI-1
aI-1
asg8
(lp526
I39
aI27
aI29
aF1.4079999923706055
aF1.6639999151229858
aF1.7279999256134033
aI27
aI21
aI21
aF1.215999960899353
aF1.0880000591278076
aF1.215999960899353
asg10
(lp527
F-0.004
aF-0.006999999999999999
aF0.01
asba(i__main__
sensor_data_struct
p528
(dp529
g3
(lp530
I-1
aI-1
aI-1
aI-1
aI-1
aF-1.0
aI-1
aI-1
aI-1
aI-1
aI-1
aF-1.0
asg5
I1
sg6
(lp531
I-1
aI-1
aI-1
aI-1
aI-1
aI-1
asg8
(lp532
I52
aI39
aI30
aF1.2799999713897705
aF1.600000023841858
aF1.7279999256134033
aI29
aI23
aI25
aF1.215999960899353
aF1.0880000591278076
aF1.215999960899353
asg10
(lp533
F-0.004
aF-0.01
aF0.013000000000000001
asba(i__main__
sensor_data_struct
p534
(dp535
g3
(lp536
I-1
aI-1
aI-1
aI-1
aI-1
aF-1.0
aI-1
aI-1
aI-1
aI-1
aI-1
aF-1.0
asg5
I0
sg6
(lp537
I-1
aI-1
aI-1
aI-1
aI-1
aI-1
asg8
(lp538
I23
aI18
aI24
aF1.343999981880188
aF1.4719997644424438
aF1.8559999465942383
aI28
aI21
aI23
aF1.215999960899353
aF1.0880000591278076
aF1.2799999713897705
asg10
(lp539
F0.0
aF0.0
aF0.001
asba(i__main__
sensor_data_struct
p540
(dp541
g3
(lp542
I-1
aI-1
aI-1
aI-1
aI-1
aF-1.0
aI-1
aI-1
aI-1
aI-1
aI-1
aF-1.0
asg5
I0
sg6
(lp543
I-1
aI-1
aI-1
aI-1
aI-1
aI-1
asg8
(lp544
I28
aI15
aI26
aF1.4079999923706055
aF1.5360000133514404
aF1.9199998378753662
aI28
aI21
aI24
aF1.215999960899353
aF1.0239999294281006
aF1.2799999713897705
asg10
(lp545
F-0.004
aF-0.004
aF0.002
asba(i__main__
sensor_data_struct
p546
(dp547
g3
(lp548
I-1
aI-1
aI-1
aI-1
aI-1
aF-1.0
aI-1
aI-1
aI-1
aI-1
aI-1
aF-1.0
asg5
I1
sg6
(lp549
I-1
aI-1
aI-1
aI-1
aI-1
aI-1
asg8
(lp550
I18
aI43
aI41
aF1.0239999294281006
aF1.7920001745224
aF1.7279999256134033
aI22
aI35
aI34
aF0.8319999575614929
aF1.343999981880188
aF1.343999981880188
asg10
(lp551
F0.003
aF-0.008
aF0.009000000000000001
asba(i__main__
sensor_data_struct
p552
(dp553
g3
(lp554
I-1
aI-1
aI-1
aI-1
aI-1
aF-1.0
aI-1
aI-1
aI-1
aI-1
aI-1
aF-1.0
asg5
I0
sg6
(lp555
I-1
aI-1
aI-1
aI-1
aI-1
aI-1
asg8
(lp556
I23
aI24
aI23
aF1.215999960899353
aF1.600000023841858
aF1.5360000133514404
aI27
aI23
aI22
aF1.215999960899353
aF1.0880000591278076
aF1.215999960899353
asg10
(lp557
F0.002
aF0.0
aF0.006
asba(i__main__
sensor_data_struct
p558
(dp559
g3
(lp560
I-1
aI-1
aI-1
aI-1
aI-1
aF-1.0
aI-1
aI-1
aI-1
aI-1
aI-1
aF-1.0
asg5
I0
sg6
(lp561
I-1
aI-1
aI-1
aI-1
aI-1
aI-1
asg8
(lp562
I35
aI13
aI35
aF1.5360000133514404
aF1.0880000591278076
aF1.9199998378753662
aI27
aI22
aI21
aF1.2799999713897705
aF1.0880000591278076
aF1.215999960899353
asg10
(lp563
F-0.006999999999999999
aF0.004
aF0.008
asba(i__main__
sensor_data_struct
p564
(dp565
g3
(lp566
I-1
aI-1
aI-1
aI-1
aI-1
aF-1.0
aI-1
aI-1
aI-1
aI-1
aI-1
aF-1.0
asg5
I0
sg6
(lp567
I-1
aI-1
aI-1
aI-1
aI-1
aI-1
asg8
(lp568
I25
aI22
aI27
aF1.2799999713897705
aF1.6639999151229858
aF1.7920001745224
aI29
aI21
aI21
aF1.215999960899353
aF1.0880000591278076
aF1.2799999713897705
asg10
(lp569
F-0.002
aF-0.003
aF0.003
asba(i__main__
sensor_data_struct
p570
(dp571
g3
(lp572
I-1
aI-1
aI-1
aI-1
aI-1
aF-1.0
aI-1
aI-1
aI-1
aI-1
aI-1
aF-1.0
asg5
I1
sg6
(lp573
I-1
aI-1
aI-1
aI-1
aI-1
aI-1
asg8
(lp574
I55
aI45
aI51
aF1.215999960899353
aF1.7920001745224
aF1.6639999151229858
aI35
aI33
aI34
aF1.0880000591278076
aF1.343999981880188
aF1.343999981880188
asg10
(lp575
F0.011000000000000001
aF-0.004
aF0.015
asba(i__main__
sensor_data_struct
p576
(dp577
g3
(lp578
I-1
aI-1
aI-1
aI-1
aI-1
aF-1.0
aI-1
aI-1
aI-1
aI-1
aI-1
aF-1.0
asg5
I0
sg6
(lp579
I-1
aI-1
aI-1
aI-1
aI-1
aI-1
asg8
(lp580
I22
aI27
aI25
aF1.1519999504089355
aF1.7279999256134033
aF1.6639999151229858
aI29
aI21
aI23
aF1.215999960899353
aF1.0880000591278076
aF1.2799999713897705
asg10
(lp581
F0.003
aF-0.001
aF0.002
asba(i__main__
sensor_data_struct
p582
(dp583
g3
(lp584
I-1
aI-1
aI-1
aI-1
aI-1
aF-1.0
aI-1
aI-1
aI-1
aI-1
aI-1
aF-1.0
asg5
I0
sg6
(lp585
I-1
aI-1
aI-1
aI-1
aI-1
aI-1
asg8
(lp586
I24
aI26
aI22
aF1.2799999713897705
aF1.600000023841858
aF1.4719997644424438
aI27
aI22
aI23
aF1.215999960899353
aF1.0880000591278076
aF1.215999960899353
asg10
(lp587
F0.003
aF0.001
aF0.005
asba(i__main__
sensor_data_struct
p588
(dp589
g3
(lp590
I-1
aI-1
aI-1
aI-1
aI-1
aF-1.0
aI-1
aI-1
aI-1
aI-1
aI-1
aF-1.0
asg5
I1
sg6
(lp591
I-1
aI-1
aI-1
aI-1
aI-1
aI-1
asg8
(lp592
I39
aI8
aI43
aF1.2799999713897705
aF0.8960000872612
aF2.047999858856201
aI37
aI10
aI34
aF1.1519999504089355
aF0.8319999575614929
aF1.4079999923706055
asg10
(lp593
F-0.008
aF0.002
aF0.006
asba(i__main__
sensor_data_struct
p594
(dp595
g3
(lp596
I-1
aI-1
aI-1
aI-1
aI-1
aF-1.0
aI-1
aI-1
aI-1
aI-1
aI-1
aF-1.0
asg5
I1
sg6
(lp597
I-1
aI-1
aI-1
aI-1
aI-1
aI-1
asg8
(lp598
I36
aI38
aI25
aF1.2799999713897705
aF1.215999960899353
aF1.343999981880188
aI28
aI25
aI26
aF1.1519999504089355
aF1.0880000591278076
aF1.1519999504089355
asg10
(lp599
F0.002
aF0.008
aF0.013999999999999999
asba(i__main__
sensor_data_struct
p600
(dp601
g3
(lp602
I-1
aI-1
aI-1
aI-1
aI-1
aF-1.0
aI-1
aI-1
aI-1
aI-1
aI-1
aF-1.0
asg5
I1
sg6
(lp603
I-1
aI-1
aI-1
aI-1
aI-1
aI-1
asg8
(lp604
I39
aI36
aI34
aF1.0239999294281006
aF1.4079999923706055
aF1.4719997644424438
aI31
aI32
aI36
aF1.0880000591278076
aF1.215999960899353
aF1.2799999713897705
asg10
(lp605
F0.004
aF-0.003
aF0.013999999999999999
asba.