(lp0
(i__main__
sensor_data_struct
p1
(dp2
S'color'
p3
(lp4
I487
aI281
aI173
aI922
aI2698
aF158.0
aI677
aI311
aI209
aI1157
aI2487
aF118.0
asS'button'
p5
I0
sS'IR'
p6
(lp7
I-1
aI-1
aI-1
aI-1
aI-1
aI-1
asS'TOF'
p8
(lp9
I22
aI22
aI-1
aF-1.0
aF-1.0
aF-1.0
aI24
aI25
aI-1
aF-1.0
aF-1.0
aF-1.0
asS'pt'
p10
(lp11
F-0.002
aF-0.001
aF0.011000000000000001
asba(i__main__
sensor_data_struct
p12
(dp13
g3
(lp14
I550
aI297
aI179
aI1005
aI2583
aF159.0
aI598
aI304
aI191
aI1067
aI2550
aF145.0
asg5
I1
sg6
(lp15
I-1
aI-1
aI-1
aI-1
aI-1
aI-1
asg8
(lp16
I49
aI45
aI-1
aF-1.0
aF-1.0
aF-1.0
aI23
aI25
aI-1
aF-1.0
aF-1.0
aF-1.0
asg10
(lp17
F-0.003
aF-0.011000000000000001
aF0.012
asba(i__main__
sensor_data_struct
p18
(dp19
g3
(lp20
I543
aI296
aI177
aI997
aI2589
aF161.0
aI853
aI337
aI240
aI1372
aI2366
aF79.0
asg5
I0
sg6
(lp21
I-1
aI-1
aI-1
aI-1
aI-1
aI-1
asg8
(lp22
I25
aI28
aI-1
aF-1.0
aF-1.0
aF-1.0
aI23
aI25
aI-1
aF-1.0
aF-1.0
aF-1.0
asg10
(lp23
F0.003
aF0.001
aF0.01
asba(i__main__
sensor_data_struct
p24
(dp25
g3
(lp26
I528
aI293
aI176
aI979
aI2616
aF162.0
aI773
aI347
aI225
aI1316
aI2450
aF132.0
asg5
I1
sg6
(lp27
I-1
aI-1
aI-1
aI-1
aI-1
aI-1
asg8
(lp28
I47
aI49
aI-1
aF-1.0
aF-1.0
aF-1.0
aI36
aI37
aI-1
aF-1.0
aF-1.0
aF-1.0
asg10
(lp29
F-0.003
aF0.013000000000000001
aF0.013999999999999999
asba(i__main__
sensor_data_struct
p30
(dp31
g3
(lp32
I536
aI296
aI177
aI991
aI2605
aF163.0
aI800
aI332
aI229
aI1310
aI2393
aF96.0
asg5
I0
sg6
(lp33
I-1
aI-1
aI-1
aI-1
aI-1
aI-1
asg8
(lp34
I26
aI20
aI-1
aF-1.0
aF-1.0
aF-1.0
aI24
aI23
aI-1
aF-1.0
aF-1.0
aF-1.0
asg10
(lp35
F-0.004
aF0.002
aF0.006999999999999999
asba(i__main__
sensor_data_struct
p36
(dp37
g3
(lp38
I589
aI301
aI188
aI1053
aI2553
aF146.0
aI1029
aI383
aI265
aI1610
aI2278
aF76.0
asg5
I0
sg6
(lp39
I-1
aI-1
aI-1
aI-1
aI-1
aI-1
asg8
(lp40
I18
aI29
aI-1
aF-1.0
aF-1.0
aF-1.0
aI24
aI26
aI-1
aF-1.0
aF-1.0
aF-1.0
asg10
(lp41
F0.003
aF-0.002
aF0.002
asba(i__main__
sensor_data_struct
p42
(dp43
g3
(lp44
I544
aI295
aI178
aI997
aI2589
aF158.0
aI726
aI319
aI216
aI1216
aI2440
aF109.0
asg5
I0
sg6
(lp45
I-1
aI-1
aI-1
aI-1
aI-1
aI-1
asg8
(lp46
I16
aI28
aI-1
aF-1.0
aF-1.0
aF-1.0
aI24
aI27
aI-1
aF-1.0
aF-1.0
aF-1.0
asg10
(lp47
F-0.001
aF-0.006
aF0.002
asba(i__main__
sensor_data_struct
p48
(dp49
g3
(lp50
I539
aI294
aI178
aI992
aI2605
aF158.0
aI863
aI364
aI237
aI1421
aI2368
aF120.0
asg5
I0
sg6
(lp51
I-1
aI-1
aI-1
aI-1
aI-1
aI-1
asg8
(lp52
I34
aI22
aI-1
aF-1.0
aF-1.0
aF-1.0
aI24
aI23
aI-1
aF-1.0
aF-1.0
aF-1.0
asg10
(lp53
F-0.009000000000000001
aF0.005
aF0.009000000000000001
asba(i__main__
sensor_data_struct
p54
(dp55
g3
(lp56
I522
aI292
aI175
aI971
aI2623
aF163.0
aI1002
aI371
aI268
aI1577
aI2317
aF64.0
asg5
I1
sg6
(lp57
I-1
aI-1
aI-1
aI-1
aI-1
aI-1
asg8
(lp58
I41
aI39
aI-1
aF-1.0
aF-1.0
aF-1.0
aI24
aI25
aI-1
aF-1.0
aF-1.0
aF-1.0
asg10
(lp59
F0.004
aF0.006
aF0.012
asba(i__main__
sensor_data_struct
p60
(dp61
g3
(lp62
I531
aI295
aI177
aI986
aI2622
aF163.0
aI818
aI368
aI230
aI1384
aI2407
aF146.0
asg5
I1
sg6
(lp63
I-1
aI-1
aI-1
aI-1
aI-1
aI-1
asg8
(lp64
I33
aI46
aI-1
aF-1.0
aF-1.0
aF-1.0
aI28
aI32
aI-1
aF-1.0
aF-1.0
aF-1.0
asg10
(lp65
F-0.008
aF0.011000000000000001
aF0.015
asba(i__main__
sensor_data_struct
p66
(dp67
g3
(lp68
I528
aI293
aI177
aI979
aI2624
aF161.0
aI739
aI324
aI219
aI1237
aI2437
aF111.0
asg5
I0
sg6
(lp69
I-1
aI-1
aI-1
aI-1
aI-1
aI-1
asg8
(lp70
I17
aI27
aI-1
aF-1.0
aF-1.0
aF-1.0
aI25
aI24
aI-1
aF-1.0
aF-1.0
aF-1.0
asg10
(lp71
F0.0
aF-0.004
aF0.004
asba(i__main__
sensor_data_struct
p72
(dp73
g3
(lp74
I542
aI295
aI179
aI995
aI2601
aF158.0
aI856
aI377
aI233
aI1429
aI2368
aF146.0
asg5
I1
sg6
(lp75
I-1
aI-1
aI-1
aI-1
aI-1
aI-1
asg8
(lp76
I33
aI39
aI-1
aF-1.0
aF-1.0
aF-1.0
aI25
aI28
aI-1
aF-1.0
aF-1.0
aF-1.0
asg10
(lp77
F-0.006
aF0.0
aF0.013999999999999999
asba(i__main__
sensor_data_struct
p78
(dp79
g3
(lp80
I535
aI294
aI176
aI987
aI2600
aF161.0
aI891
aI350
aI245
aI1427
aI2345
aF83.0
asg5
I0
sg6
(lp81
I-1
aI-1
aI-1
aI-1
aI-1
aI-1
asg8
(lp82
I22
aI28
aI-1
aF-1.0
aF-1.0
aF-1.0
aI23
aI24
aI-1
aF-1.0
aF-1.0
aF-1.0
asg10
(lp83
F0.003
aF-0.001
aF0.008
asba(i__main__
sensor_data_struct
p84
(dp85
g3
(lp86
I612
aI309
aI190
aI1087
aI2521
aF149.0
aI674
aI314
aI204
aI1160
aI2479
aF127.0
asg5
I1
sg6
(lp87
I-1
aI-1
aI-1
aI-1
aI-1
aI-1
asg8
(lp88
I53
aI33
aI-1
aF-1.0
aF-1.0
aF-1.0
aI26
aI28
aI-1
aF-1.0
aF-1.0
aF-1.0
asg10
(lp89
F0.009000000000000001
aF0.0
aF0.013999999999999999
asba(i__main__
sensor_data_struct
p90
(dp91
g3
(lp92
I532
aI294
aI176
aI984
aI2607
aF162.0
aI620
aI311
aI194
aI1097
aI2522
aF147.0
asg5
I1
sg6
(lp93
I-1
aI-1
aI-1
aI-1
aI-1
aI-1
asg8
(lp94
I46
aI44
aI-1
aF-1.0
aF-1.0
aF-1.0
aI26
aI29
aI-1
aF-1.0
aF-1.0
aF-1.0
asg10
(lp95
F-0.005
aF-0.005
aF0.015
asba(i__main__
sensor_data_struct
p96
(dp97
g3
(lp98
I544
aI295
aI178
aI997
aI2589
aF158.0
aI870
aI366
aI236
aI1426
aI2349
aF122.0
asg5
I0
sg6
(lp99
I-1
aI-1
aI-1
aI-1
aI-1
aI-1
asg8
(lp100
I16
aI30
aI-1
aF-1.0
aF-1.0
aF-1.0
aI24
aI24
aI-1
aF-1.0
aF-1.0
aF-1.0
asg10
(lp101
F0.003
aF-0.004
aF0.009000000000000001
asba(i__main__
sensor_data_struct
p102
(dp103
g3
(lp104
I534
aI293
aI177
aI984
aI2605
aF159.0
aI813
aI359
aI225
aI1358
aI2379
aF138.0
asg5
I0
sg6
(lp105
I-1
aI-1
aI-1
aI-1
aI-1
aI-1
asg8
(lp106
I25
aI35
aI-1
aF-1.0
aF-1.0
aF-1.0
aI23
aI24
aI-1
aF-1.0
aF-1.0
aF-1.0
asg10
(lp107
F-0.004
aF-0.01
aF0.011000000000000001
asba(i__main__
sensor_data_struct
p108
(dp109
g3
(lp110
I585
aI301
aI187
aI1048
aI2554
aF148.0
aI990
aI383
aI258
aI1571
aI2295
aF94.0
asg5
I0
sg6
(lp111
I-1
aI-1
aI-1
aI-1
aI-1
aI-1
asg8
(lp112
I24
aI23
aI-1
aF-1.0
aF-1.0
aF-1.0
aI25
aI23
aI-1
aF-1.0
aF-1.0
aF-1.0
asg10
(lp113
F-0.003
aF-0.002
aF0.005
asba(i__main__
sensor_data_struct
p114
(dp115
g3
(lp116
I552
aI297
aI180
aI1009
aI2586
aF157.0
aI673
aI318
aI204
aI1163
aI2481
aF134.0
asg5
I0
sg6
(lp117
I-1
aI-1
aI-1
aI-1
aI-1
aI-1
asg8
(lp118
I37
aI30
aI-1
aF-1.0
aF-1.0
aF-1.0
aI24
aI23
aI-1
aF-1.0
aF-1.0
aF-1.0
asg10
(lp119
F-0.009000000000000001
aF0.001
aF0.01
asba(i__main__
sensor_data_struct
p120
(dp121
g3
(lp122
I537
aI295
aI177
aI991
aI2603
aF161.0
aI1269
aI423
aI316
aI1924
aI2241
aF24.0
asg5
I0
sg6
(lp123
I-1
aI-1
aI-1
aI-1
aI-1
aI-1
asg8
(lp124
I36
aI45
aI-1
aF-1.0
aF-1.0
aF-1.0
aI24
aI25
aI-1
aF-1.0
aF-1.0
aF-1.0
asg10
(lp125
F-0.001
aF0.009000000000000001
aF0.01
asba(i__main__
sensor_data_struct
p126
(dp127
g3
(lp128
I542
aI295
aI179
aI996
aI2601
aF158.0
aI887
aI381
aI237
aI1465
aI2344
aF139.0
asg5
I0
sg6
(lp129
I-1
aI-1
aI-1
aI-1
aI-1
aI-1
asg8
(lp130
I27
aI31
aI-1
aF-1.0
aF-1.0
aF-1.0
aI25
aI22
aI-1
aF-1.0
aF-1.0
aF-1.0
asg10
(lp131
F0.001
aF-0.005
aF0.012
asba(i__main__
sensor_data_struct
p132
(dp133
g3
(lp134
I571
aI303
aI182
aI1036
aI2559
aF159.0
aI952
aI358
aI256
aI1511
aI2334
aF68.0
asg5
I1
sg6
(lp135
I-1
aI-1
aI-1
aI-1
aI-1
aI-1
asg8
(lp136
I50
aI46
aI-1
aF-1.0
aF-1.0
aF-1.0
aI35
aI37
aI-1
aF-1.0
aF-1.0
aF-1.0
asg10
(lp137
F0.005
aF0.008
aF0.013999999999999999
asba(i__main__
sensor_data_struct
p138
(dp139
g3
(lp140
I545
aI298
aI178
aI1003
aI2592
aF163.0
aI799
aI359
aI224
aI1347
aI2399
aF143.0
asg5
I1
sg6
(lp141
I-1
aI-1
aI-1
aI-1
aI-1
aI-1
asg8
(lp142
I33
aI37
aI-1
aF-1.0
aF-1.0
aF-1.0
aI26
aI24
aI-1
aF-1.0
aF-1.0
aF-1.0
asg10
(lp143
F-0.008
aF0.002
aF0.013000000000000001
asba(i__main__
sensor_data_struct
p144
(dp145
g3
(lp146
I615
aI307
aI193
aI1087
aI2525
aF143.0
aI1056
aI409
aI271
aI1675
aI2285
aF104.0
asg5
I0
sg6
(lp147
I-1
aI-1
aI-1
aI-1
aI-1
aI-1
asg8
(lp148
I25
aI29
aI-1
aF-1.0
aF-1.0
aF-1.0
aI25
aI23
aI-1
aF-1.0
aF-1.0
aF-1.0
asg10
(lp149
F0.003
aF0.001
aF0.009000000000000001
asba(i__main__
sensor_data_struct
p150
(dp151
g3
(lp152
I536
aI295
aI178
aI991
aI2612
aF161.0
aI846
aI402
aI235
aI1456
aI2406
aF187.0
asg5
I1
sg6
(lp153
I-1
aI-1
aI-1
aI-1
aI-1
aI-1
asg8
(lp154
I57
aI40
aI-1
aF-1.0
aF-1.0
aF-1.0
aI36
aI37
aI-1
aF-1.0
aF-1.0
aF-1.0
asg10
(lp155
F0.01
aF-0.005
aF0.011000000000000001
asba(i__main__
sensor_data_struct
p156
(dp157
g3
(lp158
I536
aI297
aI177
aI993
aI2610
aF165.0
aI537
aI302
aI178
aI1000
aI2615
aF172.0
asg5
I1
sg6
(lp159
I-1
aI-1
aI-1
aI-1
aI-1
aI-1
asg8
(lp160
I49
aI54
aI-1
aF-1.0
aF-1.0
aF-1.0
aI32
aI35
aI-1
aF-1.0
aF-1.0
aF-1.0
asg10
(lp161
F0.006
aF-0.006999999999999999
aF0.009000000000000001
asba(i__main__
sensor_data_struct
p162
(dp163
g3
(lp164
I595
aI310
aI187
aI1065
aI2530
aF159.0
aI902
aI395
aI242
aI1496
aI2346
aF153.0
asg5
I1
sg6
(lp165
I-1
aI-1
aI-1
aI-1
aI-1
aI-1
asg8
(lp166
I27
aI33
aI-1
aF-1.0
aF-1.0
aF-1.0
aI27
aI30
aI-1
aF-1.0
aF-1.0
aF-1.0
asg10
(lp167
F-0.002
aF0.0
aF0.015
asba(i__main__
sensor_data_struct
p168
(dp169
g3
(lp170
I578
aI308
aI182
aI1050
aI2549
aF165.0
aI685
aI328
aI203
aI1187
aI2464
aF146.0
asg5
I1
sg6
(lp171
I-1
aI-1
aI-1
aI-1
aI-1
aI-1
asg8
(lp172
I39
aI38
aI-1
aF-1.0
aF-1.0
aF-1.0
aI27
aI27
aI-1
aF-1.0
aF-1.0
aF-1.0
asg10
(lp173
F0.003
aF-0.006999999999999999
aF0.013999999999999999
asba(i__main__
sensor_data_struct
p174
(dp175
g3
(lp176
I595
aI315
aI186
aI1076
aI2537
aF167.0
aI754
aI338
aI217
aI1272
aI2421
aF129.0
asg5
I1
sg6
(lp177
I-1
aI-1
aI-1
aI-1
aI-1
aI-1
asg8
(lp178
I30
aI31
aI-1
aF-1.0
aF-1.0
aF-1.0
aI27
aI28
aI-1
aF-1.0
aF-1.0
aF-1.0
asg10
(lp179
F0.0
aF0.0
aF0.015
asba(i__main__
sensor_data_struct
p180
(dp181
g3
(lp182
I588
aI307
aI187
aI1056
aI2543
aF156.0
aI935
aI395
aI248
aI1532
aI2330
aF138.0
asg5
I0
sg6
(lp183
I-1
aI-1
aI-1
aI-1
aI-1
aI-1
asg8
(lp184
I24
aI25
aI-1
aF-1.0
aF-1.0
aF-1.0
aI25
aI25
aI-1
aF-1.0
aF-1.0
aF-1.0
asg10
(lp185
F0.001
aF-0.003
aF0.013000000000000001
asba(i__main__
sensor_data_struct
p186
(dp187
g3
(lp188
I577
aI305
aI185
aI1044
aI2562
aF158.0
aI956
aI403
aI254
aI1565
aI2331
aF139.0
asg5
I0
sg6
(lp189
I-1
aI-1
aI-1
aI-1
aI-1
aI-1
asg8
(lp190
I44
aI32
aI-1
aF-1.0
aF-1.0
aF-1.0
aI24
aI25
aI-1
aF-1.0
aF-1.0
aF-1.0
asg10
(lp191
F0.01
aF0.0
aF0.013000000000000001
asba(i__main__
sensor_data_struct
p192
(dp193
g3
(lp194
I546
aI300
aI177
aI1006
aI2587
aF166.0
aI713
aI354
aI210
aI1254
aI2471
aF173.0
asg5
I1
sg6
(lp195
I-1
aI-1
aI-1
aI-1
aI-1
aI-1
asg8
(lp196
I49
aI41
aI-1
aF-1.0
aF-1.0
aF-1.0
aI33
aI39
aI-1
aF-1.0
aF-1.0
aF-1.0
asg10
(lp197
F0.01
aF-0.006999999999999999
aF0.013000000000000001
asba(i__main__
sensor_data_struct
p198
(dp199
g3
(lp200
I559
aI301
aI180
aI1021
aI2575
aF161.0
aI882
aI347
aI240
aI1412
aI2336
aF85.0
asg5
I0
sg6
(lp201
I-1
aI-1
aI-1
aI-1
aI-1
aI-1
asg8
(lp202
I27
aI18
aI-1
aF-1.0
aF-1.0
aF-1.0
aI25
aI26
aI-1
aF-1.0
aF-1.0
aF-1.0
asg10
(lp203
F-0.003
aF0.0
aF0.004
asba(i__main__
sensor_data_struct
p204
(dp205
g3
(lp206
I544
aI298
aI177
aI1001
aI2587
aF164.0
aI753
aI341
aI216
aI1272
aI2413
aF135.0
asg5
I0
sg6
(lp207
I-1
aI-1
aI-1
aI-1
aI-1
aI-1
asg8
(lp208
I14
aI35
aI-1
aF-1.0
aF-1.0
aF-1.0
aI23
aI25
aI-1
aF-1.0
aF-1.0
aF-1.0
asg10
(lp209
F0.0
aF-0.01
aF0.009000000000000001
asba(i__main__
sensor_data_struct
p210
(dp211
g3
(lp212
I555
aI302
aI179
aI1017
aI2577
aF165.0
aI737
aI338
aI213
aI1255
aI2432
aF138.0
asg5
I1
sg6
(lp213
I-1
aI-1
aI-1
aI-1
aI-1
aI-1
asg8
(lp214
I49
aI32
aI-1
aF-1.0
aF-1.0
aF-1.0
aI24
aI27
aI-1
aF-1.0
aF-1.0
aF-1.0
asg10
(lp215
F0.006999999999999999
aF-0.003
aF0.013999999999999999
asba(i__main__
sensor_data_struct
p216
(dp217
g3
(lp218
I609
aI319
aI188
aI1097
aI2527
aF168.0
aI638
aI322
aI196
aI1133
aI2515
aF157.0
asg5
I1
sg6
(lp219
I-1
aI-1
aI-1
aI-1
aI-1
aI-1
asg8
(lp220
I48
aI41
aI-1
aF-1.0
aF-1.0
aF-1.0
aI34
aI37
aI-1
aF-1.0
aF-1.0
aF-1.0
asg10
(lp221
F0.011000000000000001
aF-0.005
aF0.015
asba(i__main__
sensor_data_struct
p222
(dp223
g3
(lp224
I575
aI305
aI183
aI1044
aI2562
aF160.0
aI1206
aI444
aI301
aI1894
aI2273
aF88.0
asg5
I1
sg6
(lp225
I-1
aI-1
aI-1
aI-1
aI-1
aI-1
asg8
(lp226
I47
aI46
aI-1
aF-1.0
aF-1.0
aF-1.0
aI37
aI36
aI-1
aF-1.0
aF-1.0
aF-1.0
asg10
(lp227
F0.003
aF0.01
aF0.013999999999999999
asba(i__main__
sensor_data_struct
p228
(dp229
g3
(lp230
I598
aI309
aI187
aI1074
aI2537
aF156.0
aI1443
aI449
aI347
aI2135
aI2199
aF65523.0
asg5
I1
sg6
(lp231
I-1
aI-1
aI-1
aI-1
aI-1
aI-1
asg8
(lp232
I48
aI40
aI-1
aF-1.0
aF-1.0
aF-1.0
aI34
aI39
aI-1
aF-1.0
aF-1.0
aF-1.0
asg10
(lp233
F0.006999999999999999
aF0.006
aF0.01
asba(i__main__
sensor_data_struct
p234
(dp235
g3
(lp236
I543
aI297
aI177
aI999
aI2589
aF162.0
aI681
aI321
aI204
aI1173
aI2468
aF136.0
asg5
I0
sg6
(lp237
I-1
aI-1
aI-1
aI-1
aI-1
aI-1
asg8
(lp238
I24
aI26
aI-1
aF-1.0
aF-1.0
aF-1.0
aI22
aI25
aI-1
aF-1.0
aF-1.0
aF-1.0
asg10
(lp239
F-0.003
aF-0.005
aF0.011000000000000001
asba(i__main__
sensor_data_struct
p240
(dp241
g3
(lp242
I540
aI298
aI176
aI997
aI2594
aF166.0
aI1153
aI411
aI294
aI1801
aI2291
aF59.0
asg5
I1
sg6
(lp243
I-1
aI-1
aI-1
aI-1
aI-1
aI-1
asg8
(lp244
I48
aI46
aI-1
aF-1.0
aF-1.0
aF-1.0
aI34
aI38
aI-1
aF-1.0
aF-1.0
aF-1.0
asg10
(lp245
F0.009000000000000001
aF0.008
aF0.013000000000000001
asba(i__main__
sensor_data_struct
p246
(dp247
g3
(lp248
I602
aI307
aI188
aI1074
aI2532
aF151.0
aI1034
aI378
aI270
aI1611
aI2287
aF63.0
asg5
I0
sg6
(lp249
I-1
aI-1
aI-1
aI-1
aI-1
aI-1
asg8
(lp250
I22
aI28
aI-1
aF-1.0
aF-1.0
aF-1.0
aI24
aI25
aI-1
aF-1.0
aF-1.0
aF-1.0
asg10
(lp251
F0.003
aF-0.001
aF0.001
asba(i__main__
sensor_data_struct
p252
(dp253
g3
(lp254
I567
aI303
aI182
aI1031
aI2567
aF160.0
aI696
aI318
aI208
aI1183
aI2454
aF123.0
asg5
I0
sg6
(lp255
I-1
aI-1
aI-1
aI-1
aI-1
aI-1
asg8
(lp256
I20
aI21
aI-1
aF-1.0
aF-1.0
aF-1.0
aI25
aI24
aI-1
aF-1.0
aF-1.0
aF-1.0
asg10
(lp257
F-0.004
aF-0.006
aF0.006
asba(i__main__
sensor_data_struct
p258
(dp259
g3
(lp260
I579
aI305
aI183
aI1046
aI2549
aF159.0
aI1394
aI434
aI338
aI2057
aI2198
aF65522.0
asg5
I0
sg6
(lp261
I-1
aI-1
aI-1
aI-1
aI-1
aI-1
asg8
(lp262
I29
aI34
aI-1
aF-1.0
aF-1.0
aF-1.0
aI24
aI24
aI-1
aF-1.0
aF-1.0
aF-1.0
asg10
(lp263
F-0.002
aF0.006999999999999999
aF0.004
asba(i__main__
sensor_data_struct
p264
(dp265
g3
(lp266
I557
aI301
aI180
aI1019
aI2579
aF162.0
aI893
aI386
aI239
aI1478
aI2346
aF144.0
asg5
I1
sg6
(lp267
I-1
aI-1
aI-1
aI-1
aI-1
aI-1
asg8
(lp268
I32
aI32
aI-1
aF-1.0
aF-1.0
aF-1.0
aI25
aI26
aI-1
aF-1.0
aF-1.0
aF-1.0
asg10
(lp269
F0.002
aF-0.003
aF0.013999999999999999
asba(i__main__
sensor_data_struct
p270
(dp271
g3
(lp272
I566
aI303
aI182
aI1031
aI2569
aF161.0
aI915
aI364
aI247
aI1470
aI2331
aF96.0
asg5
I0
sg6
(lp273
I-1
aI-1
aI-1
aI-1
aI-1
aI-1
asg8
(lp274
I18
aI30
aI-1
aF-1.0
aF-1.0
aF-1.0
aI23
aI24
aI-1
aF-1.0
aF-1.0
aF-1.0
asg10
(lp275
F0.006
aF-0.003
aF0.004
asba(i__main__
sensor_data_struct
p276
(dp277
g3
(lp278
I542
aI298
aI177
aI1000
aI2596
aF164.0
aI2091
aI537
aI474
aI2924
aI2123
aF65358.0
asg5
I1
sg6
(lp279
I-1
aI-1
aI-1
aI-1
aI-1
aI-1
asg8
(lp280
I41
aI41
aI-1
aF-1.0
aF-1.0
aF-1.0
aI35
aI38
aI-1
aF-1.0
aF-1.0
aF-1.0
asg10
(lp281
F0.0
aF0.009000000000000001
aF0.006999999999999999
asba(i__main__
sensor_data_struct
p282
(dp283
g3
(lp284
I561
aI299
aI181
aI1022
aI2578
aF157.0
aI925
aI372
aI248
aI1494
aI2335
aF105.0
asg5
I1
sg6
(lp285
I-1
aI-1
aI-1
aI-1
aI-1
aI-1
asg8
(lp286
I29
aI32
aI-1
aF-1.0
aF-1.0
aF-1.0
aI24
aI22
aI-1
aF-1.0
aF-1.0
aF-1.0
asg10
(lp287
F-0.001
aF0.004
aF0.012
asba(i__main__
sensor_data_struct
p288
(dp289
g3
(lp290
I571
aI304
aI183
aI1037
aI2565
aF160.0
aI750
aI324
aI217
aI1246
aI2411
aF109.0
asg5
I0
sg6
(lp291
I-1
aI-1
aI-1
aI-1
aI-1
aI-1
asg8
(lp292
I24
aI20
aI-1
aF-1.0
aF-1.0
aF-1.0
aI26
aI23
aI-1
aF-1.0
aF-1.0
aF-1.0
asg10
(lp293
F-0.004
aF-0.002
aF0.003
asba(i__main__
sensor_data_struct
p294
(dp295
g3
(lp296
I532
aI295
aI176
aI985
aI2607
aF164.0
aI685
aI340
aI205
aI1205
aI2483
aF164.0
asg5
I1
sg6
(lp297
I-1
aI-1
aI-1
aI-1
aI-1
aI-1
asg8
(lp298
I31
aI47
aI-1
aF-1.0
aF-1.0
aF-1.0
aI28
aI38
aI-1
aF-1.0
aF-1.0
aF-1.0
asg10
(lp299
F0.005
aF-0.01
aF0.011000000000000001
asba(i__main__
sensor_data_struct
p300
(dp301
g3
(lp302
I621
aI312
aI191
aI1099
aI2510
aF151.0
aI1053
aI398
aI269
aI1658
aI2278
aF89.0
asg5
I0
sg6
(lp303
I-1
aI-1
aI-1
aI-1
aI-1
aI-1
asg8
(lp304
I28
aI17
aI-1
aF-1.0
aF-1.0
aF-1.0
aI24
aI24
aI-1
aF-1.0
aF-1.0
aF-1.0
asg10
(lp305
F-0.006
aF0.003
aF0.005
asba(i__main__
sensor_data_struct
p306
(dp307
g3
(lp308
I541
aI297
aI177
aI998
aI2599
aF163.0
aI712
aI325
aI212
aI1212
aI2456
aF126.0
asg5
I0
sg6
(lp309
I-1
aI-1
aI-1
aI-1
aI-1
aI-1
asg8
(lp310
I20
aI33
aI-1
aF-1.0
aF-1.0
aF-1.0
aI24
aI25
aI-1
aF-1.0
aF-1.0
aF-1.0
asg10
(lp311
F0.006
aF-0.004
aF0.009000000000000001
asba(i__main__
sensor_data_struct
p312
(dp313
g3
(lp314
I546
aI297
aI177
aI1002
aI2582
aF161.0
aI916
aI370
aI247
aI1484
aI2343
aF105.0
asg5
I1
sg6
(lp315
I-1
aI-1
aI-1
aI-1
aI-1
aI-1
asg8
(lp316
I44
aI40
aI-1
aF-1.0
aF-1.0
aF-1.0
aI26
aI30
aI-1
aF-1.0
aF-1.0
aF-1.0
asg10
(lp317
F0.004
aF0.005
aF0.013999999999999999
asba(i__main__
sensor_data_struct
p318
(dp319
g3
(lp320
I555
aI302
aI180
aI1018
aI2584
aF164.0
aI828
aI373
aI226
aI1394
aI2376
aF154.0
asg5
I1
sg6
(lp321
I-1
aI-1
aI-1
aI-1
aI-1
aI-1
asg8
(lp322
I46
aI42
aI-1
aF-1.0
aF-1.0
aF-1.0
aI27
aI30
aI-1
aF-1.0
aF-1.0
aF-1.0
asg10
(lp323
F0.001
aF-0.008
aF0.015
asba(i__main__
sensor_data_struct
p324
(dp325
g3
(lp326
I553
aI302
aI179
aI1015
aI2581
aF166.0
aI636
aI316
aI196
aI1122
aI2510
aF148.0
asg5
I1
sg6
(lp327
I-1
aI-1
aI-1
aI-1
aI-1
aI-1
asg8
(lp328
I45
aI43
aI-1
aF-1.0
aF-1.0
aF-1.0
aI34
aI35
aI-1
aF-1.0
aF-1.0
aF-1.0
asg10
(lp329
F-0.01
aF0.0
aF0.013000000000000001
asba(i__main__
sensor_data_struct
p330
(dp331
g3
(lp332
I545
aI300
aI177
aI1005
aI2590
aF167.0
aI974
aI373
aI260
aI1549
aI2322
aF82.0
asg5
I0
sg6
(lp333
I-1
aI-1
aI-1
aI-1
aI-1
aI-1
asg8
(lp334
I43
aI32
aI-1
aF-1.0
aF-1.0
aF-1.0
aI23
aI25
aI-1
aF-1.0
aF-1.0
aF-1.0
asg10
(lp335
F0.01
aF0.003
aF0.011000000000000001
asba(i__main__
sensor_data_struct
p336
(dp337
g3
(lp338
I543
aI298
aI177
aI999
aI2589
aF164.0
aI676
aI320
aI203
aI1166
aI2470
aF137.0
asg5
I0
sg6
(lp339
I-1
aI-1
aI-1
aI-1
aI-1
aI-1
asg8
(lp340
I36
aI24
aI-1
aF-1.0
aF-1.0
aF-1.0
aI25
aI21
aI-1
aF-1.0
aF-1.0
aF-1.0
asg10
(lp341
F-0.006999999999999999
aF-0.005
aF0.01
asba(i__main__
sensor_data_struct
p342
(dp343
g3
(lp344
I695
aI337
aI204
aI1210
aI2458
aF156.0
aI603
aI305
aI190
aI1072
aI2534
aF146.0
asg5
I1
sg6
(lp345
I-1
aI-1
aI-1
aI-1
aI-1
aI-1
asg8
(lp346
I42
aI37
aI-1
aF-1.0
aF-1.0
aF-1.0
aI23
aI24
aI-1
aF-1.0
aF-1.0
aF-1.0
asg10
(lp347
F-0.008
aF-0.009000000000000001
aF0.013000000000000001
asba(i__main__
sensor_data_struct
p348
(dp349
g3
(lp350
I545
aI299
aI177
aI1004
aI2590
aF165.0
aI748
aI338
aI217
aI1269
aI2433
aF131.0
asg5
I1
sg6
(lp351
I-1
aI-1
aI-1
aI-1
aI-1
aI-1
asg8
(lp352
I33
aI46
aI-1
aF-1.0
aF-1.0
aF-1.0
aI27
aI28
aI-1
aF-1.0
aF-1.0
aF-1.0
asg10
(lp353
F-0.008
aF0.009000000000000001
aF0.013999999999999999
asba(i__main__
sensor_data_struct
p354
(dp355
g3
(lp356
I589
aI308
aI187
aI1061
aI2551
aF158.0
aI997
aI391
aI258
aI1590
aI2295
aF104.0
asg5
I0
sg6
(lp357
I-1
aI-1
aI-1
aI-1
aI-1
aI-1
asg8
(lp358
I32
aI17
aI-1
aF-1.0
aF-1.0
aF-1.0
aI26
aI25
aI-1
aF-1.0
aF-1.0
aF-1.0
asg10
(lp359
F-0.006999999999999999
aF-0.002
aF0.006
asba(i__main__
sensor_data_struct
p360
(dp361
g3
(lp362
I599
aI312
aI187
aI1075
aI2531
aF161.0
aI778
aI332
aI223
aI1287
aI2400
aF108.0
asg5
I0
sg6
(lp363
I-1
aI-1
aI-1
aI-1
aI-1
aI-1
asg8
(lp364
I21
aI24
aI-1
aF-1.0
aF-1.0
aF-1.0
aI23
aI25
aI-1
aF-1.0
aF-1.0
aF-1.0
asg10
(lp365
F0.0
aF-0.001
aF0.01
asba(i__main__
sensor_data_struct
p366
(dp367
g3
(lp368
I606
aI313
aI189
aI1085
aI2530
aF158.0
aI1026
aI374
aI270
aI1605
aI2303
aF59.0
asg5
I0
sg6
(lp369
I-1
aI-1
aI-1
aI-1
aI-1
aI-1
asg8
(lp370
I33
aI38
aI-1
aF-1.0
aF-1.0
aF-1.0
aI24
aI23
aI-1
aF-1.0
aF-1.0
aF-1.0
asg10
(lp371
F-0.003
aF0.008
aF0.01
asba(i__main__
sensor_data_struct
p372
(dp373
g3
(lp374
I642
aI313
aI196
aI1121
aI2490
aF142.0
aI1065
aI397
aI271
aI1667
aI2269
aF82.0
asg5
I0
sg6
(lp375
I-1
aI-1
aI-1
aI-1
aI-1
aI-1
asg8
(lp376
I26
aI17
aI-1
aF-1.0
aF-1.0
aF-1.0
aI25
aI24
aI-1
aF-1.0
aF-1.0
aF-1.0
asg10
(lp377
F-0.005
aF-0.001
aF0.001
asba(i__main__
sensor_data_struct
p378
(dp379
g3
(lp380
I564
aI303
aI181
aI1028
aI2567
aF162.0
aI736
aI341
aI215
aI1258
aI2440
aF141.0
asg5
I1
sg6
(lp381
I-1
aI-1
aI-1
aI-1
aI-1
aI-1
asg8
(lp382
I36
aI25
aI-1
aF-1.0
aF-1.0
aF-1.0
aI28
aI18
aI-1
aF-1.0
aF-1.0
aF-1.0
asg10
(lp383
F-0.009000000000000001
aF0.002
aF0.01
asba(i__main__
sensor_data_struct
p384
(dp385
g3
(lp386
I580
aI306
aI185
aI1049
aI2556
aF159.0
aI944
aI374
aI250
aI1513
aI2317
aF100.0
asg5
I0
sg6
(lp387
I-1
aI-1
aI-1
aI-1
aI-1
aI-1
asg8
(lp388
I29
aI15
aI-1
aF-1.0
aF-1.0
aF-1.0
aI26
aI25
aI-1
aF-1.0
aF-1.0
aF-1.0
asg10
(lp389
F-0.006999999999999999
aF0.003
aF0.005
asba(i__main__
sensor_data_struct
p390
(dp391
g3
(lp392
I567
aI303
aI182
aI1032
aI2567
aF160.0
aI971
aI365
aI258
aI1530
aI2307
aF72.0
asg5
I0
sg6
(lp393
I-1
aI-1
aI-1
aI-1
aI-1
aI-1
asg8
(lp394
I27
aI18
aI-1
aF-1.0
aF-1.0
aF-1.0
aI24
aI24
aI-1
aF-1.0
aF-1.0
aF-1.0
asg10
(lp395
F-0.004
aF0.003
aF0.003
asba(i__main__
sensor_data_struct
p396
(dp397
g3
(lp398
I572
aI303
aI183
aI1038
aI2563
aF158.0
aI680
aI315
aI204
aI1162
aI2461
aF127.0
asg5
I0
sg6
(lp399
I-1
aI-1
aI-1
aI-1
aI-1
aI-1
asg8
(lp400
I23
aI19
aI-1
aF-1.0
aF-1.0
aF-1.0
aI26
aI24
aI-1
aF-1.0
aF-1.0
aF-1.0
asg10
(lp401
F-0.005
aF-0.005
aF0.006999999999999999
asba(i__main__
sensor_data_struct
p402
(dp403
g3
(lp404
I648
aI314
aI198
aI1129
aI2492
aF140.0
aI1159
aI421
aI290
aI1797
aI2252
aF75.0
asg5
I0
sg6
(lp405
I-1
aI-1
aI-1
aI-1
aI-1
aI-1
asg8
(lp406
I27
aI29
aI-1
aF-1.0
aF-1.0
aF-1.0
aI25
aI24
aI-1
aF-1.0
aF-1.0
aF-1.0
asg10
(lp407
F0.003
aF0.003
aF0.008
asba(i__main__
sensor_data_struct
p408
(dp409
g3
(lp410
I591
aI306
aI186
aI1062
aI2545
aF154.0
aI887
aI364
aI242
aI1442
aI2350
aF109.0
asg5
I1
sg6
(lp411
I-1
aI-1
aI-1
aI-1
aI-1
aI-1
asg8
(lp412
I29
aI28
aI-1
aF-1.0
aF-1.0
aF-1.0
aI23
aI23
aI-1
aF-1.0
aF-1.0
aF-1.0
asg10
(lp413
F0.001
aF0.001
aF0.012
asba(i__main__
sensor_data_struct
p414
(dp415
g3
(lp416
I617
aI316
aI191
aI1103
aI2527
aF158.0
aI617
aI310
aI193
aI1093
aI2526
aF147.0
asg5
I1
sg6
(lp417
I-1
aI-1
aI-1
aI-1
aI-1
aI-1
asg8
(lp418
I25
aI44
aI-1
aF-1.0
aF-1.0
aF-1.0
aI31
aI39
aI-1
aF-1.0
aF-1.0
aF-1.0
asg10
(lp419
F0.004
aF-0.009000000000000001
aF0.011000000000000001
asba(i__main__
sensor_data_struct
p420
(dp421
g3
(lp422
I561
aI303
aI181
aI1026
aI2578
aF163.0
aI943
aI355
aI256
aI1487
aI2324
aF66.0
asg5
I0
sg6
(lp423
I-1
aI-1
aI-1
aI-1
aI-1
aI-1
asg8
(lp424
I20
aI26
aI-1
aF-1.0
aF-1.0
aF-1.0
aI24
aI25
aI-1
aF-1.0
aF-1.0
aF-1.0
asg10
(lp425
F0.002
aF-0.002
aF0.003
asba(i__main__
sensor_data_struct
p426
(dp427
g3
(lp428
I628
aI311
aI193
aI1105
aI2506
aF145.0
aI1070
aI403
aI272
aI1682
aI2274
aF89.0
asg5
I0
sg6
(lp429
I-1
aI-1
aI-1
aI-1
aI-1
aI-1
asg8
(lp430
I30
aI22
aI-1
aF-1.0
aF-1.0
aF-1.0
aI26
aI23
aI-1
aF-1.0
aF-1.0
aF-1.0
asg10
(lp431
F-0.003
aF0.003
aF0.006999999999999999
asba(i__main__
sensor_data_struct
p432
(dp433
g3
(lp434
I651
aI318
aI197
aI1139
aI2489
aF146.0
aI958
aI365
aI257
aI1521
aI2326
aF76.0
asg5
I1
sg6
(lp435
I-1
aI-1
aI-1
aI-1
aI-1
aI-1
asg8
(lp436
I33
aI41
aI-1
aF-1.0
aF-1.0
aF-1.0
aI24
aI25
aI-1
aF-1.0
aF-1.0
aF-1.0
asg10
(lp437
F-0.001
aF0.006
aF0.012
asba(i__main__
sensor_data_struct
p438
(dp439
g3
(lp440
I705
aI325
aI209
aI1205
aI2454
aF131.0
aI1267
aI426
aI310
aI1914
aI2219
aF34.0
asg5
I0
sg6
(lp441
I-1
aI-1
aI-1
aI-1
aI-1
aI-1
asg8
(lp442
I27
aI25
aI-1
aF-1.0
aF-1.0
aF-1.0
aI24
aI22
aI-1
aF-1.0
aF-1.0
aF-1.0
asg10
(lp443
F-0.003
aF0.006
aF0.003
asba(i__main__
sensor_data_struct
p444
(dp445
g3
(lp446
I557
aI301
aI180
aI1019
aI2579
aF162.0
aI819
aI374
aI228
aI1390
aI2400
aF157.0
asg5
I1
sg6
(lp447
I-1
aI-1
aI-1
aI-1
aI-1
aI-1
asg8
(lp448
I39
aI45
aI-1
aF-1.0
aF-1.0
aF-1.0
aI28
aI30
aI-1
aF-1.0
aF-1.0
aF-1.0
asg10
(lp449
F-0.009000000000000001
aF0.002
aF0.015
asba(i__main__
sensor_data_struct
p450
(dp451
g3
(lp452
I585
aI304
aI186
aI1052
aI2552
aF153.0
aI993
aI391
aI258
aI1586
aI2299
aF105.0
asg5
I0
sg6
(lp453
I-1
aI-1
aI-1
aI-1
aI-1
aI-1
asg8
(lp454
I23
aI19
aI-1
aF-1.0
aF-1.0
aF-1.0
aI25
aI23
aI-1
aF-1.0
aF-1.0
aF-1.0
asg10
(lp455
F-0.002
aF-0.002
aF0.008
asba(i__main__
sensor_data_struct
p456
(dp457
g3
(lp458
I569
aI303
aI182
aI1034
aI2563
aF160.0
aI1318
aI425
aI324
aI1969
aI2216
aF5.0
asg5
I0
sg6
(lp459
I-1
aI-1
aI-1
aI-1
aI-1
aI-1
asg8
(lp460
I31
aI30
aI-1
aF-1.0
aF-1.0
aF-1.0
aI25
aI23
aI-1
aF-1.0
aF-1.0
aF-1.0
asg10
(lp461
F-0.002
aF0.006999999999999999
aF0.006
asba(i__main__
sensor_data_struct
p462
(dp463
g3
(lp464
I586
aI306
aI185
aI1056
aI2548
aF157.0
aI1090
aI401
aI280
aI1705
aI2281
aF74.0
asg5
I0
sg6
(lp465
I-1
aI-1
aI-1
aI-1
aI-1
aI-1
asg8
(lp466
I34
aI38
aI-1
aF-1.0
aF-1.0
aF-1.0
aI24
aI24
aI-1
aF-1.0
aF-1.0
aF-1.0
asg10
(lp467
F-0.002
aF0.006
aF0.01
asba(i__main__
sensor_data_struct
p468
(dp469
g3
(lp470
I679
aI320
aI205
aI1170
aI2472
aF134.0
aI1140
aI425
aI288
aI1782
aI2263
aF89.0
asg5
I0
sg6
(lp471
I-1
aI-1
aI-1
aI-1
aI-1
aI-1
asg8
(lp472
I31
aI29
aI-1
aF-1.0
aF-1.0
aF-1.0
aI25
aI23
aI-1
aF-1.0
aF-1.0
aF-1.0
asg10
(lp473
F0.0
aF0.005
aF0.009000000000000001
asba(i__main__
sensor_data_struct
p474
(dp475
g3
(lp476
I549
aI299
aI179
aI1007
aI2585
aF162.0
aI829
aI373
aI226
aI1393
aI2371
aF154.0
asg5
I1
sg6
(lp477
I-1
aI-1
aI-1
aI-1
aI-1
aI-1
asg8
(lp478
I50
aI41
aI-1
aF-1.0
aF-1.0
aF-1.0
aI26
aI31
aI-1
aF-1.0
aF-1.0
aF-1.0
asg10
(lp479
F-0.006999999999999999
aF-0.009000000000000001
aF0.015
asba(i__main__
sensor_data_struct
p480
(dp481
g3
(lp482
I560
aI304
aI180
aI1026
aI2573
aF166.0
aI641
aI312
aI197
aI1121
aI2503
aF140.0
asg5
I1
sg6
(lp483
I-1
aI-1
aI-1
aI-1
aI-1
aI-1
asg8
(lp484
I39
aI36
aI-1
aF-1.0
aF-1.0
aF-1.0
aI24
aI25
aI-1
aF-1.0
aF-1.0
aF-1.0
asg10
(lp485
F0.006
aF-0.006
aF0.013000000000000001
asba(i__main__
sensor_data_struct
p486
(dp487
g3
(lp488
I609
aI307
aI191
aI1081
aI2528
aF147.0
aI999
aI382
aI260
aI1579
aI2292
aF88.0
asg5
I0
sg6
(lp489
I-1
aI-1
aI-1
aI-1
aI-1
aI-1
asg8
(lp490
I16
aI28
aI-1
aF-1.0
aF-1.0
aF-1.0
aI22
aI25
aI-1
aF-1.0
aF-1.0
aF-1.0
asg10
(lp491
F0.001
aF-0.005
aF0.001
asba(i__main__
sensor_data_struct
p492
(dp493
g3
(lp494
I571
aI302
aI183
aI1034
aI2561
aF157.0
aI891
aI385
aI238
aI1475
aI2347
aF144.0
asg5
I1
sg6
(lp495
I-1
aI-1
aI-1
aI-1
aI-1
aI-1
asg8
(lp496
I26
aI28
aI-1
aF-1.0
aF-1.0
aF-1.0
aI23
aI22
aI-1
aF-1.0
aF-1.0
aF-1.0
asg10
(lp497
F0.0
aF-0.006
aF0.013000000000000001
asba(i__main__
sensor_data_struct
p498
(dp499
g3
(lp500
I562
aI303
aI181
aI1026
aI2571
aF163.0
aI837
aI346
aI232
aI1366
aI2365
aF104.0
asg5
I0
sg6
(lp501
I-1
aI-1
aI-1
aI-1
aI-1
aI-1
asg8
(lp502
I29
aI16
aI-1
aF-1.0
aF-1.0
aF-1.0
aI24
aI24
aI-1
aF-1.0
aF-1.0
aF-1.0
asg10
(lp503
F-0.005
aF0.0
aF0.006999999999999999
asba(i__main__
sensor_data_struct
p504
(dp505
g3
(lp506
I543
aI298
aI177
aI1001
aI2594
aF164.0
aI865
aI374
aI236
aI1437
aI2368
aF136.0
asg5
I1
sg6
(lp507
I-1
aI-1
aI-1
aI-1
aI-1
aI-1
asg8
(lp508
I47
aI32
aI-1
aF-1.0
aF-1.0
aF-1.0
aI24
aI25
aI-1
aF-1.0
aF-1.0
aF-1.0
asg10
(lp509
F0.01
aF-0.001
aF0.013000000000000001
asba(i__main__
sensor_data_struct
p510
(dp511
g3
(lp512
I547
aI299
aI178
aI1006
aI2587
aF164.0
aI777
aI354
aI220
aI1318
aI2412
aF145.0
asg5
I1
sg6
(lp513
I-1
aI-1
aI-1
aI-1
aI-1
aI-1
asg8
(lp514
I34
aI44
aI-1
aF-1.0
aF-1.0
aF-1.0
aI26
aI28
aI-1
aF-1.0
aF-1.0
aF-1.0
asg10
(lp515
F-0.008
aF0.001
aF0.013999999999999999
asba(i__main__
sensor_data_struct
p516
(dp517
g3
(lp518
I555
aI304
aI180
aI1022
aI2589
aF167.0
aI1971
aI525
aI452
aI2801
aI2151
aF65394.0
asg5
I1
sg6
(lp519
I-1
aI-1
aI-1
aI-1
aI-1
aI-1
asg8
(lp520
I50
aI47
aI-1
aF-1.0
aF-1.0
aF-1.0
aI35
aI39
aI-1
aF-1.0
aF-1.0
aF-1.0
asg10
(lp521
F0.005
aF0.009000000000000001
aF0.01
asba(i__main__
sensor_data_struct
p522
(dp523
g3
(lp524
I590
aI308
aI188
aI1060
aI2546
aF156.0
aI985
aI399
aI256
aI1585
aI2301
aF122.0
asg5
I0
sg6
(lp525
I-1
aI-1
aI-1
aI-1
aI-1
aI-1
asg8
(lp526
I13
aI35
aI-1
aF-1.0
aF-1.0
aF-1.0
aI23
aI24
aI-1
aF-1.0
aF-1.0
aF-1.0
asg10
(lp527
F0.003
aF-0.006
aF0.009000000000000001
asba(i__main__
sensor_data_struct
p528
(dp529
g3
(lp530
I553
aI301
aI179
aI1015
aI2581
aF164.0
aI895
aI374
aI243
aI1468
aI2355
aF121.0
asg5
I1
sg6
(lp531
I-1
aI-1
aI-1
aI-1
aI-1
aI-1
asg8
(lp532
I34
aI46
aI-1
aF-1.0
aF-1.0
aF-1.0
aI26
aI28
aI-1
aF-1.0
aF-1.0
aF-1.0
asg10
(lp533
F-0.003
aF0.008
aF0.013999999999999999
asba(i__main__
sensor_data_struct
p534
(dp535
g3
(lp536
I562
aI302
aI182
aI1027
aI2582
aF161.0
aI903
aI355
aI247
aI1446
aI2341
aF86.0
asg5
I0
sg6
(lp537
I-1
aI-1
aI-1
aI-1
aI-1
aI-1
asg8
(lp538
I19
aI27
aI-1
aF-1.0
aF-1.0
aF-1.0
aI24
aI26
aI-1
aF-1.0
aF-1.0
aF-1.0
asg10
(lp539
F0.001
aF-0.002
aF0.002
asba(i__main__
sensor_data_struct
p540
(dp541
g3
(lp542
I553
aI302
aI179
aI1016
aI2581
aF166.0
aI666
aI331
aI203
aI1175
aI2503
aF157.0
asg5
I1
sg6
(lp543
I-1
aI-1
aI-1
aI-1
aI-1
aI-1
asg8
(lp544
I39
aI42
aI-1
aF-1.0
aF-1.0
aF-1.0
aI36
aI37
aI-1
aF-1.0
aF-1.0
aF-1.0
asg10
(lp545
F-0.011000000000000001
aF0.005
aF0.013000000000000001
asba(i__main__
sensor_data_struct
p546
(dp547
g3
(lp548
I557
aI305
aI180
aI1025
aI2584
aF168.0
aI656
aI319
aI200
aI1147
aI2494
aF144.0
asg5
I1
sg6
(lp549
I-1
aI-1
aI-1
aI-1
aI-1
aI-1
asg8
(lp550
I33
aI38
aI-1
aF-1.0
aF-1.0
aF-1.0
aI31
aI38
aI-1
aF-1.0
aF-1.0
aF-1.0
asg10
(lp551
F0.006
aF-0.006999999999999999
aF0.011000000000000001
asba(i__main__
sensor_data_struct
p552
(dp553
g3
(lp554
I557
aI305
aI180
aI1025
aI2584
aF168.0
aI1915
aI503
aI442
aI2692
aI2135
aF65385.0
asg5
I0
sg6
(lp555
I-1
aI-1
aI-1
aI-1
aI-1
aI-1
asg8
(lp556
I47
aI39
aI-1
aF-1.0
aF-1.0
aF-1.0
aI26
aI26
aI-1
aF-1.0
aF-1.0
aF-1.0
asg10
(lp557
F0.006
aF0.006
aF0.008
asba(i__main__
sensor_data_struct
p558
(dp559
g3
(lp560
I570
aI304
aI182
aI1036
aI2561
aF161.0
aI903
aI367
aI244
aI1461
aI2338
aF107.0
asg5
I0
sg6
(lp561
I-1
aI-1
aI-1
aI-1
aI-1
aI-1
asg8
(lp562
I24
aI23
aI-1
aF-1.0
aF-1.0
aF-1.0
aI24
aI24
aI-1
aF-1.0
aF-1.0
aF-1.0
asg10
(lp563
F-0.002
aF0.0
aF0.009000000000000001
asba(i__main__
sensor_data_struct
p564
(dp565
g3
(lp566
I577
aI304
aI183
aI1043
aI2553
aF158.0
aI1350
aI430
aI329
aI2008
aI2208
aF0.0
asg5
I0
sg6
(lp567
I-1
aI-1
aI-1
aI-1
aI-1
aI-1
asg8
(lp568
I31
aI30
aI-1
aF-1.0
aF-1.0
aF-1.0
aI23
aI23
aI-1
aF-1.0
aF-1.0
aF-1.0
asg10
(lp569
F-0.001
aF0.006
aF0.006
asba(i__main__
sensor_data_struct
p570
(dp571
g3
(lp572
I589
aI306
aI186
aI1059
aI2544
aF155.0
aI1031
aI406
aI267
aI1649
aI2301
aF110.0
asg5
I1
sg6
(lp573
I-1
aI-1
aI-1
aI-1
aI-1
aI-1
asg8
(lp574
I31
aI32
aI-1
aF-1.0
aF-1.0
aF-1.0
aI25
aI25
aI-1
aF-1.0
aF-1.0
aF-1.0
asg10
(lp575
F0.002
aF0.004
aF0.012
asba(i__main__
sensor_data_struct
p576
(dp577
g3
(lp578
I688
aI322
aI205
aI1183
aI2462
aF134.0
aI1178
aI412
aI291
aI1803
aI2233
aF54.0
asg5
I0
sg6
(lp579
I-1
aI-1
aI-1
aI-1
aI-1
aI-1
asg8
(lp580
I27
aI23
aI-1
aF-1.0
aF-1.0
aF-1.0
aI25
aI24
aI-1
aF-1.0
aF-1.0
aF-1.0
asg10
(lp581
F-0.003
aF0.004
aF0.003
asba(i__main__
sensor_data_struct
p582
(dp583
g3
(lp584
I702
aI325
aI207
aI1201
aI2451
aF133.0
aI901
aI353
aI248
aI1446
aI2351
aF83.0
asg5
I1
sg6
(lp585
I-1
aI-1
aI-1
aI-1
aI-1
aI-1
asg8
(lp586
I35
aI35
aI-1
aF-1.0
aF-1.0
aF-1.0
aI24
aI25
aI-1
aF-1.0
aF-1.0
aF-1.0
asg10
(lp587
F0.002
aF0.005
aF0.013000000000000001
asba(i__main__
sensor_data_struct
p588
(dp589
g3
(lp590
I588
aI309
aI186
aI1063
aI2551
aF160.0
aI726
aI332
aI212
aI1238
aI2442
aF133.0
asg5
I1
sg6
(lp591
I-1
aI-1
aI-1
aI-1
aI-1
aI-1
asg8
(lp592
I46
aI31
aI-1
aF-1.0
aF-1.0
aF-1.0
aI27
aI29
aI-1
aF-1.0
aF-1.0
aF-1.0
asg10
(lp593
F0.006999999999999999
aF0.0
aF0.015
asba(i__main__
sensor_data_struct
p594
(dp595
g3
(lp596
I669
aI318
aI202
aI1159
aI2480
aF136.0
aI1211
aI430
aI300
aI1864
aI2241
aF65.0
asg5
I0
sg6
(lp597
I-1
aI-1
aI-1
aI-1
aI-1
aI-1
asg8
(lp598
I34
aI30
aI-1
aF-1.0
aF-1.0
aF-1.0
aI25
aI25
aI-1
aF-1.0
aF-1.0
aF-1.0
asg10
(lp599
F0.004
aF0.004
aF0.008
asba(i__main__
sensor_data_struct
p600
(dp601
g3
(lp602
I592
aI307
aI187
aI1065
aI2549
aF155.0
aI579
aI305
aI186
aI1047
aI2564
aF157.0
asg5
I1
sg6
(lp603
I-1
aI-1
aI-1
aI-1
aI-1
aI-1
asg8
(lp604
I56
aI45
aI-1
aF-1.0
aF-1.0
aF-1.0
aI33
aI37
aI-1
aF-1.0
aF-1.0
aF-1.0
asg10
(lp605
F-0.011000000000000001
aF-0.006999999999999999
aF0.015
asba.