(lp0
(i__main__
sensor_data_struct
p1
(dp2
S'color'
p3
(lp4
I575
aI298
aI196
aI1024
aI2589
aF140.0
aI1332
aI420
aI340
aI1962
aI2217
aF65518.0
asS'button'
p5
I0
sS'IR'
p6
(lp7
I-1
aI-1
aI-1
aI-1
aI-1
aI-1
asS'TOF'
p8
(lp9
I25
aI29
aI-1
aF-1.0
aF-1.0
aF-1.0
aI21
aI24
aI-1
aF-1.0
aF-1.0
aF-1.0
asS'pt'
p10
(lp11
F0.004
aF0.002
aF0.0
asba(i__main__
sensor_data_struct
p12
(dp13
g3
(lp14
I597
aI309
aI194
aI1061
aI2544
aF151.0
aI1024
aI402
aI269
aI1623
aI2289
aF105.0
asg5
I0
sg6
(lp15
I-1
aI-1
aI-1
aI-1
aI-1
aI-1
asg8
(lp16
I19
aI32
aI-1
aF-1.0
aF-1.0
aF-1.0
aI23
aI24
aI-1
aF-1.0
aF-1.0
aF-1.0
asg10
(lp17
F0.006999999999999999
aF-0.003
aF0.006999999999999999
asba(i__main__
sensor_data_struct
p18
(dp19
g3
(lp20
I544
aI301
aI184
aI996
aI2603
aF163.0
aI1356
aI427
aI342
aI2002
aI2217
aF65520.0
asg5
I0
sg6
(lp21
I-1
aI-1
aI-1
aI-1
aI-1
aI-1
asg8
(lp22
I29
aI28
aI-1
aF-1.0
aF-1.0
aF-1.0
aI23
aI24
aI-1
aF-1.0
aF-1.0
aF-1.0
asg10
(lp23
F-0.003
aF0.006999999999999999
aF0.005
asba(i__main__
sensor_data_struct
p24
(dp25
g3
(lp26
I545
aI301
aI185
aI996
aI2603
aF162.0
aI805
aI336
aI237
aI1310
aI2394
aF95.0
asg5
I0
sg6
(lp27
I-1
aI-1
aI-1
aI-1
aI-1
aI-1
asg8
(lp28
I17
aI25
aI-1
aF-1.0
aF-1.0
aF-1.0
aI24
aI25
aI-1
aF-1.0
aF-1.0
aF-1.0
asg10
(lp29
F0.0
aF-0.003
aF0.004
asba(i__main__
sensor_data_struct
p30
(dp31
g3
(lp32
I569
aI305
aI189
aI1027
aI2573
aF158.0
aI865
aI349
aI247
aI1391
aI2364
aF89.0
asg5
I0
sg6
(lp33
I-1
aI-1
aI-1
aI-1
aI-1
aI-1
asg8
(lp34
I27
aI33
aI-1
aF-1.0
aF-1.0
aF-1.0
aI24
aI24
aI-1
aF-1.0
aF-1.0
aF-1.0
asg10
(lp35
F-0.003
aF0.004
aF0.011000000000000001
asba(i__main__
sensor_data_struct
p36
(dp37
g3
(lp38
I607
aI311
aI196
aI1075
aI2537
aF150.0
aI1815
aI519
aI434
aI2599
aI2161
aF65449.0
asg5
I0
sg6
(lp39
I-1
aI-1
aI-1
aI-1
aI-1
aI-1
asg8
(lp40
I33
aI34
aI-1
aF-1.0
aF-1.0
aF-1.0
aI22
aI25
aI-1
aF-1.0
aF-1.0
aF-1.0
asg10
(lp41
F0.0
aF0.006
aF0.002
asba(i__main__
sensor_data_struct
p42
(dp43
g3
(lp44
I543
aI301
aI185
aI995
aI2607
aF163.0
aI739
aI366
aI221
aI1285
aI2456
aF176.0
asg5
I1
sg6
(lp45
I-1
aI-1
aI-1
aI-1
aI-1
aI-1
asg8
(lp46
I49
aI48
aI-1
aF-1.0
aF-1.0
aF-1.0
aI35
aI37
aI-1
aF-1.0
aF-1.0
aF-1.0
asg10
(lp47
F-0.011000000000000001
aF0.0
aF0.013999999999999999
asba(i__main__
sensor_data_struct
p48
(dp49
g3
(lp50
I567
aI310
aI187
aI1030
aI2568
aF168.0
aI1117
aI387
aI297
aI1708
aI2283
aF30.0
asg5
I0
sg6
(lp51
I-1
aI-1
aI-1
aI-1
aI-1
aI-1
asg8
(lp52
I44
aI40
aI-1
aF-1.0
aF-1.0
aF-1.0
aI26
aI25
aI-1
aF-1.0
aF-1.0
aF-1.0
asg10
(lp53
F0.005
aF0.006
aF0.012
asba(i__main__
sensor_data_struct
p54
(dp55
g3
(lp56
I620
aI318
aI198
aI1098
aI2525
aF155.0
aI822
aI343
aI239
aI1339
aI2389
aF99.0
asg5
I1
sg6
(lp57
I-1
aI-1
aI-1
aI-1
aI-1
aI-1
asg8
(lp58
I29
aI35
aI-1
aF-1.0
aF-1.0
aF-1.0
aI23
aI25
aI-1
aF-1.0
aF-1.0
aF-1.0
asg10
(lp59
F-0.002
aF0.004
aF0.013000000000000001
asba(i__main__
sensor_data_struct
p60
(dp61
g3
(lp62
I562
aI305
aI189
aI1021
aI2593
aF160.0
aI949
aI397
aI258
aI1545
aI2339
aF129.0
asg5
I1
sg6
(lp63
I-1
aI-1
aI-1
aI-1
aI-1
aI-1
asg8
(lp64
I31
aI45
aI-1
aF-1.0
aF-1.0
aF-1.0
aI24
aI26
aI-1
aF-1.0
aF-1.0
aF-1.0
asg10
(lp65
F-0.006
aF0.01
aF0.013000000000000001
asba(i__main__
sensor_data_struct
p66
(dp67
g3
(lp68
I546
aI303
aI186
aI1001
aI2608
aF164.0
aI599
aI309
aI198
aI1063
aI2557
aF148.0
asg5
I1
sg6
(lp69
I-1
aI-1
aI-1
aI-1
aI-1
aI-1
asg8
(lp70
I39
aI41
aI-1
aF-1.0
aF-1.0
aF-1.0
aI26
aI26
aI-1
aF-1.0
aF-1.0
aF-1.0
asg10
(lp71
F0.0
aF-0.006999999999999999
aF0.015
asba(i__main__
sensor_data_struct
p72
(dp73
g3
(lp74
I542
aI300
aI184
aI992
aI2602
aF162.0
aI993
aI381
aI272
aI1567
aI2321
aF79.0
asg5
I0
sg6
(lp75
I-1
aI-1
aI-1
aI-1
aI-1
aI-1
asg8
(lp76
I38
aI34
aI-1
aF-1.0
aF-1.0
aF-1.0
aI23
aI23
aI-1
aF-1.0
aF-1.0
aF-1.0
asg10
(lp77
F0.006999999999999999
aF0.0
aF0.009000000000000001
asba(i__main__
sensor_data_struct
p78
(dp79
g3
(lp80
I546
aI301
aI185
aI999
aI2605
aF162.0
aI729
aI326
aI223
aI1219
aI2446
aF114.0
asg5
I0
sg6
(lp81
I-1
aI-1
aI-1
aI-1
aI-1
aI-1
asg8
(lp82
I17
aI25
aI-1
aF-1.0
aF-1.0
aF-1.0
aI24
aI25
aI-1
aF-1.0
aF-1.0
aF-1.0
asg10
(lp83
F-0.001
aF-0.005
aF0.005
asba(i__main__
sensor_data_struct
p84
(dp85
g3
(lp86
I559
aI302
aI188
aI1014
aI2593
aF157.0
aI992
aI403
aI265
aI1596
aI2315
aF120.0
asg5
I0
sg6
(lp87
I-1
aI-1
aI-1
aI-1
aI-1
aI-1
asg8
(lp88
I50
aI36
aI-1
aF-1.0
aF-1.0
aF-1.0
aI25
aI25
aI-1
aF-1.0
aF-1.0
aF-1.0
asg10
(lp89
F0.01
aF0.003
aF0.013000000000000001
asba(i__main__
sensor_data_struct
p90
(dp91
g3
(lp92
I554
aI303
aI186
aI1008
aI2590
aF162.0
aI871
aI364
aI246
aI1420
aI2369
aF111.0
asg5
I0
sg6
(lp93
I-1
aI-1
aI-1
aI-1
aI-1
aI-1
asg8
(lp94
I52
aI34
aI-1
aF-1.0
aF-1.0
aF-1.0
aI21
aI25
aI-1
aF-1.0
aF-1.0
aF-1.0
asg10
(lp95
F0.011000000000000001
aF0.0
aF0.012
asba(i__main__
sensor_data_struct
p96
(dp97
g3
(lp98
I559
aI302
aI187
aI1012
aI2581
aF158.0
aI929
aI388
aI252
aI1508
aI2331
aF126.0
asg5
I0
sg6
(lp99
I-1
aI-1
aI-1
aI-1
aI-1
aI-1
asg8
(lp100
I29
aI29
aI-1
aF-1.0
aF-1.0
aF-1.0
aI23
aI25
aI-1
aF-1.0
aF-1.0
aF-1.0
asg10
(lp101
F0.003
aF-0.002
aF0.012
asba(i__main__
sensor_data_struct
p102
(dp103
g3
(lp104
I572
aI305
aI189
aI1030
aI2567
aF157.0
aI1149
aI399
aI303
aI1749
aI2265
aF34.0
asg5
I0
sg6
(lp105
I-1
aI-1
aI-1
aI-1
aI-1
aI-1
asg8
(lp106
I23
aI28
aI-1
aF-1.0
aF-1.0
aF-1.0
aI25
aI25
aI-1
aF-1.0
aF-1.0
aF-1.0
asg10
(lp107
F0.002
aF0.001
aF0.005
asba(i__main__
sensor_data_struct
p108
(dp109
g3
(lp110
I568
aI303
aI189
aI1023
aI2575
aF155.0
aI958
aI362
aI267
aI1502
aI2326
aF64.0
asg5
I0
sg6
(lp111
I-1
aI-1
aI-1
aI-1
aI-1
aI-1
asg8
(lp112
I18
aI26
aI-1
aF-1.0
aF-1.0
aF-1.0
aI23
aI24
aI-1
aF-1.0
aF-1.0
aF-1.0
asg10
(lp113
F0.002
aF-0.002
aF0.0
asba(i__main__
sensor_data_struct
p114
(dp115
g3
(lp116
I560
aI302
aI187
aI1013
aI2578
aF157.0
aI597
aI306
aI196
aI1057
aI2548
aF145.0
asg5
I0
sg6
(lp117
I-1
aI-1
aI-1
aI-1
aI-1
aI-1
asg8
(lp118
I42
aI42
aI-1
aF-1.0
aF-1.0
aF-1.0
aI24
aI26
aI-1
aF-1.0
aF-1.0
aF-1.0
asg10
(lp119
F-0.005
aF-0.011000000000000001
aF0.012
asba(i__main__
sensor_data_struct
p120
(dp121
g3
(lp122
I567
aI307
aI187
aI1025
aI2563
aF163.0
aI681
aI324
aI210
aI1166
aI2469
aF136.0
asg5
I0
sg6
(lp123
I-1
aI-1
aI-1
aI-1
aI-1
aI-1
asg8
(lp124
I27
aI22
aI-1
aF-1.0
aF-1.0
aF-1.0
aI22
aI25
aI-1
aF-1.0
aF-1.0
aF-1.0
asg10
(lp125
F-0.005
aF-0.006
aF0.011000000000000001
asba(i__main__
sensor_data_struct
p126
(dp127
g3
(lp128
I541
aI300
aI183
aI991
aI2602
aF163.0
aI998
aI402
aI274
aI1622
aI2363
aF109.0
asg5
I1
sg6
(lp129
I-1
aI-1
aI-1
aI-1
aI-1
aI-1
asg8
(lp130
I51
aI50
aI-1
aF-1.0
aF-1.0
aF-1.0
aI36
aI37
aI-1
aF-1.0
aF-1.0
aF-1.0
asg10
(lp131
F0.0
aF0.013000000000000001
aF0.013999999999999999
asba(i__main__
sensor_data_struct
p132
(dp133
g3
(lp134
I585
aI313
aI191
aI1056
aI2562
aF164.0
aI1030
aI424
aI279
aI1680
aI2351
aF130.0
asg5
I1
sg6
(lp135
I-1
aI-1
aI-1
aI-1
aI-1
aI-1
asg8
(lp136
I46
aI47
aI-1
aF-1.0
aF-1.0
aF-1.0
aI34
aI36
aI-1
aF-1.0
aF-1.0
aF-1.0
asg10
(lp137
F-0.002
aF0.012
aF0.015
asba(i__main__
sensor_data_struct
p138
(dp139
g3
(lp140
I784
aI338
aI229
aI1292
aI2400
aF111.0
aI1288
aI437
aI318
aI1940
aI2213
aF38.0
asg5
I0
sg6
(lp141
I-1
aI-1
aI-1
aI-1
aI-1
aI-1
asg8
(lp142
I30
aI29
aI-1
aF-1.0
aF-1.0
aF-1.0
aI24
aI24
aI-1
aF-1.0
aF-1.0
aF-1.0
asg10
(lp143
F-0.001
aF0.005
aF0.003
asba(i__main__
sensor_data_struct
p144
(dp145
g3
(lp146
I601
aI311
aI195
aI1068
aI2543
aF153.0
aI680
aI329
aI212
aI1175
aI2487
aF143.0
asg5
I1
sg6
(lp147
I-1
aI-1
aI-1
aI-1
aI-1
aI-1
asg8
(lp148
I31
aI46
aI-1
aF-1.0
aF-1.0
aF-1.0
aI28
aI31
aI-1
aF-1.0
aF-1.0
aF-1.0
asg10
(lp149
F-0.008
aF0.006999999999999999
aF0.015
asba(i__main__
sensor_data_struct
p150
(dp151
g3
(lp152
I544
aI300
aI185
aI995
aI2605
aF161.0
aI995
aI373
aI270
aI1555
aI2305
aF68.0
asg5
I0
sg6
(lp153
I-1
aI-1
aI-1
aI-1
aI-1
aI-1
asg8
(lp154
I21
aI30
aI-1
aF-1.0
aF-1.0
aF-1.0
aI23
aI24
aI-1
aF-1.0
aF-1.0
aF-1.0
asg10
(lp155
F0.006
aF-0.001
aF0.005
asba(i__main__
sensor_data_struct
p156
(dp157
g3
(lp158
I603
aI308
aI196
aI1065
aI2536
aF146.0
aI1000
aI385
aI266
aI1573
aI2290
aF88.0
asg5
I0
sg6
(lp159
I-1
aI-1
aI-1
aI-1
aI-1
aI-1
asg8
(lp160
I19
aI23
aI-1
aF-1.0
aF-1.0
aF-1.0
aI24
aI25
aI-1
aF-1.0
aF-1.0
aF-1.0
asg10
(lp161
F-0.002
aF-0.004
aF0.001
asba(i__main__
sensor_data_struct
p162
(dp163
g3
(lp164
I553
aI301
aI185
aI1005
aI2585
aF160.0
aI1877
aI505
aI444
aI2644
aI2144
aF65399.0
asg5
I0
sg6
(lp165
I-1
aI-1
aI-1
aI-1
aI-1
aI-1
asg8
(lp166
I35
aI36
aI-1
aF-1.0
aF-1.0
aF-1.0
aI24
aI25
aI-1
aF-1.0
aF-1.0
aF-1.0
asg10
(lp167
F0.002
aF0.006
aF0.006999999999999999
asba(i__main__
sensor_data_struct
p168
(dp169
g3
(lp170
I565
aI304
aI188
aI1020
aI2575
aF158.0
aI989
aI393
aI265
aI1578
aI2312
aF105.0
asg5
I0
sg6
(lp171
I-1
aI-1
aI-1
aI-1
aI-1
aI-1
asg8
(lp172
I26
aI39
aI-1
aF-1.0
aF-1.0
aF-1.0
aI23
aI24
aI-1
aF-1.0
aF-1.0
aF-1.0
asg10
(lp173
F-0.002
aF0.005
aF0.012
asba(i__main__
sensor_data_struct
p174
(dp175
g3
(lp176
I568
aI305
aI188
aI1025
aI2568
aF159.0
aI900
aI360
aI250
aI1438
aI2334
aF93.0
asg5
I0
sg6
(lp177
I-1
aI-1
aI-1
aI-1
aI-1
aI-1
asg8
(lp178
I23
aI19
aI-1
aF-1.0
aF-1.0
aF-1.0
aI24
aI25
aI-1
aF-1.0
aF-1.0
aF-1.0
asg10
(lp179
F-0.003
aF0.0
aF0.006
asba(i__main__
sensor_data_struct
p180
(dp181
g3
(lp182
I667
aI317
aI208
aI1143
aI2481
aF131.0
aI1117
aI407
aI286
aI1724
aI2253
aF70.0
asg5
I0
sg6
(lp183
I-1
aI-1
aI-1
aI-1
aI-1
aI-1
asg8
(lp184
I18
aI27
aI-1
aF-1.0
aF-1.0
aF-1.0
aI22
aI25
aI-1
aF-1.0
aF-1.0
aF-1.0
asg10
(lp185
F0.003
aF-0.002
aF0.001
asba(i__main__
sensor_data_struct
p186
(dp187
g3
(lp188
I586
aI306
aI192
aI1044
aI2548
aF152.0
aI975
aI367
aI266
aI1525
aI2308
aF68.0
asg5
I0
sg6
(lp189
I-1
aI-1
aI-1
aI-1
aI-1
aI-1
asg8
(lp190
I22
aI23
aI-1
aF-1.0
aF-1.0
aF-1.0
aI23
aI24
aI-1
aF-1.0
aF-1.0
aF-1.0
asg10
(lp191
F-0.001
aF0.0
aF0.0
asba(i__main__
sensor_data_struct
p192
(dp193
g3
(lp194
I576
aI306
aI190
aI1034
aI2560
aF156.0
aI607
aI314
aI198
aI1077
aI2541
aF153.0
asg5
I1
sg6
(lp195
I-1
aI-1
aI-1
aI-1
aI-1
aI-1
asg8
(lp196
I52
aI46
aI-1
aF-1.0
aF-1.0
aF-1.0
aI27
aI29
aI-1
aF-1.0
aF-1.0
aF-1.0
asg10
(lp197
F-0.002
aF-0.009000000000000001
aF0.015
asba(i__main__
sensor_data_struct
p198
(dp199
g3
(lp200
I591
aI308
aI193
aI1053
aI2549
aF153.0
aI1327
aI435
aI332
aI1979
aI2216
aF12.0
asg5
I0
sg6
(lp201
I-1
aI-1
aI-1
aI-1
aI-1
aI-1
asg8
(lp202
I30
aI31
aI-1
aF-1.0
aF-1.0
aF-1.0
aI24
aI25
aI-1
aF-1.0
aF-1.0
aF-1.0
asg10
(lp203
F0.006999999999999999
aF0.002
aF0.004
asba(i__main__
sensor_data_struct
p204
(dp205
g3
(lp206
I545
aI301
aI185
aI995
aI2598
aF162.0
aI800
aI382
aI230
aI1370
aI2413
aF174.0
asg5
I1
sg6
(lp207
I-1
aI-1
aI-1
aI-1
aI-1
aI-1
asg8
(lp208
I57
aI49
aI-1
aF-1.0
aF-1.0
aF-1.0
aI38
aI31
aI-1
aF-1.0
aF-1.0
aF-1.0
asg10
(lp209
F-0.01
aF-0.006
aF0.013999999999999999
asba(i__main__
sensor_data_struct
p210
(dp211
g3
(lp212
I632
aI316
aI204
aI1103
aI2518
aF144.0
aI1122
aI418
aI288
aI1741
aI2256
aF84.0
asg5
I0
sg6
(lp213
I-1
aI-1
aI-1
aI-1
aI-1
aI-1
asg8
(lp214
I19
aI21
aI-1
aF-1.0
aF-1.0
aF-1.0
aI23
aI24
aI-1
aF-1.0
aF-1.0
aF-1.0
asg10
(lp215
F-0.003
aF-0.004
aF0.002
asba(i__main__
sensor_data_struct
p216
(dp217
g3
(lp218
I579
aI308
aI191
aI1039
aI2561
aF158.0
aI767
aI333
aI230
aI1264
aI2413
aF108.0
asg5
I0
sg6
(lp219
I-1
aI-1
aI-1
aI-1
aI-1
aI-1
asg8
(lp220
I21
aI21
aI-1
aF-1.0
aF-1.0
aF-1.0
aI25
aI25
aI-1
aF-1.0
aF-1.0
aF-1.0
asg10
(lp221
F-0.003
aF-0.003
aF0.003
asba(i__main__
sensor_data_struct
p222
(dp223
g3
(lp224
I582
aI306
aI191
aI1041
aI2554
aF154.0
aI1366
aI444
aI341
aI2031
aI2210
aF7.0
asg5
I0
sg6
(lp225
I-1
aI-1
aI-1
aI-1
aI-1
aI-1
asg8
(lp226
I28
aI29
aI-1
aF-1.0
aF-1.0
aF-1.0
aI23
aI25
aI-1
aF-1.0
aF-1.0
aF-1.0
asg10
(lp227
F0.002
aF0.003
aF0.006
asba(i__main__
sensor_data_struct
p228
(dp229
g3
(lp230
I554
aI303
aI186
aI1008
aI2590
aF162.0
aI940
aI379
aI258
aI1509
aI2332
aF104.0
asg5
I0
sg6
(lp231
I-1
aI-1
aI-1
aI-1
aI-1
aI-1
asg8
(lp232
I30
aI26
aI-1
aF-1.0
aF-1.0
aF-1.0
aI23
aI24
aI-1
aF-1.0
aF-1.0
aF-1.0
asg10
(lp233
F-0.006999999999999999
aF0.005
aF0.008
asba(i__main__
sensor_data_struct
p234
(dp235
g3
(lp236
I568
aI304
aI189
aI1025
aI2575
aF157.0
aI1440
aI453
aI355
aI2120
aI2196
aF65524.0
asg5
I0
sg6
(lp237
I-1
aI-1
aI-1
aI-1
aI-1
aI-1
asg8
(lp238
I29
aI32
aI-1
aF-1.0
aF-1.0
aF-1.0
aI21
aI25
aI-1
aF-1.0
aF-1.0
aF-1.0
asg10
(lp239
F0.001
aF0.004
aF0.006999999999999999
asba(i__main__
sensor_data_struct
p240
(dp241
g3
(lp242
I563
aI304
aI188
aI1019
aI2579
aF159.0
aI822
aI340
aI240
aI1332
aI2383
aF94.0
asg5
I0
sg6
(lp243
I-1
aI-1
aI-1
aI-1
aI-1
aI-1
asg8
(lp244
I19
aI21
aI-1
aF-1.0
aF-1.0
aF-1.0
aI21
aI23
aI-1
aF-1.0
aF-1.0
aF-1.0
asg10
(lp245
F-0.002
aF-0.002
aF0.0
asba(i__main__
sensor_data_struct
p246
(dp247
g3
(lp248
I743
aI331
aI224
aI1242
aI2435
aF117.0
aI1535
aI480
aI376
aI2255
aI2190
aF65521.0
asg5
I0
sg6
(lp249
I-1
aI-1
aI-1
aI-1
aI-1
aI-1
asg8
(lp250
I32
aI30
aI-1
aF-1.0
aF-1.0
aF-1.0
aI23
aI25
aI-1
aF-1.0
aF-1.0
aF-1.0
asg10
(lp251
F0.003
aF0.003
aF0.002
asba(i__main__
sensor_data_struct
p252
(dp253
g3
(lp254
I565
aI304
aI188
aI1021
aI2575
aF158.0
aI1206
aI414
aI313
aI1832
aI2257
aF32.0
asg5
I0
sg6
(lp255
I-1
aI-1
aI-1
aI-1
aI-1
aI-1
asg8
(lp256
I38
aI34
aI-1
aF-1.0
aF-1.0
aF-1.0
aI22
aI24
aI-1
aF-1.0
aF-1.0
aF-1.0
asg10
(lp257
F0.006
aF0.003
aF0.009000000000000001
asba(i__main__
sensor_data_struct
p258
(dp259
g3
(lp260
I538
aI300
aI183
aI987
aI2604
aF164.0
aI641
aI329
aI204
aI1136
aI2524
aF161.0
asg5
I1
sg6
(lp261
I-1
aI-1
aI-1
aI-1
aI-1
aI-1
asg8
(lp262
I47
aI48
aI-1
aF-1.0
aF-1.0
aF-1.0
aI32
aI39
aI-1
aF-1.0
aF-1.0
aF-1.0
asg10
(lp263
F-0.012
aF0.001
aF0.013999999999999999
asba(i__main__
sensor_data_struct
p264
(dp265
g3
(lp266
I558
aI304
aI186
aI1013
aI2581
aF162.0
aI1292
aI435
aI330
aI1947
aI2238
aF25.0
asg5
I0
sg6
(lp267
I-1
aI-1
aI-1
aI-1
aI-1
aI-1
asg8
(lp268
I35
aI34
aI-1
aF-1.0
aF-1.0
aF-1.0
aI22
aI25
aI-1
aF-1.0
aF-1.0
aF-1.0
asg10
(lp269
F0.003
aF0.004
aF0.009000000000000001
asba(i__main__
sensor_data_struct
p270
(dp271
g3
(lp272
I557
aI305
aI187
aI1012
aI2585
aF163.0
aI916
aI371
aI255
aI1468
aI2335
aF101.0
asg5
I0
sg6
(lp273
I-1
aI-1
aI-1
aI-1
aI-1
aI-1
asg8
(lp274
I18
aI30
aI-1
aF-1.0
aF-1.0
aF-1.0
aI23
aI22
aI-1
aF-1.0
aF-1.0
aF-1.0
asg10
(lp275
F0.004
aF-0.003
aF0.006999999999999999
asba(i__main__
sensor_data_struct
p276
(dp277
g3
(lp278
I550
aI303
aI185
aI1002
aI2586
aF164.0
aI1198
aI406
aI312
aI1817
aI2263
aF23.0
asg5
I0
sg6
(lp279
I-1
aI-1
aI-1
aI-1
aI-1
aI-1
asg8
(lp280
I35
aI44
aI-1
aF-1.0
aF-1.0
aF-1.0
aI23
aI24
aI-1
aF-1.0
aF-1.0
aF-1.0
asg10
(lp281
F-0.002
aF0.009000000000000001
aF0.01
asba(i__main__
sensor_data_struct
p282
(dp283
g3
(lp284
I744
aI343
aI221
aI1260
aI2433
aF138.0
aI790
aI346
aI235
aI1325
aI2444
aF117.0
asg5
I1
sg6
(lp285
I-1
aI-1
aI-1
aI-1
aI-1
aI-1
asg8
(lp286
I51
aI46
aI-1
aF-1.0
aF-1.0
aF-1.0
aI33
aI38
aI-1
aF-1.0
aF-1.0
aF-1.0
asg10
(lp287
F-0.003
aF0.013000000000000001
aF0.015
asba(i__main__
sensor_data_struct
p288
(dp289
g3
(lp290
I571
aI307
aI190
aI1030
aI2571
aF160.0
aI1125
aI391
aI296
aI1711
aI2262
aF35.0
asg5
I0
sg6
(lp291
I-1
aI-1
aI-1
aI-1
aI-1
aI-1
asg8
(lp292
I26
aI24
aI-1
aF-1.0
aF-1.0
aF-1.0
aI23
aI24
aI-1
aF-1.0
aF-1.0
aF-1.0
asg10
(lp293
F-0.002
aF0.003
aF0.001
asba(i__main__
sensor_data_struct
p294
(dp295
g3
(lp296
I726
aI331
aI219
aI1221
aI2437
aF126.0
aI1052
aI380
aI279
aI1638
aI2302
aF54.0
asg5
I1
sg6
(lp297
I-1
aI-1
aI-1
aI-1
aI-1
aI-1
asg8
(lp298
I48
aI46
aI-1
aF-1.0
aF-1.0
aF-1.0
aI33
aI37
aI-1
aF-1.0
aF-1.0
aF-1.0
asg10
(lp299
F0.005
aF0.01
aF0.013999999999999999
asba(i__main__
sensor_data_struct
p300
(dp301
g3
(lp302
I690
aI328
aI211
aI1183
aI2464
aF139.0
aI2575
aI653
aI575
aI3588
aI2113
aF65310.0
asg5
I1
sg6
(lp303
I-1
aI-1
aI-1
aI-1
aI-1
aI-1
asg8
(lp304
I43
aI46
aI-1
aF-1.0
aF-1.0
aF-1.0
aI35
aI37
aI-1
aF-1.0
aF-1.0
aF-1.0
asg10
(lp305
F0.002
aF0.009000000000000001
aF0.009000000000000001
asba(i__main__
sensor_data_struct
p306
(dp307
g3
(lp308
I571
aI309
aI191
aI1031
aI2573
aF162.0
aI900
aI402
aI252
aI1498
aI2369
aF157.0
asg5
I1
sg6
(lp309
I-1
aI-1
aI-1
aI-1
aI-1
aI-1
asg8
(lp310
I34
aI30
aI-1
aF-1.0
aF-1.0
aF-1.0
aI28
aI21
aI-1
aF-1.0
aF-1.0
aF-1.0
asg10
(lp311
F-0.009000000000000001
aF0.0
aF0.012
asba(i__main__
sensor_data_struct
p312
(dp313
g3
(lp314
I544
aI304
aI185
aI999
aI2605
aF167.0
aI634
aI319
aI204
aI1111
aI2519
aF148.0
asg5
I1
sg6
(lp315
I-1
aI-1
aI-1
aI-1
aI-1
aI-1
asg8
(lp316
I35
aI40
aI-1
aF-1.0
aF-1.0
aF-1.0
aI25
aI40
aI-1
aF-1.0
aF-1.0
aF-1.0
asg10
(lp317
F0.006999999999999999
aF-0.008
aF0.01
asba(i__main__
sensor_data_struct
p318
(dp319
g3
(lp320
I564
aI307
aI188
aI1023
aI2577
aF163.0
aI994
aI388
aI269
aI1573
aI2308
aF92.0
asg5
I0
sg6
(lp321
I-1
aI-1
aI-1
aI-1
aI-1
aI-1
asg8
(lp322
I29
aI27
aI-1
aF-1.0
aF-1.0
aF-1.0
aI21
aI25
aI-1
aF-1.0
aF-1.0
aF-1.0
asg10
(lp323
F0.004
aF0.0
aF0.01
asba(i__main__
sensor_data_struct
p324
(dp325
g3
(lp326
I626
aI320
aI199
aI1104
aI2516
aF156.0
aI872
aI353
aI249
aI1399
aI2358
aF91.0
asg5
I0
sg6
(lp327
I-1
aI-1
aI-1
aI-1
aI-1
aI-1
asg8
(lp328
I20
aI30
aI-1
aF-1.0
aF-1.0
aF-1.0
aI22
aI23
aI-1
aF-1.0
aF-1.0
aF-1.0
asg10
(lp329
F0.004
aF-0.002
aF0.009000000000000001
asba(i__main__
sensor_data_struct
p330
(dp331
g3
(lp332
I551
aI305
aI186
aI1005
aI2591
aF166.0
aI790
aI356
aI231
aI1324
aI2413
aF136.0
asg5
I1
sg6
(lp333
I-1
aI-1
aI-1
aI-1
aI-1
aI-1
asg8
(lp334
I31
aI46
aI-1
aF-1.0
aF-1.0
aF-1.0
aI24
aI29
aI-1
aF-1.0
aF-1.0
aF-1.0
asg10
(lp335
F-0.006
aF0.005
aF0.013999999999999999
asba(i__main__
sensor_data_struct
p336
(dp337
g3
(lp338
I565
aI309
aI188
aI1026
aI2575
aF166.0
aI617
aI314
aI201
aI1086
aI2532
aF148.0
asg5
I1
sg6
(lp339
I-1
aI-1
aI-1
aI-1
aI-1
aI-1
asg8
(lp340
I38
aI37
aI-1
aF-1.0
aF-1.0
aF-1.0
aI25
aI30
aI-1
aF-1.0
aF-1.0
aF-1.0
asg10
(lp341
F0.003
aF-0.006999999999999999
aF0.015
asba(i__main__
sensor_data_struct
p342
(dp343
g3
(lp344
I565
aI307
aI189
aI1023
aI2577
aF162.0
aI893
aI382
aI247
aI1459
aI2345
aF132.0
asg5
I0
sg6
(lp345
I-1
aI-1
aI-1
aI-1
aI-1
aI-1
asg8
(lp346
I37
aI22
aI-1
aF-1.0
aF-1.0
aF-1.0
aI23
aI22
aI-1
aF-1.0
aF-1.0
aF-1.0
asg10
(lp347
F-0.006
aF-0.004
aF0.01
asba(i__main__
sensor_data_struct
p348
(dp349
g3
(lp350
I548
aI305
aI186
aI1002
aI2598
aF167.0
aI1335
aI451
aI334
aI2030
aI2244
aF33.0
asg5
I1
sg6
(lp351
I-1
aI-1
aI-1
aI-1
aI-1
aI-1
asg8
(lp352
I48
aI47
aI-1
aF-1.0
aF-1.0
aF-1.0
aI33
aI36
aI-1
aF-1.0
aF-1.0
aF-1.0
asg10
(lp353
F0.002
aF0.011000000000000001
aF0.013000000000000001
asba(i__main__
sensor_data_struct
p354
(dp355
g3
(lp356
I567
aI309
aI189
aI1028
aI2577
aF165.0
aI781
aI353
aI229
aI1306
aI2408
aF135.0
asg5
I1
sg6
(lp357
I-1
aI-1
aI-1
aI-1
aI-1
aI-1
asg8
(lp358
I22
aI23
aI-1
aF-1.0
aF-1.0
aF-1.0
aI22
aI23
aI-1
aF-1.0
aF-1.0
aF-1.0
asg10
(lp359
F-0.003
aF-0.001
aF0.013000000000000001
asba(i__main__
sensor_data_struct
p360
(dp361
g3
(lp362
I588
aI313
aI192
aI1055
aI2549
aF162.0
aI1863
aI507
aI439
aI2632
aI2144
aF65411.0
asg5
I0
sg6
(lp363
I-1
aI-1
aI-1
aI-1
aI-1
aI-1
asg8
(lp364
I34
aI38
aI-1
aF-1.0
aF-1.0
aF-1.0
aI23
aI25
aI-1
aF-1.0
aF-1.0
aF-1.0
asg10
(lp365
F0.001
aF0.006
aF0.006
asba(i__main__
sensor_data_struct
p366
(dp367
g3
(lp368
I556
aI305
aI187
aI1012
aI2587
aF164.0
aI676
aI321
aI212
aI1156
aI2481
aF132.0
asg5
I0
sg6
(lp369
I-1
aI-1
aI-1
aI-1
aI-1
aI-1
asg8
(lp370
I14
aI32
aI-1
aF-1.0
aF-1.0
aF-1.0
aI22
aI25
aI-1
aF-1.0
aF-1.0
aF-1.0
asg10
(lp371
F0.0
aF-0.006999999999999999
aF0.006999999999999999
asba(i__main__
sensor_data_struct
p372
(dp373
g3
(lp374
I586
aI311
aI193
aI1050
aI2555
aF159.0
aI997
aI400
aI265
aI1593
aI2304
aF113.0
asg5
I0
sg6
(lp375
I-1
aI-1
aI-1
aI-1
aI-1
aI-1
asg8
(lp376
I30
aI18
aI-1
aF-1.0
aF-1.0
aF-1.0
aI23
aI25
aI-1
aF-1.0
aF-1.0
aF-1.0
asg10
(lp377
F-0.008
aF0.003
aF0.008
asba(i__main__
sensor_data_struct
p378
(dp379
g3
(lp380
I805
aI364
aI230
aI1346
aI2388
aF144.0
aI736
aI336
aI221
aI1238
aI2433
aF129.0
asg5
I1
sg6
(lp381
I-1
aI-1
aI-1
aI-1
aI-1
aI-1
asg8
(lp382
I30
aI41
aI-1
aF-1.0
aF-1.0
aF-1.0
aI24
aI25
aI-1
aF-1.0
aF-1.0
aF-1.0
asg10
(lp383
F-0.006
aF0.004
aF0.013000000000000001
asba(i__main__
sensor_data_struct
p384
(dp385
g3
(lp386
I590
aI313
aI197
aI1052
aI2555
aF158.0
aI1025
aI399
aI274
aI1612
aI2287
aF96.0
asg5
I0
sg6
(lp387
I-1
aI-1
aI-1
aI-1
aI-1
aI-1
asg8
(lp388
I16
aI26
aI-1
aF-1.0
aF-1.0
aF-1.0
aI25
aI25
aI-1
aF-1.0
aF-1.0
aF-1.0
asg10
(lp389
F-0.002
aF-0.006
aF0.004
asba(i__main__
sensor_data_struct
p390
(dp391
g3
(lp392
I657
aI329
aI209
aI1141
aI2491
aF153.0
aI613
aI317
aI203
aI1078
aI2535
aF152.0
asg5
I1
sg6
(lp393
I-1
aI-1
aI-1
aI-1
aI-1
aI-1
asg8
(lp394
I36
aI42
aI-1
aF-1.0
aF-1.0
aF-1.0
aI23
aI27
aI-1
aF-1.0
aF-1.0
aF-1.0
asg10
(lp395
F0.0
aF-0.009000000000000001
aF0.013000000000000001
asba(i__main__
sensor_data_struct
p396
(dp397
g3
(lp398
I612
aI327
aI199
aI1092
aI2529
aF171.0
aI590
aI315
aI198
aI1053
aI2557
aF160.0
asg5
I1
sg6
(lp399
I-1
aI-1
aI-1
aI-1
aI-1
aI-1
asg8
(lp400
I55
aI45
aI-1
aF-1.0
aF-1.0
aF-1.0
aI33
aI38
aI-1
aF-1.0
aF-1.0
aF-1.0
asg10
(lp401
F-0.011000000000000001
aF-0.008
aF0.015
asba(i__main__
sensor_data_struct
p402
(dp403
g3
(lp404
I573
aI315
aI192
aI1035
aI2566
aF170.0
aI759
aI355
aI226
aI1279
aI2415
aF148.0
asg5
I1
sg6
(lp405
I-1
aI-1
aI-1
aI-1
aI-1
aI-1
asg8
(lp406
I38
aI34
aI-1
aF-1.0
aF-1.0
aF-1.0
aI22
aI24
aI-1
aF-1.0
aF-1.0
aF-1.0
asg10
(lp407
F-0.006999999999999999
aF-0.008
aF0.013000000000000001
asba(i__main__
sensor_data_struct
p408
(dp409
g3
(lp410
I570
aI311
aI193
aI1027
aI2575
aF164.0
aI983
aI400
aI269
aI1572
aI2316
aF115.0
asg5
I0
sg6
(lp411
I-1
aI-1
aI-1
aI-1
aI-1
aI-1
asg8
(lp412
I29
aI31
aI-1
aF-1.0
aF-1.0
aF-1.0
aI21
aI24
aI-1
aF-1.0
aF-1.0
aF-1.0
asg10
(lp413
F0.006
aF-0.002
aF0.01
asba(i__main__
sensor_data_struct
p414
(dp415
g3
(lp416
I720
aI333
aI223
aI1210
aI2444
aF128.0
aI1198
aI426
aI307
aI1823
aI2233
aF58.0
asg5
I0
sg6
(lp417
I-1
aI-1
aI-1
aI-1
aI-1
aI-1
asg8
(lp418
I26
aI22
aI-1
aF-1.0
aF-1.0
aF-1.0
aI22
aI23
aI-1
aF-1.0
aF-1.0
aF-1.0
asg10
(lp419
F-0.001
aF0.001
aF0.001
asba(i__main__
sensor_data_struct
p420
(dp421
g3
(lp422
I561
aI310
aI192
aI1015
aI2582
aF166.0
aI874
aI372
aI251
aI1424
aI2368
aF119.0
asg5
I0
sg6
(lp423
I-1
aI-1
aI-1
aI-1
aI-1
aI-1
asg8
(lp424
I29
aI35
aI-1
aF-1.0
aF-1.0
aF-1.0
aI23
aI23
aI-1
aF-1.0
aF-1.0
aF-1.0
asg10
(lp425
F-0.006999999999999999
aF0.006999999999999999
aF0.011000000000000001
asba(i__main__
sensor_data_struct
p426
(dp427
g3
(lp428
I805
aI373
aI236
aI1353
aI2403
aF154.0
aI783
aI349
aI237
aI1300
aI2423
aF123.0
asg5
I1
sg6
(lp429
I-1
aI-1
aI-1
aI-1
aI-1
aI-1
asg8
(lp430
I32
aI42
aI-1
aF-1.0
aF-1.0
aF-1.0
aI23
aI27
aI-1
aF-1.0
aF-1.0
aF-1.0
asg10
(lp431
F-0.008
aF0.009000000000000001
aF0.012
asba(i__main__
sensor_data_struct
p432
(dp433
g3
(lp434
I548
aI310
aI192
aI1003
aI2617
aF170.0
aI616
aI323
aI206
aI1090
aI2548
aF159.0
asg5
I1
sg6
(lp435
I-1
aI-1
aI-1
aI-1
aI-1
aI-1
asg8
(lp436
I55
aI43
aI-1
aF-1.0
aF-1.0
aF-1.0
aI34
aI38
aI-1
aF-1.0
aF-1.0
aF-1.0
asg10
(lp437
F0.009000000000000001
aF-0.006999999999999999
aF0.013000000000000001
asba(i__main__
sensor_data_struct
p438
(dp439
g3
(lp440
I566
aI314
aI194
aI1025
aI2586
aF169.0
aI1588
aI470
aI394
aI2287
aI2180
aF65474.0
asg5
I0
sg6
(lp441
I-1
aI-1
aI-1
aI-1
aI-1
aI-1
asg8
(lp442
I33
aI31
aI-1
aF-1.0
aF-1.0
aF-1.0
aI24
aI24
aI-1
aF-1.0
aF-1.0
aF-1.0
asg10
(lp443
F0.001
aF0.004
aF0.005
asba(i__main__
sensor_data_struct
p444
(dp445
g3
(lp446
I629
aI322
aI207
aI1100
aI2521
aF152.0
aI1068
aI415
aI283
aI1673
aI2274
aF101.0
asg5
I0
sg6
(lp447
I-1
aI-1
aI-1
aI-1
aI-1
aI-1
asg8
(lp448
I20
aI22
aI-1
aF-1.0
aF-1.0
aF-1.0
aI24
aI25
aI-1
aF-1.0
aF-1.0
aF-1.0
asg10
(lp449
F-0.001
aF-0.002
aF0.006999999999999999
asba(i__main__
sensor_data_struct
p450
(dp451
g3
(lp452
I559
aI313
aI194
aI1016
aI2596
aF170.0
aI792
aI374
aI237
aI1342
aI2426
aF159.0
asg5
I1
sg6
(lp453
I-1
aI-1
aI-1
aI-1
aI-1
aI-1
asg8
(lp454
I35
aI45
aI-1
aF-1.0
aF-1.0
aF-1.0
aI27
aI32
aI-1
aF-1.0
aF-1.0
aF-1.0
asg10
(lp455
F-0.011000000000000001
aF0.006999999999999999
aF0.015
asba(i__main__
sensor_data_struct
p456
(dp457
g3
(lp458
I662
aI327
aI215
aI1140
aI2497
aF143.0
aI1120
aI421
aI295
aI1735
aI2263
aF84.0
asg5
I0
sg6
(lp459
I-1
aI-1
aI-1
aI-1
aI-1
aI-1
asg8
(lp460
I19
aI24
aI-1
aF-1.0
aF-1.0
aF-1.0
aI23
aI25
aI-1
aF-1.0
aF-1.0
aF-1.0
asg10
(lp461
F0.0
aF-0.002
aF0.003
asba(i__main__
sensor_data_struct
p462
(dp463
g3
(lp464
I594
aI319
aI201
aI1058
aI2555
aF163.0
aI984
aI395
aI271
aI1561
aI2311
aF105.0
asg5
I0
sg6
(lp465
I-1
aI-1
aI-1
aI-1
aI-1
aI-1
asg8
(lp466
I28
aI17
aI-1
aF-1.0
aF-1.0
aF-1.0
aI23
aI24
aI-1
aF-1.0
aF-1.0
aF-1.0
asg10
(lp467
F-0.005
aF0.002
aF0.006999999999999999
asba(i__main__
sensor_data_struct
p468
(dp469
g3
(lp470
I600
aI320
aI202
aI1064
aI2545
aF162.0
aI1048
aI404
aI283
aI1637
aI2283
aF90.0
asg5
I0
sg6
(lp471
I-1
aI-1
aI-1
aI-1
aI-1
aI-1
asg8
(lp472
I27
aI20
aI-1
aF-1.0
aF-1.0
aF-1.0
aI23
aI26
aI-1
aF-1.0
aF-1.0
aF-1.0
asg10
(lp473
F-0.003
aF0.002
aF0.006999999999999999
asba(i__main__
sensor_data_struct
p474
(dp475
g3
(lp476
I565
aI314
aI196
aI1021
aI2587
aF168.0
aI799
aI382
aI238
aI1354
aI2414
aF169.0
asg5
I1
sg6
(lp477
I-1
aI-1
aI-1
aI-1
aI-1
aI-1
asg8
(lp478
I20
aI39
aI-1
aF-1.0
aF-1.0
aF-1.0
aI14
aI35
aI-1
aF-1.0
aF-1.0
aF-1.0
asg10
(lp479
F0.001
aF-0.009000000000000001
aF0.01
asba(i__main__
sensor_data_struct
p480
(dp481
g3
(lp482
I580
aI315
aI197
aI1038
aI2562
aF164.0
aI1152
aI410
aI306
aI1753
aI2257
aF49.0
asg5
I0
sg6
(lp483
I-1
aI-1
aI-1
aI-1
aI-1
aI-1
asg8
(lp484
I27
aI32
aI-1
aF-1.0
aF-1.0
aF-1.0
aI23
aI27
aI-1
aF-1.0
aF-1.0
aF-1.0
asg10
(lp485
F0.006
aF0.0
aF0.004
asba(i__main__
sensor_data_struct
p486
(dp487
g3
(lp488
I562
aI313
aI195
aI1016
aI2587
aF168.0
aI777
aI367
aI233
aI1311
aI2415
aF156.0
asg5
I1
sg6
(lp489
I-1
aI-1
aI-1
aI-1
aI-1
aI-1
asg8
(lp490
I44
aI43
aI-1
aF-1.0
aF-1.0
aF-1.0
aI23
aI27
aI-1
aF-1.0
aF-1.0
aF-1.0
asg10
(lp491
F-0.006999999999999999
aF-0.005
aF0.013999999999999999
asba(i__main__
sensor_data_struct
p492
(dp493
g3
(lp494
I578
aI316
aI198
aI1037
aI2573
aF166.0
aI932
aI405
aI260
aI1518
aI2333
aF146.0
asg5
I0
sg6
(lp495
I-1
aI-1
aI-1
aI-1
aI-1
aI-1
asg8
(lp496
I23
aI31
aI-1
aF-1.0
aF-1.0
aF-1.0
aI24
aI23
aI-1
aF-1.0
aF-1.0
aF-1.0
asg10
(lp497
F0.0
aF-0.006999999999999999
aF0.012
asba(i__main__
sensor_data_struct
p498
(dp499
g3
(lp500
I570
aI316
aI196
aI1027
aI2576
aF170.0
aI793
aI352
aI241
aI1308
aI2411
aF121.0
asg5
I0
sg6
(lp501
I-1
aI-1
aI-1
aI-1
aI-1
aI-1
asg8
(lp502
I30
aI34
aI-1
aF-1.0
aF-1.0
aF-1.0
aI22
aI23
aI-1
aF-1.0
aF-1.0
aF-1.0
asg10
(lp503
F-0.008
aF0.005
aF0.01
asba(i__main__
sensor_data_struct
p504
(dp505
g3
(lp506
I629
aI324
aI210
aI1098
aI2526
aF153.0
aI1088
aI420
aI291
aI1697
aI2272
aF96.0
asg5
I0
sg6
(lp507
I-1
aI-1
aI-1
aI-1
aI-1
aI-1
asg8
(lp508
I22
aI24
aI-1
aF-1.0
aF-1.0
aF-1.0
aI24
aI23
aI-1
aF-1.0
aF-1.0
aF-1.0
asg10
(lp509
F-0.003
aF-0.003
aF0.004
asba(i__main__
sensor_data_struct
p510
(dp511
g3
(lp512
I570
aI317
aI198
aI1029
aI2586
aF170.0
aI1159
aI450
aI307
aI1827
aI2289
aF109.0
asg5
I1
sg6
(lp513
I-1
aI-1
aI-1
aI-1
aI-1
aI-1
asg8
(lp514
I50
aI51
aI-1
aF-1.0
aF-1.0
aF-1.0
aI34
aI38
aI-1
aF-1.0
aF-1.0
aF-1.0
asg10
(lp515
F0.005
aF0.01
aF0.015
asba(i__main__
sensor_data_struct
p516
(dp517
g3
(lp518
I572
aI321
aI199
aI1036
aI2588
aF175.0
aI789
aI351
aI243
aI1301
aI2419
aF119.0
asg5
I0
sg6
(lp519
I-1
aI-1
aI-1
aI-1
aI-1
aI-1
asg8
(lp520
I33
aI33
aI-1
aF-1.0
aF-1.0
aF-1.0
aI20
aI24
aI-1
aF-1.0
aF-1.0
aF-1.0
asg10
(lp521
F0.009000000000000001
aF-0.002
aF0.01
asba(i__main__
sensor_data_struct
p522
(dp523
g3
(lp524
I580
aI319
aI200
aI1041
aI2573
aF168.0
aI1012
aI405
aI283
aI1603
aI2319
aF103.0
asg5
I0
sg6
(lp525
I-1
aI-1
aI-1
aI-1
aI-1
aI-1
asg8
(lp526
I40
aI33
aI-1
aF-1.0
aF-1.0
aF-1.0
aI23
aI24
aI-1
aF-1.0
aF-1.0
aF-1.0
asg10
(lp527
F0.008
aF0.001
aF0.01
asba(i__main__
sensor_data_struct
p528
(dp529
g3
(lp530
I569
aI317
aI199
aI1025
aI2585
aF169.0
aI782
aI345
aI241
aI1279
aI2408
aF114.0
asg5
I0
sg6
(lp531
I-1
aI-1
aI-1
aI-1
aI-1
aI-1
asg8
(lp532
I22
aI21
aI-1
aF-1.0
aF-1.0
aF-1.0
aI22
aI24
aI-1
aF-1.0
aF-1.0
aF-1.0
asg10
(lp533
F-0.004
aF-0.004
aF0.002
asba(i__main__
sensor_data_struct
p534
(dp535
g3
(lp536
I580
aI319
aI201
aI1038
aI2570
aF168.0
aI885
aI390
aI256
aI1449
aI2361
aF140.0
asg5
I1
sg6
(lp537
I-1
aI-1
aI-1
aI-1
aI-1
aI-1
asg8
(lp538
I23
aI26
aI-1
aF-1.0
aF-1.0
aF-1.0
aI22
aI23
aI-1
aF-1.0
aF-1.0
aF-1.0
asg10
(lp539
F0.0
aF-0.002
aF0.013000000000000001
asba(i__main__
sensor_data_struct
p540
(dp541
g3
(lp542
I581
aI322
aI201
aI1042
aI2568
aF172.0
aI700
aI359
aI225
aI1215
aI2483
aF174.0
asg5
I1
sg6
(lp543
I-1
aI-1
aI-1
aI-1
aI-1
aI-1
asg8
(lp544
I50
aI45
aI-1
aF-1.0
aF-1.0
aF-1.0
aI34
aI37
aI-1
aF-1.0
aF-1.0
aF-1.0
asg10
(lp545
F-0.01
aF-0.004
aF0.015
asba(i__main__
sensor_data_struct
p546
(dp547
g3
(lp548
I587
aI322
aI202
aI1049
aI2562
aF169.0
aI903
aI406
aI257
aI1490
aI2355
aF159.0
asg5
I1
sg6
(lp549
I-1
aI-1
aI-1
aI-1
aI-1
aI-1
asg8
(lp550
I29
aI29
aI-1
aF-1.0
aF-1.0
aF-1.0
aI25
aI26
aI-1
aF-1.0
aF-1.0
aF-1.0
asg10
(lp551
F0.0
aF-0.003
aF0.015
asba(i__main__
sensor_data_struct
p552
(dp553
g3
(lp554
I594
aI323
aI203
aI1058
aI2554
aF168.0
aI891
aI377
aI257
aI1436
aI2349
aF117.0
asg5
I0
sg6
(lp555
I-1
aI-1
aI-1
aI-1
aI-1
aI-1
asg8
(lp556
I21
aI19
aI-1
aF-1.0
aF-1.0
aF-1.0
aI23
aI25
aI-1
aF-1.0
aF-1.0
aF-1.0
asg10
(lp557
F-0.003
aF-0.003
aF0.006999999999999999
asba(i__main__
sensor_data_struct
p558
(dp559
g3
(lp560
I638
aI328
aI211
aI1113
aI2516
aF156.0
aI1046
aI425
aI284
aI1661
aI2294
aF123.0
asg5
I0
sg6
(lp561
I-1
aI-1
aI-1
aI-1
aI-1
aI-1
asg8
(lp562
I27
aI30
aI-1
aF-1.0
aF-1.0
aF-1.0
aI21
aI24
aI-1
aF-1.0
aF-1.0
aF-1.0
asg10
(lp563
F-0.003
aF0.003
aF0.011000000000000001
asba(i__main__
sensor_data_struct
p564
(dp565
g3
(lp566
I616
aI327
aI206
aI1087
aI2530
aF165.0
aI1394
aI446
aI356
aI2047
aI2204
aF65527.0
asg5
I0
sg6
(lp567
I-1
aI-1
aI-1
aI-1
aI-1
aI-1
asg8
(lp568
I30
aI32
aI-1
aF-1.0
aF-1.0
aF-1.0
aI24
aI23
aI-1
aF-1.0
aF-1.0
aF-1.0
asg10
(lp569
F-0.001
aF0.005
aF0.006999999999999999
asba(i__main__
sensor_data_struct
p570
(dp571
g3
(lp572
I575
aI320
aI201
aI1033
aI2581
aF171.0
aI839
aI380
aI250
aI1386
aI2388
aF144.0
asg5
I1
sg6
(lp573
I-1
aI-1
aI-1
aI-1
aI-1
aI-1
asg8
(lp574
I21
aI26
aI-1
aF-1.0
aF-1.0
aF-1.0
aI23
aI25
aI-1
aF-1.0
aF-1.0
aF-1.0
asg10
(lp575
F0.0
aF-0.003
aF0.013000000000000001
asba(i__main__
sensor_data_struct
p576
(dp577
g3
(lp578
I675
aI346
aI218
aI1174
aI2493
aF167.0
aI865
aI361
aI258
aI1389
aI2373
aF100.0
asg5
I1
sg6
(lp579
I-1
aI-1
aI-1
aI-1
aI-1
aI-1
asg8
(lp580
I24
aI29
aI-1
aF-1.0
aF-1.0
aF-1.0
aI22
aI24
aI-1
aF-1.0
aF-1.0
aF-1.0
asg10
(lp581
F0.001
aF0.002
aF0.012
asba(i__main__
sensor_data_struct
p582
(dp583
g3
(lp584
I575
aI320
aI200
aI1036
aI2584
aF172.0
aI982
aI411
aI277
aI1585
aI2343
aF127.0
asg5
I1
sg6
(lp585
I-1
aI-1
aI-1
aI-1
aI-1
aI-1
asg8
(lp586
I38
aI45
aI-1
aF-1.0
aF-1.0
aF-1.0
aI27
aI28
aI-1
aF-1.0
aF-1.0
aF-1.0
asg10
(lp587
F-0.004
aF0.011000000000000001
aF0.013999999999999999
asba(i__main__
sensor_data_struct
p588
(dp589
g3
(lp590
I578
aI320
aI199
aI1042
aI2580
aF171.0
aI846
aI381
aI249
aI1400
aI2385
aF144.0
asg5
I1
sg6
(lp591
I-1
aI-1
aI-1
aI-1
aI-1
aI-1
asg8
(lp592
I25
aI36
aI-1
aF-1.0
aF-1.0
aF-1.0
aI25
aI28
aI-1
aF-1.0
aF-1.0
aF-1.0
asg10
(lp593
F-0.003
aF0.003
aF0.015
asba(i__main__
sensor_data_struct
p594
(dp595
g3
(lp596
I582
aI324
aI203
aI1047
aI2580
aF173.0
aI848
aI362
aI256
aI1371
aI2385
aF108.0
asg5
I0
sg6
(lp597
I-1
aI-1
aI-1
aI-1
aI-1
aI-1
asg8
(lp598
I22
aI32
aI-1
aF-1.0
aF-1.0
aF-1.0
aI22
aI22
aI-1
aF-1.0
aF-1.0
aF-1.0
asg10
(lp599
F0.006999999999999999
aF-0.002
aF0.008
asba(i__main__
sensor_data_struct
p600
(dp601
g3
(lp602
I567
aI316
aI197
aI1026
aI2590
aF170.0
aI1090
aI402
aI296
aI1685
aI2289
aF63.0
asg5
I0
sg6
(lp603
I-1
aI-1
aI-1
aI-1
aI-1
aI-1
asg8
(lp604
I36
aI46
aI-1
aF-1.0
aF-1.0
aF-1.0
aI23
aI24
aI-1
aF-1.0
aF-1.0
aF-1.0
asg10
(lp605
F0.0
aF0.006999999999999999
aF0.012
asba.