(lp0
(i__main__
sensor_data_struct
p1
(dp2
S'color'
p3
(lp4
I579
aI308
aI202
aI1034
aI2598
aF150.0
aI1042
aI406
aI279
aI1638
aI2288
aF98.0
asS'button'
p5
I0
sS'IR'
p6
(lp7
I-1
aI-1
aI-1
aI-1
aI-1
aI-1
asS'TOF'
p8
(lp9
I21
aI20
aI-1
aF-1.0
aF-1.0
aF-1.0
aI23
aI24
aI-1
aF-1.0
aF-1.0
aF-1.0
asS'pt'
p10
(lp11
F-0.004
aF-0.004
aF0.004
asba(i__main__
sensor_data_struct
p12
(dp13
g3
(lp14
I550
aI305
aI189
aI1002
aI2600
aF164.0
aI839
aI369
aI243
aI1389
aI2390
aF132.0
asg5
I0
sg6
(lp15
I-1
aI-1
aI-1
aI-1
aI-1
aI-1
asg8
(lp16
I32
aI32
aI-1
aF-1.0
aF-1.0
aF-1.0
aI23
aI24
aI-1
aF-1.0
aF-1.0
aF-1.0
asg10
(lp17
F-0.009000000000000001
aF0.005
aF0.011000000000000001
asba(i__main__
sensor_data_struct
p18
(dp19
g3
(lp20
I533
aI303
aI188
aI980
aI2628
aF167.0
aI767
aI340
aI235
aI1272
aI2431
aF115.0
asg5
I0
sg6
(lp21
I-1
aI-1
aI-1
aI-1
aI-1
aI-1
asg8
(lp22
I37
aI35
aI-1
aF-1.0
aF-1.0
aF-1.0
aI22
aI26
aI-1
aF-1.0
aF-1.0
aF-1.0
asg10
(lp23
F0.009000000000000001
aF-0.002
aF0.011000000000000001
asba(i__main__
sensor_data_struct
p24
(dp25
g3
(lp26
I544
aI308
aI193
aI994
aI2624
aF168.0
aI679
aI333
aI223
aI1168
aI2511
aF141.0
asg5
I1
sg6
(lp27
I-1
aI-1
aI-1
aI-1
aI-1
aI-1
asg8
(lp28
I33
aI49
aI-1
aF-1.0
aF-1.0
aF-1.0
aI24
aI25
aI-1
aF-1.0
aF-1.0
aF-1.0
asg10
(lp29
F-0.009000000000000001
aF0.006999999999999999
aF0.013999999999999999
asba(i__main__
sensor_data_struct
p30
(dp31
g3
(lp32
I644
aI329
aI214
aI1123
aI2524
aF153.0
aI2250
aI625
aI527
aI3211
aI2154
aF65407.0
asg5
I1
sg6
(lp33
I-1
aI-1
aI-1
aI-1
aI-1
aI-1
asg8
(lp34
I45
aI47
aI-1
aF-1.0
aF-1.0
aF-1.0
aI34
aI40
aI-1
aF-1.0
aF-1.0
aF-1.0
asg10
(lp35
F0.002
aF0.01
aF0.01
asba(i__main__
sensor_data_struct
p36
(dp37
g3
(lp38
I715
aI338
aI228
aI1204
aI2460
aF134.0
aI1301
aI449
aI339
aI1954
aI2230
aF38.0
asg5
I0
sg6
(lp39
I-1
aI-1
aI-1
aI-1
aI-1
aI-1
asg8
(lp40
I24
aI29
aI-1
aF-1.0
aF-1.0
aF-1.0
aI24
aI24
aI-1
aF-1.0
aF-1.0
aF-1.0
asg10
(lp41
F0.004
aF0.002
aF0.001
asba(i__main__
sensor_data_struct
p42
(dp43
g3
(lp44
I565
aI315
aI200
aI1019
aI2601
aF167.0
aI783
aI354
aI240
aI1295
aI2412
aF128.0
asg5
I0
sg6
(lp45
I-1
aI-1
aI-1
aI-1
aI-1
aI-1
asg8
(lp46
I25
aI18
aI-1
aF-1.0
aF-1.0
aF-1.0
aI23
aI24
aI-1
aF-1.0
aF-1.0
aF-1.0
asg10
(lp47
F-0.005
aF-0.004
aF0.006999999999999999
asba(i__main__
sensor_data_struct
p48
(dp49
g3
(lp50
I549
aI312
aI196
aI999
aI2614
aF170.0
aI894
aI393
aI258
aI1464
aI2363
aF141.0
asg5
I0
sg6
(lp51
I-1
aI-1
aI-1
aI-1
aI-1
aI-1
asg8
(lp52
I49
aI35
aI-1
aF-1.0
aF-1.0
aF-1.0
aI21
aI26
aI-1
aF-1.0
aF-1.0
aF-1.0
asg10
(lp53
F0.011000000000000001
aF-0.001
aF0.013000000000000001
asba(i__main__
sensor_data_struct
p54
(dp55
g3
(lp56
I554
aI314
aI197
aI1006
aI2610
aF171.0
aI665
aI333
aI220
aI1148
aI2509
aF148.0
asg5
I1
sg6
(lp57
I-1
aI-1
aI-1
aI-1
aI-1
aI-1
asg8
(lp58
I43
aI45
aI-1
aF-1.0
aF-1.0
aF-1.0
aI31
aI27
aI-1
aF-1.0
aF-1.0
aF-1.0
asg10
(lp59
F-0.008
aF0.001
aF0.013999999999999999
asba(i__main__
sensor_data_struct
p60
(dp61
g3
(lp62
I546
aI313
aI196
aI997
aI2621
aF173.0
aI927
aI383
aI267
aI1491
aI2356
aF108.0
asg5
I1
sg6
(lp63
I-1
aI-1
aI-1
aI-1
aI-1
aI-1
asg8
(lp64
I49
aI43
aI-1
aF-1.0
aF-1.0
aF-1.0
aI27
aI28
aI-1
aF-1.0
aF-1.0
aF-1.0
asg10
(lp65
F0.01
aF0.004
aF0.013999999999999999
asba(i__main__
sensor_data_struct
p66
(dp67
g3
(lp68
I560
aI316
aI198
aI1015
aI2603
aF172.0
aI723
aI358
aI227
aI1238
aI2454
aF164.0
asg5
I1
sg6
(lp69
I-1
aI-1
aI-1
aI-1
aI-1
aI-1
asg8
(lp70
I56
aI47
aI-1
aF-1.0
aF-1.0
aF-1.0
aI26
aI28
aI-1
aF-1.0
aF-1.0
aF-1.0
asg10
(lp71
F-0.009000000000000001
aF-0.006999999999999999
aF0.015
asba(i__main__
sensor_data_struct
p72
(dp73
g3
(lp74
I570
aI317
aI198
aI1029
aI2586
aF170.0
aI928
aI389
aI266
aI1499
aI2354
aF118.0
asg5
I1
sg6
(lp75
I-1
aI-1
aI-1
aI-1
aI-1
aI-1
asg8
(lp76
I35
aI46
aI-1
aF-1.0
aF-1.0
aF-1.0
aI23
aI28
aI-1
aF-1.0
aF-1.0
aF-1.0
asg10
(lp77
F-0.002
aF0.009000000000000001
aF0.013999999999999999
asba(i__main__
sensor_data_struct
p78
(dp79
g3
(lp80
I583
aI318
aI201
aI1043
aI2573
aF165.0
aI889
aI369
aI259
aI1423
aI2350
aF104.0
asg5
I0
sg6
(lp81
I-1
aI-1
aI-1
aI-1
aI-1
aI-1
asg8
(lp82
I19
aI24
aI-1
aF-1.0
aF-1.0
aF-1.0
aI22
aI26
aI-1
aF-1.0
aF-1.0
aF-1.0
asg10
(lp83
F-0.002
aF-0.004
aF0.001
asba(i__main__
sensor_data_struct
p84
(dp85
g3
(lp86
I561
aI315
aI198
aI1014
aI2596
aF170.0
aI674
aI343
aI221
aI1168
aI2500
aF160.0
asg5
I1
sg6
(lp87
I-1
aI-1
aI-1
aI-1
aI-1
aI-1
asg8
(lp88
I22
aI44
aI-1
aF-1.0
aF-1.0
aF-1.0
aI21
aI37
aI-1
aF-1.0
aF-1.0
aF-1.0
asg10
(lp89
F0.003
aF-0.01
aF0.01
asba(i__main__
sensor_data_struct
p90
(dp91
g3
(lp92
I677
aI357
aI218
aI1190
aI2493
aF184.0
aI624
aI328
aI214
aI1092
aI2539
aF158.0
asg5
I1
sg6
(lp93
I-1
aI-1
aI-1
aI-1
aI-1
aI-1
asg8
(lp94
I48
aI42
aI-1
aF-1.0
aF-1.0
aF-1.0
aI34
aI38
aI-1
aF-1.0
aF-1.0
aF-1.0
asg10
(lp95
F0.006
aF-0.01
aF0.013000000000000001
asba(i__main__
sensor_data_struct
p96
(dp97
g3
(lp98
I672
aI338
aI220
aI1156
aI2489
aF154.0
aI1201
aI439
aI319
aI1832
aI2248
aF69.0
asg5
I0
sg6
(lp99
I-1
aI-1
aI-1
aI-1
aI-1
aI-1
asg8
(lp100
I23
aI31
aI-1
aF-1.0
aF-1.0
aF-1.0
aI22
aI23
aI-1
aF-1.0
aF-1.0
aF-1.0
asg10
(lp101
F0.006999999999999999
aF0.0
aF0.005
asba(i__main__
sensor_data_struct
p102
(dp103
g3
(lp104
I613
aI326
aI205
aI1082
aI2530
aF165.0
aI882
aI376
aI257
aI1431
aI2366
aF119.0
asg5
I1
sg6
(lp105
I-1
aI-1
aI-1
aI-1
aI-1
aI-1
asg8
(lp106
I45
aI33
aI-1
aF-1.0
aF-1.0
aF-1.0
aI22
aI26
aI-1
aF-1.0
aF-1.0
aF-1.0
asg10
(lp107
F0.009000000000000001
aF0.001
aF0.013000000000000001
asba(i__main__
sensor_data_struct
p108
(dp109
g3
(lp110
I568
aI318
aI197
aI1027
aI2583
aF173.0
aI1475
aI466
aI370
aI2185
aI2219
aF65522.0
asg5
I1
sg6
(lp111
I-1
aI-1
aI-1
aI-1
aI-1
aI-1
asg8
(lp112
I48
aI47
aI-1
aF-1.0
aF-1.0
aF-1.0
aI32
aI38
aI-1
aF-1.0
aF-1.0
aF-1.0
asg10
(lp113
F0.002
aF0.011000000000000001
aF0.012
asba(i__main__
sensor_data_struct
p114
(dp115
g3
(lp116
I577
aI320
aI199
aI1037
aI2572
aF172.0
aI774
aI387
aI236
aI1331
aI2434
aF186.0
asg5
I1
sg6
(lp117
I-1
aI-1
aI-1
aI-1
aI-1
aI-1
asg8
(lp118
I50
aI44
aI-1
aF-1.0
aF-1.0
aF-1.0
aI33
aI36
aI-1
aF-1.0
aF-1.0
aF-1.0
asg10
(lp119
F-0.01
aF-0.004
aF0.015
asba(i__main__
sensor_data_struct
p120
(dp121
g3
(lp122
I573
aI320
aI198
aI1033
aI2574
aF174.0
aI824
aI357
aI249
aI1340
aI2388
aF113.0
asg5
I0
sg6
(lp123
I-1
aI-1
aI-1
aI-1
aI-1
aI-1
asg8
(lp124
I16
aI31
aI-1
aF-1.0
aF-1.0
aF-1.0
aI24
aI23
aI-1
aF-1.0
aF-1.0
aF-1.0
asg10
(lp125
F0.005
aF-0.003
aF0.006999999999999999
asba(i__main__
sensor_data_struct
p126
(dp127
g3
(lp128
I584
aI320
aI201
aI1044
aI2567
aF168.0
aI877
aI392
aI254
aI1444
aI2368
aF148.0
asg5
I1
sg6
(lp129
I-1
aI-1
aI-1
aI-1
aI-1
aI-1
asg8
(lp130
I30
aI31
aI-1
aF-1.0
aF-1.0
aF-1.0
aI22
aI26
aI-1
aF-1.0
aF-1.0
aF-1.0
asg10
(lp131
F0.001
aF-0.003
aF0.013999999999999999
asba(i__main__
sensor_data_struct
p132
(dp133
g3
(lp134
I598
aI322
aI204
aI1062
aI2553
aF164.0
aI1027
aI402
aI283
aI1608
aI2293
aF93.0
asg5
I0
sg6
(lp135
I-1
aI-1
aI-1
aI-1
aI-1
aI-1
asg8
(lp136
I17
aI30
aI-1
aF-1.0
aF-1.0
aF-1.0
aI24
aI25
aI-1
aF-1.0
aF-1.0
aF-1.0
asg10
(lp137
F0.006
aF-0.003
aF0.004
asba(i__main__
sensor_data_struct
p138
(dp139
g3
(lp140
I593
aI321
aI203
aI1055
aI2557
aF165.0
aI1010
aI412
aI278
aI1610
aI2310
aF118.0
asg5
I0
sg6
(lp141
I-1
aI-1
aI-1
aI-1
aI-1
aI-1
asg8
(lp142
I29
aI31
aI-1
aF-1.0
aF-1.0
aF-1.0
aI23
aI25
aI-1
aF-1.0
aF-1.0
aF-1.0
asg10
(lp143
F-0.006
aF0.005
aF0.01
asba(i__main__
sensor_data_struct
p144
(dp145
g3
(lp146
I584
aI319
aI202
aI1043
aI2569
aF166.0
aI947
aI396
aI265
aI1518
aI2320
aF123.0
asg5
I0
sg6
(lp147
I-1
aI-1
aI-1
aI-1
aI-1
aI-1
asg8
(lp148
I29
aI17
aI-1
aF-1.0
aF-1.0
aF-1.0
aI22
aI25
aI-1
aF-1.0
aF-1.0
aF-1.0
asg10
(lp149
F-0.006
aF-0.003
aF0.008
asba(i__main__
sensor_data_struct
p150
(dp151
g3
(lp152
I585
aI319
aI202
aI1043
aI2567
aF165.0
aI917
aI410
aI260
aI1508
aI2350
aF159.0
asg5
I1
sg6
(lp153
I-1
aI-1
aI-1
aI-1
aI-1
aI-1
asg8
(lp154
I27
aI29
aI-1
aF-1.0
aF-1.0
aF-1.0
aI26
aI29
aI-1
aF-1.0
aF-1.0
aF-1.0
asg10
(lp155
F0.0
aF-0.003
aF0.015
asba(i__main__
sensor_data_struct
p156
(dp157
g3
(lp158
I592
aI320
aI203
aI1054
aI2563
aF164.0
aI1115
aI425
aI301
aI1733
aI2277
aF88.0
asg5
I0
sg6
(lp159
I-1
aI-1
aI-1
aI-1
aI-1
aI-1
asg8
(lp160
I34
aI31
aI-1
aF-1.0
aF-1.0
aF-1.0
aI23
aI24
aI-1
aF-1.0
aF-1.0
aF-1.0
asg10
(lp161
F0.009000000000000001
aF0.001
aF0.008
asba(i__main__
sensor_data_struct
p162
(dp163
g3
(lp164
I576
aI317
aI199
aI1034
aI2575
aF167.0
aI1205
aI413
aI320
aI1807
aI2243
aF26.0
asg5
I0
sg6
(lp165
I-1
aI-1
aI-1
aI-1
aI-1
aI-1
asg8
(lp166
I26
aI26
aI-1
aF-1.0
aF-1.0
aF-1.0
aI23
aI24
aI-1
aF-1.0
aF-1.0
aF-1.0
asg10
(lp167
F-0.001
aF0.003
aF0.005
asba(i__main__
sensor_data_struct
p168
(dp169
g3
(lp170
I663
aI331
aI216
aI1142
aI2493
aF149.0
aI1158
aI433
aI304
aI1786
aI2253
aF84.0
asg5
I0
sg6
(lp171
I-1
aI-1
aI-1
aI-1
aI-1
aI-1
asg8
(lp172
I27
aI21
aI-1
aF-1.0
aF-1.0
aF-1.0
aI22
aI23
aI-1
aF-1.0
aF-1.0
aF-1.0
asg10
(lp173
F-0.003
aF0.003
aF0.006
asba(i__main__
sensor_data_struct
p174
(dp175
g3
(lp176
I564
aI315
aI197
aI1019
aI2592
aF169.0
aI1153
aI402
aI312
aI1739
aI2258
aF31.0
asg5
I0
sg6
(lp177
I-1
aI-1
aI-1
aI-1
aI-1
aI-1
asg8
(lp178
I25
aI30
aI-1
aF-1.0
aF-1.0
aF-1.0
aI25
aI25
aI-1
aF-1.0
aF-1.0
aF-1.0
asg10
(lp179
F0.006
aF0.0
aF0.004
asba(i__main__
sensor_data_struct
p180
(dp181
g3
(lp182
I574
aI317
aI199
aI1031
aI2579
aF168.0
aI818
aI375
aI243
aI1359
aI2392
aF148.0
asg5
I0
sg6
(lp183
I-1
aI-1
aI-1
aI-1
aI-1
aI-1
asg8
(lp184
I16
aI37
aI-1
aF-1.0
aF-1.0
aF-1.0
aI23
aI25
aI-1
aF-1.0
aF-1.0
aF-1.0
asg10
(lp185
F0.002
aF-0.008
aF0.011000000000000001
asba(i__main__
sensor_data_struct
p186
(dp187
g3
(lp188
I583
aI321
aI200
aI1044
aI2562
aF170.0
aI714
aI346
aI225
aI1213
aI2453
aF149.0
asg5
I1
sg6
(lp189
I-1
aI-1
aI-1
aI-1
aI-1
aI-1
asg8
(lp190
I29
aI27
aI-1
aF-1.0
aF-1.0
aF-1.0
aI25
aI26
aI-1
aF-1.0
aF-1.0
aF-1.0
asg10
(lp191
F-0.003
aF-0.005
aF0.013000000000000001
asba(i__main__
sensor_data_struct
p192
(dp193
g3
(lp194
I615
aI325
aI207
aI1084
aI2539
aF161.0
aI1017
aI422
aI278
aI1630
aI2310
aF132.0
asg5
I0
sg6
(lp195
I-1
aI-1
aI-1
aI-1
aI-1
aI-1
asg8
(lp196
I28
aI31
aI-1
aF-1.0
aF-1.0
aF-1.0
aI24
aI22
aI-1
aF-1.0
aF-1.0
aF-1.0
asg10
(lp197
F-0.006999999999999999
aF0.005
aF0.011000000000000001
asba(i__main__
sensor_data_struct
p198
(dp199
g3
(lp200
I590
aI323
aI201
aI1056
aI2559
aF171.0
aI771
aI354
aI236
aI1283
aI2416
aF135.0
asg5
I0
sg6
(lp201
I-1
aI-1
aI-1
aI-1
aI-1
aI-1
asg8
(lp202
I29
aI15
aI-1
aF-1.0
aF-1.0
aF-1.0
aI24
aI25
aI-1
aF-1.0
aF-1.0
aF-1.0
asg10
(lp203
F-0.006999999999999999
aF-0.001
aF0.009000000000000001
asba(i__main__
sensor_data_struct
p204
(dp205
g3
(lp206
I569
aI317
aI197
aI1026
aI2581
aF171.0
aI2394
aI605
aI559
aI3312
aI2122
aF65305.0
asg5
I1
sg6
(lp207
I-1
aI-1
aI-1
aI-1
aI-1
aI-1
asg8
(lp208
I50
aI44
aI-1
aF-1.0
aF-1.0
aF-1.0
aI33
aI40
aI-1
aF-1.0
aF-1.0
aF-1.0
asg10
(lp209
F0.005
aF0.008
aF0.009000000000000001
asba(i__main__
sensor_data_struct
p210
(dp211
g3
(lp212
I584
aI320
aI198
aI1050
aI2565
aF170.0
aI786
aI360
aI235
aI1312
aI2409
aF141.0
asg5
I1
sg6
(lp213
I-1
aI-1
aI-1
aI-1
aI-1
aI-1
asg8
(lp214
I28
aI36
aI-1
aF-1.0
aF-1.0
aF-1.0
aI24
aI28
aI-1
aF-1.0
aF-1.0
aF-1.0
asg10
(lp215
F-0.004
aF0.003
aF0.015
asba(i__main__
sensor_data_struct
p216
(dp217
g3
(lp218
I599
aI322
aI199
aI1071
aI2550
aF168.0
aI1309
aI429
aI336
aI1954
aI2232
aF6.0
asg5
I1
sg6
(lp219
I-1
aI-1
aI-1
aI-1
aI-1
aI-1
asg8
(lp220
I43
aI43
aI-1
aF-1.0
aF-1.0
aF-1.0
aI33
aI37
aI-1
aF-1.0
aF-1.0
aF-1.0
asg10
(lp221
F0.004
aF0.008
aF0.012
asba(i__main__
sensor_data_struct
p222
(dp223
g3
(lp224
I609
aI326
aI202
aI1085
aI2541
aF168.0
aI1457
aI459
aI367
aI2154
aI2219
aF65519.0
asg5
I1
sg6
(lp225
I-1
aI-1
aI-1
aI-1
aI-1
aI-1
asg8
(lp226
I45
aI44
aI-1
aF-1.0
aF-1.0
aF-1.0
aI34
aI36
aI-1
aF-1.0
aF-1.0
aF-1.0
asg10
(lp227
F-0.002
aF0.011000000000000001
aF0.011000000000000001
asba(i__main__
sensor_data_struct
p228
(dp229
g3
(lp230
I721
aI337
aI225
aI1214
aI2450
aF133.0
aI1259
aI444
aI321
aI1910
aI2227
aF57.0
asg5
I0
sg6
(lp231
I-1
aI-1
aI-1
aI-1
aI-1
aI-1
asg8
(lp232
I28
aI31
aI-1
aF-1.0
aF-1.0
aF-1.0
aI23
aI25
aI-1
aF-1.0
aF-1.0
aF-1.0
asg10
(lp233
F0.005
aF0.002
aF0.005
asba(i__main__
sensor_data_struct
p234
(dp235
g3
(lp236
I659
aI329
aI213
aI1139
aI2495
aF149.0
aI1111
aI427
aI292
aI1734
aI2265
aF99.0
asg5
I0
sg6
(lp237
I-1
aI-1
aI-1
aI-1
aI-1
aI-1
asg8
(lp238
I28
aI14
aI-1
aF-1.0
aF-1.0
aF-1.0
aI23
aI21
aI-1
aF-1.0
aF-1.0
aF-1.0
asg10
(lp239
F-0.006999999999999999
aF0.003
aF0.005
asba(i__main__
sensor_data_struct
p240
(dp241
g3
(lp242
I589
aI323
aI203
aI1055
aI2570
aF170.0
aI726
aI360
aI230
aI1243
aI2462
aF164.0
asg5
I1
sg6
(lp243
I-1
aI-1
aI-1
aI-1
aI-1
aI-1
asg8
(lp244
I44
aI12
aI-1
aF-1.0
aF-1.0
aF-1.0
aI35
aI10
aI-1
aF-1.0
aF-1.0
aF-1.0
asg10
(lp245
F-0.01
aF-0.001
aF0.009000000000000001
asba(i__main__
sensor_data_struct
p246
(dp247
g3
(lp248
I568
aI318
aI200
aI1027
aI2599
aF171.0
aI906
aI400
aI260
aI1485
aI2358
aF146.0
asg5
I1
sg6
(lp249
I-1
aI-1
aI-1
aI-1
aI-1
aI-1
asg8
(lp250
I46
aI32
aI-1
aF-1.0
aF-1.0
aF-1.0
aI22
aI24
aI-1
aF-1.0
aF-1.0
aF-1.0
asg10
(lp251
F0.009000000000000001
aF-0.003
aF0.013000000000000001
asba(i__main__
sensor_data_struct
p252
(dp253
g3
(lp254
I606
aI321
aI204
aI1072
aI2546
aF160.0
aI994
aI398
aI272
aI1575
aI2305
aF106.0
asg5
I0
sg6
(lp255
I-1
aI-1
aI-1
aI-1
aI-1
aI-1
asg8
(lp256
I14
aI28
aI-1
aF-1.0
aF-1.0
aF-1.0
aI23
aI23
aI-1
aF-1.0
aF-1.0
aF-1.0
asg10
(lp257
F0.001
aF-0.005
aF0.005
asba(i__main__
sensor_data_struct
p258
(dp259
g3
(lp260
I574
aI313
aI194
aI1033
aI2568
aF165.0
aI937
aI389
aI262
aI1510
aI2337
aF118.0
asg5
I1
sg6
(lp261
I-1
aI-1
aI-1
aI-1
aI-1
aI-1
asg8
(lp262
I30
aI38
aI-1
aF-1.0
aF-1.0
aF-1.0
aI22
aI26
aI-1
aF-1.0
aF-1.0
aF-1.0
asg10
(lp263
F-0.001
aF0.004
aF0.013000000000000001
asba(i__main__
sensor_data_struct
p264
(dp265
g3
(lp266
I575
aI316
aI196
aI1037
aI2575
aF168.0
aI851
aI412
aI248
aI1453
aI2406
aF192.0
asg5
I1
sg6
(lp267
I-1
aI-1
aI-1
aI-1
aI-1
aI-1
asg8
(lp268
I36
aI43
aI-1
aF-1.0
aF-1.0
aF-1.0
aI33
aI36
aI-1
aF-1.0
aF-1.0
aF-1.0
asg10
(lp269
F-0.01
aF0.004
aF0.013000000000000001
asba(i__main__
sensor_data_struct
p270
(dp271
g3
(lp272
I683
aI355
aI214
aI1202
aI2485
aF181.0
aI834
aI357
aI245
aI1367
aI2395
aF113.0
asg5
I1
sg6
(lp273
I-1
aI-1
aI-1
aI-1
aI-1
aI-1
asg8
(lp274
I41
aI45
aI-1
aF-1.0
aF-1.0
aF-1.0
aI35
aI36
aI-1
aF-1.0
aF-1.0
aF-1.0
asg10
(lp275
F-0.003
aF0.011000000000000001
aF0.015
asba(i__main__
sensor_data_struct
p276
(dp277
g3
(lp278
I812
aI390
aI240
aI1390
aI2428
aF176.0
aI659
aI331
aI213
aI1146
aI2508
aF152.0
asg5
I1
sg6
(lp279
I-1
aI-1
aI-1
aI-1
aI-1
aI-1
asg8
(lp280
I39
aI45
aI-1
aF-1.0
aF-1.0
aF-1.0
aI24
aI27
aI-1
aF-1.0
aF-1.0
aF-1.0
asg10
(lp281
F-0.01
aF0.004
aF0.013999999999999999
asba(i__main__
sensor_data_struct
p282
(dp283
g3
(lp284
I608
aI329
aI203
aI1089
aI2554
aF173.0
aI718
aI338
aI225
aI1212
aI2454
aF135.0
asg5
I0
sg6
(lp285
I-1
aI-1
aI-1
aI-1
aI-1
aI-1
asg8
(lp286
I30
aI13
aI-1
aF-1.0
aF-1.0
aF-1.0
aI25
aI24
aI-1
aF-1.0
aF-1.0
aF-1.0
asg10
(lp287
F-0.006999999999999999
aF-0.002
aF0.006
asba(i__main__
sensor_data_struct
p288
(dp289
g3
(lp290
I665
aI331
aI215
aI1146
aI2492
aF149.0
aI1740
aI519
aI423
aI2502
aI2159
aF65481.0
asg5
I0
sg6
(lp291
I-1
aI-1
aI-1
aI-1
aI-1
aI-1
asg8
(lp292
I35
aI35
aI-1
aF-1.0
aF-1.0
aF-1.0
aI24
aI24
aI-1
aF-1.0
aF-1.0
aF-1.0
asg10
(lp293
F0.002
aF0.005
aF0.004
asba(i__main__
sensor_data_struct
p294
(dp295
g3
(lp296
I584
aI322
aI202
aI1046
aI2569
aF170.0
aI854
aI390
aI252
aI1416
aI2383
aF153.0
asg5
I1
sg6
(lp297
I-1
aI-1
aI-1
aI-1
aI-1
aI-1
asg8
(lp298
I31
aI31
aI-1
aF-1.0
aF-1.0
aF-1.0
aI26
aI28
aI-1
aF-1.0
aF-1.0
aF-1.0
asg10
(lp299
F0.002
aF-0.002
aF0.015
asba(i__main__
sensor_data_struct
p300
(dp301
g3
(lp302
I658
aI335
aI217
aI1141
aI2508
aF156.0
aI2953
aI711
aI654
aI4043
aI2090
aF65221.0
asg5
I1
sg6
(lp303
I-1
aI-1
aI-1
aI-1
aI-1
aI-1
asg8
(lp304
I41
aI45
aI-1
aF-1.0
aF-1.0
aF-1.0
aI35
aI37
aI-1
aF-1.0
aF-1.0
aF-1.0
asg10
(lp305
F0.001
aF0.009000000000000001
aF0.008
asba(i__main__
sensor_data_struct
p306
(dp307
g3
(lp308
I614
aI328
aI208
aI1085
aI2543
aF166.0
aI1588
aI488
aI395
aI2301
aI2176
aF65502.0
asg5
I0
sg6
(lp309
I-1
aI-1
aI-1
aI-1
aI-1
aI-1
asg8
(lp310
I31
aI31
aI-1
aF-1.0
aF-1.0
aF-1.0
aI22
aI25
aI-1
aF-1.0
aF-1.0
aF-1.0
asg10
(lp311
F0.001
aF0.005
aF0.005
asba(i__main__
sensor_data_struct
p312
(dp313
g3
(lp314
I631
aI330
aI212
aI1105
aI2526
aF160.0
aI642
aI332
aI217
aI1117
aI2524
aF156.0
asg5
I1
sg6
(lp315
I-1
aI-1
aI-1
aI-1
aI-1
aI-1
asg8
(lp316
I46
aI39
aI-1
aF-1.0
aF-1.0
aF-1.0
aI23
aI23
aI-1
aF-1.0
aF-1.0
aF-1.0
asg10
(lp317
F-0.009000000000000001
aF-0.006999999999999999
aF0.012
asba(i__main__
sensor_data_struct
p318
(dp319
g3
(lp320
I570
aI321
aI200
aI1028
aI2585
aF175.0
aI742
aI349
aI233
aI1246
aI2442
aF139.0
asg5
I1
sg6
(lp321
I-1
aI-1
aI-1
aI-1
aI-1
aI-1
asg8
(lp322
I47
aI34
aI-1
aF-1.0
aF-1.0
aF-1.0
aI25
aI28
aI-1
aF-1.0
aF-1.0
aF-1.0
asg10
(lp323
F0.006999999999999999
aF-0.001
aF0.015
asba(i__main__
sensor_data_struct
p324
(dp325
g3
(lp326
I609
aI325
aI205
aI1078
aI2542
aF165.0
aI1003
aI410
aI277
aI1596
aI2307
aF118.0
asg5
I0
sg6
(lp327
I-1
aI-1
aI-1
aI-1
aI-1
aI-1
asg8
(lp328
I21
aI22
aI-1
aF-1.0
aF-1.0
aF-1.0
aI23
aI23
aI-1
aF-1.0
aF-1.0
aF-1.0
asg10
(lp329
F0.0
aF-0.001
aF0.01
asba(i__main__
sensor_data_struct
p330
(dp331
g3
(lp332
I602
aI326
aI205
aI1070
aI2552
aF169.0
aI1061
aI392
aI297
aI1629
aI2293
aF56.0
asg5
I0
sg6
(lp333
I-1
aI-1
aI-1
aI-1
aI-1
aI-1
asg8
(lp334
I20
aI25
aI-1
aF-1.0
aF-1.0
aF-1.0
aI23
aI25
aI-1
aF-1.0
aF-1.0
aF-1.0
asg10
(lp335
F0.002
aF-0.001
aF0.003
asba(i__main__
sensor_data_struct
p336
(dp337
g3
(lp338
I878
aI365
aI258
aI1410
aI2365
aF102.0
aI1537
aI495
aI378
aI2261
aI2182
aF5.0
asg5
I0
sg6
(lp339
I-1
aI-1
aI-1
aI-1
aI-1
aI-1
asg8
(lp340
I33
aI35
aI-1
aF-1.0
aF-1.0
aF-1.0
aI24
aI25
aI-1
aF-1.0
aF-1.0
aF-1.0
asg10
(lp341
F0.001
aF0.005
aF0.004
asba(i__main__
sensor_data_struct
p342
(dp343
g3
(lp344
I592
aI321
aI203
aI1054
aI2559
aF165.0
aI1005
aI393
aI281
aI1573
aI2303
aF88.0
asg5
I0
sg6
(lp345
I-1
aI-1
aI-1
aI-1
aI-1
aI-1
asg8
(lp346
I21
aI26
aI-1
aF-1.0
aF-1.0
aF-1.0
aI24
aI25
aI-1
aF-1.0
aF-1.0
aF-1.0
asg10
(lp347
F0.0
aF-0.002
aF0.004
asba(i__main__
sensor_data_struct
p348
(dp349
g3
(lp350
I594
aI323
aI203
aI1058
aI2554
aF168.0
aI869
aI364
aI257
aI1395
aI2364
aF104.0
asg5
I0
sg6
(lp351
I-1
aI-1
aI-1
aI-1
aI-1
aI-1
asg8
(lp352
I26
aI20
aI-1
aF-1.0
aF-1.0
aF-1.0
aI23
aI22
aI-1
aF-1.0
aF-1.0
aF-1.0
asg10
(lp353
F-0.004
aF0.001
aF0.006999999999999999
asba(i__main__
sensor_data_struct
p354
(dp355
g3
(lp356
I609
aI327
aI207
aI1078
aI2546
aF166.0
aI718
aI355
aI228
aI1229
aI2463
aF160.0
asg5
I1
sg6
(lp357
I-1
aI-1
aI-1
aI-1
aI-1
aI-1
asg8
(lp358
I38
aI30
aI-1
aF-1.0
aF-1.0
aF-1.0
aI33
aI34
aI-1
aF-1.0
aF-1.0
aF-1.0
asg10
(lp359
F-0.009000000000000001
aF-0.001
aF0.013000000000000001
asba(i__main__
sensor_data_struct
p360
(dp361
g3
(lp362
I580
aI323
aI200
aI1043
aI2568
aF175.0
aI576
aI327
aI202
aI1046
aI2595
aF181.0
asg5
I1
sg6
(lp363
I-1
aI-1
aI-1
aI-1
aI-1
aI-1
asg8
(lp364
I43
aI49
aI-1
aF-1.0
aF-1.0
aF-1.0
aI29
aI36
aI-1
aF-1.0
aF-1.0
aF-1.0
asg10
(lp365
F0.003
aF-0.003
aF0.013999999999999999
asba(i__main__
sensor_data_struct
p366
(dp367
g3
(lp368
I578
aI325
aI201
aI1045
aI2584
aF178.0
aI870
aI429
aI256
aI1489
aI2406
aF207.0
asg5
I1
sg6
(lp369
I-1
aI-1
aI-1
aI-1
aI-1
aI-1
asg8
(lp370
I52
aI47
aI-1
aF-1.0
aF-1.0
aF-1.0
aI31
aI37
aI-1
aF-1.0
aF-1.0
aF-1.0
asg10
(lp371
F0.008
aF-0.011000000000000001
aF0.015
asba(i__main__
sensor_data_struct
p372
(dp373
g3
(lp374
I614
aI328
aI206
aI1084
aI2530
aF167.0
aI1004
aI387
aI280
aI1562
aI2297
aF79.0
asg5
I0
sg6
(lp375
I-1
aI-1
aI-1
aI-1
aI-1
aI-1
asg8
(lp376
I22
aI22
aI-1
aF-1.0
aF-1.0
aF-1.0
aI21
aI24
aI-1
aF-1.0
aF-1.0
aF-1.0
asg10
(lp377
F-0.001
aF-0.002
aF0.002
asba(i__main__
sensor_data_struct
p378
(dp379
g3
(lp380
I596
aI324
aI203
aI1060
aI2550
aF169.0
aI914
aI385
aI260
aI1468
aI2333
aF120.0
asg5
I0
sg6
(lp381
I-1
aI-1
aI-1
aI-1
aI-1
aI-1
asg8
(lp382
I27
aI16
aI-1
aF-1.0
aF-1.0
aF-1.0
aI24
aI22
aI-1
aF-1.0
aF-1.0
aF-1.0
asg10
(lp383
F-0.006
aF-0.006
aF0.006
asba(i__main__
sensor_data_struct
p384
(dp385
g3
(lp386
I617
aI329
aI207
aI1088
aI2530
aF167.0
aI809
aI358
aI283
aI1325
aI2518
aF95.0
asg5
I1
sg6
(lp387
I-1
aI-1
aI-1
aI-1
aI-1
aI-1
asg8
(lp388
I29
aI39
aI-1
aF-1.0
aF-1.0
aF-1.0
aI23
aI24
aI-1
aF-1.0
aF-1.0
aF-1.0
asg10
(lp389
F-0.005
aF0.005
aF0.013000000000000001
asba(i__main__
sensor_data_struct
p390
(dp391
g3
(lp392
I587
aI323
aI203
aI1052
aI2574
aF170.0
aI907
aI382
aI261
aI1457
aI2342
aF117.0
asg5
I0
sg6
(lp393
I-1
aI-1
aI-1
aI-1
aI-1
aI-1
asg8
(lp394
I14
aI30
aI-1
aF-1.0
aF-1.0
aF-1.0
aI22
aI24
aI-1
aF-1.0
aF-1.0
aF-1.0
asg10
(lp395
F0.004
aF-0.004
aF0.006999999999999999
asba(i__main__
sensor_data_struct
p396
(dp397
g3
(lp398
I582
aI320
aI198
aI1047
aI2569
aF171.0
aI1231
aI446
aI317
aI1900
aI2259
aF72.0
asg5
I1
sg6
(lp399
I-1
aI-1
aI-1
aI-1
aI-1
aI-1
asg8
(lp400
I49
aI46
aI-1
aF-1.0
aF-1.0
aF-1.0
aI35
aI38
aI-1
aF-1.0
aF-1.0
aF-1.0
asg10
(lp401
F0.004
aF0.009000000000000001
aF0.013999999999999999
asba(i__main__
sensor_data_struct
p402
(dp403
g3
(lp404
I590
aI319
aI197
aI1059
aI2560
aF167.0
aI943
aI408
aI262
aI1545
aI2346
aF146.0
asg5
I1
sg6
(lp405
I-1
aI-1
aI-1
aI-1
aI-1
aI-1
asg8
(lp406
I31
aI41
aI-1
aF-1.0
aF-1.0
aF-1.0
aI23
aI25
aI-1
aF-1.0
aF-1.0
aF-1.0
asg10
(lp407
F-0.008
aF0.008
aF0.013000000000000001
asba(i__main__
sensor_data_struct
p408
(dp409
g3
(lp410
I563
aI313
aI193
aI1021
aI2585
aF169.0
aI775
aI359
aI232
aI1299
aI2412
aF145.0
asg5
I0
sg6
(lp411
I-1
aI-1
aI-1
aI-1
aI-1
aI-1
asg8
(lp412
I21
aI35
aI-1
aF-1.0
aF-1.0
aF-1.0
aI22
aI23
aI-1
aF-1.0
aF-1.0
aF-1.0
asg10
(lp413
F-0.001
aF-0.009000000000000001
aF0.011000000000000001
asba(i__main__
sensor_data_struct
p414
(dp415
g3
(lp416
I565
aI314
aI193
aI1024
aI2581
aF170.0
aI812
aI372
aI240
aI1359
aI2407
aF147.0
asg5
I1
sg6
(lp417
I-1
aI-1
aI-1
aI-1
aI-1
aI-1
asg8
(lp418
I33
aI42
aI-1
aF-1.0
aF-1.0
aF-1.0
aI24
aI25
aI-1
aF-1.0
aF-1.0
aF-1.0
asg10
(lp419
F-0.01
aF0.006
aF0.013000000000000001
asba(i__main__
sensor_data_struct
p420
(dp421
g3
(lp422
I612
aI320
aI203
aI1080
aI2537
aF157.0
aI1148
aI413
aI302
aI1754
aI2254
aF58.0
asg5
I0
sg6
(lp423
I-1
aI-1
aI-1
aI-1
aI-1
aI-1
asg8
(lp424
I23
aI28
aI-1
aF-1.0
aF-1.0
aF-1.0
aI23
aI24
aI-1
aF-1.0
aF-1.0
aF-1.0
asg10
(lp425
F0.004
aF0.0
aF0.003
asba(i__main__
sensor_data_struct
p426
(dp427
g3
(lp428
I586
aI315
aI196
aI1049
aI2557
aF163.0
aI1355
aI440
aI344
aI2006
aI2212
aF2.0
asg5
I0
sg6
(lp429
I-1
aI-1
aI-1
aI-1
aI-1
aI-1
asg8
(lp430
I27
aI29
aI-1
aF-1.0
aF-1.0
aF-1.0
aI23
aI23
aI-1
aF-1.0
aF-1.0
aF-1.0
asg10
(lp431
F0.001
aF0.004
aF0.006
asba(i__main__
sensor_data_struct
p432
(dp433
g3
(lp434
I558
aI311
aI192
aI1015
aI2594
aF169.0
aI1280
aI465
aI332
aI1990
aI2281
aF75.0
asg5
I1
sg6
(lp435
I-1
aI-1
aI-1
aI-1
aI-1
aI-1
asg8
(lp436
I51
aI45
aI-1
aF-1.0
aF-1.0
aF-1.0
aI33
aI39
aI-1
aF-1.0
aF-1.0
aF-1.0
asg10
(lp437
F0.011000000000000001
aF0.006
aF0.013000000000000001
asba(i__main__
sensor_data_struct
p438
(dp439
g3
(lp440
I569
aI313
aI192
aI1029
aI2575
aF168.0
aI772
aI366
aI231
aI1312
aI2430
aF157.0
asg5
I1
sg6
(lp441
I-1
aI-1
aI-1
aI-1
aI-1
aI-1
asg8
(lp442
I39
aI32
aI-1
aF-1.0
aF-1.0
aF-1.0
aI33
aI19
aI-1
aF-1.0
aF-1.0
aF-1.0
asg10
(lp443
F-0.009000000000000001
aF0.001
aF0.012
asba(i__main__
sensor_data_struct
p444
(dp445
g3
(lp446
I561
aI312
aI191
aI1022
aI2590
aF170.0
aI1195
aI438
aI309
aI1858
aI2273
aF77.0
asg5
I1
sg6
(lp447
I-1
aI-1
aI-1
aI-1
aI-1
aI-1
asg8
(lp448
I49
aI46
aI-1
aF-1.0
aF-1.0
aF-1.0
aI34
aI37
aI-1
aF-1.0
aF-1.0
aF-1.0
asg10
(lp449
F0.002
aF0.01
aF0.013999999999999999
asba(i__main__
sensor_data_struct
p450
(dp451
g3
(lp452
I569
aI315
aI192
aI1035
aI2584
aF171.0
aI739
aI341
aI225
aI1244
aI2438
aF133.0
asg5
I0
sg6
(lp453
I-1
aI-1
aI-1
aI-1
aI-1
aI-1
asg8
(lp454
I17
aI29
aI-1
aF-1.0
aF-1.0
aF-1.0
aI23
aI24
aI-1
aF-1.0
aF-1.0
aF-1.0
asg10
(lp455
F0.004
aF-0.004
aF0.011000000000000001
asba(i__main__
sensor_data_struct
p456
(dp457
g3
(lp458
I665
aI326
aI210
aI1148
aI2488
aF144.0
aI1279
aI439
aI322
aI1928
aI2219
aF41.0
asg5
I0
sg6
(lp459
I-1
aI-1
aI-1
aI-1
aI-1
aI-1
asg8
(lp460
I25
aI27
aI-1
aF-1.0
aF-1.0
aF-1.0
aI23
aI24
aI-1
aF-1.0
aF-1.0
aF-1.0
asg10
(lp461
F0.0
aF0.003
aF0.004
asba(i__main__
sensor_data_struct
p462
(dp463
g3
(lp464
I592
aI315
aI196
aI1058
aI2554
aF161.0
aI939
aI378
aI259
aI1496
aI2319
aF102.0
asg5
I0
sg6
(lp465
I-1
aI-1
aI-1
aI-1
aI-1
aI-1
asg8
(lp466
I23
aI18
aI-1
aF-1.0
aF-1.0
aF-1.0
aI23
aI23
aI-1
aF-1.0
aF-1.0
aF-1.0
asg10
(lp467
F-0.003
aF-0.001
aF0.006999999999999999
asba(i__main__
sensor_data_struct
p468
(dp469
g3
(lp470
I570
aI313
aI191
aI1032
aI2570
aF169.0
aI1998
aI532
aI468
aI2808
aI2137
aF65385.0
asg5
I1
sg6
(lp471
I-1
aI-1
aI-1
aI-1
aI-1
aI-1
asg8
(lp472
I45
aI39
aI-1
aF-1.0
aF-1.0
aF-1.0
aI33
aI36
aI-1
aF-1.0
aF-1.0
aF-1.0
asg10
(lp473
F0.005
aF0.006
aF0.009000000000000001
asba(i__main__
sensor_data_struct
p474
(dp475
g3
(lp476
I573
aI313
aI191
aI1036
aI2569
aF168.0
aI865
aI372
aI246
aI1416
aI2366
aF126.0
asg5
I0
sg6
(lp477
I-1
aI-1
aI-1
aI-1
aI-1
aI-1
asg8
(lp478
I30
aI17
aI-1
aF-1.0
aF-1.0
aF-1.0
aI23
aI22
aI-1
aF-1.0
aF-1.0
aF-1.0
asg10
(lp479
F-0.009000000000000001
aF0.005
aF0.009000000000000001
asba(i__main__
sensor_data_struct
p480
(dp481
g3
(lp482
I561
aI311
aI190
aI1020
aI2583
aF169.0
aI677
aI327
aI213
aI1161
aI2477
aF140.0
asg5
I0
sg6
(lp483
I-1
aI-1
aI-1
aI-1
aI-1
aI-1
asg8
(lp484
I15
aI32
aI-1
aF-1.0
aF-1.0
aF-1.0
aI23
aI23
aI-1
aF-1.0
aF-1.0
aF-1.0
asg10
(lp485
F0.003
aF-0.006
aF0.011000000000000001
asba(i__main__
sensor_data_struct
p486
(dp487
g3
(lp488
I582
aI315
aI193
aI1047
aI2559
aF166.0
aI890
aI386
aI248
aI1458
aI2346
aF138.0
asg5
I0
sg6
(lp489
I-1
aI-1
aI-1
aI-1
aI-1
aI-1
asg8
(lp490
I27
aI24
aI-1
aF-1.0
aF-1.0
aF-1.0
aI22
aI24
aI-1
aF-1.0
aF-1.0
aF-1.0
asg10
(lp491
F-0.004
aF-0.003
aF0.012
asba(i__main__
sensor_data_struct
p492
(dp493
g3
(lp494
I578
aI314
aI192
aI1042
aI2560
aF167.0
aI852
aI352
aI246
aI1373
aI2364
aF98.0
asg5
I0
sg6
(lp495
I-1
aI-1
aI-1
aI-1
aI-1
aI-1
asg8
(lp496
I20
aI30
aI-1
aF-1.0
aF-1.0
aF-1.0
aI24
aI25
aI-1
aF-1.0
aF-1.0
aF-1.0
asg10
(lp497
F0.004
aF-0.003
aF0.008
asba(i__main__
sensor_data_struct
p498
(dp499
g3
(lp500
I606
aI317
aI198
aI1075
aI2534
aF158.0
aI1025
aI410
aI274
aI1632
aI2302
aF113.0
asg5
I0
sg6
(lp501
I-1
aI-1
aI-1
aI-1
aI-1
aI-1
asg8
(lp502
I23
aI32
aI-1
aF-1.0
aF-1.0
aF-1.0
aI23
aI23
aI-1
aF-1.0
aF-1.0
aF-1.0
asg10
(lp503
F0.008
aF-0.002
aF0.009000000000000001
asba(i__main__
sensor_data_struct
p504
(dp505
g3
(lp506
I556
aI309
aI188
aI1013
aI2585
aF169.0
aI817
aI353
aI240
aI1348
aI2404
aF116.0
asg5
I1
sg6
(lp507
I-1
aI-1
aI-1
aI-1
aI-1
aI-1
asg8
(lp508
I39
aI49
aI-1
aF-1.0
aF-1.0
aF-1.0
aI27
aI32
aI-1
aF-1.0
aF-1.0
aF-1.0
asg10
(lp509
F-0.005
aF0.012
aF0.015
asba(i__main__
sensor_data_struct
p510
(dp511
g3
(lp512
I554
aI309
aI189
aI1012
aI2596
aF169.0
aI740
aI336
aI225
aI1237
aI2429
aF125.0
asg5
I0
sg6
(lp513
I-1
aI-1
aI-1
aI-1
aI-1
aI-1
asg8
(lp514
I17
aI26
aI-1
aF-1.0
aF-1.0
aF-1.0
aI23
aI22
aI-1
aF-1.0
aF-1.0
aF-1.0
asg10
(lp515
F0.001
aF-0.003
aF0.009000000000000001
asba(i__main__
sensor_data_struct
p516
(dp517
g3
(lp518
I595
aI315
aI196
aI1062
aI2547
aF160.0
aI968
aI384
aI266
aI1536
aI2315
aF97.0
asg5
I0
sg6
(lp519
I-1
aI-1
aI-1
aI-1
aI-1
aI-1
asg8
(lp520
I18
aI27
aI-1
aF-1.0
aF-1.0
aF-1.0
aI23
aI24
aI-1
aF-1.0
aF-1.0
aF-1.0
asg10
(lp521
F0.001
aF-0.002
aF0.006
asba(i__main__
sensor_data_struct
p522
(dp523
g3
(lp524
I566
aI311
aI191
aI1026
aI2579
aF167.0
aI981
aI370
aI271
aI1529
aI2307
aF67.0
asg5
I0
sg6
(lp525
I-1
aI-1
aI-1
aI-1
aI-1
aI-1
asg8
(lp526
I22
aI30
aI-1
aF-1.0
aF-1.0
aF-1.0
aI24
aI24
aI-1
aF-1.0
aF-1.0
aF-1.0
asg10
(lp527
F0.006999999999999999
aF-0.001
aF0.005
asba(i__main__
sensor_data_struct
p528
(dp529
g3
(lp530
I568
aI311
aI191
aI1028
aI2575
aF166.0
aI633
aI320
aI205
aI1106
aI2514
aF149.0
asg5
I1
sg6
(lp531
I-1
aI-1
aI-1
aI-1
aI-1
aI-1
asg8
(lp532
I36
aI28
aI-1
aF-1.0
aF-1.0
aF-1.0
aI24
aI24
aI-1
aF-1.0
aF-1.0
aF-1.0
asg10
(lp533
F-0.006999999999999999
aF-0.004
aF0.013000000000000001
asba(i__main__
sensor_data_struct
p534
(dp535
g3
(lp536
I574
aI312
aI192
aI1035
aI2569
aF165.0
aI895
aI370
aI251
aI1441
aI2341
aF109.0
asg5
I0
sg6
(lp537
I-1
aI-1
aI-1
aI-1
aI-1
aI-1
asg8
(lp538
I16
aI25
aI-1
aF-1.0
aF-1.0
aF-1.0
aI24
aI25
aI-1
aF-1.0
aF-1.0
aF-1.0
asg10
(lp539
F-0.002
aF-0.006999999999999999
aF0.004
asba(i__main__
sensor_data_struct
p540
(dp541
g3
(lp542
I601
aI317
aI197
aI1068
aI2537
aF161.0
aI800
aI342
aI236
aI1304
aI2384
aF107.0
asg5
I0
sg6
(lp543
I-1
aI-1
aI-1
aI-1
aI-1
aI-1
asg8
(lp544
I21
aI21
aI-1
aF-1.0
aF-1.0
aF-1.0
aI22
aI23
aI-1
aF-1.0
aF-1.0
aF-1.0
asg10
(lp545
F-0.001
aF-0.002
aF0.01
asba(i__main__
sensor_data_struct
p546
(dp547
g3
(lp548
I600
aI316
aI196
aI1067
aI2537
aF160.0
aI1175
aI417
aI304
aI1794
aI2248
aF54.0
asg5
I0
sg6
(lp549
I-1
aI-1
aI-1
aI-1
aI-1
aI-1
asg8
(lp550
I29
aI27
aI-1
aF-1.0
aF-1.0
aF-1.0
aI23
aI23
aI-1
aF-1.0
aF-1.0
aF-1.0
asg10
(lp551
F-0.001
aF0.003
aF0.008
asba(i__main__
sensor_data_struct
p552
(dp553
g3
(lp554
I618
aI320
aI200
aI1091
aI2524
aF158.0
aI1260
aI421
aI324
aI1886
aI2231
aF18.0
asg5
I0
sg6
(lp555
I-1
aI-1
aI-1
aI-1
aI-1
aI-1
asg8
(lp556
I27
aI27
aI-1
aF-1.0
aF-1.0
aF-1.0
aI25
aI23
aI-1
aF-1.0
aF-1.0
aF-1.0
asg10
(lp557
F0.0
aF0.004
aF0.006999999999999999
asba(i__main__
sensor_data_struct
p558
(dp559
g3
(lp560
I581
aI313
aI193
aI1044
aI2561
aF164.0
aI775
aI337
aI232
aI1274
aI2405
aF110.0
asg5
I0
sg6
(lp561
I-1
aI-1
aI-1
aI-1
aI-1
aI-1
asg8
(lp562
I21
aI20
aI-1
aF-1.0
aF-1.0
aF-1.0
aI25
aI22
aI-1
aF-1.0
aF-1.0
aF-1.0
asg10
(lp563
F-0.003
aF-0.003
aF0.003
asba(i__main__
sensor_data_struct
p564
(dp565
g3
(lp566
I571
aI310
aI193
aI1027
aI2572
aF162.0
aI1053
aI416
aI284
aI1669
aI2302
aF106.0
asg5
I0
sg6
(lp567
I-1
aI-1
aI-1
aI-1
aI-1
aI-1
asg8
(lp568
I39
aI32
aI-1
aF-1.0
aF-1.0
aF-1.0
aI22
aI23
aI-1
aF-1.0
aF-1.0
aF-1.0
asg10
(lp569
F0.01
aF0.001
aF0.01
asba(i__main__
sensor_data_struct
p570
(dp571
g3
(lp572
I560
aI311
aI191
aI1018
aI2587
aF169.0
aI743
aI336
aI226
aI1238
aI2426
aF123.0
asg5
I0
sg6
(lp573
I-1
aI-1
aI-1
aI-1
aI-1
aI-1
asg8
(lp574
I28
aI14
aI-1
aF-1.0
aF-1.0
aF-1.0
aI22
aI23
aI-1
aF-1.0
aF-1.0
aF-1.0
asg10
(lp575
F-0.006
aF-0.003
aF0.004
asba(i__main__
sensor_data_struct
p576
(dp577
g3
(lp578
I574
aI314
aI193
aI1036
aI2571
aF167.0
aI1495
aI457
aI378
aI2176
aI2199
aF65496.0
asg5
I0
sg6
(lp579
I-1
aI-1
aI-1
aI-1
aI-1
aI-1
asg8
(lp580
I26
aI25
aI-1
aF-1.0
aF-1.0
aF-1.0
aI23
aI23
aI-1
aF-1.0
aF-1.0
aF-1.0
asg10
(lp581
F0.002
aF0.003
aF0.003
asba(i__main__
sensor_data_struct
p582
(dp583
g3
(lp584
I587
aI316
aI196
aI1052
aI2559
aF164.0
aI1221
aI413
aI315
aI1832
aI2232
aF24.0
asg5
I0
sg6
(lp585
I-1
aI-1
aI-1
aI-1
aI-1
aI-1
asg8
(lp586
I30
aI24
aI-1
aF-1.0
aF-1.0
aF-1.0
aI24
aI23
aI-1
aF-1.0
aF-1.0
aF-1.0
asg10
(lp587
F-0.002
aF0.004
aF0.004
asba(i__main__
sensor_data_struct
p588
(dp589
g3
(lp590
I584
aI316
aI195
aI1051
aI2563
aF166.0
aI1735
aI517
aI416
aI2530
aI2184
aF65485.0
asg5
I1
sg6
(lp591
I-1
aI-1
aI-1
aI-1
aI-1
aI-1
asg8
(lp592
I44
aI46
aI-1
aF-1.0
aF-1.0
aF-1.0
aI35
aI35
aI-1
aF-1.0
aF-1.0
aF-1.0
asg10
(lp593
F0.001
aF0.01
aF0.011000000000000001
asba(i__main__
sensor_data_struct
p594
(dp595
g3
(lp596
I998
aI400
aI272
aI1599
aI2328
aF108.0
aI824
aI353
aI244
aI1348
aI2396
aF111.0
asg5
I1
sg6
(lp597
I-1
aI-1
aI-1
aI-1
aI-1
aI-1
asg8
(lp598
I37
aI35
aI-1
aF-1.0
aF-1.0
aF-1.0
aI26
aI26
aI-1
aF-1.0
aF-1.0
aF-1.0
asg10
(lp599
F0.003
aF0.004
aF0.015
asba(i__main__
sensor_data_struct
p600
(dp601
g3
(lp602
I603
aI322
aI199
aI1079
aI2551
aF166.0
aI934
aI391
aI262
aI1513
aI2346
aF122.0
asg5
I1
sg6
(lp603
I-1
aI-1
aI-1
aI-1
aI-1
aI-1
asg8
(lp604
I32
aI40
aI-1
aF-1.0
aF-1.0
aF-1.0
aI25
aI28
aI-1
aF-1.0
aF-1.0
aF-1.0
asg10
(lp605
F0.0
aF0.006999999999999999
aF0.015
asba.