(lp0
(i__main__
sensor_data_struct
p1
(dp2
S'color'
p3
(lp4
I500
aI283
aI175
aI940
aI2679
aF156.0
aI782
aI390
aI225
aI1372
aI2444
aF197.0
asS'button'
p5
I1
sS'IR'
p6
(lp7
I-1
aI-1
aI-1
aI-1
aI-1
aI-1
asS'TOF'
p8
(lp9
I58
aI52
aI-1
aF23.1039981842041
aF290.6239929199219
aF-1.0
aI36
aI35
aI-1
aF313.8559875488281
aF340.4159851074219
aF-1.0
asS'pt'
p10
(lp11
F0.006
aF-0.011000000000000001
aF0.015
asba(i__main__
sensor_data_struct
p12
(dp13
g3
(lp14
I579
aI319
aI188
aI1071
aI2596
aF177.0
aI923
aI438
aI251
aI1582
aI2381
aF207.0
asg5
I1
sg6
(lp15
I-1
aI-1
aI-1
aI-1
aI-1
aI-1
asg8
(lp16
I56
aI43
aI-1
aF22.6560001373291
aF298.30401611328125
aF-1.0
aI37
aI38
aI-1
aF310.9119873046875
aF341.3119812011719
aF-1.0
asg10
(lp17
F0.009000000000000001
aF-0.006
aF0.013000000000000001
asba(i__main__
sensor_data_struct
p18
(dp19
g3
(lp20
I548
aI301
aI183
aI1013
aI2620
aF163.0
aI1212
aI450
aI306
aI1888
aI2255
aF92.0
asg5
I0
sg6
(lp21
I-1
aI-1
aI-1
aI-1
aI-1
aI-1
asg8
(lp22
I24
aI26
aI-1
aF19.13599967956543
aF298.81597900390625
aF-1.0
aI28
aI26
aI-1
aF272.89599609375
aF312.7040100097656
aF-1.0
asg10
(lp23
F-0.001
aF-0.006
aF0.002
asba(i__main__
sensor_data_struct
p24
(dp25
g3
(lp26
I546
aI300
aI183
aI1010
aI2625
aF162.0
aI699
aI337
aI211
aI1217
aI2482
aF150.0
asg5
I1
sg6
(lp27
I-1
aI-1
aI-1
aI-1
aI-1
aI-1
asg8
(lp28
I38
aI33
aI-1
aF22.6560001373291
aF297.91998291015625
aF-1.0
aI34
aI31
aI-1
aF297.66400146484375
aF322.239990234375
aF-1.0
asg10
(lp29
F-0.003
aF0.0
aF0.015
asba(i__main__
sensor_data_struct
p30
(dp31
g3
(lp32
I561
aI307
aI185
aI1036
aI2610
aF167.0
aI967
aI459
aI260
aI1652
aI2365
aF220.0
asg5
I1
sg6
(lp33
I-1
aI-1
aI-1
aI-1
aI-1
aI-1
asg8
(lp34
I52
aI44
aI-1
aF23.167997360229492
aF298.11199951171875
aF-1.0
aI38
aI37
aI-1
aF313.7919921875
aF339.583984375
aF-1.0
asg10
(lp35
F-0.008
aF0.001
aF0.015
asba(i__main__
sensor_data_struct
p36
(dp37
g3
(lp38
I568
aI305
aI188
aI1038
aI2601
aF159.0
aI793
aI385
aI227
aI1378
aI2436
aF184.0
asg5
I1
sg6
(lp39
I-1
aI-1
aI-1
aI-1
aI-1
aI-1
asg8
(lp40
I21
aI46
aI-1
aF23.295997619628906
aF298.8800048828125
aF-1.0
aI19
aI35
aI-1
aF308.2879943847656
aF340.60797119140625
aF-1.0
asg10
(lp41
F0.005
aF-0.006999999999999999
aF0.009000000000000001
asba(i__main__
sensor_data_struct
p42
(dp43
g3
(lp44
I546
aI301
aI182
aI1013
aI2623
aF164.0
aI1083
aI453
aI284
aI1767
aI2320
aF155.0
asg5
I1
sg6
(lp45
I-1
aI-1
aI-1
aI-1
aI-1
aI-1
asg8
(lp46
I32
aI31
aI-1
aF23.743999481201172
aF299.3919982910156
aF-1.0
aI27
aI26
aI-1
aF295.6159973144531
aF317.7599792480469
aF-1.0
asg10
(lp47
F0.0
aF0.006
aF0.012
asba(i__main__
sensor_data_struct
p48
(dp49
g3
(lp50
I570
aI306
aI188
aI1044
aI2602
aF160.0
aI883
aI379
aI244
aI1467
aI2383
aF132.0
asg5
I1
sg6
(lp51
I-1
aI-1
aI-1
aI-1
aI-1
aI-1
asg8
(lp52
I52
aI35
aI-1
aF23.871999740600586
aF298.1759948730469
aF-1.0
aI30
aI28
aI-1
aF297.4079895019531
aF322.75201416015625
aF-1.0
asg10
(lp53
F0.008
aF0.006
aF0.013999999999999999
asba(i__main__
sensor_data_struct
p54
(dp55
g3
(lp56
I548
aI303
aI183
aI1017
aI2625
aF166.0
aI1015
aI442
aI271
aI1682
aI2343
aF169.0
asg5
I1
sg6
(lp57
I-1
aI-1
aI-1
aI-1
aI-1
aI-1
asg8
(lp58
I38
aI30
aI-1
aF23.423999786376953
aF298.6239929199219
aF-1.0
aI31
aI28
aI-1
aF297.5359802246094
aF325.05596923828125
aF-1.0
asg10
(lp59
F-0.001
aF0.0
aF0.013999999999999999
asba(i__main__
sensor_data_struct
p60
(dp61
g3
(lp62
I638
aI317
aI202
aI1128
aI2538
aF145.0
aI945
aI401
aI257
aI1558
aI2361
aF138.0
asg5
I1
sg6
(lp63
I-1
aI-1
aI-1
aI-1
aI-1
aI-1
asg8
(lp64
I32
aI29
aI-1
aF24.511999130249023
aF299.00799560546875
aF-1.0
aI30
aI28
aI-1
aF296.5119934082031
aF321.6000061035156
aF-1.0
asg10
(lp65
F0.003
aF0.005
aF0.013000000000000001
asba(i__main__
sensor_data_struct
p66
(dp67
g3
(lp68
I592
aI309
aI192
aI1070
aI2577
aF154.0
aI806
aI347
aI234
aI1339
aI2414
aF114.0
asg5
I0
sg6
(lp69
I-1
aI-1
aI-1
aI-1
aI-1
aI-1
asg8
(lp70
I28
aI23
aI-1
aF20.607999801635742
aF299.135986328125
aF-1.0
aI29
aI27
aI-1
aF275.3280029296875
aF314.68798828125
aF-1.0
asg10
(lp71
F-0.002
aF-0.001
aF0.003
asba(i__main__
sensor_data_struct
p72
(dp73
g3
(lp74
I565
aI307
aI187
aI1039
aI2606
aF164.0
aI1038
aI432
aI275
aI1690
aI2325
aF143.0
asg5
I0
sg6
(lp75
I-1
aI-1
aI-1
aI-1
aI-1
aI-1
asg8
(lp76
I29
aI24
aI-1
aF23.295997619628906
aF299.3280029296875
aF-1.0
aI28
aI25
aI-1
aF294.08001708984375
aF323.8399963378906
aF-1.0
asg10
(lp77
F-0.002
aF-0.001
aF0.01
asba(i__main__
sensor_data_struct
p78
(dp79
g3
(lp80
I658
aI319
aI205
aI1151
aI2516
aF139.0
aI1022
aI403
aI272
aI1638
aI2323
aF105.0
asg5
I0
sg6
(lp81
I-1
aI-1
aI-1
aI-1
aI-1
aI-1
asg8
(lp82
I25
aI31
aI-1
aF23.487998962402344
aF299.0719909667969
aF-1.0
aI28
aI26
aI-1
aF290.81597900390625
aF324.60797119140625
aF-1.0
asg10
(lp83
F0.005
aF0.002
aF0.008
asba(i__main__
sensor_data_struct
p84
(dp85
g3
(lp86
I574
aI306
aI188
aI1048
aI2593
aF159.0
aI1244
aI458
aI313
aI1934
aI2254
aF89.0
asg5
I0
sg6
(lp87
I-1
aI-1
aI-1
aI-1
aI-1
aI-1
asg8
(lp88
I29
aI21
aI-1
aF20.479999542236328
aF298.1759948730469
aF-1.0
aI31
aI24
aI-1
aF275.26397705078125
aF310.7200012207031
aF-1.0
asg10
(lp89
F-0.002
aF0.003
aF0.003
asba(i__main__
sensor_data_struct
p90
(dp91
g3
(lp92
I621
aI314
aI198
aI1107
aI2550
aF149.0
aI951
aI404
aI259
aI1570
aI2362
aF139.0
asg5
I1
sg6
(lp93
I-1
aI-1
aI-1
aI-1
aI-1
aI-1
asg8
(lp94
I38
aI39
aI-1
aF23.871999740600586
aF298.9440002441406
aF-1.0
aI31
aI30
aI-1
aF297.47198486328125
aF318.08001708984375
aF-1.0
asg10
(lp95
F0.003
aF0.008
aF0.013999999999999999
asba(i__main__
sensor_data_struct
p96
(dp97
g3
(lp98
I545
aI302
aI183
aI1011
aI2627
aF165.0
aI689
aI330
aI210
aI1197
aI2489
aF143.0
asg5
I0
sg6
(lp99
I-1
aI-1
aI-1
aI-1
aI-1
aI-1
asg8
(lp100
I23
aI33
aI-1
aF22.976001739501953
aF299.583984375
aF-1.0
aI29
aI27
aI-1
aF291.71197509765625
aF324.6719970703125
aF-1.0
asg10
(lp101
F0.0
aF-0.006999999999999999
aF0.008
asba(i__main__
sensor_data_struct
p102
(dp103
g3
(lp104
I559
aI307
aI185
aI1033
aI2610
aF167.0
aI1007
aI426
aI268
aI1652
aI2336
aF149.0
asg5
I0
sg6
(lp105
I-1
aI-1
aI-1
aI-1
aI-1
aI-1
asg8
(lp106
I25
aI30
aI-1
aF23.359996795654297
aF299.71197509765625
aF-1.0
aI29
aI25
aI-1
aF294.59197998046875
aF328.7040100097656
aF-1.0
asg10
(lp107
F0.002
aF-0.003
aF0.011000000000000001
asba(i__main__
sensor_data_struct
p108
(dp109
g3
(lp110
I597
aI310
aI193
aI1077
aI2574
aF154.0
aI915
aI394
aI250
aI1519
aI2370
aF141.0
asg5
I1
sg6
(lp111
I-1
aI-1
aI-1
aI-1
aI-1
aI-1
asg8
(lp112
I52
aI37
aI-1
aF23.871999740600586
aF298.239990234375
aF-1.0
aI30
aI27
aI-1
aF297.0879821777344
aF325.69598388671875
aF-1.0
asg10
(lp113
F0.009000000000000001
aF0.005
aF0.013999999999999999
asba(i__main__
sensor_data_struct
p114
(dp115
g3
(lp116
I608
aI312
aI197
aI1087
aI2560
aF150.0
aI947
aI390
aI257
aI1541
aI2346
aF120.0
asg5
I0
sg6
(lp117
I-1
aI-1
aI-1
aI-1
aI-1
aI-1
asg8
(lp118
I32
aI19
aI-1
aF23.295997619628906
aF299.26397705078125
aF-1.0
aI28
aI26
aI-1
aF284.9280090332031
aF317.3760070800781
aF-1.0
asg10
(lp119
F-0.004
aF-0.001
aF0.006
asba(i__main__
sensor_data_struct
p120
(dp121
g3
(lp122
I556
aI303
aI185
aI1026
aI2616
aF162.0
aI840
aI356
aI240
aI1390
aI2402
aF113.0
asg5
I1
sg6
(lp123
I-1
aI-1
aI-1
aI-1
aI-1
aI-1
asg8
(lp124
I29
aI32
aI-1
aF23.5519962310791
aF298.9440002441406
aF-1.0
aI30
aI27
aI-1
aF296.38397216796875
aF319.3599853515625
aF-1.0
asg10
(lp125
F0.001
aF0.006
aF0.013000000000000001
asba(i__main__
sensor_data_struct
p126
(dp127
g3
(lp128
I613
aI314
aI195
aI1100
aI2555
aF153.0
aI1081
aI403
aI285
aI1704
aI2309
aF76.0
asg5
I0
sg6
(lp129
I-1
aI-1
aI-1
aI-1
aI-1
aI-1
asg8
(lp130
I34
aI36
aI-1
aF24.38399887084961
aF300.4159851074219
aF-1.0
aI27
aI26
aI-1
aF294.4639892578125
aF316.79998779296875
aF-1.0
asg10
(lp131
F0.001
aF0.009000000000000001
aF0.011000000000000001
asba(i__main__
sensor_data_struct
p132
(dp133
g3
(lp134
I595
aI315
aI192
aI1083
aI2580
aF163.0
aI1182
aI447
aI305
aI1861
aI2285
aF98.0
asg5
I0
sg6
(lp135
I-1
aI-1
aI-1
aI-1
aI-1
aI-1
asg8
(lp136
I31
aI28
aI-1
aF25.855998992919922
aF299.5199890136719
aF-1.0
aI28
aI24
aI-1
aF292.35198974609375
aF317.5039978027344
aF-1.0
asg10
(lp137
F0.003
aF0.006999999999999999
aF0.009000000000000001
asba(i__main__
sensor_data_struct
p138
(dp139
g3
(lp140
I548
aI303
aI183
aI1017
aI2625
aF166.0
aI1044
aI424
aI275
aI1687
aI2317
aF129.0
asg5
I0
sg6
(lp141
I-1
aI-1
aI-1
aI-1
aI-1
aI-1
asg8
(lp142
I30
aI26
aI-1
aF22.911998748779297
aF299.90399169921875
aF-1.0
aI28
aI25
aI-1
aF291.3280029296875
aF325.7599792480469
aF-1.0
asg10
(lp143
F-0.002
aF-0.005
aF0.008
asba(i__main__
sensor_data_struct
p144
(dp145
g3
(lp146
I634
aI318
aI202
aI1123
aI2542
aF148.0
aI944
aI397
aI257
aI1549
aI2355
aF132.0
asg5
I0
sg6
(lp147
I-1
aI-1
aI-1
aI-1
aI-1
aI-1
asg8
(lp148
I31
aI17
aI-1
aF23.93600082397461
aF300.2239990234375
aF-1.0
aI30
aI24
aI-1
aF291.64801025390625
aF316.7359924316406
aF-1.0
asg10
(lp149
F-0.005
aF0.002
aF0.009000000000000001
asba(i__main__
sensor_data_struct
p150
(dp151
g3
(lp152
I645
aI322
aI204
aI1139
aI2529
aF149.0
aI978
aI417
aI265
aI1611
aI2353
aF146.0
asg5
I1
sg6
(lp153
I-1
aI-1
aI-1
aI-1
aI-1
aI-1
asg8
(lp154
I32
aI22
aI-1
aF24.128000259399414
aF299.9679870605469
aF-1.0
aI28
aI24
aI-1
aF295.23199462890625
aF319.48797607421875
aF-1.0
asg10
(lp155
F-0.001
aF0.003
aF0.012
asba(i__main__
sensor_data_struct
p156
(dp157
g3
(lp158
I572
aI310
aI188
aI1051
aI2602
aF165.0
aI1231
aI459
aI310
aI1921
aI2257
aF97.0
asg5
I0
sg6
(lp159
I-1
aI-1
aI-1
aI-1
aI-1
aI-1
asg8
(lp160
I28
aI22
aI-1
aF22.079998016357422
aF299.8399963378906
aF-1.0
aI30
aI26
aI-1
aF279.23199462890625
aF317.3119812011719
aF-1.0
asg10
(lp161
F-0.003
aF-0.003
aF0.004
asba(i__main__
sensor_data_struct
p162
(dp163
g3
(lp164
I642
aI318
aI201
aI1136
aI2534
aF146.0
aI978
aI403
aI264
aI1599
aI2352
aF125.0
asg5
I1
sg6
(lp165
I-1
aI-1
aI-1
aI-1
aI-1
aI-1
asg8
(lp166
I36
aI46
aI-1
aF23.615999221801758
aF299.3280029296875
aF-1.0
aI28
aI29
aI-1
aF296.7040100097656
aF312.1919860839844
aF-1.0
asg10
(lp167
F0.0
aF0.011000000000000001
aF0.013000000000000001
asba(i__main__
sensor_data_struct
p168
(dp169
g3
(lp170
I553
aI304
aI184
aI1023
aI2616
aF165.0
aI1167
aI450
aI298
aI1845
aI2276
aF113.0
asg5
I0
sg6
(lp171
I-1
aI-1
aI-1
aI-1
aI-1
aI-1
asg8
(lp172
I25
aI23
aI-1
aF22.144001007080078
aF299.71197509765625
aF-1.0
aI29
aI25
aI-1
aF287.3599853515625
aF319.1679992675781
aF-1.0
asg10
(lp173
F0.0
aF0.002
aF0.006999999999999999
asba(i__main__
sensor_data_struct
p174
(dp175
g3
(lp176
I566
aI309
aI187
aI1043
aI2608
aF167.0
aI713
aI336
aI215
aI1230
aI2474
aF141.0
asg5
I0
sg6
(lp177
I-1
aI-1
aI-1
aI-1
aI-1
aI-1
asg8
(lp178
I20
aI35
aI-1
aF23.23200035095215
aF301.1199951171875
aF-1.0
aI28
aI25
aI-1
aF286.3999938964844
aF322.0480041503906
aF-1.0
asg10
(lp179
F0.002
aF-0.004
aF0.006
asba(i__main__
sensor_data_struct
p180
(dp181
g3
(lp182
I586
aI310
aI190
aI1066
aI2581
aF159.0
aI1054
aI390
aI281
aI1655
aI2310
aF67.0
asg5
I0
sg6
(lp183
I-1
aI-1
aI-1
aI-1
aI-1
aI-1
asg8
(lp184
I31
aI27
aI-1
aF23.359996795654297
aF301.3119812011719
aF-1.0
aI29
aI26
aI-1
aF290.8800048828125
aF316.54400634765625
aF-1.0
asg10
(lp185
F-0.001
aF0.006999999999999999
aF0.008
asba(i__main__
sensor_data_struct
p186
(dp187
g3
(lp188
I584
aI312
aI190
aI1068
aI2590
aF163.0
aI885
aI374
aI247
aI1463
aI2387
aF122.0
asg5
I1
sg6
(lp189
I-1
aI-1
aI-1
aI-1
aI-1
aI-1
asg8
(lp190
I32
aI47
aI-1
aF24.447999954223633
aF299.8399963378906
aF-1.0
aI30
aI26
aI-1
aF296.1919860839844
aF313.2799987792969
aF-1.0
asg10
(lp191
F-0.002
aF0.01
aF0.013000000000000001
asba(i__main__
sensor_data_struct
p192
(dp193
g3
(lp194
I605
aI315
aI195
aI1093
aI2571
aF158.0
aI973
aI397
aI262
aI1586
aI2349
aF118.0
asg5
I1
sg6
(lp195
I-1
aI-1
aI-1
aI-1
aI-1
aI-1
asg8
(lp196
I49
aI43
aI-1
aF24.38399887084961
aF299.3919982910156
aF-1.0
aI31
aI30
aI-1
aF297.5359802246094
aF318.0159912109375
aF-1.0
asg10
(lp197
F0.006
aF0.01
aF0.013999999999999999
asba(i__main__
sensor_data_struct
p198
(dp199
g3
(lp200
I602
aI313
aI194
aI1085
aI2566
aF156.0
aI797
aI363
aI229
aI1353
aI2422
aF146.0
asg5
I1
sg6
(lp201
I-1
aI-1
aI-1
aI-1
aI-1
aI-1
asg8
(lp202
I19
aI35
aI-1
aF22.847999572753906
aF300.8639831542969
aF-1.0
aI21
aI34
aI-1
aF254.39999389648438
aF334.2720031738281
aF-1.0
asg10
(lp203
F0.006999999999999999
aF-0.002
aF0.006
asba(i__main__
sensor_data_struct
p204
(dp205
g3
(lp206
I568
aI305
aI187
aI1039
aI2599
aF160.0
aI775
aI343
aI225
aI1301
aI2421
aF125.0
asg5
I0
sg6
(lp207
I-1
aI-1
aI-1
aI-1
aI-1
aI-1
asg8
(lp208
I19
aI36
aI-1
aF21.375999450683594
aF300.35198974609375
aF-1.0
aI30
aI24
aI-1
aF278.3999938964844
aF315.3919982910156
aF-1.0
asg10
(lp209
F0.0
aF-0.006999999999999999
aF0.004
asba(i__main__
sensor_data_struct
p210
(dp211
g3
(lp212
I573
aI314
aI188
aI1056
aI2600
aF171.0
aI1053
aI444
aI277
aI1722
aI2322
aF156.0
asg5
I1
sg6
(lp213
I-1
aI-1
aI-1
aI-1
aI-1
aI-1
asg8
(lp214
I29
aI39
aI-1
aF25.3439998626709
aF301.1199951171875
aF-1.0
aI27
aI26
aI-1
aF294.2079772949219
aF327.23199462890625
aF-1.0
asg10
(lp215
F0.002
aF-0.006
aF0.011000000000000001
asba(i__main__
sensor_data_struct
p216
(dp217
g3
(lp218
I575
aI312
aI190
aI1055
aI2600
aF166.0
aI835
aI387
aI235
aI1424
aI2409
aF167.0
asg5
I1
sg6
(lp219
I-1
aI-1
aI-1
aI-1
aI-1
aI-1
asg8
(lp220
I54
aI45
aI-1
aF24.128000259399414
aF299.20001220703125
aF-1.0
aI32
aI31
aI-1
aF296.12799072265625
aF330.6879577636719
aF-1.0
asg10
(lp221
F-0.008
aF-0.01
aF0.013999999999999999
asba(i__main__
sensor_data_struct
p222
(dp223
g3
(lp224
I567
aI310
aI186
aI1046
aI2604
aF169.0
aI1132
aI446
aI292
aI1805
aI2291
aF122.0
asg5
I0
sg6
(lp225
I-1
aI-1
aI-1
aI-1
aI-1
aI-1
asg8
(lp226
I34
aI19
aI-1
aF23.93600082397461
aF301.3119812011719
aF-1.0
aI28
aI25
aI-1
aF289.9839782714844
aF316.09600830078125
aF-1.0
asg10
(lp227
F-0.005
aF0.005
aF0.008
asba(i__main__
sensor_data_struct
p228
(dp229
g3
(lp230
I560
aI308
aI185
aI1037
aI2612
aF168.0
aI888
aI370
aI247
aI1460
aI2380
aF114.0
asg5
I1
sg6
(lp231
I-1
aI-1
aI-1
aI-1
aI-1
aI-1
asg8
(lp232
I45
aI37
aI-1
aF25.088001251220703
aF299.64801025390625
aF-1.0
aI29
aI29
aI-1
aF297.21600341796875
aF321.21600341796875
aF-1.0
asg10
(lp233
F0.005
aF0.006999999999999999
aF0.013999999999999999
asba(i__main__
sensor_data_struct
p234
(dp235
g3
(lp236
I571
aI311
aI189
aI1050
aI2606
aF167.0
aI739
aI365
aI220
aI1297
aI2477
aF175.0
asg5
I1
sg6
(lp237
I-1
aI-1
aI-1
aI-1
aI-1
aI-1
asg8
(lp238
I55
aI26
aI-1
aF25.023998260498047
aF300.031982421875
aF-1.0
aI34
aI35
aI-1
aF313.66400146484375
aF343.3599853515625
aF-1.0
asg10
(lp239
F-0.009000000000000001
aF-0.005
aF0.011000000000000001
asba(i__main__
sensor_data_struct
p240
(dp241
g3
(lp242
I569
aI314
aI187
aI1052
aI2602
aF174.0
aI1040
aI434
aI275
aI1698
aI2329
aF146.0
asg5
I0
sg6
(lp243
I-1
aI-1
aI-1
aI-1
aI-1
aI-1
asg8
(lp244
I28
aI22
aI-1
aF25.023998260498047
aF300.8639831542969
aF-1.0
aI28
aI23
aI-1
aF294.2720031738281
aF324.8639831542969
aF-1.0
asg10
(lp245
F-0.001
aF0.0
aF0.011000000000000001
asba(i__main__
sensor_data_struct
p246
(dp247
g3
(lp248
I645
aI324
aI204
aI1141
aI2529
aF152.0
aI1025
aI419
aI273
aI1660
aI2327
aF128.0
asg5
I0
sg6
(lp249
I-1
aI-1
aI-1
aI-1
aI-1
aI-1
asg8
(lp250
I31
aI21
aI-1
aF24.76799964904785
aF300.79998779296875
aF-1.0
aI29
aI24
aI-1
aF290.30401611328125
aF321.7279968261719
aF-1.0
asg10
(lp251
F-0.003
aF-0.002
aF0.008
asba(i__main__
sensor_data_struct
p252
(dp253
g3
(lp254
I553
aI308
aI184
aI1028
aI2621
aF171.0
aI641
aI329
aI201
aI1146
aI2535
aF164.0
asg5
I1
sg6
(lp255
I-1
aI-1
aI-1
aI-1
aI-1
aI-1
asg8
(lp256
I54
aI48
aI-1
aF23.5519962310791
aF298.68798828125
aF-1.0
aI32
aI31
aI-1
aF296.83197021484375
aF329.21600341796875
aF-1.0
asg10
(lp257
F-0.003
aF-0.012
aF0.015
asba(i__main__
sensor_data_struct
p258
(dp259
g3
(lp260
I706
aI334
aI215
aI1220
aI2485
aF140.0
aI1055
aI422
aI277
aI1696
aI2311
aF120.0
asg5
I0
sg6
(lp261
I-1
aI-1
aI-1
aI-1
aI-1
aI-1
asg8
(lp262
I33
aI19
aI-1
aF23.871999740600586
aF301.5679931640625
aF-1.0
aI28
aI25
aI-1
aF290.11199951171875
aF315.20001220703125
aF-1.0
asg10
(lp263
F-0.005
aF0.006999999999999999
aF0.008
asba(i__main__
sensor_data_struct
p264
(dp265
g3
(lp266
I567
aI310
aI187
aI1045
aI2606
aF168.0
aI747
aI347
aI221
aI1280
aI2455
aF143.0
asg5
I0
sg6
(lp267
I-1
aI-1
aI-1
aI-1
aI-1
aI-1
asg8
(lp268
I30
aI24
aI-1
aF24.256000518798828
aF300.2239990234375
aF-1.0
aI27
aI24
aI-1
aF292.54400634765625
aF327.3599853515625
aF-1.0
asg10
(lp269
F-0.004
aF-0.006
aF0.009000000000000001
asba(i__main__
sensor_data_struct
p270
(dp271
g3
(lp272
I708
aI329
aI214
aI1215
aI2473
aF132.0
aI986
aI378
aI266
aI1562
aI2319
aF81.0
asg5
I0
sg6
(lp273
I-1
aI-1
aI-1
aI-1
aI-1
aI-1
asg8
(lp274
I25
aI23
aI-1
aF14.3360013961792
aF298.239990234375
aF-1.0
aI28
aI25
aI-1
aF267.20001220703125
aF307.9679870605469
aF-1.0
asg10
(lp275
F0.003
aF0.0
aF0.0
asba(i__main__
sensor_data_struct
p276
(dp277
g3
(lp278
I551
aI305
aI183
aI1022
aI2618
aF168.0
aI930
aI420
aI253
aI1563
aI2366
aF175.0
asg5
I1
sg6
(lp279
I-1
aI-1
aI-1
aI-1
aI-1
aI-1
asg8
(lp280
I56
aI45
aI-1
aF23.167997360229492
aF298.4319763183594
aF-1.0
aI32
aI34
aI-1
aF297.02398681640625
aF328.7040100097656
aF-1.0
asg10
(lp281
F-0.008
aF-0.006999999999999999
aF0.015
asba(i__main__
sensor_data_struct
p282
(dp283
g3
(lp284
I699
aI328
aI212
aI1203
aI2476
aF135.0
aI1077
aI403
aI282
aI1691
aI2294
aF80.0
asg5
I0
sg6
(lp285
I-1
aI-1
aI-1
aI-1
aI-1
aI-1
asg8
(lp286
I30
aI21
aI-1
aF19.327999114990234
aF298.0480041503906
aF-1.0
aI30
aI24
aI-1
aF271.3599853515625
aF311.42401123046875
aF-1.0
asg10
(lp287
F-0.002
aF0.002
aF0.002
asba(i__main__
sensor_data_struct
p288
(dp289
g3
(lp290
I565
aI307
aI186
aI1041
aI2608
aF164.0
aI1066
aI446
aI281
aI1740
aI2325
aF152.0
asg5
I1
sg6
(lp291
I-1
aI-1
aI-1
aI-1
aI-1
aI-1
asg8
(lp292
I38
aI47
aI-1
aF24.128000259399414
aF299.90399169921875
aF-1.0
aI29
aI27
aI-1
aF295.93597412109375
aF316.35198974609375
aF-1.0
asg10
(lp293
F0.0
aF0.01
aF0.013000000000000001
asba(i__main__
sensor_data_struct
p294
(dp295
g3
(lp296
I550
aI306
aI183
aI1023
aI2621
aF170.0
aI897
aI424
aI246
aI1534
aI2385
aF197.0
asg5
I1
sg6
(lp297
I-1
aI-1
aI-1
aI-1
aI-1
aI-1
asg8
(lp298
I43
aI38
aI-1
aF23.808000564575195
aF299.8399963378906
aF-1.0
aI33
aI36
aI-1
aF309.3760070800781
aF343.61602783203125
aF-1.0
asg10
(lp299
F0.006
aF-0.004
aF0.012
asba(i__main__
sensor_data_struct
p300
(dp301
g3
(lp302
I564
aI309
aI185
aI1041
aI2603
aF169.0
aI819
aI358
aI232
aI1370
aI2405
aF129.0
asg5
I0
sg6
(lp303
I-1
aI-1
aI-1
aI-1
aI-1
aI-1
asg8
(lp304
I48
aI32
aI-1
aF25.088001251220703
aF299.7760009765625
aF-1.0
aI28
aI27
aI-1
aF295.67999267578125
aF329.9839782714844
aF-1.0
asg10
(lp305
F0.012
aF0.003
aF0.013000000000000001
asba(i__main__
sensor_data_struct
p306
(dp307
g3
(lp308
I556
aI305
aI184
aI1028
aI2614
aF166.0
aI701
aI330
aI212
aI1210
aI2481
aF138.0
asg5
I1
sg6
(lp309
I-1
aI-1
aI-1
aI-1
aI-1
aI-1
asg8
(lp310
I28
aI27
aI-1
aF24.256000518798828
aF300.15997314453125
aF-1.0
aI28
aI25
aI-1
aF295.93597412109375
aF329.47198486328125
aF-1.0
asg10
(lp311
F0.003
aF-0.001
aF0.013000000000000001
asba(i__main__
sensor_data_struct
p312
(dp313
g3
(lp314
I561
aI310
aI185
aI1040
aI2610
aF171.0
aI924
aI414
aI256
aI1552
aI2382
aF166.0
asg5
I1
sg6
(lp315
I-1
aI-1
aI-1
aI-1
aI-1
aI-1
asg8
(lp316
I40
aI12
aI-1
aF26.49599838256836
aF302.08001708984375
aF-1.0
aI40
aI13
aI-1
aF298.81597900390625
aF315.5199890136719
aF-1.0
asg10
(lp317
F-0.006999999999999999
aF0.002
aF0.008
asba(i__main__
sensor_data_struct
p318
(dp319
g3
(lp320
I547
aI306
aI184
aI1020
aI2635
aF170.0
aI638
aI333
aI201
aI1150
aI2545
aF171.0
asg5
I1
sg6
(lp321
I-1
aI-1
aI-1
aI-1
aI-1
aI-1
asg8
(lp322
I57
aI47
aI-1
aF23.423999786376953
aF298.55999755859375
aF-1.0
aI37
aI35
aI-1
aF313.343994140625
aF340.99200439453125
aF-1.0
asg10
(lp323
F0.001
aF-0.011000000000000001
aF0.013000000000000001
asba(i__main__
sensor_data_struct
p324
(dp325
g3
(lp326
I835
aI351
aI240
aI1378
aI2405
aF107.0
aI1264
aI448
aI321
aI1951
aI2263
aF61.0
asg5
I0
sg6
(lp327
I-1
aI-1
aI-1
aI-1
aI-1
aI-1
asg8
(lp328
I34
aI35
aI-1
aF26.047998428344727
aF300.15997314453125
aF-1.0
aI29
aI25
aI-1
aF292.2879943847656
aF317.3760070800781
aF-1.0
asg10
(lp329
F0.004
aF0.008
aF0.009000000000000001
asba(i__main__
sensor_data_struct
p330
(dp331
g3
(lp332
I558
aI309
aI185
aI1035
aI2617
aF171.0
aI1038
aI450
aI277
aI1718
aI2344
aF170.0
asg5
I1
sg6
(lp333
I-1
aI-1
aI-1
aI-1
aI-1
aI-1
asg8
(lp334
I35
aI43
aI-1
aF24.128000259399414
aF300.031982421875
aF-1.0
aI28
aI28
aI-1
aF297.02398681640625
aF311.6159973144531
aF-1.0
asg10
(lp335
F-0.005
aF0.01
aF0.013999999999999999
asba(i__main__
sensor_data_struct
p336
(dp337
g3
(lp338
I545
aI305
aI183
aI1018
aI2637
aF170.0
aI878
aI421
aI245
aI1513
aI2406
aF200.0
asg5
I1
sg6
(lp339
I-1
aI-1
aI-1
aI-1
aI-1
aI-1
asg8
(lp340
I52
aI42
aI-1
aF23.615999221801758
aF298.81597900390625
aF-1.0
aI31
aI35
aI-1
aF293.6319885253906
aF336.76800537109375
aF-1.0
asg10
(lp341
F0.003
aF-0.006
aF0.015
asba(i__main__
sensor_data_struct
p342
(dp343
g3
(lp344
I583
aI314
aI190
aI1068
aI2592
aF167.0
aI771
aI351
aI226
aI1309
aI2439
aF138.0
asg5
I0
sg6
(lp345
I-1
aI-1
aI-1
aI-1
aI-1
aI-1
asg8
(lp346
I29
aI25
aI-1
aF24.639999389648438
aF300.79998779296875
aF-1.0
aI29
aI26
aI-1
aF290.81597900390625
aF325.44000244140625
aF-1.0
asg10
(lp347
F-0.002
aF-0.003
aF0.008
asba(i__main__
sensor_data_struct
p348
(dp349
g3
(lp350
I572
aI308
aI189
aI1046
aI2599
aF162.0
aI861
aI394
aI239
aI1461
aI2396
aF167.0
asg5
I1
sg6
(lp351
I-1
aI-1
aI-1
aI-1
aI-1
aI-1
asg8
(lp352
I53
aI34
aI-1
aF23.615999221801758
aF298.81597900390625
aF-1.0
aI30
aI30
aI-1
aF296.57598876953125
aF328.76800537109375
aF-1.0
asg10
(lp353
F0.012
aF0.0
aF0.013999999999999999
asba(i__main__
sensor_data_struct
p354
(dp355
g3
(lp356
I551
aI306
aI183
aI1024
aI2618
aF170.0
aI1014
aI427
aI270
aI1661
aI2334
aF147.0
asg5
I0
sg6
(lp357
I-1
aI-1
aI-1
aI-1
aI-1
aI-1
asg8
(lp358
I35
aI24
aI-1
aF24.576000213623047
aF300.79998779296875
aF-1.0
aI30
aI23
aI-1
aF293.3760070800781
aF315.71197509765625
aF-1.0
asg10
(lp359
F-0.006999999999999999
aF0.005
aF0.011000000000000001
asba(i__main__
sensor_data_struct
p360
(dp361
g3
(lp362
I649
aI321
aI203
aI1145
aI2525
aF147.0
aI911
aI374
aI252
aI1484
aI2363
aF110.0
asg5
I0
sg6
(lp363
I-1
aI-1
aI-1
aI-1
aI-1
aI-1
asg8
(lp364
I30
aI16
aI-1
aF23.040000915527344
aF299.583984375
aF-1.0
aI29
aI26
aI-1
aF282.68798828125
aF313.6000061035156
aF-1.0
asg10
(lp365
F-0.003
aF0.002
aF0.003
asba(i__main__
sensor_data_struct
p366
(dp367
g3
(lp368
I574
aI310
aI189
aI1053
aI2600
aF164.0
aI802
aI373
aI230
aI1372
aI2428
aF160.0
asg5
I1
sg6
(lp369
I-1
aI-1
aI-1
aI-1
aI-1
aI-1
asg8
(lp370
I50
aI33
aI-1
aF24.31999969482422
aF299.3280029296875
aF-1.0
aI29
aI28
aI-1
aF296.447998046875
aF326.2720031738281
aF-1.0
asg10
(lp371
F-0.005
aF-0.003
aF0.013000000000000001
asba(i__main__
sensor_data_struct
p372
(dp373
g3
(lp374
I562
aI311
aI186
aI1042
aI2615
aF172.0
aI999
aI433
aI267
aI1652
aI2343
aF163.0
asg5
I1
sg6
(lp375
I-1
aI-1
aI-1
aI-1
aI-1
aI-1
asg8
(lp376
I49
aI41
aI-1
aF23.93600082397461
aF299.45599365234375
aF-1.0
aI29
aI24
aI-1
aF294.9119873046875
aF327.42401123046875
aF-1.0
asg10
(lp377
F-0.002
aF-0.01
aF0.012
asba(i__main__
sensor_data_struct
p378
(dp379
g3
(lp380
I658
aI321
aI204
aI1154
aI2515
aF143.0
aI980
aI414
aI263
aI1610
aI2346
aF142.0
asg5
I1
sg6
(lp381
I-1
aI-1
aI-1
aI-1
aI-1
aI-1
asg8
(lp382
I49
aI31
aI-1
aF24.511999130249023
aF298.9440002441406
aF-1.0
aI30
aI28
aI-1
aF296.0639953613281
aF326.52801513671875
aF-1.0
asg10
(lp383
F0.01
aF0.004
aF0.013000000000000001
asba(i__main__
sensor_data_struct
p384
(dp385
g3
(lp386
I595
aI314
aI193
aI1079
aI2578
aF161.0
aI877
aI401
aI244
aI1490
aI2399
aF169.0
asg5
I1
sg6
(lp387
I-1
aI-1
aI-1
aI-1
aI-1
aI-1
asg8
(lp388
I40
aI49
aI-1
aF24.128000259399414
aF299.45599365234375
aF-1.0
aI33
aI32
aI-1
aF297.91998291015625
aF313.66400146484375
aF-1.0
asg10
(lp389
F-0.006999999999999999
aF0.006999999999999999
aF0.015
asba(i__main__
sensor_data_struct
p390
(dp391
g3
(lp392
I594
aI320
aI192
aI1089
aI2587
aF171.0
aI1036
aI450
aI275
aI1715
aI2338
aF172.0
asg5
I1
sg6
(lp393
I-1
aI-1
aI-1
aI-1
aI-1
aI-1
asg8
(lp394
I44
aI42
aI-1
aF24.703998565673828
aF299.0719909667969
aF-1.0
aI30
aI28
aI-1
aF296.7040100097656
aF308.60797119140625
aF-1.0
asg10
(lp395
F-0.009000000000000001
aF0.006999999999999999
aF0.013999999999999999
asba(i__main__
sensor_data_struct
p396
(dp397
g3
(lp398
I564
aI312
aI186
aI1045
aI2610
aF173.0
aI1063
aI438
aI279
aI1723
aI2314
aF142.0
asg5
I0
sg6
(lp399
I-1
aI-1
aI-1
aI-1
aI-1
aI-1
asg8
(lp400
I41
aI19
aI-1
aF24.703998565673828
aF300.2879943847656
aF-1.0
aI29
aI24
aI-1
aF293.5039978027344
aF321.91998291015625
aF-1.0
asg10
(lp401
F-0.005
aF-0.001
aF0.01
asba(i__main__
sensor_data_struct
p402
(dp403
g3
(lp404
I678
aI329
aI210
aI1185
aI2507
aF145.0
aI1027
aI421
aI273
aI1667
aI2328
aF131.0
asg5
I0
sg6
(lp405
I-1
aI-1
aI-1
aI-1
aI-1
aI-1
asg8
(lp406
I35
aI24
aI-1
aF23.487998962402344
aF301.05596923828125
aF-1.0
aI29
aI23
aI-1
aF292.7359924316406
aF311.03997802734375
aF-1.0
asg10
(lp407
F-0.006
aF0.009000000000000001
aF0.01
asba(i__main__
sensor_data_struct
p408
(dp409
g3
(lp410
I548
aI304
aI183
aI1019
aI2625
aF167.0
aI683
aI334
aI209
aI1198
aI2501
aF152.0
asg5
I1
sg6
(lp411
I-1
aI-1
aI-1
aI-1
aI-1
aI-1
asg8
(lp412
I29
aI37
aI-1
aF24.191999435424805
aF300.09600830078125
aF-1.0
aI24
aI38
aI-1
aF307.3280029296875
aF340.9280090332031
aF-1.0
asg10
(lp413
F0.006999999999999999
aF-0.003
aF0.01
asba(i__main__
sensor_data_struct
p414
(dp415
g3
(lp416
I615
aI317
aI196
aI1105
aI2557
aF157.0
aI902
aI382
aI249
aI1488
aI2373
aF127.0
asg5
I0
sg6
(lp417
I-1
aI-1
aI-1
aI-1
aI-1
aI-1
asg8
(lp418
I30
aI23
aI-1
aF23.67999839782715
aF301.5039978027344
aF-1.0
aI30
aI25
aI-1
aF293.7599792480469
aF317.7599792480469
aF-1.0
asg10
(lp419
F-0.003
aF0.005
aF0.011000000000000001
asba(i__main__
sensor_data_struct
p420
(dp421
g3
(lp422
I595
aI314
aI191
aI1081
aI2574
aF162.0
aI944
aI387
aI258
aI1539
aI2356
aF115.0
asg5
I0
sg6
(lp423
I-1
aI-1
aI-1
aI-1
aI-1
aI-1
asg8
(lp424
I31
aI28
aI-1
aF24.703998565673828
aF301.3119812011719
aF-1.0
aI29
aI26
aI-1
aF295.03997802734375
aF316.99200439453125
aF-1.0
asg10
(lp425
F-0.001
aF0.006999999999999999
aF0.012
asba(i__main__
sensor_data_struct
p426
(dp427
g3
(lp428
I569
aI310
aI188
aI1049
aI2608
aF166.0
aI702
aI350
aI213
aI1238
aI2496
aF168.0
asg5
I1
sg6
(lp429
I-1
aI-1
aI-1
aI-1
aI-1
aI-1
asg8
(lp430
I53
aI14
aI-1
aF25.600000381469727
aF300.8639831542969
aF-1.0
aI35
aI37
aI-1
aF314.0480041503906
aF339.3280029296875
aF-1.0
asg10
(lp431
F-0.009000000000000001
aF-0.005
aF0.009000000000000001
asba(i__main__
sensor_data_struct
p432
(dp433
g3
(lp434
I569
aI312
aI187
aI1050
aI2602
aF170.0
aI1068
aI446
aI282
aI1742
aI2324
aF150.0
asg5
I0
sg6
(lp435
I-1
aI-1
aI-1
aI-1
aI-1
aI-1
asg8
(lp436
I31
aI21
aI-1
aF24.06399917602539
aF300.79998779296875
aF-1.0
aI29
aI25
aI-1
aF294.2079772949219
aF318.08001708984375
aF-1.0
asg10
(lp437
F-0.004
aF0.004
aF0.011000000000000001
asba(i__main__
sensor_data_struct
p438
(dp439
g3
(lp440
I575
aI310
aI188
aI1056
aI2600
aF165.0
aI898
aI377
aI248
aI1478
aI2373
aF121.0
asg5
I0
sg6
(lp441
I-1
aI-1
aI-1
aI-1
aI-1
aI-1
asg8
(lp442
I45
aI32
aI-1
aF25.535999298095703
aF299.3919982910156
aF-1.0
aI30
aI25
aI-1
aF294.8479919433594
aF326.78399658203125
aF-1.0
asg10
(lp443
F0.009000000000000001
aF0.003
aF0.012
asba(i__main__
sensor_data_struct
p444
(dp445
g3
(lp446
I550
aI306
aI183
aI1024
aI2625
aF170.0
aI710
aI358
aI212
aI1258
aI2486
aF179.0
asg5
I1
sg6
(lp447
I-1
aI-1
aI-1
aI-1
aI-1
aI-1
asg8
(lp448
I53
aI43
aI-1
aF23.67999839782715
aF299.26397705078125
aF-1.0
aI36
aI37
aI-1
aF312.76800537109375
aF344.5119934082031
aF-1.0
asg10
(lp449
F0.008
aF-0.005
aF0.015
asba(i__main__
sensor_data_struct
p450
(dp451
g3
(lp452
I563
aI310
aI186
aI1042
aI2612
aF170.0
aI645
aI322
aI203
aI1142
aI2532
aF150.0
asg5
I1
sg6
(lp453
I-1
aI-1
aI-1
aI-1
aI-1
aI-1
asg8
(lp454
I37
aI34
aI-1
aF24.511999130249023
aF300.2879943847656
aF-1.0
aI28
aI25
aI-1
aF294.3999938964844
aF328.76800537109375
aF-1.0
asg10
(lp455
F-0.002
aF-0.006999999999999999
aF0.011000000000000001
asba(i__main__
sensor_data_struct
p456
(dp457
g3
(lp458
I585
aI312
aI190
aI1067
aI2583
aF163.0
aI810
aI369
aI231
aI1376
aI2419
aF150.0
asg5
I0
sg6
(lp459
I-1
aI-1
aI-1
aI-1
aI-1
aI-1
asg8
(lp460
I26
aI34
aI-1
aF24.831998825073242
aF300.79998779296875
aF-1.0
aI26
aI27
aI-1
aF292.4800109863281
aF324.79998779296875
aF-1.0
asg10
(lp461
F0.006999999999999999
aF-0.002
aF0.01
asba(i__main__
sensor_data_struct
p462
(dp463
g3
(lp464
I607
aI315
aI194
aI1094
aI2560
aF158.0
aI889
aI387
aI247
aI1482
aI2386
aF141.0
asg5
I1
sg6
(lp465
I-1
aI-1
aI-1
aI-1
aI-1
aI-1
asg8
(lp466
I34
aI30
aI-1
aF25.3439998626709
aF300.15997314453125
aF-1.0
aI30
aI29
aI-1
aF297.02398681640625
aF323.583984375
aF-1.0
asg10
(lp467
F0.003
aF0.004
aF0.013999999999999999
asba(i__main__
sensor_data_struct
p468
(dp469
g3
(lp470
I662
aI324
aI205
aI1162
aI2514
aF146.0
aI1004
aI390
aI271
aI1600
aI2327
aF91.0
asg5
I0
sg6
(lp471
I-1
aI-1
aI-1
aI-1
aI-1
aI-1
asg8
(lp472
I27
aI23
aI-1
aF21.5679988861084
aF299.583984375
aF-1.0
aI30
aI25
aI-1
aF280.1919860839844
aF317.05596923828125
aF-1.0
asg10
(lp473
F0.001
aF0.001
aF0.004
asba(i__main__
sensor_data_struct
p474
(dp475
g3
(lp476
I738
aI337
aI221
aI1260
aI2465
aF130.0
aI1112
aI427
aI290
aI1765
aI2301
aF100.0
asg5
I0
sg6
(lp477
I-1
aI-1
aI-1
aI-1
aI-1
aI-1
asg8
(lp478
I31
aI30
aI-1
aF23.615999221801758
aF300.4800109863281
aF-1.0
aI28
aI26
aI-1
aF291.20001220703125
aF316.60797119140625
aF-1.0
asg10
(lp479
F-0.002
aF0.008
aF0.008
asba(i__main__
sensor_data_struct
p480
(dp481
g3
(lp482
I653
aI322
aI205
aI1150
aI2525
aF146.0
aI1005
aI410
aI267
aI1630
aI2328
aF125.0
asg5
I0
sg6
(lp483
I-1
aI-1
aI-1
aI-1
aI-1
aI-1
asg8
(lp484
I25
aI31
aI-1
aF24.256000518798828
aF300.4800109863281
aF-1.0
aI28
aI25
aI-1
aF290.81597900390625
aF325.1839904785156
aF-1.0
asg10
(lp485
F0.008
aF0.0
aF0.008
asba(i__main__
sensor_data_struct
p486
(dp487
g3
(lp488
I552
aI306
aI184
aI1024
aI2618
aF169.0
aI687
aI340
aI209
aI1209
aI2498
aF160.0
asg5
I1
sg6
(lp489
I-1
aI-1
aI-1
aI-1
aI-1
aI-1
asg8
(lp490
I56
aI43
aI-1
aF23.423999786376953
aF298.6239929199219
aF-1.0
aI31
aI31
aI-1
aF296.12799072265625
aF330.6239929199219
aF-1.0
asg10
(lp491
F-0.006999999999999999
aF-0.009000000000000001
aF0.013999999999999999
asba(i__main__
sensor_data_struct
p492
(dp493
g3
(lp494
I577
aI310
aI188
aI1056
aI2591
aF164.0
aI840
aI355
aI238
aI1385
aI2390
aF113.0
asg5
I0
sg6
(lp495
I-1
aI-1
aI-1
aI-1
aI-1
aI-1
asg8
(lp496
I21
aI32
aI-1
aF24.576000213623047
aF300.99200439453125
aF-1.0
aI29
aI24
aI-1
aF287.03997802734375
aF322.239990234375
aF-1.0
asg10
(lp497
F0.006999999999999999
aF-0.001
aF0.006
asba(i__main__
sensor_data_struct
p498
(dp499
g3
(lp500
I565
aI309
aI186
aI1043
aI2608
aF168.0
aI701
aI336
aI212
aI1220
aI2489
aF147.0
asg5
I1
sg6
(lp501
I-1
aI-1
aI-1
aI-1
aI-1
aI-1
asg8
(lp502
I34
aI30
aI-1
aF24.511999130249023
aF299.8399963378906
aF-1.0
aI32
aI30
aI-1
aF297.91998291015625
aF330.17596435546875
aF-1.0
asg10
(lp503
F0.003
aF-0.001
aF0.015
asba(i__main__
sensor_data_struct
p504
(dp505
g3
(lp506
I649
aI337
aI201
aI1168
aI2534
aF174.0
aI1050
aI441
aI277
aI1715
aI2324
aF152.0
asg5
I1
sg6
(lp507
I-1
aI-1
aI-1
aI-1
aI-1
aI-1
asg8
(lp508
I33
aI29
aI-1
aF25.72800064086914
aF300.35198974609375
aF-1.0
aI31
aI26
aI-1
aF295.2959899902344
aF326.0159912109375
aF-1.0
asg10
(lp509
F0.004
aF0.002
aF0.012
asba(i__main__
sensor_data_struct
p510
(dp511
g3
(lp512
I561
aI310
aI186
aI1039
aI2612
aF171.0
aI663
aI330
aI205
aI1171
aI2516
aF155.0
asg5
I1
sg6
(lp513
I-1
aI-1
aI-1
aI-1
aI-1
aI-1
asg8
(lp514
I50
aI35
aI-1
aF24.38399887084961
aF299.71197509765625
aF-1.0
aI30
aI26
aI-1
aF295.7439880371094
aF326.78399658203125
aF-1.0
asg10
(lp515
F-0.006
aF-0.005
aF0.013000000000000001
asba(i__main__
sensor_data_struct
p516
(dp517
g3
(lp518
I598
aI322
aI192
aI1095
aI2579
aF173.0
aI1011
aI426
aI269
aI1656
aI2333
aF147.0
asg5
I0
sg6
(lp519
I-1
aI-1
aI-1
aI-1
aI-1
aI-1
asg8
(lp520
I34
aI27
aI-1
aF25.023998260498047
aF300.60797119140625
aF-1.0
aI28
aI25
aI-1
aF293.8240051269531
aF327.67999267578125
aF-1.0
asg10
(lp521
F-0.005
aF-0.005
aF0.009000000000000001
asba(i__main__
sensor_data_struct
p522
(dp523
g3
(lp524
I551
aI307
aI183
aI1025
aI2618
aF171.0
aI954
aI417
aI259
aI1587
aI2362
aF158.0
asg5
I1
sg6
(lp525
I-1
aI-1
aI-1
aI-1
aI-1
aI-1
asg8
(lp526
I31
aI28
aI-1
aF24.76799964904785
aF300.35198974609375
aF-1.0
aI29
aI29
aI-1
aF296.7040100097656
aF328.0639953613281
aF-1.0
asg10
(lp527
F0.003
aF0.002
aF0.004
asba(i__main__
sensor_data_struct
p528
(dp529
g3
(lp530
I551
aI307
aI183
aI1025
aI2618
aF171.0
aI930
aI446
aI254
aI1598
aI2383
aF216.0
asg5
I1
sg6
(lp531
I-1
aI-1
aI-1
aI-1
aI-1
aI-1
asg8
(lp532
I42
aI47
aI-1
aF24.831998825073242
aF299.9679870605469
aF-1.0
aI29
aI37
aI-1
aF310.52801513671875
aF344.5119934082031
aF-1.0
asg10
(lp533
F0.004
aF-0.009000000000000001
aF0.01
asba(i__main__
sensor_data_struct
p534
(dp535
g3
(lp536
I645
aI323
aI204
aI1141
aI2534
aF151.0
aI993
aI400
aI267
aI1602
aI2331
aF113.0
asg5
I0
sg6
(lp537
I-1
aI-1
aI-1
aI-1
aI-1
aI-1
asg8
(lp538
I26
aI22
aI-1
aF22.847999572753906
aF300.6719970703125
aF-1.0
aI31
aI24
aI-1
aF281.9839782714844
aF317.6319885253906
aF-1.0
asg10
(lp539
F-0.002
aF-0.002
aF0.005
asba(i__main__
sensor_data_struct
p540
(dp541
g3
(lp542
I574
aI311
aI188
aI1055
aI2598
aF166.0
aI706
aI337
aI214
aI1223
aI2480
aF146.0
asg5
I0
sg6
(lp543
I-1
aI-1
aI-1
aI-1
aI-1
aI-1
asg8
(lp544
I37
aI26
aI-1
aF24.639999389648438
aF300.4159851074219
aF-1.0
aI30
aI24
aI-1
aF293.3760070800781
aF326.0159912109375
aF-1.0
asg10
(lp545
F-0.003
aF-0.004
aF0.01
asba(i__main__
sensor_data_struct
p546
(dp547
g3
(lp548
I564
aI309
aI186
aI1041
aI2606
aF168.0
aI701
aI353
aI211
aI1241
aI2491
aF175.0
asg5
I1
sg6
(lp549
I-1
aI-1
aI-1
aI-1
aI-1
aI-1
asg8
(lp550
I20
aI48
aI-1
aF25.280000686645508
aF300.2879943847656
aF-1.0
aI20
aI37
aI-1
aF309.1839904785156
aF341.69598388671875
aF-1.0
asg10
(lp551
F0.004
aF-0.009000000000000001
aF0.009000000000000001
asba(i__main__
sensor_data_struct
p552
(dp553
g3
(lp554
I572
aI312
aI187
aI1054
aI2600
aF169.0
aI685
aI330
aI208
aI1194
aI2492
aF146.0
asg5
I1
sg6
(lp555
I-1
aI-1
aI-1
aI-1
aI-1
aI-1
asg8
(lp556
I24
aI36
aI-1
aF24.639999389648438
aF300.7359924316406
aF-1.0
aI27
aI36
aI-1
aF307.71197509765625
aF343.23199462890625
aF-1.0
asg10
(lp557
F0.005
aF-0.004
aF0.01
asba(i__main__
sensor_data_struct
p558
(dp559
g3
(lp560
I636
aI323
aI200
aI1133
aI2534
aF156.0
aI915
aI396
aI251
aI1522
aI2374
aF144.0
asg5
I1
sg6
(lp561
I-1
aI-1
aI-1
aI-1
aI-1
aI-1
asg8
(lp562
I40
aI33
aI-1
aF26.368000030517578
aF300.54400634765625
aF-1.0
aI30
aI28
aI-1
aF297.47198486328125
aF322.75201416015625
aF-1.0
asg10
(lp563
F0.004
aF0.005
aF0.015
asba(i__main__
sensor_data_struct
p564
(dp565
g3
(lp566
I663
aI327
aI205
aI1169
aI2516
aF150.0
aI984
aI404
aI265
aI1606
aI2350
aF124.0
asg5
I1
sg6
(lp567
I-1
aI-1
aI-1
aI-1
aI-1
aI-1
asg8
(lp568
I35
aI39
aI-1
aF25.600000381469727
aF301.5039978027344
aF-1.0
aI30
aI28
aI-1
aF296.6399841308594
aF316.7359924316406
aF-1.0
asg10
(lp569
F0.001
aF0.009000000000000001
aF0.013000000000000001
asba(i__main__
sensor_data_struct
p570
(dp571
g3
(lp572
I568
aI309
aI187
aI1046
aI2604
aF166.0
aI1216
aI459
aI307
aI1909
aI2266
aF104.0
asg5
I0
sg6
(lp573
I-1
aI-1
aI-1
aI-1
aI-1
aI-1
asg8
(lp574
I19
aI33
aI-1
aF22.01599884033203
aF301.8240051269531
aF-1.0
aI28
aI24
aI-1
aF283.3919982910156
aF318.59197998046875
aF-1.0
asg10
(lp575
F0.004
aF-0.002
aF0.005
asba(i__main__
sensor_data_struct
p576
(dp577
g3
(lp578
I586
aI312
aI191
aI1068
aI2588
aF162.0
aI777
aI341
aI228
aI1301
aI2430
aF119.0
asg5
I0
sg6
(lp579
I-1
aI-1
aI-1
aI-1
aI-1
aI-1
asg8
(lp580
I27
aI22
aI-1
aF21.183998107910156
aF299.3280029296875
aF-1.0
aI27
aI25
aI-1
aF274.1759948730469
aF314.11199951171875
aF-1.0
asg10
(lp581
F-0.003
aF-0.003
aF0.003
asba(i__main__
sensor_data_struct
p582
(dp583
g3
(lp584
I584
aI312
aI191
aI1067
aI2592
aF163.0
aI843
aI384
aI239
aI1433
aI2418
aF157.0
asg5
I1
sg6
(lp585
I-1
aI-1
aI-1
aI-1
aI-1
aI-1
asg8
(lp586
I34
aI47
aI-1
aF23.615999221801758
aF299.583984375
aF-1.0
aI31
aI30
aI-1
aF297.91998291015625
aF309.9519958496094
aF-1.0
asg10
(lp587
F-0.006
aF0.011000000000000001
aF0.015
asba(i__main__
sensor_data_struct
p588
(dp589
g3
(lp590
I548
aI305
aI184
aI1019
aI2628
aF168.0
aI746
aI376
aI219
aI1318
aI2469
aF190.0
asg5
I1
sg6
(lp591
I-1
aI-1
aI-1
aI-1
aI-1
aI-1
asg8
(lp592
I58
aI50
aI-1
aF23.1039981842041
aF298.4319763183594
aF-1.0
aI36
aI38
aI-1
aF312.6399841308594
aF341.1199951171875
aF-1.0
asg10
(lp593
F0.006999999999999999
aF-0.01
aF0.013000000000000001
asba(i__main__
sensor_data_struct
p594
(dp595
g3
(lp596
I720
aI333
aI216
aI1233
aI2465
aF133.0
aI1152
aI418
aI297
aI1789
aI2274
aF68.0
asg5
I0
sg6
(lp597
I-1
aI-1
aI-1
aI-1
aI-1
aI-1
asg8
(lp598
I25
aI30
aI-1
aF23.808000564575195
aF300.2879943847656
aF-1.0
aI30
aI24
aI-1
aF280.12799072265625
aF317.05596923828125
aF-1.0
asg10
(lp599
F0.005
aF0.002
aF0.004
asba(i__main__
sensor_data_struct
p600
(dp601
g3
(lp602
I551
aI307
aI184
aI1025
aI2625
aF171.0
aI962
aI457
aI260
aI1645
aI2370
aF218.0
asg5
I1
sg6
(lp603
I-1
aI-1
aI-1
aI-1
aI-1
aI-1
asg8
(lp604
I57
aI47
aI-1
aF24.703998565673828
aF299.3919982910156
aF-1.0
aI37
aI36
aI-1
aF313.7919921875
aF338.7520446777344
aF-1.0
asg10
(lp605
F-0.011000000000000001
aF0.0
aF0.013999999999999999
asba.