(lp0
(i__main__
sensor_data_struct
p1
(dp2
S'color'
p3
(lp4
I510
aI295
aI184
aI950
aI2671
aF165.0
aI713
aI328
aI224
aI1203
aI2469
aF122.0
asS'button'
p5
I0
sS'IR'
p6
(lp7
I-1
aI-1
aI-1
aI-1
aI-1
aI-1
asS'TOF'
p8
(lp9
I16
aI31
aI-1
aF-1.0
aF-1.0
aF-1.0
aI24
aI22
aI-1
aF-1.0
aF-1.0
aF-1.0
asS'pt'
p10
(lp11
F0.006
aF-0.004
aF0.009000000000000001
asba(i__main__
sensor_data_struct
p12
(dp13
g3
(lp14
I574
aI309
aI191
aI1032
aI2562
aF161.0
aI1048
aI378
aI285
aI1618
aI2299
aF47.0
asg5
I0
sg6
(lp15
I-1
aI-1
aI-1
aI-1
aI-1
aI-1
asg8
(lp16
I46
aI34
aI-1
aF-1.0
aF-1.0
aF-1.0
aI22
aI24
aI-1
aF-1.0
aF-1.0
aF-1.0
asg10
(lp17
F0.008
aF0.003
aF0.011000000000000001
asba(i__main__
sensor_data_struct
p18
(dp19
g3
(lp20
I573
aI308
aI193
aI1027
aI2568
aF158.0
aI914
aI380
aI253
aI1473
aI2329
aF117.0
asg5
I0
sg6
(lp21
I-1
aI-1
aI-1
aI-1
aI-1
aI-1
asg8
(lp22
I13
aI32
aI-1
aF-1.0
aF-1.0
aF-1.0
aI25
aI21
aI-1
aF-1.0
aF-1.0
aF-1.0
asg10
(lp23
F0.003
aF-0.006
aF0.006999999999999999
asba(i__main__
sensor_data_struct
p24
(dp25
g3
(lp26
I559
aI307
aI190
aI1012
aI2582
aF164.0
aI1167
aI402
aI305
aI1787
aI2279
aF32.0
asg5
I1
sg6
(lp27
I-1
aI-1
aI-1
aI-1
aI-1
aI-1
asg8
(lp28
I52
aI49
aI-1
aF-1.0
aF-1.0
aF-1.0
aI35
aI37
aI-1
aF-1.0
aF-1.0
aF-1.0
asg10
(lp29
F0.006
aF0.01
aF0.013999999999999999
asba(i__main__
sensor_data_struct
p30
(dp31
g3
(lp32
I564
aI312
aI190
aI1025
aI2581
aF170.0
aI641
aI321
aI206
aI1114
aI2501
aF147.0
asg5
I1
sg6
(lp33
I-1
aI-1
aI-1
aI-1
aI-1
aI-1
asg8
(lp34
I37
aI40
aI-1
aF-1.0
aF-1.0
aF-1.0
aI31
aI37
aI-1
aF-1.0
aF-1.0
aF-1.0
asg10
(lp35
F0.005
aF-0.008
aF0.012
asba(i__main__
sensor_data_struct
p36
(dp37
g3
(lp38
I563
aI310
aI189
aI1021
aI2576
aF168.0
aI1280
aI419
aI325
aI1913
aI2230
aF7.0
asg5
I0
sg6
(lp39
I-1
aI-1
aI-1
aI-1
aI-1
aI-1
asg8
(lp40
I39
aI44
aI-1
aF-1.0
aF-1.0
aF-1.0
aI24
aI23
aI-1
aF-1.0
aF-1.0
aF-1.0
asg10
(lp41
F0.0
aF0.008
aF0.011000000000000001
asba(i__main__
sensor_data_struct
p42
(dp43
g3
(lp44
I601
aI317
aI197
aI1073
aI2547
aF161.0
aI1158
aI458
aI303
aI1852
aI2305
aF125.0
asg5
I1
sg6
(lp45
I-1
aI-1
aI-1
aI-1
aI-1
aI-1
asg8
(lp46
I45
aI45
aI-1
aF-1.0
aF-1.0
aF-1.0
aI33
aI34
aI-1
aF-1.0
aF-1.0
aF-1.0
asg10
(lp47
F0.0
aF0.011000000000000001
aF0.015
asba(i__main__
sensor_data_struct
p48
(dp49
g3
(lp50
I657
aI326
aI207
aI1141
aI2492
aF149.0
aI1090
aI416
aI282
aI1706
aI2266
aF96.0
asg5
I0
sg6
(lp51
I-1
aI-1
aI-1
aI-1
aI-1
aI-1
asg8
(lp52
I27
aI18
aI-1
aF-1.0
aF-1.0
aF-1.0
aI23
aI24
aI-1
aF-1.0
aF-1.0
aF-1.0
asg10
(lp53
F-0.004
aF0.001
aF0.006
asba(i__main__
sensor_data_struct
p54
(dp55
g3
(lp56
I680
aI329
aI211
aI1168
aI2468
aF144.0
aI1199
aI423
aI306
aI1826
aI2237
aF54.0
asg5
I0
sg6
(lp57
I-1
aI-1
aI-1
aI-1
aI-1
aI-1
asg8
(lp58
I30
aI23
aI-1
aF-1.0
aF-1.0
aF-1.0
aI23
aI24
aI-1
aF-1.0
aF-1.0
aF-1.0
asg10
(lp59
F-0.003
aF0.004
aF0.002
asba(i__main__
sensor_data_struct
p60
(dp61
g3
(lp62
I804
aI345
aI236
aI1319
aI2394
aF110.0
aI1307
aI449
aI327
aI1974
aI2221
aF45.0
asg5
I0
sg6
(lp63
I-1
aI-1
aI-1
aI-1
aI-1
aI-1
asg8
(lp64
I28
aI26
aI-1
aF-1.0
aF-1.0
aF-1.0
aI22
aI21
aI-1
aF-1.0
aF-1.0
aF-1.0
asg10
(lp65
F0.005
aF0.002
aF0.003
asba(i__main__
sensor_data_struct
p66
(dp67
g3
(lp68
I570
aI311
aI191
aI1033
aI2580
aF166.0
aI1225
aI419
aI317
aI1853
aI2246
aF31.0
asg5
I0
sg6
(lp69
I-1
aI-1
aI-1
aI-1
aI-1
aI-1
asg8
(lp70
I31
aI29
aI-1
aF-1.0
aF-1.0
aF-1.0
aI24
aI23
aI-1
aF-1.0
aF-1.0
aF-1.0
asg10
(lp71
F-0.003
aF0.008
aF0.006999999999999999
asba(i__main__
sensor_data_struct
p72
(dp73
g3
(lp74
I594
aI316
aI195
aI1064
aI2552
aF163.0
aI941
aI375
aI261
aI1500
aI2331
aF95.0
asg5
I0
sg6
(lp75
I-1
aI-1
aI-1
aI-1
aI-1
aI-1
asg8
(lp76
I32
aI21
aI-1
aF-1.0
aF-1.0
aF-1.0
aI25
aI21
aI-1
aF-1.0
aF-1.0
aF-1.0
asg10
(lp77
F-0.005
aF0.004
aF0.008
asba(i__main__
sensor_data_struct
p78
(dp79
g3
(lp80
I555
aI309
aI188
aI1014
aI2592
aF169.0
aI778
aI356
aI230
aI1308
aI2417
aF140.0
asg5
I1
sg6
(lp81
I-1
aI-1
aI-1
aI-1
aI-1
aI-1
asg8
(lp82
I44
aI32
aI-1
aF-1.0
aF-1.0
aF-1.0
aI22
aI24
aI-1
aF-1.0
aF-1.0
aF-1.0
asg10
(lp83
F0.006
aF-0.003
aF0.013999999999999999
asba(i__main__
sensor_data_struct
p84
(dp85
g3
(lp86
I583
aI314
aI193
aI1051
aI2566
aF165.0
aI876
aI388
aI244
aI1451
aI2361
aF149.0
asg5
I1
sg6
(lp87
I-1
aI-1
aI-1
aI-1
aI-1
aI-1
asg8
(lp88
I44
aI34
aI-1
aF-1.0
aF-1.0
aF-1.0
aI23
aI24
aI-1
aF-1.0
aF-1.0
aF-1.0
asg10
(lp89
F0.005
aF-0.005
aF0.013999999999999999
asba(i__main__
sensor_data_struct
p90
(dp91
g3
(lp92
I572
aI312
aI191
aI1036
aI2576
aF166.0
aI1058
aI402
aI283
aI1660
aI2297
aF83.0
asg5
I0
sg6
(lp93
I-1
aI-1
aI-1
aI-1
aI-1
aI-1
asg8
(lp94
I35
aI35
aI-1
aF-1.0
aF-1.0
aF-1.0
aI24
aI23
aI-1
aF-1.0
aF-1.0
aF-1.0
asg10
(lp95
F0.002
aF0.005
aF0.012
asba(i__main__
sensor_data_struct
p96
(dp97
g3
(lp98
I602
aI318
aI196
aI1076
aI2543
aF163.0
aI619
aI322
aI203
aI1100
aI2546
aF158.0
asg5
I1
sg6
(lp99
I-1
aI-1
aI-1
aI-1
aI-1
aI-1
asg8
(lp100
I43
aI46
aI-1
aF-1.0
aF-1.0
aF-1.0
aI34
aI36
aI-1
aF-1.0
aF-1.0
aF-1.0
asg10
(lp101
F-0.011000000000000001
aF0.005
aF0.015
asba(i__main__
sensor_data_struct
p102
(dp103
g3
(lp104
I653
aI347
aI205
aI1168
aI2513
aF185.0
aI766
aI358
aI227
aI1301
aI2429
aF150.0
asg5
I1
sg6
(lp105
I-1
aI-1
aI-1
aI-1
aI-1
aI-1
asg8
(lp106
I35
aI43
aI-1
aF-1.0
aF-1.0
aF-1.0
aI26
aI25
aI-1
aF-1.0
aF-1.0
aF-1.0
asg10
(lp107
F-0.009000000000000001
aF0.005
aF0.013999999999999999
asba(i__main__
sensor_data_struct
p108
(dp109
g3
(lp110
I741
aI337
aI223
aI1244
aI2433
aF128.0
aI1199
aI429
aI303
aI1836
aI2237
aF66.0
asg5
I0
sg6
(lp111
I-1
aI-1
aI-1
aI-1
aI-1
aI-1
asg8
(lp112
I29
aI19
aI-1
aF-1.0
aF-1.0
aF-1.0
aI22
aI23
aI-1
aF-1.0
aF-1.0
aF-1.0
asg10
(lp113
F-0.003
aF0.003
aF0.003
asba(i__main__
sensor_data_struct
p114
(dp115
g3
(lp116
I550
aI307
aI187
aI1007
aI2601
aF169.0
aI741
aI362
aI223
aI1280
aI2452
aF167.0
asg5
I1
sg6
(lp117
I-1
aI-1
aI-1
aI-1
aI-1
aI-1
asg8
(lp118
I34
aI37
aI-1
aF-1.0
aF-1.0
aF-1.0
aI32
aI36
aI-1
aF-1.0
aF-1.0
aF-1.0
asg10
(lp119
F0.006
aF-0.006999999999999999
aF0.013000000000000001
asba(i__main__
sensor_data_struct
p120
(dp121
g3
(lp122
I600
aI317
aI195
aI1073
aI2545
aF162.0
aI1019
aI414
aI272
aI1638
aI2314
aF123.0
asg5
I1
sg6
(lp123
I-1
aI-1
aI-1
aI-1
aI-1
aI-1
asg8
(lp124
I48
aI43
aI-1
aF-1.0
aF-1.0
aF-1.0
aI26
aI26
aI-1
aF-1.0
aF-1.0
aF-1.0
asg10
(lp125
F0.006
aF0.005
aF0.013999999999999999
asba(i__main__
sensor_data_struct
p126
(dp127
g3
(lp128
I581
aI314
aI193
aI1050
aI2570
aF165.0
aI978
aI399
aI267
aI1575
aI2331
aF116.0
asg5
I1
sg6
(lp129
I-1
aI-1
aI-1
aI-1
aI-1
aI-1
asg8
(lp130
I36
aI41
aI-1
aF-1.0
aF-1.0
aF-1.0
aI27
aI25
aI-1
aF-1.0
aF-1.0
aF-1.0
asg10
(lp131
F0.001
aF0.006
aF0.013999999999999999
asba(i__main__
sensor_data_struct
p132
(dp133
g3
(lp134
I660
aI335
aI206
aI1160
aI2498
aF163.0
aI763
aI339
aI229
aI1271
aI2425
aF119.0
asg5
I0
sg6
(lp135
I-1
aI-1
aI-1
aI-1
aI-1
aI-1
asg8
(lp136
I32
aI29
aI-1
aF-1.0
aF-1.0
aF-1.0
aI23
aI23
aI-1
aF-1.0
aF-1.0
aF-1.0
asg10
(lp137
F0.006
aF-0.001
aF0.013000000000000001
asba(i__main__
sensor_data_struct
p138
(dp139
g3
(lp140
I578
aI315
aI193
aI1047
aI2576
aF168.0
aI795
aI368
aI229
aI1340
aI2396
aF155.0
asg5
I1
sg6
(lp141
I-1
aI-1
aI-1
aI-1
aI-1
aI-1
asg8
(lp142
I37
aI37
aI-1
aF-1.0
aF-1.0
aF-1.0
aI25
aI26
aI-1
aF-1.0
aF-1.0
aF-1.0
asg10
(lp143
F0.002
aF-0.006
aF0.015
asba(i__main__
sensor_data_struct
p144
(dp145
g3
(lp146
I592
aI316
aI194
aI1062
aI2549
aF164.0
aI945
aI378
aI260
aI1507
aI2323
aF99.0
asg5
I0
sg6
(lp147
I-1
aI-1
aI-1
aI-1
aI-1
aI-1
asg8
(lp148
I19
aI25
aI-1
aF-1.0
aF-1.0
aF-1.0
aI22
aI21
aI-1
aF-1.0
aF-1.0
aF-1.0
asg10
(lp149
F0.001
aF-0.003
aF0.006
asba(i__main__
sensor_data_struct
p150
(dp151
g3
(lp152
I613
aI319
aI198
aI1087
aI2530
aF159.0
aI637
aI319
aI204
aI1111
aI2509
aF147.0
asg5
I1
sg6
(lp153
I-1
aI-1
aI-1
aI-1
aI-1
aI-1
asg8
(lp154
I40
aI32
aI-1
aF-1.0
aF-1.0
aF-1.0
aI21
aI21
aI-1
aF-1.0
aF-1.0
aF-1.0
asg10
(lp155
F-0.006999999999999999
aF-0.006999999999999999
aF0.012
asba(i__main__
sensor_data_struct
p156
(dp157
g3
(lp158
I555
aI309
aI188
aI1015
aI2597
aF169.0
aI746
aI364
aI224
aI1286
aI2446
aF168.0
asg5
I1
sg6
(lp159
I-1
aI-1
aI-1
aI-1
aI-1
aI-1
asg8
(lp160
I20
aI40
aI-1
aF-1.0
aF-1.0
aF-1.0
aI20
aI36
aI-1
aF-1.0
aF-1.0
aF-1.0
asg10
(lp161
F0.004
aF-0.009000000000000001
aF0.01
asba(i__main__
sensor_data_struct
p162
(dp163
g3
(lp164
I587
aI316
aI193
aI1056
aI2553
aF166.0
aI1024
aI391
aI275
aI1604
aI2292
aF83.0
asg5
I0
sg6
(lp165
I-1
aI-1
aI-1
aI-1
aI-1
aI-1
asg8
(lp166
I23
aI27
aI-1
aF-1.0
aF-1.0
aF-1.0
aI23
aI22
aI-1
aF-1.0
aF-1.0
aF-1.0
asg10
(lp167
F0.003
aF-0.001
aF0.008
asba(i__main__
sensor_data_struct
p168
(dp169
g3
(lp170
I764
aI342
aI228
aI1274
aI2418
aF124.0
aI1176
aI426
aI299
aI1808
aI2244
aF71.0
asg5
I0
sg6
(lp171
I-1
aI-1
aI-1
aI-1
aI-1
aI-1
asg8
(lp172
I24
aI19
aI-1
aF-1.0
aF-1.0
aF-1.0
aI24
aI21
aI-1
aF-1.0
aF-1.0
aF-1.0
asg10
(lp173
F-0.004
aF0.003
aF0.001
asba(i__main__
sensor_data_struct
p174
(dp175
g3
(lp176
I559
aI309
aI188
aI1018
aI2583
aF168.0
aI758
aI343
aI226
aI1267
aI2416
aF129.0
asg5
I0
sg6
(lp177
I-1
aI-1
aI-1
aI-1
aI-1
aI-1
asg8
(lp178
I13
aI32
aI-1
aF-1.0
aF-1.0
aF-1.0
aI24
aI21
aI-1
aF-1.0
aF-1.0
aF-1.0
asg10
(lp179
F0.002
aF-0.006
aF0.006999999999999999
asba(i__main__
sensor_data_struct
p180
(dp181
g3
(lp182
I602
aI316
aI197
aI1072
aI2545
aF159.0
aI955
aI382
aI260
aI1521
aI2313
aF102.0
asg5
I0
sg6
(lp183
I-1
aI-1
aI-1
aI-1
aI-1
aI-1
asg8
(lp184
I25
aI14
aI-1
aF-1.0
aF-1.0
aF-1.0
aI24
aI22
aI-1
aF-1.0
aF-1.0
aF-1.0
asg10
(lp185
F-0.005
aF-0.002
aF0.003
asba(i__main__
sensor_data_struct
p186
(dp187
g3
(lp188
I582
aI314
aI192
aI1050
aI2561
aF166.0
aI922
aI404
aI253
aI1524
aI2353
aF153.0
asg5
I1
sg6
(lp189
I-1
aI-1
aI-1
aI-1
aI-1
aI-1
asg8
(lp190
I33
aI46
aI-1
aF-1.0
aF-1.0
aF-1.0
aI26
aI25
aI-1
aF-1.0
aF-1.0
aF-1.0
asg10
(lp191
F-0.008
aF0.004
aF0.013999999999999999
asba(i__main__
sensor_data_struct
p192
(dp193
g3
(lp194
I835
aI386
aI237
aI1409
aI2391
aF164.0
aI657
aI327
aI208
aI1145
aI2502
aF150.0
asg5
I1
sg6
(lp195
I-1
aI-1
aI-1
aI-1
aI-1
aI-1
asg8
(lp196
I40
aI35
aI-1
aF-1.0
aF-1.0
aF-1.0
aI36
aI34
aI-1
aF-1.0
aF-1.0
aF-1.0
asg10
(lp197
F-0.01
aF0.001
aF0.013000000000000001
asba(i__main__
sensor_data_struct
p198
(dp199
g3
(lp200
I620
aI329
aI199
aI1109
aI2532
aF172.0
aI762
aI342
aI227
aI1272
aI2420
aF126.0
asg5
I0
sg6
(lp201
I-1
aI-1
aI-1
aI-1
aI-1
aI-1
asg8
(lp202
I28
aI20
aI-1
aF-1.0
aF-1.0
aF-1.0
aI26
aI22
aI-1
aF-1.0
aF-1.0
aF-1.0
asg10
(lp203
F-0.006
aF0.002
aF0.011000000000000001
asba(i__main__
sensor_data_struct
p204
(dp205
g3
(lp206
I564
aI311
aI189
aI1028
aI2584
aF169.0
aI1722
aI481
aI413
aI2447
aI2156
aF65434.0
asg5
I0
sg6
(lp207
I-1
aI-1
aI-1
aI-1
aI-1
aI-1
asg8
(lp208
I42
aI35
aI-1
aF-1.0
aF-1.0
aF-1.0
aI25
aI22
aI-1
aF-1.0
aF-1.0
aF-1.0
asg10
(lp209
F0.005
aF0.005
aF0.008
asba(i__main__
sensor_data_struct
p210
(dp211
g3
(lp212
I577
aI315
aI195
aI1043
aI2578
aF167.0
aI967
aI411
aI263
aI1570
aI2323
aF142.0
asg5
I0
sg6
(lp213
I-1
aI-1
aI-1
aI-1
aI-1
aI-1
asg8
(lp214
I44
aI36
aI-1
aF-1.0
aF-1.0
aF-1.0
aI23
aI23
aI-1
aF-1.0
aF-1.0
aF-1.0
asg10
(lp215
F0.006999999999999999
aF-0.005
aF0.012
asba(i__main__
sensor_data_struct
p216
(dp217
g3
(lp218
I566
aI312
aI189
aI1031
aI2579
aF170.0
aI1565
aI462
aI380
aI2266
aI2181
aF65479.0
asg5
I0
sg6
(lp219
I-1
aI-1
aI-1
aI-1
aI-1
aI-1
asg8
(lp220
I37
aI40
aI-1
aF-1.0
aF-1.0
aF-1.0
aI24
aI22
aI-1
aF-1.0
aF-1.0
aF-1.0
asg10
(lp221
F0.001
aF0.006999999999999999
aF0.009000000000000001
asba(i__main__
sensor_data_struct
p222
(dp223
g3
(lp224
I551
aI308
aI188
aI1011
aI2606
aF169.0
aI832
aI378
aI236
aI1394
aI2383
aF153.0
asg5
I1
sg6
(lp225
I-1
aI-1
aI-1
aI-1
aI-1
aI-1
asg8
(lp226
I50
aI38
aI-1
aF-1.0
aF-1.0
aF-1.0
aI24
aI24
aI-1
aF-1.0
aF-1.0
aF-1.0
asg10
(lp227
F0.008
aF-0.005
aF0.013999999999999999
asba(i__main__
sensor_data_struct
p228
(dp229
g3
(lp230
I599
aI317
aI195
aI1072
aI2547
aF163.0
aI1172
aI426
aI302
aI1811
aI2262
aF70.0
asg5
I0
sg6
(lp231
I-1
aI-1
aI-1
aI-1
aI-1
aI-1
asg8
(lp232
I47
aI37
aI-1
aF-1.0
aF-1.0
aF-1.0
aI24
aI23
aI-1
aF-1.0
aF-1.0
aF-1.0
asg10
(lp233
F0.009000000000000001
aF0.004
aF0.011000000000000001
asba(i__main__
sensor_data_struct
p234
(dp235
g3
(lp236
I543
aI305
aI185
aI998
aI2607
aF169.0
aI818
aI370
aI235
aI1370
aI2396
aF146.0
asg5
I1
sg6
(lp237
I-1
aI-1
aI-1
aI-1
aI-1
aI-1
asg8
(lp238
I48
aI34
aI-1
aF-1.0
aF-1.0
aF-1.0
aI27
aI25
aI-1
aF-1.0
aF-1.0
aF-1.0
asg10
(lp239
F0.013000000000000001
aF-0.001
aF0.013999999999999999
asba(i__main__
sensor_data_struct
p240
(dp241
g3
(lp242
I558
aI306
aI186
aI1013
aI2576
aF165.0
aI841
aI381
aI239
aI1408
aI2386
aF153.0
asg5
I1
sg6
(lp243
I-1
aI-1
aI-1
aI-1
aI-1
aI-1
asg8
(lp244
I49
aI36
aI-1
aF-1.0
aF-1.0
aF-1.0
aI23
aI25
aI-1
aF-1.0
aF-1.0
aF-1.0
asg10
(lp245
F0.011000000000000001
aF-0.004
aF0.015
asba(i__main__
sensor_data_struct
p246
(dp247
g3
(lp248
I572
aI309
aI190
aI1033
aI2569
aF162.0
aI883
aI366
aI247
aI1428
aI2346
aF110.0
asg5
I0
sg6
(lp249
I-1
aI-1
aI-1
aI-1
aI-1
aI-1
asg8
(lp250
I30
aI8
aI-1
aF-1.0
aF-1.0
aF-1.0
aI24
aI22
aI-1
aF-1.0
aF-1.0
aF-1.0
asg10
(lp251
F-0.006
aF0.0
aF0.004
asba(i__main__
sensor_data_struct
p252
(dp253
g3
(lp254
I704
aI338
aI213
aI1206
aI2449
aF149.0
aI619
aI316
aI200
aI1089
aI2522
aF151.0
asg5
I1
sg6
(lp255
I-1
aI-1
aI-1
aI-1
aI-1
aI-1
asg8
(lp256
I39
aI36
aI-1
aF-1.0
aF-1.0
aF-1.0
aI25
aI28
aI-1
aF-1.0
aF-1.0
aF-1.0
asg10
(lp257
F-0.005
aF-0.005
aF0.015
asba(i__main__
sensor_data_struct
p258
(dp259
g3
(lp260
I593
aI319
aI193
aI1067
aI2545
aF169.0
aI683
aI329
aI213
aI1175
aI2479
aF141.0
asg5
I1
sg6
(lp261
I-1
aI-1
aI-1
aI-1
aI-1
aI-1
asg8
(lp262
I33
aI41
aI-1
aF-1.0
aF-1.0
aF-1.0
aI24
aI24
aI-1
aF-1.0
aF-1.0
aF-1.0
asg10
(lp263
F-0.01
aF0.006
aF0.013000000000000001
asba(i__main__
sensor_data_struct
p264
(dp265
g3
(lp266
I558
aI309
aI188
aI1017
aI2585
aF168.0
aI808
aI349
aI236
aI1327
aI2388
aF115.0
asg5
I0
sg6
(lp267
I-1
aI-1
aI-1
aI-1
aI-1
aI-1
asg8
(lp268
I15
aI25
aI-1
aF-1.0
aF-1.0
aF-1.0
aI23
aI22
aI-1
aF-1.0
aF-1.0
aF-1.0
asg10
(lp269
F0.001
aF-0.004
aF0.006999999999999999
asba(i__main__
sensor_data_struct
p270
(dp271
g3
(lp272
I563
aI310
aI188
aI1025
aI2579
aF168.0
aI1104
aI414
aI288
aI1737
aI2295
aF84.0
asg5
I1
sg6
(lp273
I-1
aI-1
aI-1
aI-1
aI-1
aI-1
asg8
(lp274
I48
aI49
aI-1
aF-1.0
aF-1.0
aF-1.0
aI33
aI38
aI-1
aF-1.0
aF-1.0
aF-1.0
asg10
(lp275
F0.006
aF0.01
aF0.015
asba(i__main__
sensor_data_struct
p276
(dp277
g3
(lp278
I632
aI321
aI202
aI1112
aI2519
aF153.0
aI1123
aI425
aI291
aI1756
aI2271
aF93.0
asg5
I0
sg6
(lp279
I-1
aI-1
aI-1
aI-1
aI-1
aI-1
asg8
(lp280
I33
aI29
aI-1
aF-1.0
aF-1.0
aF-1.0
aI25
aI24
aI-1
aF-1.0
aF-1.0
aF-1.0
asg10
(lp281
F0.005
aF0.003
aF0.01
asba(i__main__
sensor_data_struct
p282
(dp283
g3
(lp284
I585
aI313
aI193
aI1050
aI2557
aF162.0
aI941
aI387
aI255
aI1514
aI2319
aF118.0
asg5
I0
sg6
(lp285
I-1
aI-1
aI-1
aI-1
aI-1
aI-1
asg8
(lp286
I24
aI18
aI-1
aF-1.0
aF-1.0
aF-1.0
aI25
aI22
aI-1
aF-1.0
aF-1.0
aF-1.0
asg10
(lp287
F-0.006
aF-0.005
aF0.006999999999999999
asba(i__main__
sensor_data_struct
p288
(dp289
g3
(lp290
I599
aI315
aI195
aI1067
aI2537
aF159.0
aI1030
aI391
aI274
aI1610
aI2285
aF82.0
asg5
I0
sg6
(lp291
I-1
aI-1
aI-1
aI-1
aI-1
aI-1
asg8
(lp292
I25
aI19
aI-1
aF-1.0
aF-1.0
aF-1.0
aI22
aI22
aI-1
aF-1.0
aF-1.0
aF-1.0
asg10
(lp293
F-0.003
aF0.0
aF0.004
asba(i__main__
sensor_data_struct
p294
(dp295
g3
(lp296
I577
aI312
aI191
aI1041
aI2565
aF165.0
aI750
aI345
aI224
aI1263
aI2425
aF137.0
asg5
I0
sg6
(lp297
I-1
aI-1
aI-1
aI-1
aI-1
aI-1
asg8
(lp298
I21
aI27
aI-1
aF-1.0
aF-1.0
aF-1.0
aI23
aI22
aI-1
aF-1.0
aF-1.0
aF-1.0
asg10
(lp299
F-0.002
aF-0.006
aF0.01
asba(i__main__
sensor_data_struct
p300
(dp301
g3
(lp302
I567
aI311
aI189
aI1029
aI2572
aF168.0
aI1267
aI414
aI326
aI1888
aI2233
aF3.0
asg5
I0
sg6
(lp303
I-1
aI-1
aI-1
aI-1
aI-1
aI-1
asg8
(lp304
I31
aI30
aI-1
aF-1.0
aF-1.0
aF-1.0
aI24
aI21
aI-1
aF-1.0
aF-1.0
aF-1.0
asg10
(lp305
F0.006
aF0.002
aF0.006
asba(i__main__
sensor_data_struct
p306
(dp307
g3
(lp308
I560
aI309
aI188
aI1021
aI2586
aF168.0
aI832
aI364
aI240
aI1377
aI2392
aF128.0
asg5
I1
sg6
(lp309
I-1
aI-1
aI-1
aI-1
aI-1
aI-1
asg8
(lp310
I32
aI43
aI-1
aF-1.0
aF-1.0
aF-1.0
aI24
aI24
aI-1
aF-1.0
aF-1.0
aF-1.0
asg10
(lp311
F-0.005
aF0.006999999999999999
aF0.013999999999999999
asba(i__main__
sensor_data_struct
p312
(dp313
g3
(lp314
I635
aI331
aI202
aI1129
aI2522
aF168.0
aI932
aI365
aI262
aI1481
aI2342
aF81.0
asg5
I1
sg6
(lp315
I-1
aI-1
aI-1
aI-1
aI-1
aI-1
asg8
(lp316
I34
aI34
aI-1
aF-1.0
aF-1.0
aF-1.0
aI25
aI24
aI-1
aF-1.0
aF-1.0
aF-1.0
asg10
(lp317
F0.002
aF0.004
aF0.013000000000000001
asba(i__main__
sensor_data_struct
p318
(dp319
g3
(lp320
I565
aI311
aI190
aI1028
aI2584
aF168.0
aI862
aI379
aI244
aI1424
aI2370
aF139.0
asg5
I0
sg6
(lp321
I-1
aI-1
aI-1
aI-1
aI-1
aI-1
asg8
(lp322
I31
aI32
aI-1
aF-1.0
aF-1.0
aF-1.0
aI22
aI22
aI-1
aF-1.0
aF-1.0
aF-1.0
asg10
(lp323
F0.005
aF-0.003
aF0.012
asba(i__main__
sensor_data_struct
p324
(dp325
g3
(lp326
I605
aI322
aI197
aI1084
aI2543
aF167.0
aI629
aI329
aI202
aI1118
aI2525
aF167.0
asg5
I1
sg6
(lp327
I-1
aI-1
aI-1
aI-1
aI-1
aI-1
asg8
(lp328
I53
aI47
aI-1
aF-1.0
aF-1.0
aF-1.0
aI33
aI38
aI-1
aF-1.0
aF-1.0
aF-1.0
asg10
(lp329
F0.005
aF-0.011000000000000001
aF0.015
asba(i__main__
sensor_data_struct
p330
(dp331
g3
(lp332
I566
aI311
aI189
aI1028
aI2575
aF168.0
aI818
aI376
aI233
aI1374
aI2386
aF157.0
asg5
I1
sg6
(lp333
I-1
aI-1
aI-1
aI-1
aI-1
aI-1
asg8
(lp334
I42
aI41
aI-1
aF-1.0
aF-1.0
aF-1.0
aI26
aI25
aI-1
aF-1.0
aF-1.0
aF-1.0
asg10
(lp335
F-0.004
aF-0.01
aF0.015
asba(i__main__
sensor_data_struct
p336
(dp337
g3
(lp338
I707
aI330
aI216
aI1198
aI2449
aF133.0
aI1212
aI431
aI306
aI1851
aI2232
aF62.0
asg5
I0
sg6
(lp339
I-1
aI-1
aI-1
aI-1
aI-1
aI-1
asg8
(lp340
I27
aI24
aI-1
aF-1.0
aF-1.0
aF-1.0
aI22
aI20
aI-1
aF-1.0
aF-1.0
aF-1.0
asg10
(lp341
F0.0
aF0.001
aF0.005
asba(i__main__
sensor_data_struct
p342
(dp343
g3
(lp344
I638
aI322
aI203
aI1118
aI2510
aF152.0
aI924
aI362
aI259
aI1469
aI2341
aF81.0
asg5
I0
sg6
(lp345
I-1
aI-1
aI-1
aI-1
aI-1
aI-1
asg8
(lp346
I42
aI32
aI-1
aF-1.0
aF-1.0
aF-1.0
aI24
aI22
aI-1
aF-1.0
aF-1.0
aF-1.0
asg10
(lp347
F0.006999999999999999
aF0.002
aF0.012
asba(i__main__
sensor_data_struct
p348
(dp349
g3
(lp350
I555
aI309
aI188
aI1014
aI2592
aF169.0
aI761
aI372
aI227
aI1313
aI2444
aF173.0
asg5
I1
sg6
(lp351
I-1
aI-1
aI-1
aI-1
aI-1
aI-1
asg8
(lp352
I48
aI40
aI-1
aF-1.0
aF-1.0
aF-1.0
aI32
aI38
aI-1
aF-1.0
aF-1.0
aF-1.0
asg10
(lp353
F0.008
aF-0.006999999999999999
aF0.012
asba(i__main__
sensor_data_struct
p354
(dp355
g3
(lp356
I661
aI325
aI207
aI1147
aI2489
aF146.0
aI1205
aI439
aI309
aI1858
aI2253
aF75.0
asg5
I0
sg6
(lp357
I-1
aI-1
aI-1
aI-1
aI-1
aI-1
asg8
(lp358
I37
aI32
aI-1
aF-1.0
aF-1.0
aF-1.0
aI23
aI24
aI-1
aF-1.0
aF-1.0
aF-1.0
asg10
(lp359
F0.009000000000000001
aF0.003
aF0.008
asba(i__main__
sensor_data_struct
p360
(dp361
g3
(lp362
I609
aI316
aI197
aI1080
aI2531
aF156.0
aI1040
aI417
aI278
aI1663
aI2309
aF117.0
asg5
I1
sg6
(lp363
I-1
aI-1
aI-1
aI-1
aI-1
aI-1
asg8
(lp364
I35
aI36
aI-1
aF-1.0
aF-1.0
aF-1.0
aI24
aI23
aI-1
aF-1.0
aF-1.0
aF-1.0
asg10
(lp365
F0.002
aF0.005
aF0.013000000000000001
asba(i__main__
sensor_data_struct
p366
(dp367
g3
(lp368
I597
aI318
aI195
aI1071
aI2551
aF165.0
aI1957
aI532
aI456
aI2762
aI2136
aF65407.0
asg5
I0
sg6
(lp369
I-1
aI-1
aI-1
aI-1
aI-1
aI-1
asg8
(lp370
I40
aI40
aI-1
aF-1.0
aF-1.0
aF-1.0
aI24
aI22
aI-1
aF-1.0
aF-1.0
aF-1.0
asg10
(lp371
F0.0
aF0.008
aF0.006999999999999999
asba(i__main__
sensor_data_struct
p372
(dp373
g3
(lp374
I589
aI314
aI194
aI1057
aI2556
aF162.0
aI1145
aI400
aI302
aI1740
aI2259
aF38.0
asg5
I0
sg6
(lp375
I-1
aI-1
aI-1
aI-1
aI-1
aI-1
asg8
(lp376
I26
aI21
aI-1
aF-1.0
aF-1.0
aF-1.0
aI24
aI23
aI-1
aF-1.0
aF-1.0
aF-1.0
asg10
(lp377
F-0.001
aF0.002
aF0.001
asba(i__main__
sensor_data_struct
p378
(dp379
g3
(lp380
I578
aI312
aI192
aI1042
aI2565
aF164.0
aI698
aI328
aI217
aI1186
aI2465
aF132.0
asg5
I0
sg6
(lp381
I-1
aI-1
aI-1
aI-1
aI-1
aI-1
asg8
(lp382
I16
aI29
aI-1
aF-1.0
aF-1.0
aF-1.0
aI23
aI23
aI-1
aF-1.0
aF-1.0
aF-1.0
asg10
(lp383
F0.0
aF-0.006
aF0.006999999999999999
asba(i__main__
sensor_data_struct
p384
(dp385
g3
(lp386
I601
aI316
aI196
aI1072
aI2545
aF160.0
aI1010
aI409
aI269
aI1617
aI2305
aF120.0
asg5
I0
sg6
(lp387
I-1
aI-1
aI-1
aI-1
aI-1
aI-1
asg8
(lp388
I30
aI27
aI-1
aF-1.0
aF-1.0
aF-1.0
aI23
aI22
aI-1
aF-1.0
aF-1.0
aF-1.0
asg10
(lp389
F-0.006
aF0.004
aF0.01
asba(i__main__
sensor_data_struct
p390
(dp391
g3
(lp392
I563
aI310
aI190
aI1024
aI2588
aF167.0
aI846
aI364
aI241
aI1385
aI2365
aF123.0
asg5
I0
sg6
(lp393
I-1
aI-1
aI-1
aI-1
aI-1
aI-1
asg8
(lp394
I17
aI27
aI-1
aF-1.0
aF-1.0
aF-1.0
aI25
aI22
aI-1
aF-1.0
aF-1.0
aF-1.0
asg10
(lp395
F-0.003
aF-0.008
aF0.006999999999999999
asba(i__main__
sensor_data_struct
p396
(dp397
g3
(lp398
I593
aI314
aI195
aI1059
aI2549
aF160.0
aI966
aI404
aI260
aI1563
aI2317
aF133.0
asg5
I0
sg6
(lp399
I-1
aI-1
aI-1
aI-1
aI-1
aI-1
asg8
(lp400
I18
aI24
aI-1
aF-1.0
aF-1.0
aF-1.0
aI24
aI21
aI-1
aF-1.0
aF-1.0
aF-1.0
asg10
(lp401
F0.002
aF-0.004
aF0.011000000000000001
asba(i__main__
sensor_data_struct
p402
(dp403
g3
(lp404
I603
aI318
aI197
aI1078
aI2547
aF161.0
aI1303
aI477
aI329
aI2029
aI2262
aF89.0
asg5
I1
sg6
(lp405
I-1
aI-1
aI-1
aI-1
aI-1
aI-1
asg8
(lp406
I45
aI44
aI-1
aF-1.0
aF-1.0
aF-1.0
aI35
aI36
aI-1
aF-1.0
aF-1.0
aF-1.0
asg10
(lp407
F0.0
aF0.01
aF0.013999999999999999
asba(i__main__
sensor_data_struct
p408
(dp409
g3
(lp410
I588
aI315
aI195
aI1058
aI2564
aF163.0
aI1035
aI399
aI275
aI1627
aI2287
aF92.0
asg5
I0
sg6
(lp411
I-1
aI-1
aI-1
aI-1
aI-1
aI-1
asg8
(lp412
I21
aI30
aI-1
aF-1.0
aF-1.0
aF-1.0
aI22
aI21
aI-1
aF-1.0
aF-1.0
aF-1.0
asg10
(lp413
F0.006999999999999999
aF-0.001
aF0.006999999999999999
asba(i__main__
sensor_data_struct
p414
(dp415
g3
(lp416
I562
aI310
aI189
aI1024
aI2588
aF168.0
aI789
aI389
aI232
aI1365
aI2434
aF188.0
asg5
I1
sg6
(lp417
I-1
aI-1
aI-1
aI-1
aI-1
aI-1
asg8
(lp418
I53
aI44
aI-1
aF-1.0
aF-1.0
aF-1.0
aI33
aI35
aI-1
aF-1.0
aF-1.0
aF-1.0
asg10
(lp419
F0.003
aF-0.01
aF0.015
asba(i__main__
sensor_data_struct
p420
(dp421
g3
(lp422
I566
aI312
aI189
aI1030
aI2579
aF170.0
aI747
aI369
aI224
aI1295
aI2452
aF175.0
asg5
I1
sg6
(lp423
I-1
aI-1
aI-1
aI-1
aI-1
aI-1
asg8
(lp424
I40
aI36
aI-1
aF-1.0
aF-1.0
aF-1.0
aI33
aI36
aI-1
aF-1.0
aF-1.0
aF-1.0
asg10
(lp425
F-0.011000000000000001
aF-0.001
aF0.013000000000000001
asba(i__main__
sensor_data_struct
p426
(dp427
g3
(lp428
I571
aI314
aI190
aI1038
aI2576
aF171.0
aI1001
aI403
aI272
aI1605
aI2325
aF112.0
asg5
I1
sg6
(lp429
I-1
aI-1
aI-1
aI-1
aI-1
aI-1
asg8
(lp430
I35
aI45
aI-1
aF-1.0
aF-1.0
aF-1.0
aI24
aI25
aI-1
aF-1.0
aF-1.0
aF-1.0
asg10
(lp431
F-0.004
aF0.011000000000000001
aF0.013000000000000001
asba(i__main__
sensor_data_struct
p432
(dp433
g3
(lp434
I608
aI321
aI198
aI1088
aI2548
aF164.0
aI608
aI319
aI199
aI1082
aI2541
aF160.0
asg5
I1
sg6
(lp435
I-1
aI-1
aI-1
aI-1
aI-1
aI-1
asg8
(lp436
I53
aI44
aI-1
aF-1.0
aF-1.0
aF-1.0
aI35
aI35
aI-1
aF-1.0
aF-1.0
aF-1.0
asg10
(lp437
F-0.011000000000000001
aF-0.004
aF0.013999999999999999
asba(i__main__
sensor_data_struct
p438
(dp439
g3
(lp440
I685
aI354
aI210
aI1210
aI2483
aF182.0
aI605
aI315
aI197
aI1073
aI2534
aF156.0
asg5
I1
sg6
(lp441
I-1
aI-1
aI-1
aI-1
aI-1
aI-1
asg8
(lp442
I49
aI44
aI-1
aF-1.0
aF-1.0
aF-1.0
aI30
aI29
aI-1
aF-1.0
aF-1.0
aF-1.0
asg10
(lp443
F-0.009000000000000001
aF-0.01
aF0.015
asba(i__main__
sensor_data_struct
p444
(dp445
g3
(lp446
I627
aI321
aI200
aI1104
aI2511
aF156.0
aI1057
aI403
aI279
aI1656
aI2283
aF88.0
asg5
I0
sg6
(lp447
I-1
aI-1
aI-1
aI-1
aI-1
aI-1
asg8
(lp448
I27
aI16
aI-1
aF-1.0
aF-1.0
aF-1.0
aI24
aI22
aI-1
aF-1.0
aF-1.0
aF-1.0
asg10
(lp449
F-0.006
aF0.003
aF0.004
asba(i__main__
sensor_data_struct
p450
(dp451
g3
(lp452
I556
aI309
aI188
aI1016
aI2594
aF169.0
aI1105
aI389
aI294
aI1685
aI2269
aF40.0
asg5
I0
sg6
(lp453
I-1
aI-1
aI-1
aI-1
aI-1
aI-1
asg8
(lp454
I25
aI28
aI-1
aF-1.0
aF-1.0
aF-1.0
aI24
aI23
aI-1
aF-1.0
aF-1.0
aF-1.0
asg10
(lp455
F0.006
aF0.0
aF0.004
asba(i__main__
sensor_data_struct
p456
(dp457
g3
(lp458
I668
aI326
aI209
aI1153
aI2481
aF144.0
aI1137
aI426
aI292
aI1769
aI2258
aF89.0
asg5
I0
sg6
(lp459
I-1
aI-1
aI-1
aI-1
aI-1
aI-1
asg8
(lp460
I28
aI23
aI-1
aF-1.0
aF-1.0
aF-1.0
aI25
aI22
aI-1
aF-1.0
aF-1.0
aF-1.0
asg10
(lp461
F-0.001
aF0.003
aF0.008
asba(i__main__
sensor_data_struct
p462
(dp463
g3
(lp464
I585
aI314
aI193
aI1051
aI2557
aF164.0
aI912
aI392
aI252
aI1494
aI2346
aF138.0
asg5
I1
sg6
(lp465
I-1
aI-1
aI-1
aI-1
aI-1
aI-1
asg8
(lp466
I23
aI23
aI-1
aF-1.0
aF-1.0
aF-1.0
aI22
aI23
aI-1
aF-1.0
aF-1.0
aF-1.0
asg10
(lp467
F0.0
aF-0.002
aF0.013000000000000001
asba(i__main__
sensor_data_struct
p468
(dp469
g3
(lp470
I582
aI314
aI192
aI1049
aI2561
aF166.0
aI668
aI330
aI210
aI1159
aI2491
aF150.0
asg5
I1
sg6
(lp471
I-1
aI-1
aI-1
aI-1
aI-1
aI-1
asg8
(lp472
I37
aI29
aI-1
aF-1.0
aF-1.0
aF-1.0
aI28
aI21
aI-1
aF-1.0
aF-1.0
aF-1.0
asg10
(lp473
F-0.008
aF-0.002
aF0.013000000000000001
asba(i__main__
sensor_data_struct
p474
(dp475
g3
(lp476
I629
aI322
aI202
aI1112
aI2529
aF156.0
aI1951
aI565
aI456
aI2828
aI2169
aF65461.0
asg5
I1
sg6
(lp477
I-1
aI-1
aI-1
aI-1
aI-1
aI-1
asg8
(lp478
I49
aI46
aI-1
aF-1.0
aF-1.0
aF-1.0
aI38
aI36
aI-1
aF-1.0
aF-1.0
aF-1.0
asg10
(lp479
F0.003
aF0.01
aF0.011000000000000001
asba(i__main__
sensor_data_struct
p480
(dp481
g3
(lp482
I599
aI318
aI197
aI1071
aI2551
aF163.0
aI982
aI408
aI263
aI1587
aI2314
aF132.0
asg5
I0
sg6
(lp483
I-1
aI-1
aI-1
aI-1
aI-1
aI-1
asg8
(lp484
I32
aI15
aI-1
aF-1.0
aF-1.0
aF-1.0
aI25
aI21
aI-1
aF-1.0
aF-1.0
aF-1.0
asg10
(lp485
F-0.008
aF0.0
aF0.01
asba(i__main__
sensor_data_struct
p486
(dp487
g3
(lp488
I598
aI318
aI195
aI1071
aI2544
aF165.0
aI694
aI335
aI214
aI1193
aI2467
aF146.0
asg5
I1
sg6
(lp489
I-1
aI-1
aI-1
aI-1
aI-1
aI-1
asg8
(lp490
I40
aI12
aI-1
aF-1.0
aF-1.0
aF-1.0
aI33
aI11
aI-1
aF-1.0
aF-1.0
aF-1.0
asg10
(lp491
F-0.009000000000000001
aF-0.003
aF0.008
asba(i__main__
sensor_data_struct
p492
(dp493
g3
(lp494
I687
aI329
aI213
aI1178
aI2472
aF140.0
aI1268
aI434
aI317
aI1913
aI2218
aF41.0
asg5
I0
sg6
(lp495
I-1
aI-1
aI-1
aI-1
aI-1
aI-1
asg8
(lp496
I27
aI25
aI-1
aF-1.0
aF-1.0
aF-1.0
aI25
aI21
aI-1
aF-1.0
aF-1.0
aF-1.0
asg10
(lp497
F-0.001
aF0.003
aF0.003
asba(i__main__
sensor_data_struct
p498
(dp499
g3
(lp500
I583
aI313
aI192
aI1049
aI2559
aF164.0
aI873
aI356
aI249
aI1403
aI2357
aF96.0
asg5
I0
sg6
(lp501
I-1
aI-1
aI-1
aI-1
aI-1
aI-1
asg8
(lp502
I24
aI19
aI-1
aF-1.0
aF-1.0
aF-1.0
aI24
aI22
aI-1
aF-1.0
aF-1.0
aF-1.0
asg10
(lp503
F-0.002
aF-0.002
aF0.003
asba(i__main__
sensor_data_struct
p504
(dp505
g3
(lp506
I585
aI314
aI193
aI1052
aI2557
aF164.0
aI699
aI338
aI214
aI1202
aI2463
aF149.0
asg5
I1
sg6
(lp507
I-1
aI-1
aI-1
aI-1
aI-1
aI-1
asg8
(lp508
I41
aI33
aI-1
aF-1.0
aF-1.0
aF-1.0
aI24
aI25
aI-1
aF-1.0
aF-1.0
aF-1.0
asg10
(lp509
F0.004
aF-0.005
aF0.015
asba(i__main__
sensor_data_struct
p510
(dp511
g3
(lp512
I625
aI331
aI200
aI1117
aI2528
aF173.0
aI609
aI315
aI199
aI1078
aI2539
aF153.0
asg5
I1
sg6
(lp513
I-1
aI-1
aI-1
aI-1
aI-1
aI-1
asg8
(lp514
I46
aI40
aI-1
aF-1.0
aF-1.0
aF-1.0
aI26
aI26
aI-1
aF-1.0
aF-1.0
aF-1.0
asg10
(lp515
F-0.006
aF-0.006999999999999999
aF0.015
asba(i__main__
sensor_data_struct
p516
(dp517
g3
(lp518
I624
aI321
aI202
aI1101
aI2525
aF156.0
aI1645
aI519
aI395
aI2436
aI2194
aF65533.0
asg5
I1
sg6
(lp519
I-1
aI-1
aI-1
aI-1
aI-1
aI-1
asg8
(lp520
I43
aI42
aI-1
aF-1.0
aF-1.0
aF-1.0
aI38
aI37
aI-1
aF-1.0
aF-1.0
aF-1.0
asg10
(lp521
F0.003
aF0.006999999999999999
aF0.012
asba(i__main__
sensor_data_struct
p522
(dp523
g3
(lp524
I627
aI325
aI201
aI1111
aI2522
aF162.0
aI959
aI378
aI264
aI1521
aI2319
aF92.0
asg5
I0
sg6
(lp525
I-1
aI-1
aI-1
aI-1
aI-1
aI-1
asg8
(lp526
I26
aI25
aI-1
aF-1.0
aF-1.0
aF-1.0
aI23
aI22
aI-1
aF-1.0
aF-1.0
aF-1.0
asg10
(lp527
F-0.001
aF0.003
aF0.011000000000000001
asba(i__main__
sensor_data_struct
p528
(dp529
g3
(lp530
I569
aI313
aI191
aI1033
aI2577
aF169.0
aI807
aI394
aI235
aI1390
aI2421
aF187.0
asg5
I1
sg6
(lp531
I-1
aI-1
aI-1
aI-1
aI-1
aI-1
asg8
(lp532
I55
aI39
aI-1
aF-1.0
aF-1.0
aF-1.0
aI34
aI34
aI-1
aF-1.0
aF-1.0
aF-1.0
asg10
(lp533
F-0.011000000000000001
aF-0.003
aF0.013000000000000001
asba(i__main__
sensor_data_struct
p534
(dp535
g3
(lp536
I589
aI320
aI194
aI1063
aI2556
aF171.0
aI732
aI345
aI220
aI1244
aI2437
aF145.0
asg5
I0
sg6
(lp537
I-1
aI-1
aI-1
aI-1
aI-1
aI-1
asg8
(lp538
I37
aI29
aI-1
aF-1.0
aF-1.0
aF-1.0
aI24
aI19
aI-1
aF-1.0
aF-1.0
aF-1.0
asg10
(lp539
F-0.006
aF-0.005
aF0.012
asba(i__main__
sensor_data_struct
p540
(dp541
g3
(lp542
I581
aI316
aI192
aI1051
aI2563
aF169.0
aI910
aI367
aI255
aI1465
aI2355
aF97.0
asg5
I1
sg6
(lp543
I-1
aI-1
aI-1
aI-1
aI-1
aI-1
asg8
(lp544
I49
aI43
aI-1
aF-1.0
aF-1.0
aF-1.0
aI33
aI39
aI-1
aF-1.0
aF-1.0
aF-1.0
asg10
(lp545
F0.006
aF0.005
aF0.015
asba(i__main__
sensor_data_struct
p546
(dp547
g3
(lp548
I572
aI312
aI191
aI1036
aI2576
aF166.0
aI790
aI341
aI234
aI1298
aI2402
aF110.0
asg5
I0
sg6
(lp549
I-1
aI-1
aI-1
aI-1
aI-1
aI-1
asg8
(lp550
I15
aI25
aI-1
aF-1.0
aF-1.0
aF-1.0
aI22
aI22
aI-1
aF-1.0
aF-1.0
aF-1.0
asg10
(lp551
F0.001
aF-0.004
aF0.005
asba(i__main__
sensor_data_struct
p552
(dp553
g3
(lp554
I603
aI317
aI196
aI1074
aI2536
aF161.0
aI1701
aI529
aI404
aI1996
aI1625
aF65524.0
asg5
I1
sg6
(lp555
I-1
aI-1
aI-1
aI-1
aI-1
aI-1
asg8
(lp556
I46
aI44
aI-1
aF-1.0
aF-1.0
aF-1.0
aI36
aI35
aI-1
aF-1.0
aF-1.0
aF-1.0
asg10
(lp557
F0.004
aF0.008
aF0.012
asba(i__main__
sensor_data_struct
p558
(dp559
g3
(lp560
I580
aI316
aI192
aI1049
aI2565
aF169.0
aI786
aI344
aI232
aI1298
aI2401
aF117.0
asg5
I0
sg6
(lp561
I-1
aI-1
aI-1
aI-1
aI-1
aI-1
asg8
(lp562
I29
aI12
aI-1
aF-1.0
aF-1.0
aF-1.0
aI24
aI23
aI-1
aF-1.0
aF-1.0
aF-1.0
asg10
(lp563
F-0.006
aF0.0
aF0.002
asba(i__main__
sensor_data_struct
p564
(dp565
g3
(lp566
I792
aI344
aI234
aI1302
aI2396
aF114.0
aI1174
aI427
aI298
aI1805
aI2239
aF74.0
asg5
I0
sg6
(lp567
I-1
aI-1
aI-1
aI-1
aI-1
aI-1
asg8
(lp568
I25
aI19
aI-1
aF-1.0
aF-1.0
aF-1.0
aI24
aI21
aI-1
aF-1.0
aF-1.0
aF-1.0
asg10
(lp569
F-0.002
aF0.001
aF0.0
asba(i__main__
sensor_data_struct
p570
(dp571
g3
(lp572
I567
aI311
aI190
aI1030
aI2579
aF167.0
aI659
aI323
aI208
aI1141
aI2495
aF143.0
asg5
I1
sg6
(lp573
I-1
aI-1
aI-1
aI-1
aI-1
aI-1
asg8
(lp574
I52
aI33
aI-1
aF-1.0
aF-1.0
aF-1.0
aI25
aI25
aI-1
aF-1.0
aF-1.0
aF-1.0
asg10
(lp575
F0.011000000000000001
aF-0.003
aF0.013999999999999999
asba(i__main__
sensor_data_struct
p576
(dp577
g3
(lp578
I564
aI311
aI189
aI1026
aI2579
aF169.0
aI802
aI362
aI233
aI1339
aI2396
aF140.0
asg5
I0
sg6
(lp579
I-1
aI-1
aI-1
aI-1
aI-1
aI-1
asg8
(lp580
I23
aI27
aI-1
aF-1.0
aF-1.0
aF-1.0
aI25
aI23
aI-1
aF-1.0
aF-1.0
aF-1.0
asg10
(lp581
F0.0
aF-0.004
aF0.013000000000000001
asba(i__main__
sensor_data_struct
p582
(dp583
g3
(lp584
I573
aI314
aI191
aI1039
aI2573
aF169.0
aI797
aI350
aI237
aI1326
aI2422
aF120.0
asg5
I1
sg6
(lp585
I-1
aI-1
aI-1
aI-1
aI-1
aI-1
asg8
(lp586
I32
aI47
aI-1
aF-1.0
aF-1.0
aF-1.0
aI28
aI29
aI-1
aF-1.0
aF-1.0
aF-1.0
asg10
(lp587
F-0.006
aF0.011000000000000001
aF0.013999999999999999
asba(i__main__
sensor_data_struct
p588
(dp589
g3
(lp590
I552
aI308
aI188
aI1012
aI2603
aF169.0
aI799
aI395
aI234
aI1384
aI2430
aF192.0
asg5
I1
sg6
(lp591
I-1
aI-1
aI-1
aI-1
aI-1
aI-1
asg8
(lp592
I55
aI46
aI-1
aF-1.0
aF-1.0
aF-1.0
aI32
aI35
aI-1
aF-1.0
aF-1.0
aF-1.0
asg10
(lp593
F0.002
aF-0.012
aF0.012
asba(i__main__
sensor_data_struct
p594
(dp595
g3
(lp596
I599
aI325
aI196
aI1081
aI2553
aF175.0
aI714
aI333
aI220
aI1210
aI2457
aF132.0
asg5
I1
sg6
(lp597
I-1
aI-1
aI-1
aI-1
aI-1
aI-1
asg8
(lp598
I24
aI25
aI-1
aF-1.0
aF-1.0
aF-1.0
aI24
aI25
aI-1
aF-1.0
aF-1.0
aF-1.0
asg10
(lp599
F0.0
aF-0.002
aF0.013999999999999999
asba(i__main__
sensor_data_struct
p600
(dp601
g3
(lp602
I606
aI322
aI196
aI1083
aI2535
aF168.0
aI696
aI333
aI216
aI1194
aI2475
aF141.0
asg5
I1
sg6
(lp603
I-1
aI-1
aI-1
aI-1
aI-1
aI-1
asg8
(lp604
I31
aI45
aI-1
aF-1.0
aF-1.0
aF-1.0
aI24
aI26
aI-1
aF-1.0
aF-1.0
aF-1.0
asg10
(lp605
F-0.009000000000000001
aF0.006999999999999999
aF0.013999999999999999
asba.