(lp0
(i__main__
sensor_data_struct
p1
(dp2
S'color'
p3
(lp4
I526
aI353
aI223
aI1092
aI2985
aF223.0
aI-1
aI-1
aI-1
aI-1
aI-1
aF-1.0
asS'button'
p5
S'plant'
p6
sS'IR'
p7
(lp8
I-1
aI-1
aI-1
aI-1
aI-1
aI-1
asS'TOF'
p9
(lp10
I34
aI18
aI-1
aF17.472000122070312
aF321.21600341796875
aF-1.0
aI-1
aI-1
aI-1
aF-1.0
aF-1.0
aF-1.0
asS'pt'
p11
(lp12
I-1
aI-1
aI-1
asba(i__main__
sensor_data_struct
p13
(dp14
g3
(lp15
I507
aI406
aI253
aI1169
aI3292
aF291.0
aI-1
aI-1
aI-1
aI-1
aI-1
aF-1.0
asg5
g6
sg7
(lp16
I-1
aI-1
aI-1
aI-1
aI-1
aI-1
asg9
(lp17
I31
aI19
aI-1
aF34.30399703979492
aF283.8399963378906
aF-1.0
aI-1
aI-1
aI-1
aF-1.0
aF-1.0
aF-1.0
asg11
g12
sba(i__main__
sensor_data_struct
p18
(dp19
g3
(lp20
I522
aI363
aI231
aI1104
aI3052
aF234.0
aI-1
aI-1
aI-1
aI-1
aI-1
aF-1.0
asg5
g6
sg7
(lp21
I-1
aI-1
aI-1
aI-1
aI-1
aI-1
asg9
(lp22
I22
aI28
aI-1
aF68.47999572753906
aF312.32000732421875
aF-1.0
aI-1
aI-1
aI-1
aF-1.0
aF-1.0
aF-1.0
asg11
g12
sba(i__main__
sensor_data_struct
p23
(dp24
g3
(lp25
I453
aI388
aI248
aI1080
aI3461
aF283.0
aI-1
aI-1
aI-1
aI-1
aI-1
aF-1.0
asg5
g6
sg7
(lp26
I-1
aI-1
aI-1
aI-1
aI-1
aI-1
asg9
(lp27
I25
aI28
aI-1
aF70.2719955444336
aF11.711999893188477
aF-1.0
aI-1
aI-1
aI-1
aF-1.0
aF-1.0
aF-1.0
asg11
g12
sba(i__main__
sensor_data_struct
p28
(dp29
g3
(lp30
I714
aI564
aI386
aI1671
aI3450
aF375.0
aI-1
aI-1
aI-1
aI-1
aI-1
aF-1.0
asg5
g6
sg7
(lp31
I-1
aI-1
aI-1
aI-1
aI-1
aI-1
asg9
(lp32
I28
aI49
aI-1
aF33.91999816894531
aF287.552001953125
aF-1.0
aI-1
aI-1
aI-1
aF-1.0
aF-1.0
aF-1.0
asg11
g12
sba(i__main__
sensor_data_struct
p33
(dp34
g3
(lp35
I670
aI628
aI419
aI1745
aI3773
aF467.0
aI-1
aI-1
aI-1
aI-1
aI-1
aF-1.0
asg5
g6
sg7
(lp36
I-1
aI-1
aI-1
aI-1
aI-1
aI-1
asg9
(lp37
I20
aI22
aI-1
aF86.7199935913086
aF295.10400390625
aF-1.0
aI-1
aI-1
aI-1
aF-1.0
aF-1.0
aF-1.0
asg11
g12
sba(i__main__
sensor_data_struct
p38
(dp39
g3
(lp40
I567
aI447
aI292
aI1286
aI3319
aF307.0
aI-1
aI-1
aI-1
aI-1
aI-1
aF-1.0
asg5
g6
sg7
(lp41
I-1
aI-1
aI-1
aI-1
aI-1
aI-1
asg9
(lp42
I52
aI38
aI-1
aF17.600000381469727
aF291.583984375
aF-1.0
aI-1
aI-1
aI-1
aF-1.0
aF-1.0
aF-1.0
asg11
g12
sba(i__main__
sensor_data_struct
p43
(dp44
g3
(lp45
I496
aI436
aI291
aI1216
aI3616
aF314.0
aI-1
aI-1
aI-1
aI-1
aI-1
aF-1.0
asg5
g6
sg7
(lp46
I-1
aI-1
aI-1
aI-1
aI-1
aI-1
asg9
(lp47
I22
aI28
aI-1
aF69.75999450683594
aF11.968000411987305
aF-1.0
aI-1
aI-1
aI-1
aF-1.0
aF-1.0
aF-1.0
asg11
g12
sba(i__main__
sensor_data_struct
p48
(dp49
g3
(lp50
I1116
aI1141
aI802
aI3099
aI4129
aF851.0
aI-1
aI-1
aI-1
aI-1
aI-1
aF-1.0
asg5
g6
sg7
(lp51
I-1
aI-1
aI-1
aI-1
aI-1
aI-1
asg9
(lp52
I18
aI30
aI-1
aF4.671999931335449
aF321.66400146484375
aF-1.0
aI-1
aI-1
aI-1
aF-1.0
aF-1.0
aF-1.0
asg11
g12
sba(i__main__
sensor_data_struct
p53
(dp54
g3
(lp55
I533
aI381
aI241
aI1151
aI3105
aF251.0
aI-1
aI-1
aI-1
aI-1
aI-1
aF-1.0
asg5
g6
sg7
(lp56
I-1
aI-1
aI-1
aI-1
aI-1
aI-1
asg9
(lp57
I24
aI23
aI-1
aF47.80799865722656
aF288.12799072265625
aF-1.0
aI-1
aI-1
aI-1
aF-1.0
aF-1.0
aF-1.0
asg11
g12
sba(i__main__
sensor_data_struct
p58
(dp59
g3
(lp60
I493
aI314
aI196
aI992
aI2882
aF192.0
aI-1
aI-1
aI-1
aI-1
aI-1
aF-1.0
asg5
g6
sg7
(lp61
I-1
aI-1
aI-1
aI-1
aI-1
aI-1
asg9
(lp62
I30
aI21
aI-1
aF26.4320011138916
aF314.30401611328125
aF-1.0
aI-1
aI-1
aI-1
aF-1.0
aF-1.0
aF-1.0
asg11
g12
sba(i__main__
sensor_data_struct
p63
(dp64
g3
(lp65
I792
aI682
aI467
aI1935
aI3631
aF477.0
aI-1
aI-1
aI-1
aI-1
aI-1
aF-1.0
asg5
g6
sg7
(lp66
I-1
aI-1
aI-1
aI-1
aI-1
aI-1
asg9
(lp67
I30
aI22
aI-1
aF34.624000549316406
aF345.6000061035156
aF-1.0
aI-1
aI-1
aI-1
aF-1.0
aF-1.0
aF-1.0
asg11
g12
sba(i__main__
sensor_data_struct
p68
(dp69
g3
(lp70
I439
aI308
aI197
aI930
aI3066
aF199.0
aI-1
aI-1
aI-1
aI-1
aI-1
aF-1.0
asg5
g6
sg7
(lp71
I-1
aI-1
aI-1
aI-1
aI-1
aI-1
asg9
(lp72
I36
aI19
aI-1
aF36.35199737548828
aF10.303999900817871
aF-1.0
aI-1
aI-1
aI-1
aF-1.0
aF-1.0
aF-1.0
asg11
g12
sba(i__main__
sensor_data_struct
p73
(dp74
g3
(lp75
I636
aI519
aI346
aI1489
aI3447
aF359.0
aI-1
aI-1
aI-1
aI-1
aI-1
aF-1.0
asg5
g6
sg7
(lp76
I-1
aI-1
aI-1
aI-1
aI-1
aI-1
asg9
(lp77
I21
aI27
aI-1
aF10.943999290466309
aF287.1679992675781
aF-1.0
aI-1
aI-1
aI-1
aF-1.0
aF-1.0
aF-1.0
asg11
g12
sba(i__main__
sensor_data_struct
p78
(dp79
g3
(lp80
I588
aI516
aI341
aI1425
aI3572
aF373.0
aI-1
aI-1
aI-1
aI-1
aI-1
aF-1.0
asg5
g6
sg7
(lp81
I-1
aI-1
aI-1
aI-1
aI-1
aI-1
asg9
(lp82
I57
aI36
aI-1
aF22.527999877929688
aF225.8560028076172
aF-1.0
aI-1
aI-1
aI-1
aF-1.0
aF-1.0
aF-1.0
asg11
g12
sba(i__main__
sensor_data_struct
p83
(dp84
g3
(lp85
I557
aI388
aI257
aI1191
aI3130
aF243.0
aI-1
aI-1
aI-1
aI-1
aI-1
aF-1.0
asg5
g6
sg7
(lp86
I-1
aI-1
aI-1
aI-1
aI-1
aI-1
asg9
(lp87
I20
aI32
aI-1
aF26.687999725341797
aF291.64801025390625
aF-1.0
aI-1
aI-1
aI-1
aF-1.0
aF-1.0
aF-1.0
asg11
g12
sba(i__main__
sensor_data_struct
p88
(dp89
g3
(lp90
I479
aI311
aI195
aI969
aI2903
aF192.0
aI-1
aI-1
aI-1
aI-1
aI-1
aF-1.0
asg5
g6
sg7
(lp91
I-1
aI-1
aI-1
aI-1
aI-1
aI-1
asg9
(lp92
I21
aI16
aI-1
aF14.528000831604004
aF285.24798583984375
aF-1.0
aI-1
aI-1
aI-1
aF-1.0
aF-1.0
aF-1.0
asg11
g12
sba(i__main__
sensor_data_struct
p93
(dp94
g3
(lp95
I526
aI376
aI240
aI1124
aI3093
aF247.0
aI-1
aI-1
aI-1
aI-1
aI-1
aF-1.0
asg5
g6
sg7
(lp96
I-1
aI-1
aI-1
aI-1
aI-1
aI-1
asg9
(lp97
I38
aI34
aI-1
aF9.791999816894531
aF7.1680006980896
aF-1.0
aI-1
aI-1
aI-1
aF-1.0
aF-1.0
aF-1.0
asg11
g12
sba(i__main__
sensor_data_struct
p98
(dp99
g3
(lp100
I616
aI578
aI385
aI1567
aI3758
aF430.0
aI-1
aI-1
aI-1
aI-1
aI-1
aF-1.0
asg5
g6
sg7
(lp101
I-1
aI-1
aI-1
aI-1
aI-1
aI-1
asg9
(lp102
I64
aI42
aI-1
aF49.663997650146484
aF12.736000061035156
aF-1.0
aI-1
aI-1
aI-1
aF-1.0
aF-1.0
aF-1.0
asg11
g12
sba(i__main__
sensor_data_struct
p103
(dp104
g3
(lp105
I604
aI611
aI408
aI1641
aI3964
aF469.0
aI-1
aI-1
aI-1
aI-1
aI-1
aF-1.0
asg5
g6
sg7
(lp106
I-1
aI-1
aI-1
aI-1
aI-1
aI-1
asg9
(lp107
I17
aI16
aI-1
aF62.08000183105469
aF238.9759979248047
aF-1.0
aI-1
aI-1
aI-1
aF-1.0
aF-1.0
aF-1.0
asg11
g12
sba(i__main__
sensor_data_struct
p108
(dp109
g3
(lp110
I489
aI329
aI206
aI1018
aI2982
aF209.0
aI-1
aI-1
aI-1
aI-1
aI-1
aF-1.0
asg5
g6
sg7
(lp111
I-1
aI-1
aI-1
aI-1
aI-1
aI-1
asg9
(lp112
I54
aI27
aI-1
aF104.76799011230469
aF298.30401611328125
aF-1.0
aI-1
aI-1
aI-1
aF-1.0
aF-1.0
aF-1.0
asg11
g12
sba(i__main__
sensor_data_struct
p113
(dp114
g3
(lp115
I494
aI339
aI214
aI1042
aI3032
aF218.0
aI-1
aI-1
aI-1
aI-1
aI-1
aF-1.0
asg5
g6
sg7
(lp116
I-1
aI-1
aI-1
aI-1
aI-1
aI-1
asg9
(lp117
I39
aI25
aI-1
aF96.76799774169922
aF300.4800109863281
aF-1.0
aI-1
aI-1
aI-1
aF-1.0
aF-1.0
aF-1.0
asg11
g12
sba(i__main__
sensor_data_struct
p118
(dp119
g3
(lp120
I544
aI407
aI262
aI1204
aI3211
aF274.0
aI-1
aI-1
aI-1
aI-1
aI-1
aF-1.0
asg5
g6
sg7
(lp121
I-1
aI-1
aI-1
aI-1
aI-1
aI-1
asg9
(lp122
I27
aI21
aI-1
aF56.383995056152344
aF313.8559875488281
aF-1.0
aI-1
aI-1
aI-1
aF-1.0
aF-1.0
aF-1.0
asg11
g12
sba(i__main__
sensor_data_struct
p123
(dp124
g3
(lp125
I469
aI326
aI205
aI989
aI3033
aF212.0
aI-1
aI-1
aI-1
aI-1
aI-1
aF-1.0
asg5
g6
sg7
(lp126
I-1
aI-1
aI-1
aI-1
aI-1
aI-1
asg9
(lp127
I29
aI22
aI-1
aF43.263999938964844
aF290.4319763183594
aF-1.0
aI-1
aI-1
aI-1
aF-1.0
aF-1.0
aF-1.0
asg11
g12
sba(i__main__
sensor_data_struct
p128
(dp129
g3
(lp130
I460
aI280
aI173
aI900
aI2792
aF165.0
aI-1
aI-1
aI-1
aI-1
aI-1
aF-1.0
asg5
g6
sg7
(lp131
I-1
aI-1
aI-1
aI-1
aI-1
aI-1
asg9
(lp132
I42
aI50
aI-1
aF39.80799865722656
aF286.97601318359375
aF-1.0
aI-1
aI-1
aI-1
aF-1.0
aF-1.0
aF-1.0
asg11
g12
sba(i__main__
sensor_data_struct
p133
(dp134
g3
(lp135
I589
aI459
aI305
aI1372
aI3363
aF310.0
aI-1
aI-1
aI-1
aI-1
aI-1
aF-1.0
asg5
g6
sg7
(lp136
I-1
aI-1
aI-1
aI-1
aI-1
aI-1
asg9
(lp137
I50
aI34
aI-1
aF25.3439998626709
aF287.3599853515625
aF-1.0
aI-1
aI-1
aI-1
aF-1.0
aF-1.0
aF-1.0
asg11
g12
sba(i__main__
sensor_data_struct
p138
(dp139
g3
(lp140
I472
aI282
aI175
aI914
aI2767
aF163.0
aI-1
aI-1
aI-1
aI-1
aI-1
aF-1.0
asg5
g6
sg7
(lp141
I-1
aI-1
aI-1
aI-1
aI-1
aI-1
asg9
(lp142
I36
aI44
aI-1
aF25.088001251220703
aF287.93597412109375
aF-1.0
aI-1
aI-1
aI-1
aF-1.0
aF-1.0
aF-1.0
asg11
g12
sba(i__main__
sensor_data_struct
p143
(dp144
g3
(lp145
I800
aI841
aI564
aI2241
aI4077
aF654.0
aI-1
aI-1
aI-1
aI-1
aI-1
aF-1.0
asg5
g6
sg7
(lp146
I-1
aI-1
aI-1
aI-1
aI-1
aI-1
asg9
(lp147
I26
aI27
aI-1
aF84.73599243164062
aF271.1679992675781
aF-1.0
aI-1
aI-1
aI-1
aF-1.0
aF-1.0
aF-1.0
asg11
g12
sba(i__main__
sensor_data_struct
p148
(dp149
g3
(lp150
I533
aI463
aI302
aI1289
aI3537
aF336.0
aI-1
aI-1
aI-1
aI-1
aI-1
aF-1.0
asg5
g6
sg7
(lp151
I-1
aI-1
aI-1
aI-1
aI-1
aI-1
asg9
(lp152
I31
aI16
aI-1
aF13.375999450683594
aF323.583984375
aF-1.0
aI-1
aI-1
aI-1
aF-1.0
aF-1.0
aF-1.0
asg11
g12
sba(i__main__
sensor_data_struct
p153
(dp154
g3
(lp155
I514
aI362
aI231
aI1091
aI3070
aF235.0
aI-1
aI-1
aI-1
aI-1
aI-1
aF-1.0
asg5
g6
sg7
(lp156
I-1
aI-1
aI-1
aI-1
aI-1
aI-1
asg9
(lp157
I29
aI29
aI-1
aF11.968000411987305
aF11.455999374389648
aF-1.0
aI-1
aI-1
aI-1
aF-1.0
aF-1.0
aF-1.0
asg11
g12
sba(i__main__
sensor_data_struct
p158
(dp159
g3
(lp160
I562
aI538
aI362
aI1446
aI3825
aF401.0
aI-1
aI-1
aI-1
aI-1
aI-1
aF-1.0
asg5
g6
sg7
(lp161
I-1
aI-1
aI-1
aI-1
aI-1
aI-1
asg9
(lp162
I63
aI37
aI-1
aF30.591999053955078
aF12.67199993133545
aF-1.0
aI-1
aI-1
aI-1
aF-1.0
aF-1.0
aF-1.0
asg11
g12
sba(i__main__
sensor_data_struct
p163
(dp164
g3
(lp165
I837
aI817
aI575
aI2227
aI4006
aF596.0
aI-1
aI-1
aI-1
aI-1
aI-1
aF-1.0
asg5
g6
sg7
(lp166
I-1
aI-1
aI-1
aI-1
aI-1
aI-1
asg9
(lp167
I28
aI20
aI-1
aF17.535999298095703
aF299.20001220703125
aF-1.0
aI-1
aI-1
aI-1
aF-1.0
aF-1.0
aF-1.0
asg11
g12
sba(i__main__
sensor_data_struct
p168
(dp169
g3
(lp170
I1011
aI969
aI670
aI2626
aI3900
aF710.0
aI-1
aI-1
aI-1
aI-1
aI-1
aF-1.0
asg5
g6
sg7
(lp171
I-1
aI-1
aI-1
aI-1
aI-1
aI-1
asg9
(lp172
I55
aI40
aI-1
aF10.815999984741211
aF236.9919891357422
aF-1.0
aI-1
aI-1
aI-1
aF-1.0
aF-1.0
aF-1.0
asg11
g12
sba(i__main__
sensor_data_struct
p173
(dp174
g3
(lp175
I474
aI396
aI253
aI1115
aI3409
aF285.0
aI-1
aI-1
aI-1
aI-1
aI-1
aF-1.0
asg5
g6
sg7
(lp176
I-1
aI-1
aI-1
aI-1
aI-1
aI-1
asg9
(lp177
I24
aI26
aI-1
aF61.055999755859375
aF262.0159912109375
aF-1.0
aI-1
aI-1
aI-1
aF-1.0
aF-1.0
aF-1.0
asg11
g12
sba(i__main__
sensor_data_struct
p178
(dp179
g3
(lp180
I555
aI401
aI261
aI1197
aI3145
aF261.0
aI-1
aI-1
aI-1
aI-1
aI-1
aF-1.0
asg5
g6
sg7
(lp181
I-1
aI-1
aI-1
aI-1
aI-1
aI-1
asg9
(lp182
I24
aI27
aI-1
aF10.5600004196167
aF7.935999870300293
aF-1.0
aI-1
aI-1
aI-1
aF-1.0
aF-1.0
aF-1.0
asg11
g12
sba(i__main__
sensor_data_struct
p183
(dp184
g3
(lp185
I527
aI372
aI238
aI1119
aI3075
aF241.0
aI-1
aI-1
aI-1
aI-1
aI-1
aF-1.0
asg5
g6
sg7
(lp186
I-1
aI-1
aI-1
aI-1
aI-1
aI-1
asg9
(lp187
I31
aI32
aI-1
aF29.247997283935547
aF9.983999252319336
aF-1.0
aI-1
aI-1
aI-1
aF-1.0
aF-1.0
aF-1.0
asg11
g12
sba(i__main__
sensor_data_struct
p188
(dp189
g3
(lp190
I821
aI833
aI576
aI2207
aI4048
aF626.0
aI-1
aI-1
aI-1
aI-1
aI-1
aF-1.0
asg5
g6
sg7
(lp191
I-1
aI-1
aI-1
aI-1
aI-1
aI-1
asg9
(lp192
I40
aI40
aI-1
aF12.415999412536621
aF282.81597900390625
aF-1.0
aI-1
aI-1
aI-1
aF-1.0
aF-1.0
aF-1.0
asg11
g12
sba(i__main__
sensor_data_struct
p193
(dp194
g3
(lp195
I488
aI326
aI206
aI1004
aI2962
aF205.0
aI-1
aI-1
aI-1
aI-1
aI-1
aF-1.0
asg5
g6
sg7
(lp196
I-1
aI-1
aI-1
aI-1
aI-1
aI-1
asg9
(lp197
I26
aI45
aI-1
aF53.183998107910156
aF296.1919860839844
aF-1.0
aI-1
aI-1
aI-1
aF-1.0
aF-1.0
aF-1.0
asg11
g12
sba(i__main__
sensor_data_struct
p198
(dp199
g3
(lp200
I1037
aI1138
aI785
aI3009
aI4275
aF884.0
aI-1
aI-1
aI-1
aI-1
aI-1
aF-1.0
asg5
g6
sg7
(lp201
I-1
aI-1
aI-1
aI-1
aI-1
aI-1
asg9
(lp202
I21
aI25
aI-1
aF7.232000350952148
aF283.9679870605469
aF-1.0
aI-1
aI-1
aI-1
aF-1.0
aF-1.0
aF-1.0
asg11
g12
sba(i__main__
sensor_data_struct
p203
(dp204
g3
(lp205
I501
aI329
aI209
aI1025
aI2948
aF203.0
aI-1
aI-1
aI-1
aI-1
aI-1
aF-1.0
asg5
g6
sg7
(lp206
I-1
aI-1
aI-1
aI-1
aI-1
aI-1
asg9
(lp207
I23
aI10
aI-1
aF42.4319953918457
aF9.343999862670898
aF-1.0
aI-1
aI-1
aI-1
aF-1.0
aF-1.0
aF-1.0
asg11
g12
sba(i__main__
sensor_data_struct
p208
(dp209
g3
(lp210
I561
aI417
aI268
aI1226
aI3174
aF279.0
aI-1
aI-1
aI-1
aI-1
aI-1
aF-1.0
asg5
g6
sg7
(lp211
I-1
aI-1
aI-1
aI-1
aI-1
aI-1
asg9
(lp212
I11
aI21
aI-1
aF63.74399948120117
aF290.8800048828125
aF-1.0
aI-1
aI-1
aI-1
aF-1.0
aF-1.0
aF-1.0
asg11
g12
sba(i__main__
sensor_data_struct
p213
(dp214
g3
(lp215
I465
aI281
aI174
aI906
aI2780
aF165.0
aI-1
aI-1
aI-1
aI-1
aI-1
aF-1.0
asg5
g6
sg7
(lp216
I-1
aI-1
aI-1
aI-1
aI-1
aI-1
asg9
(lp217
I30
aI18
aI-1
aF38.400001525878906
aF303.03997802734375
aF-1.0
aI-1
aI-1
aI-1
aF-1.0
aF-1.0
aF-1.0
asg11
g12
sba(i__main__
sensor_data_struct
p218
(dp219
g3
(lp220
I478
aI280
aI174
aI917
aI2741
aF159.0
aI-1
aI-1
aI-1
aI-1
aI-1
aF-1.0
asg5
g6
sg7
(lp221
I-1
aI-1
aI-1
aI-1
aI-1
aI-1
asg9
(lp222
I19
aI40
aI-1
aF9.343999862670898
aF289.4079895019531
aF-1.0
aI-1
aI-1
aI-1
aF-1.0
aF-1.0
aF-1.0
asg11
g12
sba(i__main__
sensor_data_struct
p223
(dp224
g3
(lp225
I489
aI324
aI204
aI1000
aI2943
aF203.0
aI-1
aI-1
aI-1
aI-1
aI-1
aF-1.0
asg5
g6
sg7
(lp226
I-1
aI-1
aI-1
aI-1
aI-1
aI-1
asg9
(lp227
I29
aI26
aI-1
aF10.11199951171875
aF271.8079833984375
aF-1.0
aI-1
aI-1
aI-1
aF-1.0
aF-1.0
aF-1.0
asg11
g12
sba(i__main__
sensor_data_struct
p228
(dp229
g3
(lp230
I477
aI353
aI228
aI1049
aI3195
aF235.0
aI-1
aI-1
aI-1
aI-1
aI-1
aF-1.0
asg5
g6
sg7
(lp231
I-1
aI-1
aI-1
aI-1
aI-1
aI-1
asg9
(lp232
I26
aI26
aI-1
aF47.935997009277344
aF286.8479919433594
aF-1.0
aI-1
aI-1
aI-1
aF-1.0
aF-1.0
aF-1.0
asg11
g12
sba(i__main__
sensor_data_struct
p233
(dp234
g3
(lp235
I614
aI505
aI329
aI1435
aI3415
aF356.0
aI-1
aI-1
aI-1
aI-1
aI-1
aF-1.0
asg5
g6
sg7
(lp236
I-1
aI-1
aI-1
aI-1
aI-1
aI-1
asg9
(lp237
I18
aI23
aI-1
aF8.767999649047852
aF149.05599975585938
aF-1.0
aI-1
aI-1
aI-1
aF-1.0
aF-1.0
aF-1.0
asg11
g12
sba(i__main__
sensor_data_struct
p238
(dp239
g3
(lp240
I2639
aI3414
aI2377
aI8432
aI4822
aF2792.0
aI-1
aI-1
aI-1
aI-1
aI-1
aF-1.0
asg5
g6
sg7
(lp241
I-1
aI-1
aI-1
aI-1
aI-1
aI-1
asg9
(lp242
I60
aI51
aI-1
aF14.399999618530273
aF208.25601196289062
aF-1.0
aI-1
aI-1
aI-1
aF-1.0
aF-1.0
aF-1.0
asg11
g12
sba(i__main__
sensor_data_struct
p243
(dp244
g3
(lp245
I611
aI513
aI338
aI1470
aI3498
aF363.0
aI-1
aI-1
aI-1
aI-1
aI-1
aF-1.0
asg5
g6
sg7
(lp246
I-1
aI-1
aI-1
aI-1
aI-1
aI-1
asg9
(lp247
I20
aI19
aI-1
aF139.96798706054688
aF310.7200012207031
aF-1.0
aI-1
aI-1
aI-1
aF-1.0
aF-1.0
aF-1.0
asg11
g12
sba(i__main__
sensor_data_struct
p248
(dp249
g3
(lp250
I578
aI460
aI303
aI1329
aI3369
aF316.0
aI-1
aI-1
aI-1
aI-1
aI-1
aF-1.0
asg5
g6
sg7
(lp251
I-1
aI-1
aI-1
aI-1
aI-1
aI-1
asg9
(lp252
I12
aI24
aI-1
aF39.10399627685547
aF289.2799987792969
aF-1.0
aI-1
aI-1
aI-1
aF-1.0
aF-1.0
aF-1.0
asg11
g12
sba(i__main__
sensor_data_struct
p253
(dp254
g3
(lp255
I572
aI441
aI290
aI1293
aI3306
aF298.0
aI-1
aI-1
aI-1
aI-1
aI-1
aF-1.0
asg5
g6
sg7
(lp256
I-1
aI-1
aI-1
aI-1
aI-1
aI-1
asg9
(lp257
I31
aI19
aI-1
aF45.439998626708984
aF315.20001220703125
aF-1.0
aI-1
aI-1
aI-1
aF-1.0
aF-1.0
aF-1.0
asg11
g12
sba(i__main__
sensor_data_struct
p258
(dp259
g3
(lp260
I576
aI465
aI303
aI1351
aI3395
aF325.0
aI-1
aI-1
aI-1
aI-1
aI-1
aF-1.0
asg5
g6
sg7
(lp261
I-1
aI-1
aI-1
aI-1
aI-1
aI-1
asg9
(lp262
I26
aI19
aI-1
aF85.8239974975586
aF241.53598022460938
aF-1.0
aI-1
aI-1
aI-1
aF-1.0
aF-1.0
aF-1.0
asg11
g12
sba(i__main__
sensor_data_struct
p263
(dp264
g3
(lp265
I676
aI632
aI434
aI1730
aI3824
aF460.0
aI-1
aI-1
aI-1
aI-1
aI-1
aF-1.0
asg5
g6
sg7
(lp266
I-1
aI-1
aI-1
aI-1
aI-1
aI-1
asg9
(lp267
I10
aI42
aI-1
aF5.696000576019287
aF10.432001113891602
aF-1.0
aI-1
aI-1
aI-1
aF-1.0
aF-1.0
aF-1.0
asg11
g12
sba(i__main__
sensor_data_struct
p268
(dp269
g3
(lp270
I543
aI372
aI240
aI1136
aI3039
aF235.0
aI-1
aI-1
aI-1
aI-1
aI-1
aF-1.0
asg5
g6
sg7
(lp271
I-1
aI-1
aI-1
aI-1
aI-1
aI-1
asg9
(lp272
I12
aI9
aI-1
aF39.61600112915039
aF290.0480041503906
aF-1.0
aI-1
aI-1
aI-1
aF-1.0
aF-1.0
aF-1.0
asg11
g12
sba(i__main__
sensor_data_struct
p273
(dp274
g3
(lp275
I478
aI300
aI186
aI951
aI2843
aF182.0
aI-1
aI-1
aI-1
aI-1
aI-1
aF-1.0
asg5
g6
sg7
(lp276
I-1
aI-1
aI-1
aI-1
aI-1
aI-1
asg9
(lp277
I18
aI30
aI-1
aF32.447998046875
aF297.7279968261719
aF-1.0
aI-1
aI-1
aI-1
aF-1.0
aF-1.0
aF-1.0
asg11
g12
sba(i__main__
sensor_data_struct
p278
(dp279
g3
(lp280
I887
aI894
aI624
aI2417
aI4071
aF666.0
aI-1
aI-1
aI-1
aI-1
aI-1
aF-1.0
asg5
g6
sg7
(lp281
I-1
aI-1
aI-1
aI-1
aI-1
aI-1
asg9
(lp282
I11
aI45
aI-1
aF128.1280059814453
aF61.183998107910156
aF-1.0
aI-1
aI-1
aI-1
aF-1.0
aF-1.0
aF-1.0
asg11
g12
sba(i__main__
sensor_data_struct
p283
(dp284
g3
(lp285
I1417
aI1513
aI1081
aI4100
aI4297
aF1136.0
aI-1
aI-1
aI-1
aI-1
aI-1
aF-1.0
asg5
g6
sg7
(lp286
I-1
aI-1
aI-1
aI-1
aI-1
aI-1
asg9
(lp287
I15
aI13
aI-1
aF150.78399658203125
aF331.135986328125
aF-1.0
aI-1
aI-1
aI-1
aF-1.0
aF-1.0
aF-1.0
asg11
g12
sba(i__main__
sensor_data_struct
p288
(dp289
g3
(lp290
I501
aI338
aI215
aI1036
aI2986
aF213.0
aI-1
aI-1
aI-1
aI-1
aI-1
aF-1.0
asg5
g6
sg7
(lp291
I-1
aI-1
aI-1
aI-1
aI-1
aI-1
asg9
(lp292
I27
aI27
aI-1
aF11.904000282287598
aF9.151999473571777
aF-1.0
aI-1
aI-1
aI-1
aF-1.0
aF-1.0
aF-1.0
asg11
g12
sba(i__main__
sensor_data_struct
p293
(dp294
g3
(lp295
I470
aI299
aI187
aI943
aI2877
aF182.0
aI-1
aI-1
aI-1
aI-1
aI-1
aF-1.0
asg5
g6
sg7
(lp296
I-1
aI-1
aI-1
aI-1
aI-1
aI-1
asg9
(lp297
I19
aI48
aI-1
aF13.4399995803833
aF292.7359924316406
aF-1.0
aI-1
aI-1
aI-1
aF-1.0
aF-1.0
aF-1.0
asg11
g12
sba(i__main__
sensor_data_struct
p298
(dp299
g3
(lp300
I480
aI331
aI209
aI1006
aI3018
aF213.0
aI-1
aI-1
aI-1
aI-1
aI-1
aF-1.0
asg5
g6
sg7
(lp301
I-1
aI-1
aI-1
aI-1
aI-1
aI-1
asg9
(lp302
I16
aI24
aI-1
aF47.87200164794922
aF12.095999717712402
aF-1.0
aI-1
aI-1
aI-1
aF-1.0
aF-1.0
aF-1.0
asg11
g12
sba(i__main__
sensor_data_struct
p303
(dp304
g3
(lp305
I454
aI281
aI175
aI896
aI2822
aF168.0
aI-1
aI-1
aI-1
aI-1
aI-1
aF-1.0
asg5
g6
sg7
(lp306
I-1
aI-1
aI-1
aI-1
aI-1
aI-1
asg9
(lp307
I61
aI26
aI-1
aF41.7920036315918
aF295.552001953125
aF-1.0
aI-1
aI-1
aI-1
aF-1.0
aF-1.0
aF-1.0
asg11
g12
sba(i__main__
sensor_data_struct
p308
(dp309
g3
(lp310
I471
aI278
aI170
aI905
aI2729
aF161.0
aI-1
aI-1
aI-1
aI-1
aI-1
aF-1.0
asg5
g6
sg7
(lp311
I-1
aI-1
aI-1
aI-1
aI-1
aI-1
asg9
(lp312
I12
aI53
aI-1
aF6.9760003089904785
aF291.3919982910156
aF-1.0
aI-1
aI-1
aI-1
aF-1.0
aF-1.0
aF-1.0
asg11
g12
sba(i__main__
sensor_data_struct
p313
(dp314
g3
(lp315
I475
aI312
aI194
aI970
aI2923
aF196.0
aI-1
aI-1
aI-1
aI-1
aI-1
aF-1.0
asg5
g6
sg7
(lp316
I-1
aI-1
aI-1
aI-1
aI-1
aI-1
asg9
(lp317
I13
aI22
aI-1
aF43.90399932861328
aF9.53600025177002
aF-1.0
aI-1
aI-1
aI-1
aF-1.0
aF-1.0
aF-1.0
asg11
g12
sba(i__main__
sensor_data_struct
p318
(dp319
g3
(lp320
I1917
aI3280
aI2341
aI7866
aI6043
aF2841.0
aI-1
aI-1
aI-1
aI-1
aI-1
aF-1.0
asg5
g6
sg7
(lp321
I-1
aI-1
aI-1
aI-1
aI-1
aI-1
asg9
(lp322
I63
aI50
aI-1
aF2.9439995288848877
aF7.039999961853027
aF-1.0
aI-1
aI-1
aI-1
aF-1.0
aF-1.0
aF-1.0
asg11
g12
sba(i__main__
sensor_data_struct
p323
(dp324
g3
(lp325
I1135
aI1580
aI1072
aI3813
aI4989
aF1340.0
aI-1
aI-1
aI-1
aI-1
aI-1
aF-1.0
asg5
g6
sg7
(lp326
I-1
aI-1
aI-1
aI-1
aI-1
aI-1
asg9
(lp327
I16
aI34
aI-1
aF1.5360000133514404
aF7.295999526977539
aF-1.0
aI-1
aI-1
aI-1
aF-1.0
aF-1.0
aF-1.0
asg11
g12
sba(i__main__
sensor_data_struct
p328
(dp329
g3
(lp330
I692
aI661
aI446
aI1825
aI3846
aF492.0
aI-1
aI-1
aI-1
aI-1
aI-1
aF-1.0
asg5
g6
sg7
(lp331
I-1
aI-1
aI-1
aI-1
aI-1
aI-1
asg9
(lp332
I16
aI6
aI-1
aF127.87199401855469
aF282.81597900390625
aF-1.0
aI-1
aI-1
aI-1
aF-1.0
aF-1.0
aF-1.0
asg11
g12
sba(i__main__
sensor_data_struct
p333
(dp334
g3
(lp335
I540
aI425
aI272
aI1220
aI3281
aF296.0
aI-1
aI-1
aI-1
aI-1
aI-1
aF-1.0
asg5
g6
sg7
(lp336
I-1
aI-1
aI-1
aI-1
aI-1
aI-1
asg9
(lp337
I10
aI32
aI-1
aF30.911998748779297
aF10.303999900817871
aF-1.0
aI-1
aI-1
aI-1
aF-1.0
aF-1.0
aF-1.0
asg11
g12
sba(i__main__
sensor_data_struct
p338
(dp339
g3
(lp340
I1201
aI1680
aI1158
aI4112
aI5064
aF1414.0
aI-1
aI-1
aI-1
aI-1
aI-1
aF-1.0
asg5
g6
sg7
(lp341
I-1
aI-1
aI-1
aI-1
aI-1
aI-1
asg9
(lp342
I10
aI35
aI-1
aF0.7680000066757202
aF7.039999961853027
aF-1.0
aI-1
aI-1
aI-1
aF-1.0
aF-1.0
aF-1.0
asg11
g12
sba(i__main__
sensor_data_struct
p343
(dp344
g3
(lp345
I555
aI461
aI307
aI1333
aI3498
aF322.0
aI-1
aI-1
aI-1
aI-1
aI-1
aF-1.0
asg5
g6
sg7
(lp346
I-1
aI-1
aI-1
aI-1
aI-1
aI-1
asg9
(lp347
I39
aI49
aI-1
aF192.51199340820312
aF286.2720031738281
aF-1.0
aI-1
aI-1
aI-1
aF-1.0
aF-1.0
aF-1.0
asg11
g12
sba(i__main__
sensor_data_struct
p348
(dp349
g3
(lp350
I522
aI374
aI245
aI1132
aI3163
aF241.0
aI-1
aI-1
aI-1
aI-1
aI-1
aF-1.0
asg5
g6
sg7
(lp351
I-1
aI-1
aI-1
aI-1
aI-1
aI-1
asg9
(lp352
I24
aI23
aI-1
aF60.8640022277832
aF292.09600830078125
aF-1.0
aI-1
aI-1
aI-1
aF-1.0
aF-1.0
aF-1.0
asg11
g12
sba(i__main__
sensor_data_struct
p353
(dp354
g3
(lp355
I506
aI434
aI292
aI1223
aI3576
aF307.0
aI-1
aI-1
aI-1
aI-1
aI-1
aF-1.0
asg5
g6
sg7
(lp356
I-1
aI-1
aI-1
aI-1
aI-1
aI-1
asg9
(lp357
I28
aI22
aI-1
aF11.711999893188477
aF312.76800537109375
aF-1.0
aI-1
aI-1
aI-1
aF-1.0
aF-1.0
aF-1.0
asg11
g12
sba(i__main__
sensor_data_struct
p358
(dp359
g3
(lp360
I588
aI514
aI340
aI1440
aI3591
aF371.0
aI-1
aI-1
aI-1
aI-1
aI-1
aF-1.0
asg5
g6
sg7
(lp361
I-1
aI-1
aI-1
aI-1
aI-1
aI-1
asg9
(lp362
I18
aI33
aI-1
aF7.359999179840088
aF289.8559875488281
aF-1.0
aI-1
aI-1
aI-1
aF-1.0
aF-1.0
aF-1.0
asg11
g12
sba(i__main__
sensor_data_struct
p363
(dp364
g3
(lp365
I487
aI424
aI283
aI1186
aI3591
aF303.0
aI-1
aI-1
aI-1
aI-1
aI-1
aF-1.0
asg5
g6
sg7
(lp366
I-1
aI-1
aI-1
aI-1
aI-1
aI-1
asg9
(lp367
I35
aI20
aI-1
aF8.640000343322754
aF299.583984375
aF-1.0
aI-1
aI-1
aI-1
aF-1.0
aF-1.0
aF-1.0
asg11
g12
sba(i__main__
sensor_data_struct
p368
(dp369
g3
(lp370
I439
aI281
aI178
aI882
aI2893
aF170.0
aI-1
aI-1
aI-1
aI-1
aI-1
aF-1.0
asg5
g6
sg7
(lp371
I-1
aI-1
aI-1
aI-1
aI-1
aI-1
asg9
(lp372
I61
aI16
aI-1
aF41.47200012207031
aF189.2480010986328
aF-1.0
aI-1
aI-1
aI-1
aF-1.0
aF-1.0
aF-1.0
asg11
g12
sba(i__main__
sensor_data_struct
p373
(dp374
g3
(lp375
I488
aI320
aI203
aI993
aI2934
aF198.0
aI-1
aI-1
aI-1
aI-1
aI-1
aF-1.0
asg5
g6
sg7
(lp376
I-1
aI-1
aI-1
aI-1
aI-1
aI-1
asg9
(lp377
I25
aI37
aI-1
aF71.48799896240234
aF281.7919921875
aF-1.0
aI-1
aI-1
aI-1
aF-1.0
aF-1.0
aF-1.0
asg11
g12
sba(i__main__
sensor_data_struct
p378
(dp379
g3
(lp380
I652
aI562
aI360
aI1551
aI3465
aF411.0
aI-1
aI-1
aI-1
aI-1
aI-1
aF-1.0
asg5
g6
sg7
(lp381
I-1
aI-1
aI-1
aI-1
aI-1
aI-1
asg9
(lp382
I58
aI41
aI-1
aF10.879999160766602
aF266.0480041503906
aF-1.0
aI-1
aI-1
aI-1
aF-1.0
aF-1.0
aF-1.0
asg11
g12
sba(i__main__
sensor_data_struct
p383
(dp384
g3
(lp385
I611
aI474
aI314
aI1369
aI3302
aF319.0
aI-1
aI-1
aI-1
aI-1
aI-1
aF-1.0
asg5
g6
sg7
(lp386
I-1
aI-1
aI-1
aI-1
aI-1
aI-1
asg9
(lp387
I9
aI17
aI-1
aF2.1760001182556152
aF283.135986328125
aF-1.0
aI-1
aI-1
aI-1
aF-1.0
aF-1.0
aF-1.0
asg11
g12
sba(i__main__
sensor_data_struct
p388
(dp389
g3
(lp390
I483
aI332
aI212
aI1006
aI3018
aF212.0
aI-1
aI-1
aI-1
aI-1
aI-1
aF-1.0
asg5
g6
sg7
(lp391
I-1
aI-1
aI-1
aI-1
aI-1
aI-1
asg9
(lp392
I56
aI18
aI-1
aF10.879999160766602
aF262.33599853515625
aF-1.0
aI-1
aI-1
aI-1
aF-1.0
aF-1.0
aF-1.0
asg11
g12
sba(i__main__
sensor_data_struct
p393
(dp394
g3
(lp395
I605
aI450
aI302
aI1331
aI3250
aF292.0
aI-1
aI-1
aI-1
aI-1
aI-1
aF-1.0
asg5
g6
sg7
(lp396
I-1
aI-1
aI-1
aI-1
aI-1
aI-1
asg9
(lp397
I27
aI37
aI-1
aF63.74399948120117
aF248.19198608398438
aF-1.0
aI-1
aI-1
aI-1
aF-1.0
aF-1.0
aF-1.0
asg11
g12
sba(i__main__
sensor_data_struct
p398
(dp399
g3
(lp400
I425
aI273
aI171
aI853
aI2880
aF167.0
aI-1
aI-1
aI-1
aI-1
aI-1
aF-1.0
asg5
g6
sg7
(lp401
I-1
aI-1
aI-1
aI-1
aI-1
aI-1
asg9
(lp402
I45
aI9
aI-1
aF48.0
aF14.399999618530273
aF-1.0
aI-1
aI-1
aI-1
aF-1.0
aF-1.0
aF-1.0
asg11
g12
sba(i__main__
sensor_data_struct
p403
(dp404
g3
(lp405
I1574
aI2693
aI2294
aI6705
aI6943
aF2060.0
aI-1
aI-1
aI-1
aI-1
aI-1
aF-1.0
asg5
g6
sg7
(lp406
I-1
aI-1
aI-1
aI-1
aI-1
aI-1
asg9
(lp407
I26
aI29
aI-1
aF0.7680000066757202
aF15.616000175476074
aF-1.0
aI-1
aI-1
aI-1
aF-1.0
aF-1.0
aF-1.0
asg11
g12
sba(i__main__
sensor_data_struct
p408
(dp409
g3
(lp410
I560
aI452
aI297
aI1309
aI3411
aF314.0
aI-1
aI-1
aI-1
aI-1
aI-1
aF-1.0
asg5
g6
sg7
(lp411
I-1
aI-1
aI-1
aI-1
aI-1
aI-1
asg9
(lp412
I22
aI20
aI-1
aF281.7919921875
aF244.4159698486328
aF-1.0
aI-1
aI-1
aI-1
aF-1.0
aF-1.0
aF-1.0
asg11
g12
sba(i__main__
sensor_data_struct
p413
(dp414
g3
(lp415
I517
aI354
aI228
aI1081
aI3033
aF224.0
aI-1
aI-1
aI-1
aI-1
aI-1
aF-1.0
asg5
g6
sg7
(lp416
I-1
aI-1
aI-1
aI-1
aI-1
aI-1
asg9
(lp417
I12
aI17
aI-1
aF269.3119812011719
aF289.343994140625
aF-1.0
aI-1
aI-1
aI-1
aF-1.0
aF-1.0
aF-1.0
asg11
g12
sba(i__main__
sensor_data_struct
p418
(dp419
g3
(lp420
I1142
aI1259
aI868
aI3316
aI4286
aF981.0
aI-1
aI-1
aI-1
aI-1
aI-1
aF-1.0
asg5
g6
sg7
(lp421
I-1
aI-1
aI-1
aI-1
aI-1
aI-1
asg9
(lp422
I11
aI45
aI-1
aF295.67999267578125
aF264.7040100097656
aF-1.0
aI-1
aI-1
aI-1
aF-1.0
aF-1.0
aF-1.0
asg11
g12
sba(i__main__
sensor_data_struct
p423
(dp424
g3
(lp425
I1230
aI1267
aI885
aI3295
aI4093
aF952.0
aI-1
aI-1
aI-1
aI-1
aI-1
aF-1.0
asg5
g6
sg7
(lp426
I-1
aI-1
aI-1
aI-1
aI-1
aI-1
asg9
(lp427
I44
aI44
aI-1
aF18.880001068115234
aF279.67999267578125
aF-1.0
aI-1
aI-1
aI-1
aF-1.0
aF-1.0
aF-1.0
asg11
g12
sba(i__main__
sensor_data_struct
p428
(dp429
g3
(lp430
I519
aI371
aI235
aI1115
aI3095
aF245.0
aI-1
aI-1
aI-1
aI-1
aI-1
aF-1.0
asg5
g6
sg7
(lp431
I-1
aI-1
aI-1
aI-1
aI-1
aI-1
asg9
(lp432
I40
aI17
aI-1
aF250.49600219726562
aF312.1919860839844
aF-1.0
aI-1
aI-1
aI-1
aF-1.0
aF-1.0
aF-1.0
asg11
g12
sba(i__main__
sensor_data_struct
p433
(dp434
g3
(lp435
I474
aI314
aI201
aI974
aI2973
aF194.0
aI-1
aI-1
aI-1
aI-1
aI-1
aF-1.0
asg5
g6
sg7
(lp436
I-1
aI-1
aI-1
aI-1
aI-1
aI-1
asg9
(lp437
I14
aI9
aI-1
aF12.351999282836914
aF285.6319885253906
aF-1.0
aI-1
aI-1
aI-1
aF-1.0
aF-1.0
aF-1.0
asg11
g12
sba(i__main__
sensor_data_struct
p438
(dp439
g3
(lp440
I457
aI290
aI180
aI916
aI2866
aF177.0
aI-1
aI-1
aI-1
aI-1
aI-1
aF-1.0
asg5
g6
sg7
(lp441
I-1
aI-1
aI-1
aI-1
aI-1
aI-1
asg9
(lp442
I32
aI47
aI-1
aF243.00799560546875
aF279.1679992675781
aF-1.0
aI-1
aI-1
aI-1
aF-1.0
aF-1.0
aF-1.0
asg11
g12
sba(i__main__
sensor_data_struct
p443
(dp444
g3
(lp445
I466
aI291
aI181
aI923
aI2835
aF175.0
aI-1
aI-1
aI-1
aI-1
aI-1
aF-1.0
asg5
g6
sg7
(lp446
I-1
aI-1
aI-1
aI-1
aI-1
aI-1
asg9
(lp447
I29
aI20
aI-1
aF242.7519989013672
aF308.4800109863281
aF-1.0
aI-1
aI-1
aI-1
aF-1.0
aF-1.0
aF-1.0
asg11
g12
sba(i__main__
sensor_data_struct
p448
(dp449
g3
(lp450
I470
aI290
aI181
aI926
aI2822
aF172.0
aI-1
aI-1
aI-1
aI-1
aI-1
aF-1.0
asg5
g6
sg7
(lp451
I-1
aI-1
aI-1
aI-1
aI-1
aI-1
asg9
(lp452
I45
aI35
aI-1
aF253.2480010986328
aF292.99200439453125
aF-1.0
aI-1
aI-1
aI-1
aF-1.0
aF-1.0
aF-1.0
asg11
g12
sba(i__main__
sensor_data_struct
p453
(dp454
g3
(lp455
I586
aI474
aI315
aI1372
aI3436
aF327.0
aI-1
aI-1
aI-1
aI-1
aI-1
aF-1.0
asg5
g6
sg7
(lp456
I-1
aI-1
aI-1
aI-1
aI-1
aI-1
asg9
(lp457
I71
aI51
aI-1
aF247.3599853515625
aF287.2959899902344
aF-1.0
aI-1
aI-1
aI-1
aF-1.0
aF-1.0
aF-1.0
asg11
g12
sba(i__main__
sensor_data_struct
p458
(dp459
g3
(lp460
I466
aI290
aI179
aI920
aI2818
aF175.0
aI-1
aI-1
aI-1
aI-1
aI-1
aF-1.0
asg5
g6
sg7
(lp461
I-1
aI-1
aI-1
aI-1
aI-1
aI-1
asg9
(lp462
I50
aI25
aI-1
aF246.1439971923828
aF312.447998046875
aF-1.0
aI-1
aI-1
aI-1
aF-1.0
aF-1.0
aF-1.0
asg11
g12
sba(i__main__
sensor_data_struct
p463
(dp464
g3
(lp465
I522
aI364
aI237
aI1104
aI3084
aF231.0
aI-1
aI-1
aI-1
aI-1
aI-1
aF-1.0
asg5
g6
sg7
(lp466
I-1
aI-1
aI-1
aI-1
aI-1
aI-1
asg9
(lp467
I26
aI22
aI-1
aF240.8319854736328
aF285.1199951171875
aF-1.0
aI-1
aI-1
aI-1
aF-1.0
aF-1.0
aF-1.0
asg11
g12
sba(i__main__
sensor_data_struct
p468
(dp469
g3
(lp470
I472
aI296
aI188
aI937
aI2863
aF176.0
aI-1
aI-1
aI-1
aI-1
aI-1
aF-1.0
asg5
g6
sg7
(lp471
I-1
aI-1
aI-1
aI-1
aI-1
aI-1
asg9
(lp472
I49
aI24
aI-1
aF236.92800903320312
aF288.83197021484375
aF-1.0
aI-1
aI-1
aI-1
aF-1.0
aF-1.0
aF-1.0
asg11
g12
sba(i__main__
sensor_data_struct
p473
(dp474
g3
(lp475
I454
aI289
aI179
aI907
aI2857
aF177.0
aI-1
aI-1
aI-1
aI-1
aI-1
aF-1.0
asg5
g6
sg7
(lp476
I-1
aI-1
aI-1
aI-1
aI-1
aI-1
asg9
(lp477
I23
aI40
aI-1
aF150.33599853515625
aF291.7760009765625
aF-1.0
aI-1
aI-1
aI-1
aF-1.0
aF-1.0
aF-1.0
asg11
g12
sba(i__main__
sensor_data_struct
p478
(dp479
g3
(lp480
I453
aI329
aI207
aI972
aI3094
aF220.0
aI-1
aI-1
aI-1
aI-1
aI-1
aF-1.0
asg5
g6
sg7
(lp481
I-1
aI-1
aI-1
aI-1
aI-1
aI-1
asg9
(lp482
I32
aI36
aI-1
aF21.43999671936035
aF286.2720031738281
aF-1.0
aI-1
aI-1
aI-1
aF-1.0
aF-1.0
aF-1.0
asg11
g12
sba(i__main__
sensor_data_struct
p483
(dp484
g3
(lp485
I397
aI252
aI155
aI783
aI2818
aF155.0
aI-1
aI-1
aI-1
aI-1
aI-1
aF-1.0
asg5
g6
sg7
(lp486
I-1
aI-1
aI-1
aI-1
aI-1
aI-1
asg9
(lp487
I40
aI21
aI-1
aF243.1999969482422
aF87.03999328613281
aF-1.0
aI-1
aI-1
aI-1
aF-1.0
aF-1.0
aF-1.0
asg11
g12
sba(i__main__
sensor_data_struct
p488
(dp489
g3
(lp490
I661
aI539
aI366
aI1541
aI3469
aF368.0
aI-1
aI-1
aI-1
aI-1
aI-1
aF-1.0
asg5
g6
sg7
(lp491
I-1
aI-1
aI-1
aI-1
aI-1
aI-1
asg9
(lp492
I31
aI15
aI-1
aF14.3360013961792
aF334.9119873046875
aF-1.0
aI-1
aI-1
aI-1
aF-1.0
aF-1.0
aF-1.0
asg11
g12
sba(i__main__
sensor_data_struct
p493
(dp494
g3
(lp495
I694
aI710
aI476
aI1869
aI3995
aF546.0
aI-1
aI-1
aI-1
aI-1
aI-1
aF-1.0
asg5
g6
sg7
(lp496
I-1
aI-1
aI-1
aI-1
aI-1
aI-1
asg9
(lp497
I74
aI48
aI-1
aF4.480000019073486
aF13.952000617980957
aF-1.0
aI-1
aI-1
aI-1
aF-1.0
aF-1.0
aF-1.0
asg11
g12
sba(i__main__
sensor_data_struct
p498
(dp499
g3
(lp500
I560
aI402
aI268
aI1209
aI3178
aF256.0
aI-1
aI-1
aI-1
aI-1
aI-1
aF-1.0
asg5
g6
sg7
(lp501
I-1
aI-1
aI-1
aI-1
aI-1
aI-1
asg9
(lp502
I34
aI32
aI-1
aF14.272000312805176
aF286.2720031738281
aF-1.0
aI-1
aI-1
aI-1
aF-1.0
aF-1.0
aF-1.0
asg11
g12
sba(i__main__
sensor_data_struct
p503
(dp504
g3
(lp505
I468
aI338
aI213
aI1007
aI3098
aF225.0
aI-1
aI-1
aI-1
aI-1
aI-1
aF-1.0
asg5
g6
sg7
(lp506
I-1
aI-1
aI-1
aI-1
aI-1
aI-1
asg9
(lp507
I29
aI19
aI-1
aF160.5760040283203
aF318.6559753417969
aF-1.0
aI-1
aI-1
aI-1
aF-1.0
aF-1.0
aF-1.0
asg11
g12
sba.