(lp0
(i__main__
sensor_data_struct
p1
(dp2
S'color'
p3
(lp4
I-1
aI-1
aI-1
aI-1
aI-1
aF-1.0
aI-1
aI-1
aI-1
aI-1
aI-1
aF-1.0
asS'button'
p5
S'plant'
p6
sS'IR'
p7
(lp8
I-1
aI-1
aI-1
aI-1
aI-1
aI-1
asS'TOF'
p9
(lp10
I43
aI9
aI9
aF-1.0
aF-1.0
aF-1.0
aI-1
aI-1
aI-1
aF-1.0
aF-1.0
aF-1.0
asS'pt'
p11
(lp12
I-1
aI-1
aI-1
asba(i__main__
sensor_data_struct
p13
(dp14
g3
(lp15
I-1
aI-1
aI-1
aI-1
aI-1
aF-1.0
aI-1
aI-1
aI-1
aI-1
aI-1
aF-1.0
asg5
g6
sg7
(lp16
I-1
aI-1
aI-1
aI-1
aI-1
aI-1
asg9
(lp17
I22
aI42
aI27
aF-1.0
aF-1.0
aF-1.0
aI-1
aI-1
aI-1
aF-1.0
aF-1.0
aF-1.0
asg11
g12
sba(i__main__
sensor_data_struct
p18
(dp19
g3
(lp20
I-1
aI-1
aI-1
aI-1
aI-1
aF-1.0
aI-1
aI-1
aI-1
aI-1
aI-1
aF-1.0
asg5
g6
sg7
(lp21
I-1
aI-1
aI-1
aI-1
aI-1
aI-1
asg9
(lp22
I28
aI25
aI21
aF-1.0
aF-1.0
aF-1.0
aI-1
aI-1
aI-1
aF-1.0
aF-1.0
aF-1.0
asg11
g12
sba(i__main__
sensor_data_struct
p23
(dp24
g3
(lp25
I-1
aI-1
aI-1
aI-1
aI-1
aF-1.0
aI-1
aI-1
aI-1
aI-1
aI-1
aF-1.0
asg5
g6
sg7
(lp26
I-1
aI-1
aI-1
aI-1
aI-1
aI-1
asg9
(lp27
I16
aI21
aI26
aF-1.0
aF-1.0
aF-1.0
aI-1
aI-1
aI-1
aF-1.0
aF-1.0
aF-1.0
asg11
g12
sba(i__main__
sensor_data_struct
p28
(dp29
g3
(lp30
I-1
aI-1
aI-1
aI-1
aI-1
aF-1.0
aI-1
aI-1
aI-1
aI-1
aI-1
aF-1.0
asg5
g6
sg7
(lp31
I-1
aI-1
aI-1
aI-1
aI-1
aI-1
asg9
(lp32
I26
aI19
aI27
aF-1.0
aF-1.0
aF-1.0
aI-1
aI-1
aI-1
aF-1.0
aF-1.0
aF-1.0
asg11
g12
sba(i__main__
sensor_data_struct
p33
(dp34
g3
(lp35
I-1
aI-1
aI-1
aI-1
aI-1
aF-1.0
aI-1
aI-1
aI-1
aI-1
aI-1
aF-1.0
asg5
g6
sg7
(lp36
I-1
aI-1
aI-1
aI-1
aI-1
aI-1
asg9
(lp37
I46
aI4
aI8
aF-1.0
aF-1.0
aF-1.0
aI-1
aI-1
aI-1
aF-1.0
aF-1.0
aF-1.0
asg11
g12
sba(i__main__
sensor_data_struct
p38
(dp39
g3
(lp40
I-1
aI-1
aI-1
aI-1
aI-1
aF-1.0
aI-1
aI-1
aI-1
aI-1
aI-1
aF-1.0
asg5
g6
sg7
(lp41
I-1
aI-1
aI-1
aI-1
aI-1
aI-1
asg9
(lp42
I61
aI37
aI11
aF-1.0
aF-1.0
aF-1.0
aI-1
aI-1
aI-1
aF-1.0
aF-1.0
aF-1.0
asg11
g12
sba(i__main__
sensor_data_struct
p43
(dp44
g3
(lp45
I-1
aI-1
aI-1
aI-1
aI-1
aF-1.0
aI-1
aI-1
aI-1
aI-1
aI-1
aF-1.0
asg5
g6
sg7
(lp46
I-1
aI-1
aI-1
aI-1
aI-1
aI-1
asg9
(lp47
I28
aI15
aI19
aF-1.0
aF-1.0
aF-1.0
aI-1
aI-1
aI-1
aF-1.0
aF-1.0
aF-1.0
asg11
g12
sba(i__main__
sensor_data_struct
p48
(dp49
g3
(lp50
I-1
aI-1
aI-1
aI-1
aI-1
aF-1.0
aI-1
aI-1
aI-1
aI-1
aI-1
aF-1.0
asg5
g6
sg7
(lp51
I-1
aI-1
aI-1
aI-1
aI-1
aI-1
asg9
(lp52
I29
aI19
aI16
aF-1.0
aF-1.0
aF-1.0
aI-1
aI-1
aI-1
aF-1.0
aF-1.0
aF-1.0
asg11
g12
sba(i__main__
sensor_data_struct
p53
(dp54
g3
(lp55
I-1
aI-1
aI-1
aI-1
aI-1
aF-1.0
aI-1
aI-1
aI-1
aI-1
aI-1
aF-1.0
asg5
g6
sg7
(lp56
I-1
aI-1
aI-1
aI-1
aI-1
aI-1
asg9
(lp57
I20
aI34
aI0
aF-1.0
aF-1.0
aF-1.0
aI-1
aI-1
aI-1
aF-1.0
aF-1.0
aF-1.0
asg11
g12
sba(i__main__
sensor_data_struct
p58
(dp59
g3
(lp60
I-1
aI-1
aI-1
aI-1
aI-1
aF-1.0
aI-1
aI-1
aI-1
aI-1
aI-1
aF-1.0
asg5
g6
sg7
(lp61
I-1
aI-1
aI-1
aI-1
aI-1
aI-1
asg9
(lp62
I12
aI43
aI14
aF-1.0
aF-1.0
aF-1.0
aI-1
aI-1
aI-1
aF-1.0
aF-1.0
aF-1.0
asg11
g12
sba(i__main__
sensor_data_struct
p63
(dp64
g3
(lp65
I-1
aI-1
aI-1
aI-1
aI-1
aF-1.0
aI-1
aI-1
aI-1
aI-1
aI-1
aF-1.0
asg5
g6
sg7
(lp66
I-1
aI-1
aI-1
aI-1
aI-1
aI-1
asg9
(lp67
I23
aI25
aI33
aF-1.0
aF-1.0
aF-1.0
aI-1
aI-1
aI-1
aF-1.0
aF-1.0
aF-1.0
asg11
g12
sba(i__main__
sensor_data_struct
p68
(dp69
g3
(lp70
I-1
aI-1
aI-1
aI-1
aI-1
aF-1.0
aI-1
aI-1
aI-1
aI-1
aI-1
aF-1.0
asg5
g6
sg7
(lp71
I-1
aI-1
aI-1
aI-1
aI-1
aI-1
asg9
(lp72
I21
aI12
aI39
aF-1.0
aF-1.0
aF-1.0
aI-1
aI-1
aI-1
aF-1.0
aF-1.0
aF-1.0
asg11
g12
sba(i__main__
sensor_data_struct
p73
(dp74
g3
(lp75
I-1
aI-1
aI-1
aI-1
aI-1
aF-1.0
aI-1
aI-1
aI-1
aI-1
aI-1
aF-1.0
asg5
g6
sg7
(lp76
I-1
aI-1
aI-1
aI-1
aI-1
aI-1
asg9
(lp77
I29
aI20
aI21
aF-1.0
aF-1.0
aF-1.0
aI-1
aI-1
aI-1
aF-1.0
aF-1.0
aF-1.0
asg11
g12
sba(i__main__
sensor_data_struct
p78
(dp79
g3
(lp80
I-1
aI-1
aI-1
aI-1
aI-1
aF-1.0
aI-1
aI-1
aI-1
aI-1
aI-1
aF-1.0
asg5
g6
sg7
(lp81
I-1
aI-1
aI-1
aI-1
aI-1
aI-1
asg9
(lp82
I33
aI29
aI18
aF-1.0
aF-1.0
aF-1.0
aI-1
aI-1
aI-1
aF-1.0
aF-1.0
aF-1.0
asg11
g12
sba(i__main__
sensor_data_struct
p83
(dp84
g3
(lp85
I-1
aI-1
aI-1
aI-1
aI-1
aF-1.0
aI-1
aI-1
aI-1
aI-1
aI-1
aF-1.0
asg5
g6
sg7
(lp86
I-1
aI-1
aI-1
aI-1
aI-1
aI-1
asg9
(lp87
I35
aI24
aI19
aF-1.0
aF-1.0
aF-1.0
aI-1
aI-1
aI-1
aF-1.0
aF-1.0
aF-1.0
asg11
g12
sba(i__main__
sensor_data_struct
p88
(dp89
g3
(lp90
I-1
aI-1
aI-1
aI-1
aI-1
aF-1.0
aI-1
aI-1
aI-1
aI-1
aI-1
aF-1.0
asg5
g6
sg7
(lp91
I-1
aI-1
aI-1
aI-1
aI-1
aI-1
asg9
(lp92
I10
aI18
aI26
aF-1.0
aF-1.0
aF-1.0
aI-1
aI-1
aI-1
aF-1.0
aF-1.0
aF-1.0
asg11
g12
sba(i__main__
sensor_data_struct
p93
(dp94
g3
(lp95
I-1
aI-1
aI-1
aI-1
aI-1
aF-1.0
aI-1
aI-1
aI-1
aI-1
aI-1
aF-1.0
asg5
g6
sg7
(lp96
I-1
aI-1
aI-1
aI-1
aI-1
aI-1
asg9
(lp97
I36
aI14
aI11
aF-1.0
aF-1.0
aF-1.0
aI-1
aI-1
aI-1
aF-1.0
aF-1.0
aF-1.0
asg11
g12
sba(i__main__
sensor_data_struct
p98
(dp99
g3
(lp100
I-1
aI-1
aI-1
aI-1
aI-1
aF-1.0
aI-1
aI-1
aI-1
aI-1
aI-1
aF-1.0
asg5
g6
sg7
(lp101
I-1
aI-1
aI-1
aI-1
aI-1
aI-1
asg9
(lp102
I11
aI8
aI8
aF-1.0
aF-1.0
aF-1.0
aI-1
aI-1
aI-1
aF-1.0
aF-1.0
aF-1.0
asg11
g12
sba(i__main__
sensor_data_struct
p103
(dp104
g3
(lp105
I-1
aI-1
aI-1
aI-1
aI-1
aF-1.0
aI-1
aI-1
aI-1
aI-1
aI-1
aF-1.0
asg5
g6
sg7
(lp106
I-1
aI-1
aI-1
aI-1
aI-1
aI-1
asg9
(lp107
I10
aI40
aI14
aF-1.0
aF-1.0
aF-1.0
aI-1
aI-1
aI-1
aF-1.0
aF-1.0
aF-1.0
asg11
g12
sba(i__main__
sensor_data_struct
p108
(dp109
g3
(lp110
I-1
aI-1
aI-1
aI-1
aI-1
aF-1.0
aI-1
aI-1
aI-1
aI-1
aI-1
aF-1.0
asg5
g6
sg7
(lp111
I-1
aI-1
aI-1
aI-1
aI-1
aI-1
asg9
(lp112
I11
aI36
aI7
aF-1.0
aF-1.0
aF-1.0
aI-1
aI-1
aI-1
aF-1.0
aF-1.0
aF-1.0
asg11
g12
sba(i__main__
sensor_data_struct
p113
(dp114
g3
(lp115
I-1
aI-1
aI-1
aI-1
aI-1
aF-1.0
aI-1
aI-1
aI-1
aI-1
aI-1
aF-1.0
asg5
g6
sg7
(lp116
I-1
aI-1
aI-1
aI-1
aI-1
aI-1
asg9
(lp117
I13
aI32
aI51
aF-1.0
aF-1.0
aF-1.0
aI-1
aI-1
aI-1
aF-1.0
aF-1.0
aF-1.0
asg11
g12
sba(i__main__
sensor_data_struct
p118
(dp119
g3
(lp120
I-1
aI-1
aI-1
aI-1
aI-1
aF-1.0
aI-1
aI-1
aI-1
aI-1
aI-1
aF-1.0
asg5
g6
sg7
(lp121
I-1
aI-1
aI-1
aI-1
aI-1
aI-1
asg9
(lp122
I30
aI29
aI19
aF-1.0
aF-1.0
aF-1.0
aI-1
aI-1
aI-1
aF-1.0
aF-1.0
aF-1.0
asg11
g12
sba(i__main__
sensor_data_struct
p123
(dp124
g3
(lp125
I-1
aI-1
aI-1
aI-1
aI-1
aF-1.0
aI-1
aI-1
aI-1
aI-1
aI-1
aF-1.0
asg5
g6
sg7
(lp126
I-1
aI-1
aI-1
aI-1
aI-1
aI-1
asg9
(lp127
I52
aI28
aI8
aF-1.0
aF-1.0
aF-1.0
aI-1
aI-1
aI-1
aF-1.0
aF-1.0
aF-1.0
asg11
g12
sba(i__main__
sensor_data_struct
p128
(dp129
g3
(lp130
I-1
aI-1
aI-1
aI-1
aI-1
aF-1.0
aI-1
aI-1
aI-1
aI-1
aI-1
aF-1.0
asg5
g6
sg7
(lp131
I-1
aI-1
aI-1
aI-1
aI-1
aI-1
asg9
(lp132
I31
aI16
aI11
aF-1.0
aF-1.0
aF-1.0
aI-1
aI-1
aI-1
aF-1.0
aF-1.0
aF-1.0
asg11
g12
sba(i__main__
sensor_data_struct
p133
(dp134
g3
(lp135
I-1
aI-1
aI-1
aI-1
aI-1
aF-1.0
aI-1
aI-1
aI-1
aI-1
aI-1
aF-1.0
asg5
g6
sg7
(lp136
I-1
aI-1
aI-1
aI-1
aI-1
aI-1
asg9
(lp137
I68
aI49
aI9
aF-1.0
aF-1.0
aF-1.0
aI-1
aI-1
aI-1
aF-1.0
aF-1.0
aF-1.0
asg11
g12
sba(i__main__
sensor_data_struct
p138
(dp139
g3
(lp140
I-1
aI-1
aI-1
aI-1
aI-1
aF-1.0
aI-1
aI-1
aI-1
aI-1
aI-1
aF-1.0
asg5
g6
sg7
(lp141
I-1
aI-1
aI-1
aI-1
aI-1
aI-1
asg9
(lp142
I26
aI19
aI18
aF-1.0
aF-1.0
aF-1.0
aI-1
aI-1
aI-1
aF-1.0
aF-1.0
aF-1.0
asg11
g12
sba(i__main__
sensor_data_struct
p143
(dp144
g3
(lp145
I-1
aI-1
aI-1
aI-1
aI-1
aF-1.0
aI-1
aI-1
aI-1
aI-1
aI-1
aF-1.0
asg5
g6
sg7
(lp146
I-1
aI-1
aI-1
aI-1
aI-1
aI-1
asg9
(lp147
I31
aI27
aI20
aF-1.0
aF-1.0
aF-1.0
aI-1
aI-1
aI-1
aF-1.0
aF-1.0
aF-1.0
asg11
g12
sba(i__main__
sensor_data_struct
p148
(dp149
g3
(lp150
I-1
aI-1
aI-1
aI-1
aI-1
aF-1.0
aI-1
aI-1
aI-1
aI-1
aI-1
aF-1.0
asg5
g6
sg7
(lp151
I-1
aI-1
aI-1
aI-1
aI-1
aI-1
asg9
(lp152
I31
aI25
aI22
aF-1.0
aF-1.0
aF-1.0
aI-1
aI-1
aI-1
aF-1.0
aF-1.0
aF-1.0
asg11
g12
sba(i__main__
sensor_data_struct
p153
(dp154
g3
(lp155
I-1
aI-1
aI-1
aI-1
aI-1
aF-1.0
aI-1
aI-1
aI-1
aI-1
aI-1
aF-1.0
asg5
g6
sg7
(lp156
I-1
aI-1
aI-1
aI-1
aI-1
aI-1
asg9
(lp157
I20
aI29
aI60
aF-1.0
aF-1.0
aF-1.0
aI-1
aI-1
aI-1
aF-1.0
aF-1.0
aF-1.0
asg11
g12
sba(i__main__
sensor_data_struct
p158
(dp159
g3
(lp160
I-1
aI-1
aI-1
aI-1
aI-1
aF-1.0
aI-1
aI-1
aI-1
aI-1
aI-1
aF-1.0
asg5
g6
sg7
(lp161
I-1
aI-1
aI-1
aI-1
aI-1
aI-1
asg9
(lp162
I12
aI47
aI64
aF-1.0
aF-1.0
aF-1.0
aI-1
aI-1
aI-1
aF-1.0
aF-1.0
aF-1.0
asg11
g12
sba(i__main__
sensor_data_struct
p163
(dp164
g3
(lp165
I-1
aI-1
aI-1
aI-1
aI-1
aF-1.0
aI-1
aI-1
aI-1
aI-1
aI-1
aF-1.0
asg5
g6
sg7
(lp166
I-1
aI-1
aI-1
aI-1
aI-1
aI-1
asg9
(lp167
I23
aI13
aI34
aF-1.0
aF-1.0
aF-1.0
aI-1
aI-1
aI-1
aF-1.0
aF-1.0
aF-1.0
asg11
g12
sba(i__main__
sensor_data_struct
p168
(dp169
g3
(lp170
I-1
aI-1
aI-1
aI-1
aI-1
aF-1.0
aI-1
aI-1
aI-1
aI-1
aI-1
aF-1.0
asg5
g6
sg7
(lp171
I-1
aI-1
aI-1
aI-1
aI-1
aI-1
asg9
(lp172
I39
aI17
aI15
aF-1.0
aF-1.0
aF-1.0
aI-1
aI-1
aI-1
aF-1.0
aF-1.0
aF-1.0
asg11
g12
sba(i__main__
sensor_data_struct
p173
(dp174
g3
(lp175
I-1
aI-1
aI-1
aI-1
aI-1
aF-1.0
aI-1
aI-1
aI-1
aI-1
aI-1
aF-1.0
asg5
g6
sg7
(lp176
I-1
aI-1
aI-1
aI-1
aI-1
aI-1
asg9
(lp177
I15
aI5
aI9
aF-1.0
aF-1.0
aF-1.0
aI-1
aI-1
aI-1
aF-1.0
aF-1.0
aF-1.0
asg11
g12
sba(i__main__
sensor_data_struct
p178
(dp179
g3
(lp180
I-1
aI-1
aI-1
aI-1
aI-1
aF-1.0
aI-1
aI-1
aI-1
aI-1
aI-1
aF-1.0
asg5
g6
sg7
(lp181
I-1
aI-1
aI-1
aI-1
aI-1
aI-1
asg9
(lp182
I13
aI20
aI4
aF-1.0
aF-1.0
aF-1.0
aI-1
aI-1
aI-1
aF-1.0
aF-1.0
aF-1.0
asg11
g12
sba(i__main__
sensor_data_struct
p183
(dp184
g3
(lp185
I-1
aI-1
aI-1
aI-1
aI-1
aF-1.0
aI-1
aI-1
aI-1
aI-1
aI-1
aF-1.0
asg5
g6
sg7
(lp186
I-1
aI-1
aI-1
aI-1
aI-1
aI-1
asg9
(lp187
I24
aI11
aI6
aF-1.0
aF-1.0
aF-1.0
aI-1
aI-1
aI-1
aF-1.0
aF-1.0
aF-1.0
asg11
g12
sba(i__main__
sensor_data_struct
p188
(dp189
g3
(lp190
I-1
aI-1
aI-1
aI-1
aI-1
aF-1.0
aI-1
aI-1
aI-1
aI-1
aI-1
aF-1.0
asg5
g6
sg7
(lp191
I-1
aI-1
aI-1
aI-1
aI-1
aI-1
asg9
(lp192
I9
aI41
aI8
aF-1.0
aF-1.0
aF-1.0
aI-1
aI-1
aI-1
aF-1.0
aF-1.0
aF-1.0
asg11
g12
sba(i__main__
sensor_data_struct
p193
(dp194
g3
(lp195
I-1
aI-1
aI-1
aI-1
aI-1
aF-1.0
aI-1
aI-1
aI-1
aI-1
aI-1
aF-1.0
asg5
g6
sg7
(lp196
I-1
aI-1
aI-1
aI-1
aI-1
aI-1
asg9
(lp197
I16
aI8
aI42
aF-1.0
aF-1.0
aF-1.0
aI-1
aI-1
aI-1
aF-1.0
aF-1.0
aF-1.0
asg11
g12
sba(i__main__
sensor_data_struct
p198
(dp199
g3
(lp200
I-1
aI-1
aI-1
aI-1
aI-1
aF-1.0
aI-1
aI-1
aI-1
aI-1
aI-1
aF-1.0
asg5
g6
sg7
(lp201
I-1
aI-1
aI-1
aI-1
aI-1
aI-1
asg9
(lp202
I40
aI12
aI14
aF-1.0
aF-1.0
aF-1.0
aI-1
aI-1
aI-1
aF-1.0
aF-1.0
aF-1.0
asg11
g12
sba(i__main__
sensor_data_struct
p203
(dp204
g3
(lp205
I-1
aI-1
aI-1
aI-1
aI-1
aF-1.0
aI-1
aI-1
aI-1
aI-1
aI-1
aF-1.0
asg5
g6
sg7
(lp206
I-1
aI-1
aI-1
aI-1
aI-1
aI-1
asg9
(lp207
I33
aI13
aI16
aF-1.0
aF-1.0
aF-1.0
aI-1
aI-1
aI-1
aF-1.0
aF-1.0
aF-1.0
asg11
g12
sba(i__main__
sensor_data_struct
p208
(dp209
g3
(lp210
I-1
aI-1
aI-1
aI-1
aI-1
aF-1.0
aI-1
aI-1
aI-1
aI-1
aI-1
aF-1.0
asg5
g6
sg7
(lp211
I-1
aI-1
aI-1
aI-1
aI-1
aI-1
asg9
(lp212
I28
aI21
aI21
aF-1.0
aF-1.0
aF-1.0
aI-1
aI-1
aI-1
aF-1.0
aF-1.0
aF-1.0
asg11
g12
sba(i__main__
sensor_data_struct
p213
(dp214
g3
(lp215
I-1
aI-1
aI-1
aI-1
aI-1
aF-1.0
aI-1
aI-1
aI-1
aI-1
aI-1
aF-1.0
asg5
g6
sg7
(lp216
I-1
aI-1
aI-1
aI-1
aI-1
aI-1
asg9
(lp217
I49
aI6
aI66
aF-1.0
aF-1.0
aF-1.0
aI-1
aI-1
aI-1
aF-1.0
aF-1.0
aF-1.0
asg11
g12
sba(i__main__
sensor_data_struct
p218
(dp219
g3
(lp220
I-1
aI-1
aI-1
aI-1
aI-1
aF-1.0
aI-1
aI-1
aI-1
aI-1
aI-1
aF-1.0
asg5
g6
sg7
(lp221
I-1
aI-1
aI-1
aI-1
aI-1
aI-1
asg9
(lp222
I22
aI25
aI15
aF-1.0
aF-1.0
aF-1.0
aI-1
aI-1
aI-1
aF-1.0
aF-1.0
aF-1.0
asg11
g12
sba(i__main__
sensor_data_struct
p223
(dp224
g3
(lp225
I-1
aI-1
aI-1
aI-1
aI-1
aF-1.0
aI-1
aI-1
aI-1
aI-1
aI-1
aF-1.0
asg5
g6
sg7
(lp226
I-1
aI-1
aI-1
aI-1
aI-1
aI-1
asg9
(lp227
I12
aI28
aI16
aF-1.0
aF-1.0
aF-1.0
aI-1
aI-1
aI-1
aF-1.0
aF-1.0
aF-1.0
asg11
g12
sba(i__main__
sensor_data_struct
p228
(dp229
g3
(lp230
I-1
aI-1
aI-1
aI-1
aI-1
aF-1.0
aI-1
aI-1
aI-1
aI-1
aI-1
aF-1.0
asg5
g6
sg7
(lp231
I-1
aI-1
aI-1
aI-1
aI-1
aI-1
asg9
(lp232
I51
aI35
aI16
aF-1.0
aF-1.0
aF-1.0
aI-1
aI-1
aI-1
aF-1.0
aF-1.0
aF-1.0
asg11
g12
sba(i__main__
sensor_data_struct
p233
(dp234
g3
(lp235
I-1
aI-1
aI-1
aI-1
aI-1
aF-1.0
aI-1
aI-1
aI-1
aI-1
aI-1
aF-1.0
asg5
g6
sg7
(lp236
I-1
aI-1
aI-1
aI-1
aI-1
aI-1
asg9
(lp237
I29
aI22
aI24
aF-1.0
aF-1.0
aF-1.0
aI-1
aI-1
aI-1
aF-1.0
aF-1.0
aF-1.0
asg11
g12
sba(i__main__
sensor_data_struct
p238
(dp239
g3
(lp240
I-1
aI-1
aI-1
aI-1
aI-1
aF-1.0
aI-1
aI-1
aI-1
aI-1
aI-1
aF-1.0
asg5
g6
sg7
(lp241
I-1
aI-1
aI-1
aI-1
aI-1
aI-1
asg9
(lp242
I19
aI26
aI10
aF-1.0
aF-1.0
aF-1.0
aI-1
aI-1
aI-1
aF-1.0
aF-1.0
aF-1.0
asg11
g12
sba(i__main__
sensor_data_struct
p243
(dp244
g3
(lp245
I-1
aI-1
aI-1
aI-1
aI-1
aF-1.0
aI-1
aI-1
aI-1
aI-1
aI-1
aF-1.0
asg5
g6
sg7
(lp246
I-1
aI-1
aI-1
aI-1
aI-1
aI-1
asg9
(lp247
I20
aI29
aI19
aF-1.0
aF-1.0
aF-1.0
aI-1
aI-1
aI-1
aF-1.0
aF-1.0
aF-1.0
asg11
g12
sba(i__main__
sensor_data_struct
p248
(dp249
g3
(lp250
I-1
aI-1
aI-1
aI-1
aI-1
aF-1.0
aI-1
aI-1
aI-1
aI-1
aI-1
aF-1.0
asg5
g6
sg7
(lp251
I-1
aI-1
aI-1
aI-1
aI-1
aI-1
asg9
(lp252
I38
aI43
aI64
aF-1.0
aF-1.0
aF-1.0
aI-1
aI-1
aI-1
aF-1.0
aF-1.0
aF-1.0
asg11
g12
sba(i__main__
sensor_data_struct
p253
(dp254
g3
(lp255
I-1
aI-1
aI-1
aI-1
aI-1
aF-1.0
aI-1
aI-1
aI-1
aI-1
aI-1
aF-1.0
asg5
g6
sg7
(lp256
I-1
aI-1
aI-1
aI-1
aI-1
aI-1
asg9
(lp257
I28
aI14
aI22
aF-1.0
aF-1.0
aF-1.0
aI-1
aI-1
aI-1
aF-1.0
aF-1.0
aF-1.0
asg11
g12
sba(i__main__
sensor_data_struct
p258
(dp259
g3
(lp260
I-1
aI-1
aI-1
aI-1
aI-1
aF-1.0
aI-1
aI-1
aI-1
aI-1
aI-1
aF-1.0
asg5
g6
sg7
(lp261
I-1
aI-1
aI-1
aI-1
aI-1
aI-1
asg9
(lp262
I41
aI9
aI13
aF-1.0
aF-1.0
aF-1.0
aI-1
aI-1
aI-1
aF-1.0
aF-1.0
aF-1.0
asg11
g12
sba(i__main__
sensor_data_struct
p263
(dp264
g3
(lp265
I-1
aI-1
aI-1
aI-1
aI-1
aF-1.0
aI-1
aI-1
aI-1
aI-1
aI-1
aF-1.0
asg5
g6
sg7
(lp266
I-1
aI-1
aI-1
aI-1
aI-1
aI-1
asg9
(lp267
I28
aI16
aI45
aF-1.0
aF-1.0
aF-1.0
aI-1
aI-1
aI-1
aF-1.0
aF-1.0
aF-1.0
asg11
g12
sba(i__main__
sensor_data_struct
p268
(dp269
g3
(lp270
I-1
aI-1
aI-1
aI-1
aI-1
aF-1.0
aI-1
aI-1
aI-1
aI-1
aI-1
aF-1.0
asg5
g6
sg7
(lp271
I-1
aI-1
aI-1
aI-1
aI-1
aI-1
asg9
(lp272
I17
aI33
aI16
aF-1.0
aF-1.0
aF-1.0
aI-1
aI-1
aI-1
aF-1.0
aF-1.0
aF-1.0
asg11
g12
sba(i__main__
sensor_data_struct
p273
(dp274
g3
(lp275
I-1
aI-1
aI-1
aI-1
aI-1
aF-1.0
aI-1
aI-1
aI-1
aI-1
aI-1
aF-1.0
asg5
g6
sg7
(lp276
I-1
aI-1
aI-1
aI-1
aI-1
aI-1
asg9
(lp277
I36
aI36
aI19
aF-1.0
aF-1.0
aF-1.0
aI-1
aI-1
aI-1
aF-1.0
aF-1.0
aF-1.0
asg11
g12
sba(i__main__
sensor_data_struct
p278
(dp279
g3
(lp280
I-1
aI-1
aI-1
aI-1
aI-1
aF-1.0
aI-1
aI-1
aI-1
aI-1
aI-1
aF-1.0
asg5
g6
sg7
(lp281
I-1
aI-1
aI-1
aI-1
aI-1
aI-1
asg9
(lp282
I30
aI11
aI23
aF-1.0
aF-1.0
aF-1.0
aI-1
aI-1
aI-1
aF-1.0
aF-1.0
aF-1.0
asg11
g12
sba(i__main__
sensor_data_struct
p283
(dp284
g3
(lp285
I-1
aI-1
aI-1
aI-1
aI-1
aF-1.0
aI-1
aI-1
aI-1
aI-1
aI-1
aF-1.0
asg5
g6
sg7
(lp286
I-1
aI-1
aI-1
aI-1
aI-1
aI-1
asg9
(lp287
I31
aI48
aI10
aF-1.0
aF-1.0
aF-1.0
aI-1
aI-1
aI-1
aF-1.0
aF-1.0
aF-1.0
asg11
g12
sba(i__main__
sensor_data_struct
p288
(dp289
g3
(lp290
I-1
aI-1
aI-1
aI-1
aI-1
aF-1.0
aI-1
aI-1
aI-1
aI-1
aI-1
aF-1.0
asg5
g6
sg7
(lp291
I-1
aI-1
aI-1
aI-1
aI-1
aI-1
asg9
(lp292
I9
aI8
aI15
aF-1.0
aF-1.0
aF-1.0
aI-1
aI-1
aI-1
aF-1.0
aF-1.0
aF-1.0
asg11
g12
sba(i__main__
sensor_data_struct
p293
(dp294
g3
(lp295
I-1
aI-1
aI-1
aI-1
aI-1
aF-1.0
aI-1
aI-1
aI-1
aI-1
aI-1
aF-1.0
asg5
g6
sg7
(lp296
I-1
aI-1
aI-1
aI-1
aI-1
aI-1
asg9
(lp297
I25
aI37
aI33
aF-1.0
aF-1.0
aF-1.0
aI-1
aI-1
aI-1
aF-1.0
aF-1.0
aF-1.0
asg11
g12
sba(i__main__
sensor_data_struct
p298
(dp299
g3
(lp300
I-1
aI-1
aI-1
aI-1
aI-1
aF-1.0
aI-1
aI-1
aI-1
aI-1
aI-1
aF-1.0
asg5
g6
sg7
(lp301
I-1
aI-1
aI-1
aI-1
aI-1
aI-1
asg9
(lp302
I59
aI50
aI37
aF-1.0
aF-1.0
aF-1.0
aI-1
aI-1
aI-1
aF-1.0
aF-1.0
aF-1.0
asg11
g12
sba(i__main__
sensor_data_struct
p303
(dp304
g3
(lp305
I-1
aI-1
aI-1
aI-1
aI-1
aF-1.0
aI-1
aI-1
aI-1
aI-1
aI-1
aF-1.0
asg5
g6
sg7
(lp306
I-1
aI-1
aI-1
aI-1
aI-1
aI-1
asg9
(lp307
I14
aI31
aI11
aF-1.0
aF-1.0
aF-1.0
aI-1
aI-1
aI-1
aF-1.0
aF-1.0
aF-1.0
asg11
g12
sba(i__main__
sensor_data_struct
p308
(dp309
g3
(lp310
I-1
aI-1
aI-1
aI-1
aI-1
aF-1.0
aI-1
aI-1
aI-1
aI-1
aI-1
aF-1.0
asg5
g6
sg7
(lp311
I-1
aI-1
aI-1
aI-1
aI-1
aI-1
asg9
(lp312
I14
aI22
aI8
aF-1.0
aF-1.0
aF-1.0
aI-1
aI-1
aI-1
aF-1.0
aF-1.0
aF-1.0
asg11
g12
sba(i__main__
sensor_data_struct
p313
(dp314
g3
(lp315
I-1
aI-1
aI-1
aI-1
aI-1
aF-1.0
aI-1
aI-1
aI-1
aI-1
aI-1
aF-1.0
asg5
g6
sg7
(lp316
I-1
aI-1
aI-1
aI-1
aI-1
aI-1
asg9
(lp317
I7
aI42
aI49
aF-1.0
aF-1.0
aF-1.0
aI-1
aI-1
aI-1
aF-1.0
aF-1.0
aF-1.0
asg11
g12
sba(i__main__
sensor_data_struct
p318
(dp319
g3
(lp320
I-1
aI-1
aI-1
aI-1
aI-1
aF-1.0
aI-1
aI-1
aI-1
aI-1
aI-1
aF-1.0
asg5
g6
sg7
(lp321
I-1
aI-1
aI-1
aI-1
aI-1
aI-1
asg9
(lp322
I7
aI52
aI67
aF-1.0
aF-1.0
aF-1.0
aI-1
aI-1
aI-1
aF-1.0
aF-1.0
aF-1.0
asg11
g12
sba(i__main__
sensor_data_struct
p323
(dp324
g3
(lp325
I-1
aI-1
aI-1
aI-1
aI-1
aF-1.0
aI-1
aI-1
aI-1
aI-1
aI-1
aF-1.0
asg5
g6
sg7
(lp326
I-1
aI-1
aI-1
aI-1
aI-1
aI-1
asg9
(lp327
I10
aI20
aI13
aF-1.0
aF-1.0
aF-1.0
aI-1
aI-1
aI-1
aF-1.0
aF-1.0
aF-1.0
asg11
g12
sba(i__main__
sensor_data_struct
p328
(dp329
g3
(lp330
I-1
aI-1
aI-1
aI-1
aI-1
aF-1.0
aI-1
aI-1
aI-1
aI-1
aI-1
aF-1.0
asg5
g6
sg7
(lp331
I-1
aI-1
aI-1
aI-1
aI-1
aI-1
asg9
(lp332
I44
aI7
aI8
aF-1.0
aF-1.0
aF-1.0
aI-1
aI-1
aI-1
aF-1.0
aF-1.0
aF-1.0
asg11
g12
sba(i__main__
sensor_data_struct
p333
(dp334
g3
(lp335
I-1
aI-1
aI-1
aI-1
aI-1
aF-1.0
aI-1
aI-1
aI-1
aI-1
aI-1
aF-1.0
asg5
g6
sg7
(lp336
I-1
aI-1
aI-1
aI-1
aI-1
aI-1
asg9
(lp337
I25
aI22
aI26
aF-1.0
aF-1.0
aF-1.0
aI-1
aI-1
aI-1
aF-1.0
aF-1.0
aF-1.0
asg11
g12
sba(i__main__
sensor_data_struct
p338
(dp339
g3
(lp340
I-1
aI-1
aI-1
aI-1
aI-1
aF-1.0
aI-1
aI-1
aI-1
aI-1
aI-1
aF-1.0
asg5
g6
sg7
(lp341
I-1
aI-1
aI-1
aI-1
aI-1
aI-1
asg9
(lp342
I11
aI32
aI8
aF-1.0
aF-1.0
aF-1.0
aI-1
aI-1
aI-1
aF-1.0
aF-1.0
aF-1.0
asg11
g12
sba(i__main__
sensor_data_struct
p343
(dp344
g3
(lp345
I-1
aI-1
aI-1
aI-1
aI-1
aF-1.0
aI-1
aI-1
aI-1
aI-1
aI-1
aF-1.0
asg5
g6
sg7
(lp346
I-1
aI-1
aI-1
aI-1
aI-1
aI-1
asg9
(lp347
I17
aI35
aI53
aF-1.0
aF-1.0
aF-1.0
aI-1
aI-1
aI-1
aF-1.0
aF-1.0
aF-1.0
asg11
g12
sba(i__main__
sensor_data_struct
p348
(dp349
g3
(lp350
I-1
aI-1
aI-1
aI-1
aI-1
aF-1.0
aI-1
aI-1
aI-1
aI-1
aI-1
aF-1.0
asg5
g6
sg7
(lp351
I-1
aI-1
aI-1
aI-1
aI-1
aI-1
asg9
(lp352
I51
aI32
aI14
aF-1.0
aF-1.0
aF-1.0
aI-1
aI-1
aI-1
aF-1.0
aF-1.0
aF-1.0
asg11
g12
sba(i__main__
sensor_data_struct
p353
(dp354
g3
(lp355
I-1
aI-1
aI-1
aI-1
aI-1
aF-1.0
aI-1
aI-1
aI-1
aI-1
aI-1
aF-1.0
asg5
g6
sg7
(lp356
I-1
aI-1
aI-1
aI-1
aI-1
aI-1
asg9
(lp357
I37
aI8
aI10
aF-1.0
aF-1.0
aF-1.0
aI-1
aI-1
aI-1
aF-1.0
aF-1.0
aF-1.0
asg11
g12
sba(i__main__
sensor_data_struct
p358
(dp359
g3
(lp360
I-1
aI-1
aI-1
aI-1
aI-1
aF-1.0
aI-1
aI-1
aI-1
aI-1
aI-1
aF-1.0
asg5
g6
sg7
(lp361
I-1
aI-1
aI-1
aI-1
aI-1
aI-1
asg9
(lp362
I43
aI9
aI7
aF-1.0
aF-1.0
aF-1.0
aI-1
aI-1
aI-1
aF-1.0
aF-1.0
aF-1.0
asg11
g12
sba(i__main__
sensor_data_struct
p363
(dp364
g3
(lp365
I-1
aI-1
aI-1
aI-1
aI-1
aF-1.0
aI-1
aI-1
aI-1
aI-1
aI-1
aF-1.0
asg5
g6
sg7
(lp366
I-1
aI-1
aI-1
aI-1
aI-1
aI-1
asg9
(lp367
I26
aI24
aI10
aF-1.0
aF-1.0
aF-1.0
aI-1
aI-1
aI-1
aF-1.0
aF-1.0
aF-1.0
asg11
g12
sba(i__main__
sensor_data_struct
p368
(dp369
g3
(lp370
I-1
aI-1
aI-1
aI-1
aI-1
aF-1.0
aI-1
aI-1
aI-1
aI-1
aI-1
aF-1.0
asg5
g6
sg7
(lp371
I-1
aI-1
aI-1
aI-1
aI-1
aI-1
asg9
(lp372
I40
aI8
aI12
aF-1.0
aF-1.0
aF-1.0
aI-1
aI-1
aI-1
aF-1.0
aF-1.0
aF-1.0
asg11
g12
sba(i__main__
sensor_data_struct
p373
(dp374
g3
(lp375
I-1
aI-1
aI-1
aI-1
aI-1
aF-1.0
aI-1
aI-1
aI-1
aI-1
aI-1
aF-1.0
asg5
g6
sg7
(lp376
I-1
aI-1
aI-1
aI-1
aI-1
aI-1
asg9
(lp377
I19
aI25
aI20
aF-1.0
aF-1.0
aF-1.0
aI-1
aI-1
aI-1
aF-1.0
aF-1.0
aF-1.0
asg11
g12
sba(i__main__
sensor_data_struct
p378
(dp379
g3
(lp380
I-1
aI-1
aI-1
aI-1
aI-1
aF-1.0
aI-1
aI-1
aI-1
aI-1
aI-1
aF-1.0
asg5
g6
sg7
(lp381
I-1
aI-1
aI-1
aI-1
aI-1
aI-1
asg9
(lp382
I31
aI22
aI25
aF-1.0
aF-1.0
aF-1.0
aI-1
aI-1
aI-1
aF-1.0
aF-1.0
aF-1.0
asg11
g12
sba(i__main__
sensor_data_struct
p383
(dp384
g3
(lp385
I-1
aI-1
aI-1
aI-1
aI-1
aF-1.0
aI-1
aI-1
aI-1
aI-1
aI-1
aF-1.0
asg5
g6
sg7
(lp386
I-1
aI-1
aI-1
aI-1
aI-1
aI-1
asg9
(lp387
I26
aI21
aI21
aF-1.0
aF-1.0
aF-1.0
aI-1
aI-1
aI-1
aF-1.0
aF-1.0
aF-1.0
asg11
g12
sba(i__main__
sensor_data_struct
p388
(dp389
g3
(lp390
I-1
aI-1
aI-1
aI-1
aI-1
aF-1.0
aI-1
aI-1
aI-1
aI-1
aI-1
aF-1.0
asg5
g6
sg7
(lp391
I-1
aI-1
aI-1
aI-1
aI-1
aI-1
asg9
(lp392
I29
aI20
aI27
aF-1.0
aF-1.0
aF-1.0
aI-1
aI-1
aI-1
aF-1.0
aF-1.0
aF-1.0
asg11
g12
sba(i__main__
sensor_data_struct
p393
(dp394
g3
(lp395
I-1
aI-1
aI-1
aI-1
aI-1
aF-1.0
aI-1
aI-1
aI-1
aI-1
aI-1
aF-1.0
asg5
g6
sg7
(lp396
I-1
aI-1
aI-1
aI-1
aI-1
aI-1
asg9
(lp397
I14
aI52
aI61
aF-1.0
aF-1.0
aF-1.0
aI-1
aI-1
aI-1
aF-1.0
aF-1.0
aF-1.0
asg11
g12
sba(i__main__
sensor_data_struct
p398
(dp399
g3
(lp400
I-1
aI-1
aI-1
aI-1
aI-1
aF-1.0
aI-1
aI-1
aI-1
aI-1
aI-1
aF-1.0
asg5
g6
sg7
(lp401
I-1
aI-1
aI-1
aI-1
aI-1
aI-1
asg9
(lp402
I61
aI11
aI64
aF-1.0
aF-1.0
aF-1.0
aI-1
aI-1
aI-1
aF-1.0
aF-1.0
aF-1.0
asg11
g12
sba(i__main__
sensor_data_struct
p403
(dp404
g3
(lp405
I-1
aI-1
aI-1
aI-1
aI-1
aF-1.0
aI-1
aI-1
aI-1
aI-1
aI-1
aF-1.0
asg5
g6
sg7
(lp406
I-1
aI-1
aI-1
aI-1
aI-1
aI-1
asg9
(lp407
I65
aI39
aI12
aF-1.0
aF-1.0
aF-1.0
aI-1
aI-1
aI-1
aF-1.0
aF-1.0
aF-1.0
asg11
g12
sba(i__main__
sensor_data_struct
p408
(dp409
g3
(lp410
I-1
aI-1
aI-1
aI-1
aI-1
aF-1.0
aI-1
aI-1
aI-1
aI-1
aI-1
aF-1.0
asg5
g6
sg7
(lp411
I-1
aI-1
aI-1
aI-1
aI-1
aI-1
asg9
(lp412
I255
aI7
aI62
aF-1.0
aF-1.0
aF-1.0
aI-1
aI-1
aI-1
aF-1.0
aF-1.0
aF-1.0
asg11
g12
sba(i__main__
sensor_data_struct
p413
(dp414
g3
(lp415
I-1
aI-1
aI-1
aI-1
aI-1
aF-1.0
aI-1
aI-1
aI-1
aI-1
aI-1
aF-1.0
asg5
g6
sg7
(lp416
I-1
aI-1
aI-1
aI-1
aI-1
aI-1
asg9
(lp417
I12
aI13
aI11
aF-1.0
aF-1.0
aF-1.0
aI-1
aI-1
aI-1
aF-1.0
aF-1.0
aF-1.0
asg11
g12
sba(i__main__
sensor_data_struct
p418
(dp419
g3
(lp420
I-1
aI-1
aI-1
aI-1
aI-1
aF-1.0
aI-1
aI-1
aI-1
aI-1
aI-1
aF-1.0
asg5
g6
sg7
(lp421
I-1
aI-1
aI-1
aI-1
aI-1
aI-1
asg9
(lp422
I25
aI29
aI65
aF-1.0
aF-1.0
aF-1.0
aI-1
aI-1
aI-1
aF-1.0
aF-1.0
aF-1.0
asg11
g12
sba(i__main__
sensor_data_struct
p423
(dp424
g3
(lp425
I-1
aI-1
aI-1
aI-1
aI-1
aF-1.0
aI-1
aI-1
aI-1
aI-1
aI-1
aF-1.0
asg5
g6
sg7
(lp426
I-1
aI-1
aI-1
aI-1
aI-1
aI-1
asg9
(lp427
I12
aI48
aI66
aF-1.0
aF-1.0
aF-1.0
aI-1
aI-1
aI-1
aF-1.0
aF-1.0
aF-1.0
asg11
g12
sba(i__main__
sensor_data_struct
p428
(dp429
g3
(lp430
I-1
aI-1
aI-1
aI-1
aI-1
aF-1.0
aI-1
aI-1
aI-1
aI-1
aI-1
aF-1.0
asg5
g6
sg7
(lp431
I-1
aI-1
aI-1
aI-1
aI-1
aI-1
asg9
(lp432
I28
aI19
aI22
aF-1.0
aF-1.0
aF-1.0
aI-1
aI-1
aI-1
aF-1.0
aF-1.0
aF-1.0
asg11
g12
sba(i__main__
sensor_data_struct
p433
(dp434
g3
(lp435
I-1
aI-1
aI-1
aI-1
aI-1
aF-1.0
aI-1
aI-1
aI-1
aI-1
aI-1
aF-1.0
asg5
g6
sg7
(lp436
I-1
aI-1
aI-1
aI-1
aI-1
aI-1
asg9
(lp437
I40
aI50
aI16
aF-1.0
aF-1.0
aF-1.0
aI-1
aI-1
aI-1
aF-1.0
aF-1.0
aF-1.0
asg11
g12
sba(i__main__
sensor_data_struct
p438
(dp439
g3
(lp440
I-1
aI-1
aI-1
aI-1
aI-1
aF-1.0
aI-1
aI-1
aI-1
aI-1
aI-1
aF-1.0
asg5
g6
sg7
(lp441
I-1
aI-1
aI-1
aI-1
aI-1
aI-1
asg9
(lp442
I18
aI25
aI19
aF-1.0
aF-1.0
aF-1.0
aI-1
aI-1
aI-1
aF-1.0
aF-1.0
aF-1.0
asg11
g12
sba(i__main__
sensor_data_struct
p443
(dp444
g3
(lp445
I-1
aI-1
aI-1
aI-1
aI-1
aF-1.0
aI-1
aI-1
aI-1
aI-1
aI-1
aF-1.0
asg5
g6
sg7
(lp446
I-1
aI-1
aI-1
aI-1
aI-1
aI-1
asg9
(lp447
I13
aI38
aI13
aF-1.0
aF-1.0
aF-1.0
aI-1
aI-1
aI-1
aF-1.0
aF-1.0
aF-1.0
asg11
g12
sba(i__main__
sensor_data_struct
p448
(dp449
g3
(lp450
I-1
aI-1
aI-1
aI-1
aI-1
aF-1.0
aI-1
aI-1
aI-1
aI-1
aI-1
aF-1.0
asg5
g6
sg7
(lp451
I-1
aI-1
aI-1
aI-1
aI-1
aI-1
asg9
(lp452
I15
aI29
aI12
aF-1.0
aF-1.0
aF-1.0
aI-1
aI-1
aI-1
aF-1.0
aF-1.0
aF-1.0
asg11
g12
sba(i__main__
sensor_data_struct
p453
(dp454
g3
(lp455
I-1
aI-1
aI-1
aI-1
aI-1
aF-1.0
aI-1
aI-1
aI-1
aI-1
aI-1
aF-1.0
asg5
g6
sg7
(lp456
I-1
aI-1
aI-1
aI-1
aI-1
aI-1
asg9
(lp457
I24
aI41
aI26
aF-1.0
aF-1.0
aF-1.0
aI-1
aI-1
aI-1
aF-1.0
aF-1.0
aF-1.0
asg11
g12
sba(i__main__
sensor_data_struct
p458
(dp459
g3
(lp460
I-1
aI-1
aI-1
aI-1
aI-1
aF-1.0
aI-1
aI-1
aI-1
aI-1
aI-1
aF-1.0
asg5
g6
sg7
(lp461
I-1
aI-1
aI-1
aI-1
aI-1
aI-1
asg9
(lp462
I30
aI21
aI23
aF-1.0
aF-1.0
aF-1.0
aI-1
aI-1
aI-1
aF-1.0
aF-1.0
aF-1.0
asg11
g12
sba(i__main__
sensor_data_struct
p463
(dp464
g3
(lp465
I-1
aI-1
aI-1
aI-1
aI-1
aF-1.0
aI-1
aI-1
aI-1
aI-1
aI-1
aF-1.0
asg5
g6
sg7
(lp466
I-1
aI-1
aI-1
aI-1
aI-1
aI-1
asg9
(lp467
I24
aI40
aI26
aF-1.0
aF-1.0
aF-1.0
aI-1
aI-1
aI-1
aF-1.0
aF-1.0
aF-1.0
asg11
g12
sba(i__main__
sensor_data_struct
p468
(dp469
g3
(lp470
I-1
aI-1
aI-1
aI-1
aI-1
aF-1.0
aI-1
aI-1
aI-1
aI-1
aI-1
aF-1.0
asg5
g6
sg7
(lp471
I-1
aI-1
aI-1
aI-1
aI-1
aI-1
asg9
(lp472
I40
aI25
aI18
aF-1.0
aF-1.0
aF-1.0
aI-1
aI-1
aI-1
aF-1.0
aF-1.0
aF-1.0
asg11
g12
sba(i__main__
sensor_data_struct
p473
(dp474
g3
(lp475
I-1
aI-1
aI-1
aI-1
aI-1
aF-1.0
aI-1
aI-1
aI-1
aI-1
aI-1
aF-1.0
asg5
g6
sg7
(lp476
I-1
aI-1
aI-1
aI-1
aI-1
aI-1
asg9
(lp477
I14
aI20
aI11
aF-1.0
aF-1.0
aF-1.0
aI-1
aI-1
aI-1
aF-1.0
aF-1.0
aF-1.0
asg11
g12
sba(i__main__
sensor_data_struct
p478
(dp479
g3
(lp480
I-1
aI-1
aI-1
aI-1
aI-1
aF-1.0
aI-1
aI-1
aI-1
aI-1
aI-1
aF-1.0
asg5
g6
sg7
(lp481
I-1
aI-1
aI-1
aI-1
aI-1
aI-1
asg9
(lp482
I19
aI27
aI49
aF-1.0
aF-1.0
aF-1.0
aI-1
aI-1
aI-1
aF-1.0
aF-1.0
aF-1.0
asg11
g12
sba(i__main__
sensor_data_struct
p483
(dp484
g3
(lp485
I-1
aI-1
aI-1
aI-1
aI-1
aF-1.0
aI-1
aI-1
aI-1
aI-1
aI-1
aF-1.0
asg5
g6
sg7
(lp486
I-1
aI-1
aI-1
aI-1
aI-1
aI-1
asg9
(lp487
I18
aI29
aI9
aF-1.0
aF-1.0
aF-1.0
aI-1
aI-1
aI-1
aF-1.0
aF-1.0
aF-1.0
asg11
g12
sba(i__main__
sensor_data_struct
p488
(dp489
g3
(lp490
I-1
aI-1
aI-1
aI-1
aI-1
aF-1.0
aI-1
aI-1
aI-1
aI-1
aI-1
aF-1.0
asg5
g6
sg7
(lp491
I-1
aI-1
aI-1
aI-1
aI-1
aI-1
asg9
(lp492
I23
aI4
aI33
aF-1.0
aF-1.0
aF-1.0
aI-1
aI-1
aI-1
aF-1.0
aF-1.0
aF-1.0
asg11
g12
sba(i__main__
sensor_data_struct
p493
(dp494
g3
(lp495
I-1
aI-1
aI-1
aI-1
aI-1
aF-1.0
aI-1
aI-1
aI-1
aI-1
aI-1
aF-1.0
asg5
g6
sg7
(lp496
I-1
aI-1
aI-1
aI-1
aI-1
aI-1
asg9
(lp497
I41
aI8
aI15
aF-1.0
aF-1.0
aF-1.0
aI-1
aI-1
aI-1
aF-1.0
aF-1.0
aF-1.0
asg11
g12
sba(i__main__
sensor_data_struct
p498
(dp499
g3
(lp500
I-1
aI-1
aI-1
aI-1
aI-1
aF-1.0
aI-1
aI-1
aI-1
aI-1
aI-1
aF-1.0
asg5
g6
sg7
(lp501
I-1
aI-1
aI-1
aI-1
aI-1
aI-1
asg9
(lp502
I24
aI35
aI27
aF-1.0
aF-1.0
aF-1.0
aI-1
aI-1
aI-1
aF-1.0
aF-1.0
aF-1.0
asg11
g12
sba(i__main__
sensor_data_struct
p503
(dp504
g3
(lp505
I-1
aI-1
aI-1
aI-1
aI-1
aF-1.0
aI-1
aI-1
aI-1
aI-1
aI-1
aF-1.0
asg5
g6
sg7
(lp506
I-1
aI-1
aI-1
aI-1
aI-1
aI-1
asg9
(lp507
I15
aI8
aI12
aF-1.0
aF-1.0
aF-1.0
aI-1
aI-1
aI-1
aF-1.0
aF-1.0
aF-1.0
asg11
g12
sba.