(lp0
(i__main__
sensor_data_struct
p1
(dp2
S'color'
p3
(lp4
I499
aI285
aI172
aI940
aI2663
aF161.0
aI569
aI296
aI187
aI1025
aI2583
aF145.0
asS'button'
p5
I1
sS'IR'
p6
(lp7
I-1
aI-1
aI-1
aI-1
aI-1
aI-1
asS'TOF'
p8
(lp9
I54
aI47
aI-1
aF-1.0
aF-1.0
aF-1.0
aI23
aI25
aI-1
aF-1.0
aF-1.0
aF-1.0
asS'pt'
p10
(lp11
F-0.005
aF-0.011000000000000001
aF0.013999999999999999
asba(i__main__
sensor_data_struct
p12
(dp13
g3
(lp14
I543
aI298
aI177
aI1000
aI2589
aF164.0
aI952
aI376
aI254
aI1528
aI2325
aF98.0
asg5
I0
sg6
(lp15
I-1
aI-1
aI-1
aI-1
aI-1
aI-1
asg8
(lp16
I41
aI33
aI-1
aF-1.0
aF-1.0
aF-1.0
aI22
aI24
aI-1
aF-1.0
aF-1.0
aF-1.0
asg10
(lp17
F0.011000000000000001
aF0.001
aF0.011000000000000001
asba(i__main__
sensor_data_struct
p18
(dp19
g3
(lp20
I560
aI301
aI180
aI1022
aI2573
aF161.0
aI1513
aI454
aI366
aI2210
aI2191
aF65494.0
asg5
I0
sg6
(lp21
I-1
aI-1
aI-1
aI-1
aI-1
aI-1
asg8
(lp22
I31
aI34
aI-1
aF-1.0
aF-1.0
aF-1.0
aI23
aI23
aI-1
aF-1.0
aF-1.0
aF-1.0
asg10
(lp23
F-0.001
aF0.006999999999999999
aF0.005
asba(i__main__
sensor_data_struct
p24
(dp25
g3
(lp26
I556
aI301
aI180
aI1018
aI2582
aF162.0
aI811
aI359
aI228
aI1361
aI2399
aF136.0
asg5
I1
sg6
(lp27
I-1
aI-1
aI-1
aI-1
aI-1
aI-1
asg8
(lp28
I32
aI41
aI-1
aF-1.0
aF-1.0
aF-1.0
aI22
aI25
aI-1
aF-1.0
aF-1.0
aF-1.0
asg10
(lp29
F-0.008
aF0.006
aF0.013000000000000001
asba(i__main__
sensor_data_struct
p30
(dp31
g3
(lp32
I574
aI305
aI184
aI1045
aI2571
aF160.0
aI1020
aI399
aI267
aI1630
aI2308
aF103.0
asg5
I0
sg6
(lp33
I-1
aI-1
aI-1
aI-1
aI-1
aI-1
asg8
(lp34
I32
aI37
aI-1
aF-1.0
aF-1.0
aF-1.0
aI26
aI26
aI-1
aF-1.0
aF-1.0
aF-1.0
asg10
(lp35
F-0.005
aF0.01
aF0.011000000000000001
asba(i__main__
sensor_data_struct
p36
(dp37
g3
(lp38
I551
aI300
aI180
aI1012
aI2593
aF162.0
aI864
aI374
aI234
aI1431
aI2357
aF138.0
asg5
I0
sg6
(lp39
I-1
aI-1
aI-1
aI-1
aI-1
aI-1
asg8
(lp40
I24
aI30
aI-1
aF-1.0
aF-1.0
aF-1.0
aI24
aI24
aI-1
aF-1.0
aF-1.0
aF-1.0
asg10
(lp41
F-0.001
aF-0.005
aF0.012
asba(i__main__
sensor_data_struct
p42
(dp43
g3
(lp44
I567
aI303
aI182
aI1032
aI2567
aF160.0
aI955
aI372
aI256
aI1523
aI2321
aF89.0
asg5
I0
sg6
(lp45
I-1
aI-1
aI-1
aI-1
aI-1
aI-1
asg8
(lp46
I24
aI24
aI-1
aF-1.0
aF-1.0
aF-1.0
aI24
aI24
aI-1
aF-1.0
aF-1.0
aF-1.0
asg10
(lp47
F0.0
aF0.002
aF0.01
asba(i__main__
sensor_data_struct
p48
(dp49
g3
(lp50
I713
aI337
aI208
aI1229
aI2448
aF148.0
aI812
aI338
aI231
aI1334
aI2395
aF100.0
asg5
I1
sg6
(lp51
I-1
aI-1
aI-1
aI-1
aI-1
aI-1
asg8
(lp52
I46
aI33
aI-1
aF-1.0
aF-1.0
aF-1.0
aI24
aI27
aI-1
aF-1.0
aF-1.0
aF-1.0
asg10
(lp53
F0.004
aF0.003
aF0.013999999999999999
asba(i__main__
sensor_data_struct
p54
(dp55
g3
(lp56
I543
aI298
aI178
aI1002
aI2601
aF163.0
aI798
aI383
aI226
aI1380
aI2424
aF180.0
asg5
I1
sg6
(lp57
I-1
aI-1
aI-1
aI-1
aI-1
aI-1
asg8
(lp58
I33
aI43
aI-1
aF-1.0
aF-1.0
aF-1.0
aI23
aI38
aI-1
aF-1.0
aF-1.0
aF-1.0
asg10
(lp59
F0.005
aF-0.009000000000000001
aF0.01
asba(i__main__
sensor_data_struct
p60
(dp61
g3
(lp62
I578
aI306
aI185
aI1050
aI2569
aF159.0
aI1257
aI461
aI313
aI1977
aI2276
aF90.0
asg5
I1
sg6
(lp63
I-1
aI-1
aI-1
aI-1
aI-1
aI-1
asg8
(lp64
I48
aI48
aI-1
aF-1.0
aF-1.0
aF-1.0
aI35
aI40
aI-1
aF-1.0
aF-1.0
aF-1.0
asg10
(lp65
F0.008
aF0.008
aF0.013999999999999999
asba(i__main__
sensor_data_struct
p66
(dp67
g3
(lp68
I565
aI304
aI183
aI1030
aI2573
aF162.0
aI884
aI387
aI238
aI1469
aI2352
aF149.0
asg5
I1
sg6
(lp69
I-1
aI-1
aI-1
aI-1
aI-1
aI-1
asg8
(lp70
I45
aI42
aI-1
aF-1.0
aF-1.0
aF-1.0
aI24
aI26
aI-1
aF-1.0
aF-1.0
aF-1.0
asg10
(lp71
F-0.006999999999999999
aF-0.003
aF0.013999999999999999
asba(i__main__
sensor_data_struct
p72
(dp73
g3
(lp74
I595
aI313
aI187
aI1075
aI2543
aF163.0
aI768
aI338
aI220
aI1286
aI2409
aF123.0
asg5
I0
sg6
(lp75
I-1
aI-1
aI-1
aI-1
aI-1
aI-1
asg8
(lp76
I29
aI21
aI-1
aF-1.0
aF-1.0
aF-1.0
aI25
aI23
aI-1
aF-1.0
aF-1.0
aF-1.0
asg10
(lp77
F-0.006
aF0.001
aF0.011000000000000001
asba(i__main__
sensor_data_struct
p78
(dp79
g3
(lp80
I549
aI299
aI179
aI1009
aI2590
aF162.0
aI1095
aI379
aI286
aI1675
aI2273
aF33.0
asg5
I0
sg6
(lp81
I-1
aI-1
aI-1
aI-1
aI-1
aI-1
asg8
(lp82
I22
aI28
aI-1
aF-1.0
aF-1.0
aF-1.0
aI23
aI25
aI-1
aF-1.0
aF-1.0
aF-1.0
asg10
(lp83
F0.004
aF0.0
aF0.0
asba(i__main__
sensor_data_struct
p84
(dp85
g3
(lp86
I555
aI300
aI181
aI1017
aI2591
aF160.0
aI916
aI395
aI245
aI1513
aI2344
aF146.0
asg5
I1
sg6
(lp87
I-1
aI-1
aI-1
aI-1
aI-1
aI-1
asg8
(lp88
I45
aI36
aI-1
aF-1.0
aF-1.0
aF-1.0
aI23
aI25
aI-1
aF-1.0
aF-1.0
aF-1.0
asg10
(lp89
F0.008
aF-0.004
aF0.013000000000000001
asba(i__main__
sensor_data_struct
p90
(dp91
g3
(lp92
I652
aI315
aI200
aI1132
aI2489
aF139.0
aI1117
aI414
aI282
aI1742
aI2260
aF84.0
asg5
I0
sg6
(lp93
I-1
aI-1
aI-1
aI-1
aI-1
aI-1
asg8
(lp94
I21
aI21
aI-1
aF-1.0
aF-1.0
aF-1.0
aI23
aI25
aI-1
aF-1.0
aF-1.0
aF-1.0
asg10
(lp95
F-0.002
aF-0.001
aF0.004
asba(i__main__
sensor_data_struct
p96
(dp97
g3
(lp98
I559
aI300
aI180
aI1020
aI2575
aF160.0
aI891
aI371
aI240
aI1454
aI2340
aF120.0
asg5
I0
sg6
(lp99
I-1
aI-1
aI-1
aI-1
aI-1
aI-1
asg8
(lp100
I16
aI31
aI-1
aF-1.0
aF-1.0
aF-1.0
aI24
aI26
aI-1
aF-1.0
aF-1.0
aF-1.0
asg10
(lp101
F0.001
aF-0.006
aF0.008
asba(i__main__
sensor_data_struct
p102
(dp103
g3
(lp104
I557
aI301
aI180
aI1018
aI2575
aF162.0
aI831
aI368
aI229
aI1392
aI2379
aF143.0
asg5
I1
sg6
(lp105
I-1
aI-1
aI-1
aI-1
aI-1
aI-1
asg8
(lp106
I31
aI33
aI-1
aF-1.0
aF-1.0
aF-1.0
aI23
aI25
aI-1
aF-1.0
aF-1.0
aF-1.0
asg10
(lp107
F-0.006999999999999999
aF0.001
aF0.013000000000000001
asba(i__main__
sensor_data_struct
p108
(dp109
g3
(lp110
I538
aI298
aI177
aI996
aI2605
aF166.0
aI1379
aI428
aI341
aI2053
aI2231
aF65515.0
asg5
I1
sg6
(lp111
I-1
aI-1
aI-1
aI-1
aI-1
aI-1
asg8
(lp112
I48
aI45
aI-1
aF-1.0
aF-1.0
aF-1.0
aI33
aI37
aI-1
aF-1.0
aF-1.0
aF-1.0
asg10
(lp113
F0.008
aF0.006999999999999999
aF0.011000000000000001
asba(i__main__
sensor_data_struct
p114
(dp115
g3
(lp116
I553
aI302
aI180
aI1017
aI2588
aF165.0
aI640
aI312
aI198
aI1118
aI2502
aF139.0
asg5
I0
sg6
(lp117
I-1
aI-1
aI-1
aI-1
aI-1
aI-1
asg8
(lp118
I23
aI32
aI-1
aF-1.0
aF-1.0
aF-1.0
aI23
aI23
aI-1
aF-1.0
aF-1.0
aF-1.0
asg10
(lp119
F-0.002
aF-0.009000000000000001
aF0.01
asba(i__main__
sensor_data_struct
p120
(dp121
g3
(lp122
I594
aI312
aI187
aI1071
aI2541
aF162.0
aI716
aI323
aI212
aI1211
aI2442
aF122.0
asg5
I0
sg6
(lp123
I-1
aI-1
aI-1
aI-1
aI-1
aI-1
asg8
(lp124
I19
aI26
aI-1
aF-1.0
aF-1.0
aF-1.0
aI23
aI24
aI-1
aF-1.0
aF-1.0
aF-1.0
asg10
(lp125
F0.001
aF-0.004
aF0.01
asba(i__main__
sensor_data_struct
p126
(dp127
g3
(lp128
I550
aI300
aI179
aI1010
aI2588
aF163.0
aI1197
aI404
aI302
aI1823
aI2253
aF28.0
asg5
I0
sg6
(lp129
I-1
aI-1
aI-1
aI-1
aI-1
aI-1
asg8
(lp130
I50
aI40
aI-1
aF-1.0
aF-1.0
aF-1.0
aI25
aI23
aI-1
aF-1.0
aF-1.0
aF-1.0
asg10
(lp131
F0.008
aF0.005
aF0.011000000000000001
asba(i__main__
sensor_data_struct
p132
(dp133
g3
(lp134
I543
aI298
aI178
aI1001
aI2596
aF163.0
aI625
aI316
aI194
aI1109
aI2517
aF153.0
asg5
I1
sg6
(lp135
I-1
aI-1
aI-1
aI-1
aI-1
aI-1
asg8
(lp136
I26
aI44
aI-1
aF-1.0
aF-1.0
aF-1.0
aI33
aI38
aI-1
aF-1.0
aF-1.0
aF-1.0
asg10
(lp137
F0.001
aF-0.011000000000000001
aF0.011000000000000001
asba(i__main__
sensor_data_struct
p138
(dp139
g3
(lp140
I548
aI300
aI179
aI1009
aI2592
aF164.0
aI813
aI370
aI229
aI1380
aI2409
aF152.0
asg5
I1
sg6
(lp141
I-1
aI-1
aI-1
aI-1
aI-1
aI-1
asg8
(lp142
I33
aI46
aI-1
aF-1.0
aF-1.0
aF-1.0
aI26
aI28
aI-1
aF-1.0
aF-1.0
aF-1.0
asg10
(lp143
F-0.01
aF0.008
aF0.015
asba(i__main__
sensor_data_struct
p144
(dp145
g3
(lp146
I561
aI306
aI182
aI1031
aI2585
aF167.0
aI1168
aI398
aI296
aI1791
aI2268
aF32.0
asg5
I1
sg6
(lp147
I-1
aI-1
aI-1
aI-1
aI-1
aI-1
asg8
(lp148
I39
aI47
aI-1
aF-1.0
aF-1.0
aF-1.0
aI37
aI36
aI-1
aF-1.0
aF-1.0
aF-1.0
asg10
(lp149
F0.001
aF0.01
aF0.012
asba(i__main__
sensor_data_struct
p150
(dp151
g3
(lp152
I565
aI304
aI182
aI1032
aI2576
aF163.0
aI869
aI357
aI238
aI1416
aI2355
aF107.0
asg5
I0
sg6
(lp153
I-1
aI-1
aI-1
aI-1
aI-1
aI-1
asg8
(lp154
I30
aI18
aI-1
aF-1.0
aF-1.0
aF-1.0
aI25
aI24
aI-1
aF-1.0
aF-1.0
aF-1.0
asg10
(lp155
F-0.006999999999999999
aF0.004
aF0.006
asba(i__main__
sensor_data_struct
p156
(dp157
g3
(lp158
I599
aI308
aI189
aI1072
aI2539
aF153.0
aI1031
aI393
aI266
aI1628
aI2286
aF90.0
asg5
I0
sg6
(lp159
I-1
aI-1
aI-1
aI-1
aI-1
aI-1
asg8
(lp160
I27
aI19
aI-1
aF-1.0
aF-1.0
aF-1.0
aI24
aI24
aI-1
aF-1.0
aF-1.0
aF-1.0
asg10
(lp161
F-0.005
aF0.002
aF0.005
asba(i__main__
sensor_data_struct
p162
(dp163
g3
(lp164
I607
aI309
aI191
aI1082
aI2537
aF150.0
aI1010
aI395
aI261
aI1610
aI2295
aF104.0
asg5
I0
sg6
(lp165
I-1
aI-1
aI-1
aI-1
aI-1
aI-1
asg8
(lp166
I31
aI13
aI-1
aF-1.0
aF-1.0
aF-1.0
aI24
aI25
aI-1
aF-1.0
aF-1.0
aF-1.0
asg10
(lp167
F-0.006999999999999999
aF0.0
aF0.005
asba(i__main__
sensor_data_struct
p168
(dp169
g3
(lp170
I539
aI297
aI177
aI996
aI2603
aF164.0
aI883
aI375
aI240
aI1459
aI2365
aF129.0
asg5
I1
sg6
(lp171
I-1
aI-1
aI-1
aI-1
aI-1
aI-1
asg8
(lp172
I49
aI40
aI-1
aF-1.0
aF-1.0
aF-1.0
aI27
aI28
aI-1
aF-1.0
aF-1.0
aF-1.0
asg10
(lp173
F0.006999999999999999
aF0.005
aF0.015
asba(i__main__
sensor_data_struct
p174
(dp175
g3
(lp176
I596
aI308
aI188
aI1070
aI2543
aF155.0
aI1238
aI427
aI310
aI1890
aI2244
aF45.0
asg5
I0
sg6
(lp177
I-1
aI-1
aI-1
aI-1
aI-1
aI-1
asg8
(lp178
I33
aI31
aI-1
aF-1.0
aF-1.0
aF-1.0
aI24
aI23
aI-1
aF-1.0
aF-1.0
aF-1.0
asg10
(lp179
F0.003
aF0.005
aF0.009000000000000001
asba(i__main__
sensor_data_struct
p180
(dp181
g3
(lp182
I636
aI315
aI195
aI1121
aI2508
aF147.0
aI1339
aI418
aI335
aI1979
aI2219
aF65516.0
asg5
I0
sg6
(lp183
I-1
aI-1
aI-1
aI-1
aI-1
aI-1
asg8
(lp184
I27
aI27
aI-1
aF-1.0
aF-1.0
aF-1.0
aI24
aI24
aI-1
aF-1.0
aF-1.0
aF-1.0
asg10
(lp185
F0.002
aF0.003
aF0.004
asba(i__main__
sensor_data_struct
p186
(dp187
g3
(lp188
I547
aI299
aI179
aI1007
aI2594
aF163.0
aI762
aI361
aI219
aI1313
aI2435
aF162.0
asg5
I1
sg6
(lp189
I-1
aI-1
aI-1
aI-1
aI-1
aI-1
asg8
(lp190
I11
aI41
aI-1
aF-1.0
aF-1.0
aF-1.0
aI10
aI43
aI-1
aF-1.0
aF-1.0
aF-1.0
asg10
(lp191
F0.004
aF-0.008
aF0.006999999999999999
asba(i__main__
sensor_data_struct
p192
(dp193
g3
(lp194
I558
aI302
aI180
aI1021
aI2577
aF163.0
aI1754
aI488
aI410
aI2504
aI2153
aF65437.0
asg5
I0
sg6
(lp195
I-1
aI-1
aI-1
aI-1
aI-1
aI-1
asg8
(lp196
I43
aI39
aI-1
aF-1.0
aF-1.0
aF-1.0
aI23
aI25
aI-1
aF-1.0
aF-1.0
aF-1.0
asg10
(lp197
F0.005
aF0.006
aF0.008
asba(i__main__
sensor_data_struct
p198
(dp199
g3
(lp200
I571
aI304
aI183
aI1038
aI2565
aF160.0
aI1107
aI389
aI285
aI1702
aI2268
aF45.0
asg5
I0
sg6
(lp201
I-1
aI-1
aI-1
aI-1
aI-1
aI-1
asg8
(lp202
I27
aI31
aI-1
aF-1.0
aF-1.0
aF-1.0
aI22
aI26
aI-1
aF-1.0
aF-1.0
aF-1.0
asg10
(lp203
F0.004
aF0.002
aF0.006999999999999999
asba(i__main__
sensor_data_struct
p204
(dp205
g3
(lp206
I571
aI303
aI183
aI1037
aI2565
aF158.0
aI935
aI391
aI249
aI1532
aI2341
aF131.0
asg5
I1
sg6
(lp207
I-1
aI-1
aI-1
aI-1
aI-1
aI-1
asg8
(lp208
I30
aI42
aI-1
aF-1.0
aF-1.0
aF-1.0
aI25
aI31
aI-1
aF-1.0
aF-1.0
aF-1.0
asg10
(lp209
F-0.001
aF0.005
aF0.013999999999999999
asba(i__main__
sensor_data_struct
p210
(dp211
g3
(lp212
I591
aI308
aI187
aI1063
aI2547
aF157.0
aI974
aI392
aI256
aI1570
aI2315
aF115.0
asg5
I0
sg6
(lp213
I-1
aI-1
aI-1
aI-1
aI-1
aI-1
asg8
(lp214
I26
aI26
aI-1
aF-1.0
aF-1.0
aF-1.0
aI23
aI24
aI-1
aF-1.0
aF-1.0
aF-1.0
asg10
(lp215
F-0.003
aF0.003
aF0.011000000000000001
asba(i__main__
sensor_data_struct
p216
(dp217
g3
(lp218
I539
aI298
aI177
aI997
aI2603
aF165.0
aI697
aI345
aI208
aI1225
aI2481
aF166.0
asg5
I1
sg6
(lp219
I-1
aI-1
aI-1
aI-1
aI-1
aI-1
asg8
(lp220
I30
aI48
aI-1
aF-1.0
aF-1.0
aF-1.0
aI26
aI41
aI-1
aF-1.0
aF-1.0
aF-1.0
asg10
(lp221
F0.004
aF-0.01
aF0.01
asba(i__main__
sensor_data_struct
p222
(dp223
g3
(lp224
I648
aI337
aI197
aI1163
aI2511
aF177.0
aI616
aI312
aI193
aI1096
aI2532
aF151.0
asg5
I1
sg6
(lp225
I-1
aI-1
aI-1
aI-1
aI-1
aI-1
asg8
(lp226
I28
aI48
aI-1
aF-1.0
aF-1.0
aF-1.0
aI28
aI42
aI-1
aF-1.0
aF-1.0
aF-1.0
asg10
(lp227
F0.005
aF-0.01
aF0.011000000000000001
asba(i__main__
sensor_data_struct
p228
(dp229
g3
(lp230
I589
aI317
aI186
aI1074
aI2553
aF172.0
aI778
aI334
aI224
aI1292
aI2409
aF110.0
asg5
I1
sg6
(lp231
I-1
aI-1
aI-1
aI-1
aI-1
aI-1
asg8
(lp232
I25
aI27
aI-1
aF-1.0
aF-1.0
aF-1.0
aI24
aI25
aI-1
aF-1.0
aF-1.0
aF-1.0
asg10
(lp233
F0.002
aF0.0
aF0.013000000000000001
asba(i__main__
sensor_data_struct
p234
(dp235
g3
(lp236
I709
aI325
aI209
aI1208
aI2448
aF129.0
aI1368
aI448
aI331
aI2048
aI2205
aF20.0
asg5
I0
sg6
(lp237
I-1
aI-1
aI-1
aI-1
aI-1
aI-1
asg8
(lp238
I33
aI33
aI-1
aF-1.0
aF-1.0
aF-1.0
aI25
aI26
aI-1
aF-1.0
aF-1.0
aF-1.0
asg10
(lp239
F0.001
aF0.004
aF0.005
asba(i__main__
sensor_data_struct
p240
(dp241
g3
(lp242
I543
aI299
aI178
aI1002
aI2596
aF165.0
aI686
aI327
aI207
aI1188
aI2477
aF141.0
asg5
I1
sg6
(lp243
I-1
aI-1
aI-1
aI-1
aI-1
aI-1
asg8
(lp244
I10
aI41
aI-1
aF-1.0
aF-1.0
aF-1.0
aI9
aI41
aI-1
aF-1.0
aF-1.0
aF-1.0
asg10
(lp245
F0.005
aF-0.006999999999999999
aF0.006999999999999999
asba(i__main__
sensor_data_struct
p246
(dp247
g3
(lp248
I559
aI302
aI181
aI1023
aI2582
aF162.0
aI837
aI357
aI233
aI1382
aI2377
aF121.0
asg5
I0
sg6
(lp249
I-1
aI-1
aI-1
aI-1
aI-1
aI-1
asg8
(lp250
I21
aI26
aI-1
aF-1.0
aF-1.0
aF-1.0
aI22
aI26
aI-1
aF-1.0
aF-1.0
aF-1.0
asg10
(lp251
F0.0
aF-0.002
aF0.011000000000000001
asba(i__main__
sensor_data_struct
p252
(dp253
g3
(lp254
I568
aI304
aI182
aI1034
aI2565
aF162.0
aI863
aI381
aI235
aI1442
aI2369
aF149.0
asg5
I1
sg6
(lp255
I-1
aI-1
aI-1
aI-1
aI-1
aI-1
asg8
(lp256
I28
aI39
aI-1
aF-1.0
aF-1.0
aF-1.0
aI24
aI31
aI-1
aF-1.0
aF-1.0
aF-1.0
asg10
(lp257
F-0.005
aF0.001
aF0.015
asba(i__main__
sensor_data_struct
p258
(dp259
g3
(lp260
I563
aI302
aI181
aI1027
aI2573
aF161.0
aI1071
aI393
aI277
aI1670
aI2280
aF69.0
asg5
I0
sg6
(lp261
I-1
aI-1
aI-1
aI-1
aI-1
aI-1
asg8
(lp262
I27
aI31
aI-1
aF-1.0
aF-1.0
aF-1.0
aI25
aI25
aI-1
aF-1.0
aF-1.0
aF-1.0
asg10
(lp263
F0.006999999999999999
aF0.0
aF0.006
asba(i__main__
sensor_data_struct
p264
(dp265
g3
(lp266
I562
aI302
aI181
aI1026
aI2576
aF161.0
aI796
aI340
aI227
aI1318
aI2400
aF112.0
asg5
I0
sg6
(lp267
I-1
aI-1
aI-1
aI-1
aI-1
aI-1
asg8
(lp268
I14
aI33
aI-1
aF-1.0
aF-1.0
aF-1.0
aI23
aI26
aI-1
aF-1.0
aF-1.0
aF-1.0
asg10
(lp269
F0.006
aF-0.004
aF0.004
asba(i__main__
sensor_data_struct
p270
(dp271
g3
(lp272
I542
aI298
aI178
aI1000
aI2599
aF164.0
aI658
aI327
aI200
aI1159
aI2495
aF156.0
asg5
I1
sg6
(lp273
I-1
aI-1
aI-1
aI-1
aI-1
aI-1
asg8
(lp274
I52
aI47
aI-1
aF-1.0
aF-1.0
aF-1.0
aI34
aI32
aI-1
aF-1.0
aF-1.0
aF-1.0
asg10
(lp275
F-0.011000000000000001
aF-0.002
aF0.012
asba(i__main__
sensor_data_struct
p276
(dp277
g3
(lp278
I543
aI300
aI177
aI1003
aI2594
aF167.0
aI724
aI338
aI211
aI1242
aI2444
aF144.0
asg5
I0
sg6
(lp279
I-1
aI-1
aI-1
aI-1
aI-1
aI-1
asg8
(lp280
I38
aI37
aI-1
aF-1.0
aF-1.0
aF-1.0
aI25
aI29
aI-1
aF-1.0
aF-1.0
aF-1.0
asg10
(lp281
F0.006
aF-0.006
aF0.013000000000000001
asba(i__main__
sensor_data_struct
p282
(dp283
g3
(lp284
I555
aI302
aI180
aI1019
aI2584
aF164.0
aI719
aI328
aI211
aI1220
aI2436
aF129.0
asg5
I0
sg6
(lp285
I-1
aI-1
aI-1
aI-1
aI-1
aI-1
asg8
(lp286
I14
aI35
aI-1
aF-1.0
aF-1.0
aF-1.0
aI22
aI26
aI-1
aF-1.0
aF-1.0
aF-1.0
asg10
(lp287
F0.0
aF-0.008
aF0.006
asba(i__main__
sensor_data_struct
p288
(dp289
g3
(lp290
I579
aI306
aI184
aI1048
aI2556
aF160.0
aI605
aI307
aI190
aI1076
aI2530
aF149.0
asg5
I1
sg6
(lp291
I-1
aI-1
aI-1
aI-1
aI-1
aI-1
asg8
(lp292
I46
aI46
aI-1
aF-1.0
aF-1.0
aF-1.0
aI25
aI31
aI-1
aF-1.0
aF-1.0
aF-1.0
asg10
(lp293
F-0.006999999999999999
aF-0.004
aF0.015
asba(i__main__
sensor_data_struct
p294
(dp295
g3
(lp296
I571
aI307
aI182
aI1041
aI2563
aF165.0
aI915
aI359
aI248
aI1463
aI2332
aF88.0
asg5
I0
sg6
(lp297
I-1
aI-1
aI-1
aI-1
aI-1
aI-1
asg8
(lp298
I24
aI23
aI-1
aF-1.0
aF-1.0
aF-1.0
aI24
aI24
aI-1
aF-1.0
aF-1.0
aF-1.0
asg10
(lp299
F-0.002
aF0.0
aF0.008
asba(i__main__
sensor_data_struct
p300
(dp301
g3
(lp302
I544
aI299
aI178
aI1003
aI2594
aF165.0
aI744
aI359
aI216
aI1292
aI2449
aF166.0
asg5
I1
sg6
(lp303
I-1
aI-1
aI-1
aI-1
aI-1
aI-1
asg8
(lp304
I23
aI43
aI-1
aF-1.0
aF-1.0
aF-1.0
aI22
aI41
aI-1
aF-1.0
aF-1.0
aF-1.0
asg10
(lp305
F0.004
aF-0.009000000000000001
aF0.01
asba(i__main__
sensor_data_struct
p306
(dp307
g3
(lp308
I563
aI304
aI181
aI1030
aI2573
aF164.0
aI804
aI358
aI225
aI1349
aI2390
aF139.0
asg5
I1
sg6
(lp309
I-1
aI-1
aI-1
aI-1
aI-1
aI-1
asg8
(lp310
I23
aI30
aI-1
aF-1.0
aF-1.0
aF-1.0
aI24
aI26
aI-1
aF-1.0
aF-1.0
aF-1.0
asg10
(lp311
F0.001
aF-0.004
aF0.013000000000000001
asba(i__main__
sensor_data_struct
p312
(dp313
g3
(lp314
I591
aI311
aI186
aI1067
aI2545
aF162.0
aI778
aI331
aI222
aI1286
aI2398
aF107.0
asg5
I0
sg6
(lp315
I-1
aI-1
aI-1
aI-1
aI-1
aI-1
asg8
(lp316
I24
aI19
aI-1
aF-1.0
aF-1.0
aF-1.0
aI24
aI25
aI-1
aF-1.0
aF-1.0
aF-1.0
asg10
(lp317
F-0.004
aF-0.001
aF0.008
asba(i__main__
sensor_data_struct
p318
(dp319
g3
(lp320
I584
aI306
aI185
aI1054
aI2552
aF157.0
aI953
aI368
aI254
aI1514
aI2315
aF85.0
asg5
I0
sg6
(lp321
I-1
aI-1
aI-1
aI-1
aI-1
aI-1
asg8
(lp322
I30
aI22
aI-1
aF-1.0
aF-1.0
aF-1.0
aI25
aI26
aI-1
aF-1.0
aF-1.0
aF-1.0
asg10
(lp323
F-0.004
aF0.001
aF0.005
asba(i__main__
sensor_data_struct
p324
(dp325
g3
(lp326
I562
aI303
aI181
aI1026
aI2571
aF163.0
aI765
aI353
aI220
aI1307
aI2432
aF147.0
asg5
I1
sg6
(lp327
I-1
aI-1
aI-1
aI-1
aI-1
aI-1
asg8
(lp328
I34
aI48
aI-1
aF-1.0
aF-1.0
aF-1.0
aI24
aI31
aI-1
aF-1.0
aF-1.0
aF-1.0
asg10
(lp329
F-0.009000000000000001
aF0.006999999999999999
aF0.015
asba(i__main__
sensor_data_struct
p330
(dp331
g3
(lp332
I538
aI298
aI177
aI997
aI2605
aF166.0
aI665
aI320
aI203
aI1158
aI2492
aF140.0
asg5
I1
sg6
(lp333
I-1
aI-1
aI-1
aI-1
aI-1
aI-1
asg8
(lp334
I19
aI40
aI-1
aF-1.0
aF-1.0
aF-1.0
aI26
aI42
aI-1
aF-1.0
aF-1.0
aF-1.0
asg10
(lp335
F0.008
aF-0.005
aF0.009000000000000001
asba(i__main__
sensor_data_struct
p336
(dp337
g3
(lp338
I560
aI306
aI181
aI1029
aI2580
aF168.0
aI685
aI322
aI205
aI1179
aI2467
aF135.0
asg5
I1
sg6
(lp339
I-1
aI-1
aI-1
aI-1
aI-1
aI-1
asg8
(lp340
I34
aI29
aI-1
aF-1.0
aF-1.0
aF-1.0
aI23
aI25
aI-1
aF-1.0
aF-1.0
aF-1.0
asg10
(lp341
F-0.006
aF-0.001
aF0.012
asba(i__main__
sensor_data_struct
p342
(dp343
g3
(lp344
I555
aI299
aI180
aI1016
aI2584
aF160.0
aI934
aI396
aI249
aI1537
aI2342
aF139.0
asg5
I1
sg6
(lp345
I-1
aI-1
aI-1
aI-1
aI-1
aI-1
asg8
(lp346
I44
aI34
aI-1
aF-1.0
aF-1.0
aF-1.0
aI26
aI28
aI-1
aF-1.0
aF-1.0
aF-1.0
asg10
(lp347
F0.012
aF0.001
aF0.013000000000000001
asba(i__main__
sensor_data_struct
p348
(dp349
g3
(lp350
I547
aI300
aI179
aI1009
aI2599
aF164.0
aI836
aI367
aI234
aI1400
aI2397
aF136.0
asg5
I1
sg6
(lp351
I-1
aI-1
aI-1
aI-1
aI-1
aI-1
asg8
(lp352
I32
aI47
aI-1
aF-1.0
aF-1.0
aF-1.0
aI23
aI27
aI-1
aF-1.0
aF-1.0
aF-1.0
asg10
(lp353
F-0.009000000000000001
aF0.009000000000000001
aF0.013000000000000001
asba(i__main__
sensor_data_struct
p354
(dp355
g3
(lp356
I588
aI312
aI187
aI1067
aI2557
aF164.0
aI808
aI339
aI229
aI1332
aI2394
aF105.0
asg5
I1
sg6
(lp357
I-1
aI-1
aI-1
aI-1
aI-1
aI-1
asg8
(lp358
I41
aI43
aI-1
aF-1.0
aF-1.0
aF-1.0
aI27
aI32
aI-1
aF-1.0
aF-1.0
aF-1.0
asg10
(lp359
F0.002
aF0.006
aF0.015
asba(i__main__
sensor_data_struct
p360
(dp361
g3
(lp362
I631
aI326
aI194
aI1131
aI2519
aF167.0
aI734
aI332
aI214
aI1246
aI2437
aF129.0
asg5
I1
sg6
(lp363
I-1
aI-1
aI-1
aI-1
aI-1
aI-1
asg8
(lp364
I46
aI37
aI-1
aF-1.0
aF-1.0
aF-1.0
aI26
aI33
aI-1
aF-1.0
aF-1.0
aF-1.0
asg10
(lp365
F0.008
aF0.002
aF0.015
asba(i__main__
sensor_data_struct
p366
(dp367
g3
(lp368
I551
aI303
aI180
aI1017
aI2597
aF167.0
aI647
aI327
aI198
aI1148
aI2507
aF161.0
asg5
I1
sg6
(lp369
I-1
aI-1
aI-1
aI-1
aI-1
aI-1
asg8
(lp370
I49
aI46
aI-1
aF-1.0
aF-1.0
aF-1.0
aI32
aI40
aI-1
aF-1.0
aF-1.0
aF-1.0
asg10
(lp371
F0.006999999999999999
aF-0.009000000000000001
aF0.012
asba(i__main__
sensor_data_struct
p372
(dp373
g3
(lp374
I611
aI311
aI190
aI1088
aI2523
aF153.0
aI998
aI400
aI259
aI1605
aI2304
aF117.0
asg5
I0
sg6
(lp375
I-1
aI-1
aI-1
aI-1
aI-1
aI-1
asg8
(lp376
I25
aI28
aI-1
aF-1.0
aF-1.0
aF-1.0
aI23
aI24
aI-1
aF-1.0
aF-1.0
aF-1.0
asg10
(lp377
F-0.002
aF0.003
aF0.011000000000000001
asba(i__main__
sensor_data_struct
p378
(dp379
g3
(lp380
I652
aI322
aI198
aI1146
aI2494
aF151.0
aI790
aI342
aI226
aI1314
aI2403
aF117.0
asg5
I1
sg6
(lp381
I-1
aI-1
aI-1
aI-1
aI-1
aI-1
asg8
(lp382
I34
aI34
aI-1
aF-1.0
aF-1.0
aF-1.0
aI24
aI27
aI-1
aF-1.0
aF-1.0
aF-1.0
asg10
(lp383
F0.001
aF0.001
aF0.013999999999999999
asba(i__main__
sensor_data_struct
p384
(dp385
g3
(lp386
I584
aI309
aI185
aI1058
aI2552
aF162.0
aI1187
aI412
aI299
aI1820
aI2253
aF46.0
asg5
I0
sg6
(lp387
I-1
aI-1
aI-1
aI-1
aI-1
aI-1
asg8
(lp388
I35
aI43
aI-1
aF-1.0
aF-1.0
aF-1.0
aI23
aI25
aI-1
aF-1.0
aF-1.0
aF-1.0
asg10
(lp389
F0.0
aF0.006
aF0.01
asba(i__main__
sensor_data_struct
p390
(dp391
g3
(lp392
I555
aI302
aI180
aI1020
aI2589
aF164.0
aI884
aI347
aI244
aI1417
aI2349
aF82.0
asg5
I0
sg6
(lp393
I-1
aI-1
aI-1
aI-1
aI-1
aI-1
asg8
(lp394
I19
aI31
aI-1
aF-1.0
aF-1.0
aF-1.0
aI24
aI25
aI-1
aF-1.0
aF-1.0
aF-1.0
asg10
(lp395
F0.004
aF-0.002
aF0.002
asba(i__main__
sensor_data_struct
p396
(dp397
g3
(lp398
I568
aI304
aI183
aI1035
aI2572
aF161.0
aI673
aI317
aI204
aI1159
aI2477
aF132.0
asg5
I0
sg6
(lp399
I-1
aI-1
aI-1
aI-1
aI-1
aI-1
asg8
(lp400
I16
aI31
aI-1
aF-1.0
aF-1.0
aF-1.0
aI22
aI25
aI-1
aF-1.0
aF-1.0
aF-1.0
asg10
(lp401
F-0.002
aF-0.008
aF0.006999999999999999
asba(i__main__
sensor_data_struct
p402
(dp403
g3
(lp404
I567
aI304
aI182
aI1033
aI2567
aF162.0
aI635
aI318
aI195
aI1122
aI2505
aF153.0
asg5
I1
sg6
(lp405
I-1
aI-1
aI-1
aI-1
aI-1
aI-1
asg8
(lp406
I49
aI46
aI-1
aF-1.0
aF-1.0
aF-1.0
aI27
aI31
aI-1
aF-1.0
aF-1.0
aF-1.0
asg10
(lp407
F-0.008
aF-0.008
aF0.015
asba(i__main__
sensor_data_struct
p408
(dp409
g3
(lp410
I567
aI303
aI182
aI1032
aI2567
aF160.0
aI1290
aI429
aI319
aI1948
aI2229
aF24.0
asg5
I0
sg6
(lp411
I-1
aI-1
aI-1
aI-1
aI-1
aI-1
asg8
(lp412
I33
aI40
aI-1
aF-1.0
aF-1.0
aF-1.0
aI25
aI26
aI-1
aF-1.0
aF-1.0
aF-1.0
asg10
(lp413
F0.0
aF0.006
aF0.009000000000000001
asba(i__main__
sensor_data_struct
p414
(dp415
g3
(lp416
I554
aI300
aI179
aI1015
aI2579
aF162.0
aI829
aI371
aI227
aI1392
aI2376
aF150.0
asg5
I1
sg6
(lp417
I-1
aI-1
aI-1
aI-1
aI-1
aI-1
asg8
(lp418
I32
aI35
aI-1
aF-1.0
aF-1.0
aF-1.0
aI26
aI30
aI-1
aF-1.0
aF-1.0
aF-1.0
asg10
(lp419
F-0.001
aF-0.004
aF0.015
asba(i__main__
sensor_data_struct
p420
(dp421
g3
(lp422
I580
aI309
aI184
aI1054
aI2558
aF164.0
aI714
aI329
aI210
aI1217
aI2442
aF133.0
asg5
I0
sg6
(lp423
I-1
aI-1
aI-1
aI-1
aI-1
aI-1
asg8
(lp424
I15
aI32
aI-1
aF-1.0
aF-1.0
aF-1.0
aI23
aI26
aI-1
aF-1.0
aF-1.0
aF-1.0
asg10
(lp425
F-0.003
aF-0.009000000000000001
aF0.009000000000000001
asba(i__main__
sensor_data_struct
p426
(dp427
g3
(lp428
I581
aI308
aI184
aI1052
aI2552
aF162.0
aI678
aI317
aI204
aI1164
aI2468
aF130.0
asg5
I0
sg6
(lp429
I-1
aI-1
aI-1
aI-1
aI-1
aI-1
asg8
(lp430
I16
aI33
aI-1
aF-1.0
aF-1.0
aF-1.0
aI25
aI25
aI-1
aF-1.0
aF-1.0
aF-1.0
asg10
(lp431
F0.001
aF-0.006
aF0.009000000000000001
asba(i__main__
sensor_data_struct
p432
(dp433
g3
(lp434
I610
aI315
aI190
aI1092
aI2529
aF160.0
aI671
aI322
aI202
aI1164
aI2477
aF142.0
asg5
I1
sg6
(lp435
I-1
aI-1
aI-1
aI-1
aI-1
aI-1
asg8
(lp436
I24
aI34
aI-1
aF-1.0
aF-1.0
aF-1.0
aI22
aI26
aI-1
aF-1.0
aF-1.0
aF-1.0
asg10
(lp437
F0.0
aF-0.006
aF0.013000000000000001
asba(i__main__
sensor_data_struct
p438
(dp439
g3
(lp440
I572
aI304
aI182
aI1039
aI2561
aF160.0
aI1042
aI386
aI270
aI1632
aI2285
aF73.0
asg5
I0
sg6
(lp441
I-1
aI-1
aI-1
aI-1
aI-1
aI-1
asg8
(lp442
I28
aI25
aI-1
aF-1.0
aF-1.0
aF-1.0
aI25
aI26
aI-1
aF-1.0
aF-1.0
aF-1.0
asg10
(lp443
F-0.004
aF0.004
aF0.006
asba(i__main__
sensor_data_struct
p444
(dp445
g3
(lp446
I545
aI299
aI178
aI1005
aI2597
aF164.0
aI803
aI352
aI226
aI1342
aI2396
aF129.0
asg5
I0
sg6
(lp447
I-1
aI-1
aI-1
aI-1
aI-1
aI-1
asg8
(lp448
I35
aI33
aI-1
aF-1.0
aF-1.0
aF-1.0
aI21
aI27
aI-1
aF-1.0
aF-1.0
aF-1.0
asg10
(lp449
F0.006
aF-0.002
aF0.013000000000000001
asba(i__main__
sensor_data_struct
p450
(dp451
g3
(lp452
I815
aI307
aI186
aI1379
aI2260
aF83.0
aI928
aI398
aI247
aI1525
aI2330
aF146.0
asg5
I0
sg6
(lp453
I-1
aI-1
aI-1
aI-1
aI-1
aI-1
asg8
(lp454
I39
aI38
aI-1
aF-1.0
aF-1.0
aF-1.0
aI25
aI26
aI-1
aF-1.0
aF-1.0
aF-1.0
asg10
(lp455
F0.005
aF-0.005
aF0.013000000000000001
asba(i__main__
sensor_data_struct
p456
(dp457
g3
(lp458
I620
aI312
aI192
aI1099
aI2518
aF150.0
aI1065
aI409
aI273
aI1687
aI2285
aF99.0
asg5
I0
sg6
(lp459
I-1
aI-1
aI-1
aI-1
aI-1
aI-1
asg8
(lp460
I26
aI30
aI-1
aF-1.0
aF-1.0
aF-1.0
aI23
aI24
aI-1
aF-1.0
aF-1.0
aF-1.0
asg10
(lp461
F0.003
aF0.002
aF0.01
asba(i__main__
sensor_data_struct
p462
(dp463
g3
(lp464
I585
aI307
aI185
aI1056
aI2550
aF159.0
aI682
aI322
aI204
aI1177
aI2470
aF137.0
asg5
I1
sg6
(lp465
I-1
aI-1
aI-1
aI-1
aI-1
aI-1
asg8
(lp466
I32
aI43
aI-1
aF-1.0
aF-1.0
aF-1.0
aI23
aI26
aI-1
aF-1.0
aF-1.0
aF-1.0
asg10
(lp467
F-0.008
aF0.004
aF0.013000000000000001
asba(i__main__
sensor_data_struct
p468
(dp469
g3
(lp470
I550
aI301
aI178
aI1011
aI2581
aF166.0
aI782
aI336
aI225
aI1297
aI2404
aF111.0
asg5
I0
sg6
(lp471
I-1
aI-1
aI-1
aI-1
aI-1
aI-1
asg8
(lp472
I20
aI24
aI-1
aF-1.0
aF-1.0
aF-1.0
aI24
aI25
aI-1
aF-1.0
aF-1.0
aF-1.0
asg10
(lp473
F0.0
aF-0.003
aF0.008
asba(i__main__
sensor_data_struct
p474
(dp475
g3
(lp476
I558
aI302
aI180
aI1022
aI2577
aF163.0
aI2119
aI550
aI480
aI2990
aI2139
aF65365.0
asg5
I1
sg6
(lp477
I-1
aI-1
aI-1
aI-1
aI-1
aI-1
asg8
(lp478
I49
aI49
aI-1
aF-1.0
aF-1.0
aF-1.0
aI35
aI41
aI-1
aF-1.0
aF-1.0
aF-1.0
asg10
(lp479
F0.004
aF0.01
aF0.01
asba(i__main__
sensor_data_struct
p480
(dp481
g3
(lp482
I557
aI303
aI180
aI1023
aI2584
aF165.0
aI841
aI351
aI233
aI1377
aI2365
aF110.0
asg5
I0
sg6
(lp483
I-1
aI-1
aI-1
aI-1
aI-1
aI-1
asg8
(lp484
I17
aI28
aI-1
aF-1.0
aF-1.0
aF-1.0
aI25
aI25
aI-1
aF-1.0
aF-1.0
aF-1.0
asg10
(lp485
F0.002
aF-0.002
aF0.009000000000000001
asba(i__main__
sensor_data_struct
p486
(dp487
g3
(lp488
I711
aI308
aI188
aI1224
aI2398
aF117.0
aI944
aI400
aI250
aI1546
aI2326
aF141.0
asg5
I1
sg6
(lp489
I-1
aI-1
aI-1
aI-1
aI-1
aI-1
asg8
(lp490
I24
aI25
aI-1
aF-1.0
aF-1.0
aF-1.0
aI23
aI28
aI-1
aF-1.0
aF-1.0
aF-1.0
asg10
(lp491
F-0.001
aF-0.001
aF0.013000000000000001
asba(i__main__
sensor_data_struct
p492
(dp493
g3
(lp494
I554
aI302
aI180
aI1018
aI2586
aF165.0
aI1611
aI457
aI383
aI2321
aI2174
aF65454.0
asg5
I0
sg6
(lp495
I-1
aI-1
aI-1
aI-1
aI-1
aI-1
asg8
(lp496
I47
aI42
aI-1
aF-1.0
aF-1.0
aF-1.0
aI23
aI26
aI-1
aF-1.0
aF-1.0
aF-1.0
asg10
(lp497
F0.008
aF0.006
aF0.009000000000000001
asba(i__main__
sensor_data_struct
p498
(dp499
g3
(lp500
I583
aI305
aI186
aI1053
aI2561
aF155.0
aI1016
aI405
aI264
aI1632
aI2306
aF116.0
asg5
I0
sg6
(lp501
I-1
aI-1
aI-1
aI-1
aI-1
aI-1
asg8
(lp502
I39
aI33
aI-1
aF-1.0
aF-1.0
aF-1.0
aI24
aI25
aI-1
aF-1.0
aF-1.0
aF-1.0
asg10
(lp503
F0.009000000000000001
aF0.001
aF0.011000000000000001
asba(i__main__
sensor_data_struct
p504
(dp505
g3
(lp506
I558
aI301
aI180
aI1020
aI2577
aF162.0
aI920
aI352
aI251
aI1459
aI2330
aF73.0
asg5
I0
sg6
(lp507
I-1
aI-1
aI-1
aI-1
aI-1
aI-1
asg8
(lp508
I20
aI29
aI-1
aF-1.0
aF-1.0
aF-1.0
aI22
aI27
aI-1
aF-1.0
aF-1.0
aF-1.0
asg10
(lp509
F0.002
aF-0.001
aF0.005
asba(i__main__
sensor_data_struct
p510
(dp511
g3
(lp512
I578
aI305
aI184
aI1046
aI2558
aF159.0
aI838
aI345
aI234
aI1366
aI2370
aF101.0
asg5
I0
sg6
(lp513
I-1
aI-1
aI-1
aI-1
aI-1
aI-1
asg8
(lp514
I18
aI30
aI-1
aF-1.0
aF-1.0
aF-1.0
aI23
aI24
aI-1
aF-1.0
aF-1.0
aF-1.0
asg10
(lp515
F0.004
aF-0.002
aF0.008
asba(i__main__
sensor_data_struct
p516
(dp517
g3
(lp518
I549
aI300
aI179
aI1009
aI2590
aF164.0
aI700
aI329
aI208
aI1205
aI2460
aF139.0
asg5
I0
sg6
(lp519
I-1
aI-1
aI-1
aI-1
aI-1
aI-1
asg8
(lp520
I38
aI28
aI-1
aF-1.0
aF-1.0
aF-1.0
aI23
aI26
aI-1
aF-1.0
aF-1.0
aF-1.0
asg10
(lp521
F-0.009000000000000001
aF0.002
aF0.011000000000000001
asba(i__main__
sensor_data_struct
p522
(dp523
g3
(lp524
I542
aI299
aI177
aI1001
aI2596
aF166.0
aI958
aI370
aI257
aI1528
aI2329
aF84.0
asg5
I0
sg6
(lp525
I-1
aI-1
aI-1
aI-1
aI-1
aI-1
asg8
(lp526
I41
aI33
aI-1
aF-1.0
aF-1.0
aF-1.0
aI23
aI27
aI-1
aF-1.0
aF-1.0
aF-1.0
asg10
(lp527
F0.006999999999999999
aF0.003
aF0.011000000000000001
asba(i__main__
sensor_data_struct
p528
(dp529
g3
(lp530
I570
aI303
aI183
aI1035
aI2568
aF159.0
aI915
aI387
aI242
aI1502
aI2332
aF136.0
asg5
I0
sg6
(lp531
I-1
aI-1
aI-1
aI-1
aI-1
aI-1
asg8
(lp532
I26
aI32
aI-1
aF-1.0
aF-1.0
aF-1.0
aI22
aI26
aI-1
aF-1.0
aF-1.0
aF-1.0
asg10
(lp533
F-0.001
aF-0.004
aF0.012
asba(i__main__
sensor_data_struct
p534
(dp535
g3
(lp536
I552
aI302
aI179
aI1016
aI2588
aF166.0
aI1290
aI417
aI319
aI1935
aI2229
aF5.0
asg5
I0
sg6
(lp537
I-1
aI-1
aI-1
aI-1
aI-1
aI-1
asg8
(lp538
I47
aI40
aI-1
aF-1.0
aF-1.0
aF-1.0
aI22
aI25
aI-1
aF-1.0
aF-1.0
aF-1.0
asg10
(lp539
F0.008
aF0.005
aF0.01
asba(i__main__
sensor_data_struct
p540
(dp541
g3
(lp542
I564
aI303
aI182
aI1031
aI2578
aF161.0
aI1155
aI432
aI292
aI1823
aI2283
aF93.0
asg5
I1
sg6
(lp543
I-1
aI-1
aI-1
aI-1
aI-1
aI-1
asg8
(lp544
I42
aI47
aI-1
aF-1.0
aF-1.0
aF-1.0
aI35
aI40
aI-1
aF-1.0
aF-1.0
aF-1.0
asg10
(lp545
F0.001
aF0.009000000000000001
aF0.013999999999999999
asba(i__main__
sensor_data_struct
p546
(dp547
g3
(lp548
I565
aI306
aI181
aI1034
aI2569
aF167.0
aI653
aI323
aI198
aI1146
aI2488
aF152.0
asg5
I1
sg6
(lp549
I-1
aI-1
aI-1
aI-1
aI-1
aI-1
asg8
(lp550
I47
aI45
aI-1
aF-1.0
aF-1.0
aF-1.0
aI26
aI29
aI-1
aF-1.0
aF-1.0
aF-1.0
asg10
(lp551
F-0.006999999999999999
aF-0.006
aF0.015
asba(i__main__
sensor_data_struct
p552
(dp553
g3
(lp554
I564
aI303
aI181
aI1028
aI2567
aF162.0
aI891
aI378
aI241
aI1466
aI2351
aF130.0
asg5
I0
sg6
(lp555
I-1
aI-1
aI-1
aI-1
aI-1
aI-1
asg8
(lp556
I24
aI28
aI-1
aF-1.0
aF-1.0
aF-1.0
aI24
aI27
aI-1
aF-1.0
aF-1.0
aF-1.0
asg10
(lp557
F0.001
aF0.0
aF0.013000000000000001
asba(i__main__
sensor_data_struct
p558
(dp559
g3
(lp560
I573
aI305
aI183
aI1041
aI2561
aF161.0
aI916
aI383
aI244
aI1499
aI2337
aF128.0
asg5
I0
sg6
(lp561
I-1
aI-1
aI-1
aI-1
aI-1
aI-1
asg8
(lp562
I30
aI26
aI-1
aF-1.0
aF-1.0
aF-1.0
aI23
aI25
aI-1
aF-1.0
aF-1.0
aF-1.0
asg10
(lp563
F-0.008
aF0.002
aF0.01
asba(i__main__
sensor_data_struct
p564
(dp565
g3
(lp566
I540
aI298
aI177
aI998
aI2601
aF165.0
aI683
aI327
aI205
aI1185
aI2474
aF144.0
asg5
I1
sg6
(lp567
I-1
aI-1
aI-1
aI-1
aI-1
aI-1
asg8
(lp568
I35
aI40
aI-1
aF-1.0
aF-1.0
aF-1.0
aI29
aI41
aI-1
aF-1.0
aF-1.0
aF-1.0
asg10
(lp569
F0.006999999999999999
aF-0.006
aF0.011000000000000001
asba(i__main__
sensor_data_struct
p570
(dp571
g3
(lp572
I559
aI303
aI180
aI1024
aI2575
aF165.0
aI778
aI337
aI223
aI1293
aI2403
aF116.0
asg5
I0
sg6
(lp573
I-1
aI-1
aI-1
aI-1
aI-1
aI-1
asg8
(lp574
I14
aI29
aI-1
aF-1.0
aF-1.0
aF-1.0
aI25
aI25
aI-1
aF-1.0
aF-1.0
aF-1.0
asg10
(lp575
F0.0
aF-0.004
aF0.006
asba(i__main__
sensor_data_struct
p576
(dp577
g3
(lp578
I557
aI299
aI179
aI1015
aI2568
aF160.0
aI824
aI347
aI228
aI1353
aI2366
aF113.0
asg5
I0
sg6
(lp579
I-1
aI-1
aI-1
aI-1
aI-1
aI-1
asg8
(lp580
I13
aI36
aI-1
aF-1.0
aF-1.0
aF-1.0
aI23
aI25
aI-1
aF-1.0
aF-1.0
aF-1.0
asg10
(lp581
F0.001
aF-0.006999999999999999
aF0.004
asba(i__main__
sensor_data_struct
p582
(dp583
g3
(lp584
I637
aI314
aI196
aI1118
aI2504
aF145.0
aI1082
aI410
aI275
aI1701
aI2269
aF94.0
asg5
I0
sg6
(lp585
I-1
aI-1
aI-1
aI-1
aI-1
aI-1
asg8
(lp586
I15
aI34
aI-1
aF-1.0
aF-1.0
aF-1.0
aI22
aI27
aI-1
aF-1.0
aF-1.0
aF-1.0
asg10
(lp587
F0.005
aF-0.004
aF0.004
asba(i__main__
sensor_data_struct
p588
(dp589
g3
(lp590
I606
aI308
aI189
aI1081
aI2530
aF151.0
aI1028
aI406
aI267
aI1646
aI2304
aF111.0
asg5
I0
sg6
(lp591
I-1
aI-1
aI-1
aI-1
aI-1
aI-1
asg8
(lp592
I36
aI32
aI-1
aF-1.0
aF-1.0
aF-1.0
aI24
aI26
aI-1
aF-1.0
aF-1.0
aF-1.0
asg10
(lp593
F0.006
aF0.001
aF0.011000000000000001
asba(i__main__
sensor_data_struct
p594
(dp595
g3
(lp596
I567
aI304
aI182
aI1033
aI2567
aF162.0
aI1000
aI371
aI267
aI1572
aI2312
aF65.0
asg5
I0
sg6
(lp597
I-1
aI-1
aI-1
aI-1
aI-1
aI-1
asg8
(lp598
I28
aI28
aI-1
aF-1.0
aF-1.0
aF-1.0
aI23
aI27
aI-1
aF-1.0
aF-1.0
aF-1.0
asg10
(lp599
F-0.003
aF0.004
aF0.008
asba(i__main__
sensor_data_struct
p600
(dp601
g3
(lp602
I574
aI306
aI183
aI1044
aI2564
aF162.0
aI1186
aI423
aI299
aI1847
aI2277
aF63.0
asg5
I1
sg6
(lp603
I-1
aI-1
aI-1
aI-1
aI-1
aI-1
asg8
(lp604
I42
aI48
aI-1
aF-1.0
aF-1.0
aF-1.0
aI35
aI39
aI-1
aF-1.0
aF-1.0
aF-1.0
asg10
(lp605
F0.0
aF0.01
aF0.013000000000000001
asba.