(lp0
(i__main__
sensor_data_struct
p1
(dp2
S'color'
p3
(lp4
I738
aI331
aI231
aI1230
aI2453
aF113.0
aI736
aI337
aI231
aI1239
aI2467
aF123.0
asS'button'
p5
I0
sS'IR'
p6
(lp7
I-1
aI-1
aI-1
aI-1
aI-1
aI-1
asS'TOF'
p8
(lp9
I32
aI30
aI-1
aF-1.0
aF-1.0
aF-1.0
aI23
aI22
aI-1
aF-1.0
aF-1.0
aF-1.0
asS'pt'
p10
(lp11
F-0.006999999999999999
aF0.004
aF0.01
asba(i__main__
sensor_data_struct
p12
(dp13
g3
(lp14
I571
aI313
aI194
aI1031
aI2579
aF166.0
aI634
aI320
aI209
aI1103
aI2520
aF146.0
asg5
I0
sg6
(lp15
I-1
aI-1
aI-1
aI-1
aI-1
aI-1
asg8
(lp16
I28
aI36
aI-1
aF-1.0
aF-1.0
aF-1.0
aI23
aI23
aI-1
aF-1.0
aF-1.0
aF-1.0
asg10
(lp17
F-0.002
aF-0.008
aF0.011000000000000001
asba(i__main__
sensor_data_struct
p18
(dp19
g3
(lp20
I569
aI312
aI193
aI1027
aI2577
aF166.0
aI914
aI372
aI264
aI1486
aI2393
aF97.0
asg5
I1
sg6
(lp21
I-1
aI-1
aI-1
aI-1
aI-1
aI-1
asg8
(lp22
I53
aI48
aI-1
aF-1.0
aF-1.0
aF-1.0
aI35
aI35
aI-1
aF-1.0
aF-1.0
aF-1.0
asg10
(lp23
F0.009000000000000001
aF0.01
aF0.015
asba(i__main__
sensor_data_struct
p24
(dp25
g3
(lp26
I548
aI308
aI189
aI1004
aI2610
aF169.0
aI614
aI318
aI203
aI1085
aI2542
aF154.0
asg5
I1
sg6
(lp27
I-1
aI-1
aI-1
aI-1
aI-1
aI-1
asg8
(lp28
I51
aI45
aI-1
aF-1.0
aF-1.0
aF-1.0
aI30
aI36
aI-1
aF-1.0
aF-1.0
aF-1.0
asg10
(lp29
F0.005
aF-0.01
aF0.012
asba(i__main__
sensor_data_struct
p30
(dp31
g3
(lp32
I570
aI313
aI191
aI1033
aI2575
aF169.0
aI870
aI367
aI248
aI1415
aI2362
aF115.0
asg5
I0
sg6
(lp33
I-1
aI-1
aI-1
aI-1
aI-1
aI-1
asg8
(lp34
I31
aI33
aI-1
aF-1.0
aF-1.0
aF-1.0
aI24
aI23
aI-1
aF-1.0
aF-1.0
aF-1.0
asg10
(lp35
F0.008
aF-0.003
aF0.01
asba(i__main__
sensor_data_struct
p36
(dp37
g3
(lp38
I571
aI311
aI193
aI1032
aI2582
aF164.0
aI844
aI358
aI245
aI1374
aI2376
aF111.0
asg5
I0
sg6
(lp39
I-1
aI-1
aI-1
aI-1
aI-1
aI-1
asg8
(lp40
I19
aI23
aI-1
aF-1.0
aF-1.0
aF-1.0
aI23
aI23
aI-1
aF-1.0
aF-1.0
aF-1.0
asg10
(lp41
F-0.001
aF-0.005
aF0.005
asba(i__main__
sensor_data_struct
p42
(dp43
g3
(lp44
I587
aI313
aI196
aI1050
aI2559
aF160.0
aI1041
aI413
aI281
aI1654
aI2308
aF108.0
asg5
I0
sg6
(lp45
I-1
aI-1
aI-1
aI-1
aI-1
aI-1
asg8
(lp46
I31
aI30
aI-1
aF-1.0
aF-1.0
aF-1.0
aI22
aI22
aI-1
aF-1.0
aF-1.0
aF-1.0
asg10
(lp47
F0.003
aF0.003
aF0.012
asba(i__main__
sensor_data_struct
p48
(dp49
g3
(lp50
I571
aI313
aI194
aI1032
aI2579
aF166.0
aI812
aI371
aI237
aI1358
aI2395
aF148.0
asg5
I1
sg6
(lp51
I-1
aI-1
aI-1
aI-1
aI-1
aI-1
asg8
(lp52
I33
aI32
aI-1
aF-1.0
aF-1.0
aF-1.0
aI25
aI25
aI-1
aF-1.0
aF-1.0
aF-1.0
asg10
(lp53
F0.002
aF-0.005
aF0.013999999999999999
asba(i__main__
sensor_data_struct
p54
(dp55
g3
(lp56
I591
aI315
aI198
aI1056
aI2560
aF160.0
aI974
aI394
aI266
aI1554
aI2312
aF110.0
asg5
I0
sg6
(lp57
I-1
aI-1
aI-1
aI-1
aI-1
aI-1
asg8
(lp58
I22
aI20
aI-1
aF-1.0
aF-1.0
aF-1.0
aI24
aI23
aI-1
aF-1.0
aF-1.0
aF-1.0
asg10
(lp59
F-0.003
aF-0.004
aF0.006
asba(i__main__
sensor_data_struct
p60
(dp61
g3
(lp62
I572
aI313
aI194
aI1033
aI2577
aF166.0
aI895
aI390
aI252
aI1470
aI2358
aF140.0
asg5
I0
sg6
(lp63
I-1
aI-1
aI-1
aI-1
aI-1
aI-1
asg8
(lp64
I31
aI28
aI-1
aF-1.0
aF-1.0
aF-1.0
aI24
aI24
aI-1
aF-1.0
aF-1.0
aF-1.0
asg10
(lp65
F-0.006999999999999999
aF0.001
aF0.012
asba(i__main__
sensor_data_struct
p66
(dp67
g3
(lp68
I575
aI314
aI193
aI1039
aI2573
aF167.0
aI730
aI334
aI223
aI1229
aI2445
aF126.0
asg5
I1
sg6
(lp69
I-1
aI-1
aI-1
aI-1
aI-1
aI-1
asg8
(lp70
I49
aI34
aI-1
aF-1.0
aF-1.0
aF-1.0
aI26
aI28
aI-1
aF-1.0
aF-1.0
aF-1.0
asg10
(lp71
F0.008
aF0.002
aF0.015
asba(i__main__
sensor_data_struct
p72
(dp73
g3
(lp74
I575
aI313
aI193
aI1040
aI2578
aF166.0
aI870
aI373
aI249
aI1424
aI2370
aF124.0
asg5
I0
sg6
(lp75
I-1
aI-1
aI-1
aI-1
aI-1
aI-1
asg8
(lp76
I24
aI26
aI-1
aF-1.0
aF-1.0
aF-1.0
aI23
aI23
aI-1
aF-1.0
aF-1.0
aF-1.0
asg10
(lp77
F0.004
aF-0.002
aF0.012
asba(i__main__
sensor_data_struct
p78
(dp79
g3
(lp80
I567
aI311
aI192
aI1028
aI2584
aF166.0
aI868
aI384
aI244
aI1435
aI2363
aF145.0
asg5
I0
sg6
(lp81
I-1
aI-1
aI-1
aI-1
aI-1
aI-1
asg8
(lp82
I37
aI31
aI-1
aF-1.0
aF-1.0
aF-1.0
aI25
aI21
aI-1
aF-1.0
aF-1.0
aF-1.0
asg10
(lp83
F-0.006
aF-0.005
aF0.012
asba(i__main__
sensor_data_struct
p84
(dp85
g3
(lp86
I573
aI311
aI193
aI1034
aI2578
aF163.0
aI913
aI382
aI255
aI1477
aI2342
aF119.0
asg5
I0
sg6
(lp87
I-1
aI-1
aI-1
aI-1
aI-1
aI-1
asg8
(lp88
I16
aI25
aI-1
aF-1.0
aF-1.0
aF-1.0
aI23
aI24
aI-1
aF-1.0
aF-1.0
aF-1.0
asg10
(lp89
F-0.001
aF-0.006
aF0.006999999999999999
asba(i__main__
sensor_data_struct
p90
(dp91
g3
(lp92
I565
aI309
aI192
aI1023
aI2588
aF163.0
aI1002
aI397
aI274
aI1589
aI2311
aF100.0
asg5
I0
sg6
(lp93
I-1
aI-1
aI-1
aI-1
aI-1
aI-1
asg8
(lp94
I25
aI31
aI-1
aF-1.0
aF-1.0
aF-1.0
aI23
aI24
aI-1
aF-1.0
aF-1.0
aF-1.0
asg10
(lp95
F0.006
aF-0.002
aF0.008
asba(i__main__
sensor_data_struct
p96
(dp97
g3
(lp98
I631
aI320
aI204
aI1107
aI2520
aF150.0
aI1135
aI423
aI294
aI1763
aI2264
aF83.0
asg5
I0
sg6
(lp99
I-1
aI-1
aI-1
aI-1
aI-1
aI-1
asg8
(lp100
I29
aI24
aI-1
aF-1.0
aF-1.0
aF-1.0
aI24
aI22
aI-1
aF-1.0
aF-1.0
aF-1.0
asg10
(lp101
F-0.001
aF0.003
aF0.008
asba(i__main__
sensor_data_struct
p102
(dp103
g3
(lp104
I547
aI307
aI187
aI1003
aI2603
aF170.0
aI858
aI362
aI244
aI1402
aI2372
aF114.0
asg5
I1
sg6
(lp105
I-1
aI-1
aI-1
aI-1
aI-1
aI-1
asg8
(lp106
I49
aI36
aI-1
aF-1.0
aF-1.0
aF-1.0
aI25
aI26
aI-1
aF-1.0
aF-1.0
aF-1.0
asg10
(lp107
F0.011000000000000001
aF0.003
aF0.013999999999999999
asba(i__main__
sensor_data_struct
p108
(dp109
g3
(lp110
I733
aI353
aI219
aI1259
aI2442
aF158.0
aI820
aI346
aI239
aI1340
aI2391
aF104.0
asg5
I1
sg6
(lp111
I-1
aI-1
aI-1
aI-1
aI-1
aI-1
asg8
(lp112
I50
aI31
aI-1
aF-1.0
aF-1.0
aF-1.0
aI22
aI24
aI-1
aF-1.0
aF-1.0
aF-1.0
asg10
(lp113
F0.011000000000000001
aF0.001
aF0.012
asba(i__main__
sensor_data_struct
p114
(dp115
g3
(lp116
I710
aI329
aI218
aI1202
aI2456
aF129.0
aI1300
aI442
aI323
aI1956
aI2213
aF39.0
asg5
I0
sg6
(lp117
I-1
aI-1
aI-1
aI-1
aI-1
aI-1
asg8
(lp118
I29
aI26
aI-1
aF-1.0
aF-1.0
aF-1.0
aI25
aI22
aI-1
aF-1.0
aF-1.0
aF-1.0
asg10
(lp119
F0.0
aF0.004
aF0.004
asba(i__main__
sensor_data_struct
p120
(dp121
g3
(lp122
I649
aI320
aI206
aI1127
aI2500
aF143.0
aI1318
aI444
aI332
aI1980
aI2221
aF29.0
asg5
I0
sg6
(lp123
I-1
aI-1
aI-1
aI-1
aI-1
aI-1
asg8
(lp124
I31
aI31
aI-1
aF-1.0
aF-1.0
aF-1.0
aI23
aI22
aI-1
aF-1.0
aF-1.0
aF-1.0
asg10
(lp125
F0.005
aF0.002
aF0.005
asba(i__main__
sensor_data_struct
p126
(dp127
g3
(lp128
I565
aI308
aI190
aI1023
aI2579
aF163.0
aI811
aI349
aI237
aI1331
aI2390
aF114.0
asg5
I0
sg6
(lp129
I-1
aI-1
aI-1
aI-1
aI-1
aI-1
asg8
(lp130
I30
aI11
aI-1
aF-1.0
aF-1.0
aF-1.0
aI24
aI23
aI-1
aF-1.0
aF-1.0
aF-1.0
asg10
(lp131
F-0.006
aF-0.001
aF0.002
asba(i__main__
sensor_data_struct
p132
(dp133
g3
(lp134
I668
aI322
aI210
aI1148
aI2482
aF137.0
aI1073
aI404
aI281
aI1673
aI2274
aF83.0
asg5
I0
sg6
(lp135
I-1
aI-1
aI-1
aI-1
aI-1
aI-1
asg8
(lp136
I21
aI21
aI-1
aF-1.0
aF-1.0
aF-1.0
aI24
aI23
aI-1
aF-1.0
aF-1.0
aF-1.0
asg10
(lp137
F-0.002
aF-0.002
aF0.0
asba(i__main__
sensor_data_struct
p138
(dp139
g3
(lp140
I594
aI311
aI196
aI1057
aI2549
aF154.0
aI985
aI400
aI264
aI1577
aI2306
aF118.0
asg5
I0
sg6
(lp141
I-1
aI-1
aI-1
aI-1
aI-1
aI-1
asg8
(lp142
I24
aI17
aI-1
aF-1.0
aF-1.0
aF-1.0
aI26
aI22
aI-1
aF-1.0
aF-1.0
aF-1.0
asg10
(lp143
F-0.004
aF-0.002
aF0.009000000000000001
asba(i__main__
sensor_data_struct
p144
(dp145
g3
(lp146
I628
aI323
aI200
aI1107
aI2510
aF159.0
aI598
aI313
aI198
aI1063
aI2550
aF154.0
asg5
I1
sg6
(lp147
I-1
aI-1
aI-1
aI-1
aI-1
aI-1
asg8
(lp148
I49
aI43
aI-1
aF-1.0
aF-1.0
aF-1.0
aI26
aI28
aI-1
aF-1.0
aF-1.0
aF-1.0
asg10
(lp149
F-0.001
aF-0.009000000000000001
aF0.015
asba(i__main__
sensor_data_struct
p150
(dp151
g3
(lp152
I612
aI316
aI198
aI1084
aI2532
aF155.0
aI3988
aI859
aI858
aI5324
aI2061
aF64970.0
asg5
I1
sg6
(lp153
I-1
aI-1
aI-1
aI-1
aI-1
aI-1
asg8
(lp154
I46
aI45
aI-1
aF-1.0
aF-1.0
aF-1.0
aI34
aI35
aI-1
aF-1.0
aF-1.0
aF-1.0
asg10
(lp155
F0.004
aF0.008
aF0.006999999999999999
asba(i__main__
sensor_data_struct
p156
(dp157
g3
(lp158
I582
aI313
aI193
aI1046
aI2559
aF163.0
aI1100
aI415
aI291
aI1720
aI2284
aF84.0
asg5
I0
sg6
(lp159
I-1
aI-1
aI-1
aI-1
aI-1
aI-1
asg8
(lp160
I30
aI37
aI-1
aF-1.0
aF-1.0
aF-1.0
aI24
aI24
aI-1
aF-1.0
aF-1.0
aF-1.0
asg10
(lp161
F-0.003
aF0.008
aF0.01
asba(i__main__
sensor_data_struct
p162
(dp163
g3
(lp164
I564
aI310
aI191
aI1025
aI2588
aF166.0
aI1115
aI391
aI301
aI1697
aI2275
aF34.0
asg5
I0
sg6
(lp165
I-1
aI-1
aI-1
aI-1
aI-1
aI-1
asg8
(lp166
I23
aI27
aI-1
aF-1.0
aF-1.0
aF-1.0
aI24
aI24
aI-1
aF-1.0
aF-1.0
aF-1.0
asg10
(lp167
F0.002
aF0.001
aF0.004
asba(i__main__
sensor_data_struct
p168
(dp169
g3
(lp170
I594
aI317
aI200
aI1060
aI2562
aF161.0
aI1013
aI399
aI274
aI1598
aI2295
aF100.0
asg5
I0
sg6
(lp171
I-1
aI-1
aI-1
aI-1
aI-1
aI-1
asg8
(lp172
I24
aI16
aI-1
aF-1.0
aF-1.0
aF-1.0
aI24
aI24
aI-1
aF-1.0
aF-1.0
aF-1.0
asg10
(lp173
F-0.006
aF-0.004
aF0.004
asba(i__main__
sensor_data_struct
p174
(dp175
g3
(lp176
I592
aI318
aI196
aI1060
aI2549
aF166.0
aI603
aI322
aI201
aI1080
aI2560
aF165.0
asg5
I1
sg6
(lp177
I-1
aI-1
aI-1
aI-1
aI-1
aI-1
asg8
(lp178
I46
aI44
aI-1
aF-1.0
aF-1.0
aF-1.0
aI34
aI35
aI-1
aF-1.0
aF-1.0
aF-1.0
asg10
(lp179
F-0.012
aF0.003
aF0.015
asba(i__main__
sensor_data_struct
p180
(dp181
g3
(lp182
I592
aI315
aI196
aI1058
aI2554
aF161.0
aI971
aI390
aI266
aI1547
aI2315
aF105.0
asg5
I0
sg6
(lp183
I-1
aI-1
aI-1
aI-1
aI-1
aI-1
asg8
(lp184
I13
aI29
aI-1
aF-1.0
aF-1.0
aF-1.0
aI25
aI24
aI-1
aF-1.0
aF-1.0
aF-1.0
asg10
(lp185
F0.003
aF-0.005
aF0.004
asba(i__main__
sensor_data_struct
p186
(dp187
g3
(lp188
I578
aI314
aI193
aI1041
aI2562
aF166.0
aI948
aI368
aI266
aI1491
aI2323
aF78.0
asg5
I0
sg6
(lp189
I-1
aI-1
aI-1
aI-1
aI-1
aI-1
asg8
(lp190
I23
aI21
aI-1
aF-1.0
aF-1.0
aF-1.0
aI25
aI24
aI-1
aF-1.0
aF-1.0
aF-1.0
asg10
(lp191
F0.0
aF0.0
aF0.008
asba(i__main__
sensor_data_struct
p192
(dp193
g3
(lp194
I705
aI341
aI197
aI1210
aI2391
aF165.0
aI966
aI371
aI268
aI1528
aI2335
aF75.0
asg5
I1
sg6
(lp195
I-1
aI-1
aI-1
aI-1
aI-1
aI-1
asg8
(lp196
I49
aI41
aI-1
aF-1.0
aF-1.0
aF-1.0
aI33
aI36
aI-1
aF-1.0
aF-1.0
aF-1.0
asg10
(lp197
F0.009000000000000001
aF0.005
aF0.013999999999999999
asba(i__main__
sensor_data_struct
p198
(dp199
g3
(lp200
I693
aI333
aI214
aI1190
aI2468
aF143.0
aI2630
aI670
aI591
aI3670
aI2118
aF65308.0
asg5
I1
sg6
(lp201
I-1
aI-1
aI-1
aI-1
aI-1
aI-1
asg8
(lp202
I47
aI43
aI-1
aF-1.0
aF-1.0
aF-1.0
aI34
aI37
aI-1
aF-1.0
aF-1.0
aF-1.0
asg10
(lp203
F0.001
aF0.009000000000000001
aF0.009000000000000001
asba(i__main__
sensor_data_struct
p204
(dp205
g3
(lp206
I741
aI348
aI223
aI1258
aI2436
aF145.0
aI842
aI360
aI246
aI1379
aI2390
aF114.0
asg5
I1
sg6
(lp207
I-1
aI-1
aI-1
aI-1
aI-1
aI-1
asg8
(lp208
I34
aI44
aI-1
aF-1.0
aF-1.0
aF-1.0
aI23
aI27
aI-1
aF-1.0
aF-1.0
aF-1.0
asg10
(lp209
F-0.004
aF0.01
aF0.013999999999999999
asba(i__main__
sensor_data_struct
p210
(dp211
g3
(lp212
I602
aI319
aI200
aI1074
aI2555
aF161.0
aI1014
aI416
aI273
aI1628
aI2311
aF127.0
asg5
I0
sg6
(lp213
I-1
aI-1
aI-1
aI-1
aI-1
aI-1
asg8
(lp214
I27
aI27
aI-1
aF-1.0
aF-1.0
aF-1.0
aI22
aI24
aI-1
aF-1.0
aF-1.0
aF-1.0
asg10
(lp215
F0.003
aF0.002
aF0.012
asba(i__main__
sensor_data_struct
p216
(dp217
g3
(lp218
I602
aI320
aI199
aI1076
aI2553
aF163.0
aI1367
aI483
aI345
aI2103
aI2253
aF66.0
asg5
I1
sg6
(lp219
I-1
aI-1
aI-1
aI-1
aI-1
aI-1
asg8
(lp220
I44
aI44
aI-1
aF-1.0
aF-1.0
aF-1.0
aI33
aI37
aI-1
aF-1.0
aF-1.0
aF-1.0
asg10
(lp221
F0.0
aF0.01
aF0.013000000000000001
asba(i__main__
sensor_data_struct
p222
(dp223
g3
(lp224
I705
aI346
aI215
aI1223
aI2471
aF159.0
aI827
aI348
aI241
aI1346
aI2381
aF104.0
asg5
I0
sg6
(lp225
I-1
aI-1
aI-1
aI-1
aI-1
aI-1
asg8
(lp226
I22
aI21
aI-1
aF-1.0
aF-1.0
aF-1.0
aI23
aI22
aI-1
aF-1.0
aF-1.0
aF-1.0
asg10
(lp227
F0.0
aF0.001
aF0.011000000000000001
asba(i__main__
sensor_data_struct
p228
(dp229
g3
(lp230
I614
aI321
aI198
aI1093
aI2532
aF162.0
aI705
aI333
aI217
aI1202
aI2462
aF137.0
asg5
I1
sg6
(lp231
I-1
aI-1
aI-1
aI-1
aI-1
aI-1
asg8
(lp232
I35
aI12
aI-1
aF-1.0
aF-1.0
aF-1.0
aI35
aI13
aI-1
aF-1.0
aF-1.0
aF-1.0
asg10
(lp233
F-0.009000000000000001
aF0.0
aF0.008
asba(i__main__
sensor_data_struct
p234
(dp235
g3
(lp236
I558
aI310
aI189
aI1019
aI2592
aF169.0
aI799
aI370
aI230
aI1347
aI2396
aF156.0
asg5
I1
sg6
(lp237
I-1
aI-1
aI-1
aI-1
aI-1
aI-1
asg8
(lp238
I49
aI44
aI-1
aF-1.0
aF-1.0
aF-1.0
aI26
aI25
aI-1
aF-1.0
aF-1.0
aF-1.0
asg10
(lp239
F-0.006999999999999999
aF-0.01
aF0.013999999999999999
asba(i__main__
sensor_data_struct
p240
(dp241
g3
(lp242
I582
aI313
aI192
aI1048
aI2561
aF164.0
aI1029
aI397
aI275
aI1621
aI2296
aF91.0
asg5
I0
sg6
(lp243
I-1
aI-1
aI-1
aI-1
aI-1
aI-1
asg8
(lp244
I31
aI25
aI-1
aF-1.0
aF-1.0
aF-1.0
aI24
aI23
aI-1
aF-1.0
aF-1.0
aF-1.0
asg10
(lp245
F-0.004
aF0.003
aF0.008
asba(i__main__
sensor_data_struct
p246
(dp247
g3
(lp248
I585
aI314
aI192
aI1052
aI2555
aF165.0
aI1305
aI421
aI333
aI1934
aI2221
aF65534.0
asg5
I0
sg6
(lp249
I-1
aI-1
aI-1
aI-1
aI-1
aI-1
asg8
(lp250
I28
aI26
aI-1
aF-1.0
aF-1.0
aF-1.0
aI25
aI23
aI-1
aF-1.0
aF-1.0
aF-1.0
asg10
(lp251
F0.0
aF0.003
aF0.005
asba(i__main__
sensor_data_struct
p252
(dp253
g3
(lp254
I551
aI306
aI187
aI1008
aI2599
aF167.0
aI778
aI377
aI230
aI1338
aI2435
aF174.0
asg5
I1
sg6
(lp255
I-1
aI-1
aI-1
aI-1
aI-1
aI-1
asg8
(lp256
I24
aI40
aI-1
aF-1.0
aF-1.0
aF-1.0
aI28
aI37
aI-1
aF-1.0
aF-1.0
aF-1.0
asg10
(lp257
F0.006
aF-0.008
aF0.011000000000000001
asba(i__main__
sensor_data_struct
p258
(dp259
g3
(lp260
I561
aI310
aI188
aI1022
aI2583
aF169.0
aI614
aI319
aI199
aI1088
aI2530
aF158.0
asg5
I1
sg6
(lp261
I-1
aI-1
aI-1
aI-1
aI-1
aI-1
asg8
(lp262
I54
aI44
aI-1
aF-1.0
aF-1.0
aF-1.0
aI33
aI34
aI-1
aF-1.0
aF-1.0
aF-1.0
asg10
(lp263
F-0.011000000000000001
aF-0.005
aF0.012
asba(i__main__
sensor_data_struct
p264
(dp265
g3
(lp266
I615
aI327
aI197
aI1101
aI2528
aF172.0
aI677
aI331
aI210
aI1168
aI2472
aF148.0
asg5
I1
sg6
(lp267
I-1
aI-1
aI-1
aI-1
aI-1
aI-1
asg8
(lp268
I42
aI31
aI-1
aF-1.0
aF-1.0
aF-1.0
aI24
aI22
aI-1
aF-1.0
aF-1.0
aF-1.0
asg10
(lp269
F-0.008
aF-0.006999999999999999
aF0.012
asba(i__main__
sensor_data_struct
p270
(dp271
g3
(lp272
I578
aI314
aI191
aI1044
aI2563
aF168.0
aI870
aI357
aI248
aI1403
aI2359
aF99.0
asg5
I0
sg6
(lp273
I-1
aI-1
aI-1
aI-1
aI-1
aI-1
asg8
(lp274
I31
aI16
aI-1
aF-1.0
aF-1.0
aF-1.0
aI24
aI22
aI-1
aF-1.0
aF-1.0
aF-1.0
asg10
(lp275
F-0.006
aF0.001
aF0.004
asba(i__main__
sensor_data_struct
p276
(dp277
g3
(lp278
I594
aI317
aI195
aI1065
aI2552
aF164.0
aI1317
aI433
aI337
aI1975
aI2240
aF9.0
asg5
I1
sg6
(lp279
I-1
aI-1
aI-1
aI-1
aI-1
aI-1
asg8
(lp280
I42
aI42
aI-1
aF-1.0
aF-1.0
aF-1.0
aI34
aI35
aI-1
aF-1.0
aF-1.0
aF-1.0
asg10
(lp281
F0.002
aF0.008
aF0.012
asba(i__main__
sensor_data_struct
p282
(dp283
g3
(lp284
I606
aI321
aI197
aI1083
aI2541
aF165.0
aI1088
aI399
aI287
aI1682
aI2272
aF66.0
asg5
I0
sg6
(lp285
I-1
aI-1
aI-1
aI-1
aI-1
aI-1
asg8
(lp286
I27
aI21
aI-1
aF-1.0
aF-1.0
aF-1.0
aI25
aI22
aI-1
aF-1.0
aF-1.0
aF-1.0
asg10
(lp287
F-0.002
aF0.003
aF0.006999999999999999
asba(i__main__
sensor_data_struct
p288
(dp289
g3
(lp290
I647
aI327
aI205
aI1133
aI2502
aF156.0
aI731
aI335
aI222
aI1229
aI2438
aF128.0
asg5
I0
sg6
(lp291
I-1
aI-1
aI-1
aI-1
aI-1
aI-1
asg8
(lp292
I23
aI27
aI-1
aF-1.0
aF-1.0
aF-1.0
aI22
aI23
aI-1
aF-1.0
aF-1.0
aF-1.0
asg10
(lp293
F0.003
aF-0.003
aF0.012
asba(i__main__
sensor_data_struct
p294
(dp295
g3
(lp296
I633
aI324
aI202
aI1115
aI2513
aF158.0
aI1676
aI498
aI412
aI2423
aI2181
aF65477.0
asg5
I0
sg6
(lp297
I-1
aI-1
aI-1
aI-1
aI-1
aI-1
asg8
(lp298
I26
aI27
aI-1
aF-1.0
aF-1.0
aF-1.0
aI24
aI23
aI-1
aF-1.0
aF-1.0
aF-1.0
asg10
(lp299
F0.002
aF0.003
aF0.001
asba(i__main__
sensor_data_struct
p300
(dp301
g3
(lp302
I564
aI311
aI190
aI1026
aI2586
aF168.0
aI802
aI371
aI232
aI1352
aI2402
aF155.0
asg5
I1
sg6
(lp303
I-1
aI-1
aI-1
aI-1
aI-1
aI-1
asg8
(lp304
I37
aI44
aI-1
aF-1.0
aF-1.0
aF-1.0
aI22
aI25
aI-1
aF-1.0
aF-1.0
aF-1.0
asg10
(lp305
F0.0
aF-0.01
aF0.013000000000000001
asba(i__main__
sensor_data_struct
p306
(dp307
g3
(lp308
I689
aI348
aI211
aI1204
aI2470
aF171.0
aI721
aI334
aI222
aI1217
aI2449
aF130.0
asg5
I0
sg6
(lp309
I-1
aI-1
aI-1
aI-1
aI-1
aI-1
asg8
(lp310
I19
aI26
aI-1
aF-1.0
aF-1.0
aF-1.0
aI22
aI22
aI-1
aF-1.0
aF-1.0
aF-1.0
asg10
(lp311
F0.0
aF-0.005
aF0.011000000000000001
asba(i__main__
sensor_data_struct
p312
(dp313
g3
(lp314
I587
aI316
aI194
aI1055
aI2555
aF166.0
aI902
aI392
aI250
aI1484
aI2352
aF142.0
asg5
I1
sg6
(lp315
I-1
aI-1
aI-1
aI-1
aI-1
aI-1
asg8
(lp316
I26
aI24
aI-1
aF-1.0
aF-1.0
aF-1.0
aI25
aI23
aI-1
aF-1.0
aF-1.0
aF-1.0
asg10
(lp317
F-0.005
aF-0.001
aF0.013000000000000001
asba(i__main__
sensor_data_struct
p318
(dp319
g3
(lp320
I573
aI314
aI191
aI1039
aI2573
aF169.0
aI846
aI361
aI242
aI1381
aI2366
aF118.0
asg5
I0
sg6
(lp321
I-1
aI-1
aI-1
aI-1
aI-1
aI-1
asg8
(lp322
I16
aI28
aI-1
aF-1.0
aF-1.0
aF-1.0
aI22
aI22
aI-1
aF-1.0
aF-1.0
aF-1.0
asg10
(lp323
F0.001
aF-0.006
aF0.006
asba(i__main__
sensor_data_struct
p324
(dp325
g3
(lp326
I591
aI314
aI195
aI1060
aI2558
aF161.0
aI1074
aI422
aI284
aI1707
aI2301
aF109.0
asg5
I1
sg6
(lp327
I-1
aI-1
aI-1
aI-1
aI-1
aI-1
asg8
(lp328
I50
aI34
aI-1
aF-1.0
aF-1.0
aF-1.0
aI24
aI24
aI-1
aF-1.0
aF-1.0
aF-1.0
asg10
(lp329
F0.011000000000000001
aF0.004
aF0.012
asba(i__main__
sensor_data_struct
p330
(dp331
g3
(lp332
I570
aI312
aI190
aI1034
aI2573
aF168.0
aI936
aI366
aI262
aI1483
aI2334
aF82.0
asg5
I0
sg6
(lp333
I-1
aI-1
aI-1
aI-1
aI-1
aI-1
asg8
(lp334
I19
aI29
aI-1
aF-1.0
aF-1.0
aF-1.0
aI23
aI23
aI-1
aF-1.0
aF-1.0
aF-1.0
asg10
(lp335
F0.005
aF-0.002
aF0.004
asba(i__main__
sensor_data_struct
p336
(dp337
g3
(lp338
I564
aI311
aI189
aI1027
aI2584
aF169.0
aI682
aI332
aI216
aI1180
aI2498
aF144.0
asg5
I1
sg6
(lp339
I-1
aI-1
aI-1
aI-1
aI-1
aI-1
asg8
(lp340
I31
aI43
aI-1
aF-1.0
aF-1.0
aF-1.0
aI26
aI28
aI-1
aF-1.0
aF-1.0
aF-1.0
asg10
(lp341
F-0.009000000000000001
aF0.009000000000000001
aF0.015
asba(i__main__
sensor_data_struct
p342
(dp343
g3
(lp344
I711
aI358
aI219
aI1243
aI2480
aF173.0
aI1261
aI425
aI325
aI1911
aI2256
aF23.0
asg5
I1
sg6
(lp345
I-1
aI-1
aI-1
aI-1
aI-1
aI-1
asg8
(lp346
I44
aI47
aI-1
aF-1.0
aF-1.0
aF-1.0
aI36
aI36
aI-1
aF-1.0
aF-1.0
aF-1.0
asg10
(lp347
F-0.001
aF0.011000000000000001
aF0.012
asba(i__main__
sensor_data_struct
p348
(dp349
g3
(lp350
I591
aI321
aI197
aI1067
aI2567
aF170.0
aI776
aI342
aI233
aI1283
aI2412
aF117.0
asg5
I0
sg6
(lp351
I-1
aI-1
aI-1
aI-1
aI-1
aI-1
asg8
(lp352
I19
aI27
aI-1
aF-1.0
aF-1.0
aF-1.0
aI22
aI20
aI-1
aF-1.0
aF-1.0
aF-1.0
asg10
(lp353
F0.003
aF-0.002
aF0.011000000000000001
asba(i__main__
sensor_data_struct
p354
(dp355
g3
(lp356
I602
aI322
aI199
aI1078
aI2553
aF167.0
aI795
aI368
aI235
aI1337
aI2411
aF150.0
asg5
I1
sg6
(lp357
I-1
aI-1
aI-1
aI-1
aI-1
aI-1
asg8
(lp358
I35
aI35
aI-1
aF-1.0
aF-1.0
aF-1.0
aI23
aI26
aI-1
aF-1.0
aF-1.0
aF-1.0
asg10
(lp359
F0.004
aF-0.005
aF0.013999999999999999
asba(i__main__
sensor_data_struct
p360
(dp361
g3
(lp362
I633
aI324
aI203
aI1117
aI2524
aF157.0
aI1256
aI445
aI322
aI1924
aI2252
aF58.0
asg5
I1
sg6
(lp363
I-1
aI-1
aI-1
aI-1
aI-1
aI-1
asg8
(lp364
I38
aI45
aI-1
aF-1.0
aF-1.0
aF-1.0
aI31
aI39
aI-1
aF-1.0
aF-1.0
aF-1.0
asg10
(lp365
F-0.002
aF0.01
aF0.012
asba(i__main__
sensor_data_struct
p366
(dp367
g3
(lp368
I645
aI322
aI205
aI1126
aI2505
aF148.0
aI1210
aI421
aI308
aI1837
aI2235
aF46.0
asg5
I0
sg6
(lp369
I-1
aI-1
aI-1
aI-1
aI-1
aI-1
asg8
(lp370
I25
aI22
aI-1
aF-1.0
aF-1.0
aF-1.0
aI25
aI22
aI-1
aF-1.0
aF-1.0
aF-1.0
asg10
(lp371
F-0.001
aF0.003
aF0.003
asba(i__main__
sensor_data_struct
p372
(dp373
g3
(lp374
I588
aI314
aI193
aI1058
aI2560
aF163.0
aI748
aI334
aI224
aI1247
aI2424
aF120.0
asg5
I0
sg6
(lp375
I-1
aI-1
aI-1
aI-1
aI-1
aI-1
asg8
(lp376
I25
aI15
aI-1
aF-1.0
aF-1.0
aF-1.0
aI24
aI23
aI-1
aF-1.0
aF-1.0
aF-1.0
asg10
(lp377
F-0.006
aF-0.003
aF0.004
asba(i__main__
sensor_data_struct
p378
(dp379
g3
(lp380
I562
aI310
aI188
aI1025
aI2586
aF169.0
aI823
aI350
aI240
aI1347
aI2389
aF109.0
asg5
I0
sg6
(lp381
I-1
aI-1
aI-1
aI-1
aI-1
aI-1
asg8
(lp382
I20
aI30
aI-1
aF-1.0
aF-1.0
aF-1.0
aI24
aI24
aI-1
aF-1.0
aF-1.0
aF-1.0
asg10
(lp383
F0.005
aF-0.003
aF0.008
asba(i__main__
sensor_data_struct
p384
(dp385
g3
(lp386
I566
aI311
aI189
aI1031
aI2584
aF168.0
aI926
aI387
aI256
aI1504
aI2345
aF122.0
asg5
I0
sg6
(lp387
I-1
aI-1
aI-1
aI-1
aI-1
aI-1
asg8
(lp388
I34
aI32
aI-1
aF-1.0
aF-1.0
aF-1.0
aI22
aI23
aI-1
aF-1.0
aF-1.0
aF-1.0
asg10
(lp389
F0.009000000000000001
aF-0.003
aF0.01
asba(i__main__
sensor_data_struct
p390
(dp391
g3
(lp392
I560
aI308
aI188
aI1021
aI2590
aF166.0
aI876
aI368
aI248
aI1429
aI2369
aF114.0
asg5
I0
sg6
(lp393
I-1
aI-1
aI-1
aI-1
aI-1
aI-1
asg8
(lp394
I31
aI29
aI-1
aF-1.0
aF-1.0
aF-1.0
aI23
aI23
aI-1
aF-1.0
aF-1.0
aF-1.0
asg10
(lp395
F-0.006
aF0.006
aF0.011000000000000001
asba(i__main__
sensor_data_struct
p396
(dp397
g3
(lp398
I545
aI307
aI186
aI1005
aI2615
aF171.0
aI981
aI407
aI269
aI1603
aI2357
aF127.0
asg5
I1
sg6
(lp399
I-1
aI-1
aI-1
aI-1
aI-1
aI-1
asg8
(lp400
I49
aI44
aI-1
aF-1.0
aF-1.0
aF-1.0
aI31
aI36
aI-1
aF-1.0
aF-1.0
aF-1.0
asg10
(lp401
F0.011000000000000001
aF0.006999999999999999
aF0.015
asba(i__main__
sensor_data_struct
p402
(dp403
g3
(lp404
I597
aI316
aI195
aI1069
aI2551
aF162.0
aI979
aI397
aI264
aI1570
aI2315
aF115.0
asg5
I0
sg6
(lp405
I-1
aI-1
aI-1
aI-1
aI-1
aI-1
asg8
(lp406
I22
aI21
aI-1
aF-1.0
aF-1.0
aF-1.0
aI24
aI21
aI-1
aF-1.0
aF-1.0
aF-1.0
asg10
(lp407
F-0.002
aF0.001
aF0.01
asba(i__main__
sensor_data_struct
p408
(dp409
g3
(lp410
I562
aI310
aI189
aI1026
aI2593
aF168.0
aI661
aI325
aI208
aI1148
aI2495
aF146.0
asg5
I1
sg6
(lp411
I-1
aI-1
aI-1
aI-1
aI-1
aI-1
asg8
(lp412
I48
aI35
aI-1
aF-1.0
aF-1.0
aF-1.0
aI22
aI24
aI-1
aF-1.0
aF-1.0
aF-1.0
asg10
(lp413
F0.009000000000000001
aF-0.004
aF0.013000000000000001
asba(i__main__
sensor_data_struct
p414
(dp415
g3
(lp416
I573
aI312
aI190
aI1039
aI2571
aF167.0
aI891
aI389
aI248
aI1471
aI2362
aF143.0
asg5
I1
sg6
(lp417
I-1
aI-1
aI-1
aI-1
aI-1
aI-1
asg8
(lp418
I43
aI31
aI-1
aF-1.0
aF-1.0
aF-1.0
aI22
aI26
aI-1
aF-1.0
aF-1.0
aF-1.0
asg10
(lp419
F0.006
aF-0.002
aF0.013999999999999999
asba(i__main__
sensor_data_struct
p420
(dp421
g3
(lp422
I594
aI318
aI193
aI1070
aI2553
aF167.0
aI917
aI368
aI255
aI1472
aI2344
aF96.0
asg5
I1
sg6
(lp423
I-1
aI-1
aI-1
aI-1
aI-1
aI-1
asg8
(lp424
I41
aI42
aI-1
aF-1.0
aF-1.0
aF-1.0
aI33
aI41
aI-1
aF-1.0
aF-1.0
aF-1.0
asg10
(lp425
F0.002
aF0.006999999999999999
aF0.015
asba(i__main__
sensor_data_struct
p426
(dp427
g3
(lp428
I579
aI312
aI191
aI1047
aI2570
aF164.0
aI2342
aI601
aI545
aI3255
aI2125
aF65326.0
asg5
I0
sg6
(lp429
I-1
aI-1
aI-1
aI-1
aI-1
aI-1
asg8
(lp430
I39
aI34
aI-1
aF-1.0
aF-1.0
aF-1.0
aI25
aI23
aI-1
aF-1.0
aF-1.0
aF-1.0
asg10
(lp431
F0.005
aF0.005
aF0.004
asba(i__main__
sensor_data_struct
p432
(dp433
g3
(lp434
I556
aI308
aI188
aI1018
aI2599
aF168.0
aI763
aI367
aI226
aI1311
aI2439
aF166.0
asg5
I1
sg6
(lp435
I-1
aI-1
aI-1
aI-1
aI-1
aI-1
asg8
(lp436
I52
aI37
aI-1
aF-1.0
aF-1.0
aF-1.0
aI23
aI26
aI-1
aF-1.0
aF-1.0
aF-1.0
asg10
(lp437
F0.006
aF-0.006
aF0.013999999999999999
asba(i__main__
sensor_data_struct
p438
(dp439
g3
(lp440
I589
aI318
aI192
aI1064
aI2556
aF170.0
aI614
aI318
aI198
aI1090
aI2532
aF157.0
asg5
I1
sg6
(lp441
I-1
aI-1
aI-1
aI-1
aI-1
aI-1
asg8
(lp442
I50
aI45
aI-1
aF-1.0
aF-1.0
aF-1.0
aI27
aI28
aI-1
aF-1.0
aF-1.0
aF-1.0
asg10
(lp443
F-0.003
aF-0.013000000000000001
aF0.015
asba(i__main__
sensor_data_struct
p444
(dp445
g3
(lp446
I634
aI319
aI200
aI1112
aI2507
aF151.0
aI1183
aI431
aI303
aI1827
aI2254
aF74.0
asg5
I0
sg6
(lp447
I-1
aI-1
aI-1
aI-1
aI-1
aI-1
asg8
(lp448
I37
aI30
aI-1
aF-1.0
aF-1.0
aF-1.0
aI23
aI24
aI-1
aF-1.0
aF-1.0
aF-1.0
asg10
(lp449
F0.006999999999999999
aF0.002
aF0.008
asba(i__main__
sensor_data_struct
p450
(dp451
g3
(lp452
I562
aI306
aI187
aI1017
aI2569
aF163.0
aI827
aI363
aI236
aI1364
aI2372
aF131.0
asg5
I0
sg6
(lp453
I-1
aI-1
aI-1
aI-1
aI-1
aI-1
asg8
(lp454
I16
aI31
aI-1
aF-1.0
aF-1.0
aF-1.0
aI23
aI21
aI-1
aF-1.0
aF-1.0
aF-1.0
asg10
(lp455
F-0.001
aF-0.008
aF0.009000000000000001
asba(i__main__
sensor_data_struct
p456
(dp457
g3
(lp458
I595
aI316
aI193
aI1067
aI2546
aF164.0
aI944
aI402
aI254
aI1542
aI2327
aF142.0
asg5
I0
sg6
(lp459
I-1
aI-1
aI-1
aI-1
aI-1
aI-1
asg8
(lp460
I36
aI35
aI-1
aF-1.0
aF-1.0
aF-1.0
aI23
aI22
aI-1
aF-1.0
aF-1.0
aF-1.0
asg10
(lp461
F-0.008
aF0.001
aF0.012
asba(i__main__
sensor_data_struct
p462
(dp463
g3
(lp464
I869
aI357
aI245
aI1404
aI2357
aF102.0
aI1277
aI438
aI318
aI1929
aI2218
aF43.0
asg5
I0
sg6
(lp465
I-1
aI-1
aI-1
aI-1
aI-1
aI-1
asg8
(lp466
I25
aI24
aI-1
aF-1.0
aF-1.0
aF-1.0
aI24
aI24
aI-1
aF-1.0
aF-1.0
aF-1.0
asg10
(lp467
F-0.002
aF0.004
aF0.0
asba(i__main__
sensor_data_struct
p468
(dp469
g3
(lp470
I587
aI312
aI191
aI1054
aI2549
aF162.0
aI1042
aI376
aI280
aI1606
aI2286
aF50.0
asg5
I0
sg6
(lp471
I-1
aI-1
aI-1
aI-1
aI-1
aI-1
asg8
(lp472
I24
aI22
aI-1
aF-1.0
aF-1.0
aF-1.0
aI23
aI22
aI-1
aF-1.0
aF-1.0
aF-1.0
asg10
(lp473
F0.0
aF0.0
aF0.0
asba(i__main__
sensor_data_struct
p474
(dp475
g3
(lp476
I599
aI312
aI195
aI1062
aI2533
aF155.0
aI1014
aI408
aI268
aI1618
aI2294
aF118.0
asg5
I0
sg6
(lp477
I-1
aI-1
aI-1
aI-1
aI-1
aI-1
asg8
(lp478
I16
aI32
aI-1
aF-1.0
aF-1.0
aF-1.0
aI23
aI22
aI-1
aF-1.0
aF-1.0
aF-1.0
asg10
(lp479
F0.003
aF-0.005
aF0.009000000000000001
asba(i__main__
sensor_data_struct
p480
(dp481
g3
(lp482
I580
aI312
aI190
aI1047
aI2561
aF165.0
aI1359
aI450
aI344
aI2039
aI2230
aF17.0
asg5
I0
sg6
(lp483
I-1
aI-1
aI-1
aI-1
aI-1
aI-1
asg8
(lp484
I36
aI36
aI-1
aF-1.0
aF-1.0
aF-1.0
aI24
aI23
aI-1
aF-1.0
aF-1.0
aF-1.0
asg10
(lp485
F0.003
aF0.006
aF0.01
asba(i__main__
sensor_data_struct
p486
(dp487
g3
(lp488
I747
aI337
aI223
aI1255
aI2432
aF126.0
aI1486
aI479
aI365
aI2203
aI2199
aF6.0
asg5
I0
sg6
(lp489
I-1
aI-1
aI-1
aI-1
aI-1
aI-1
asg8
(lp490
I35
aI32
aI-1
aF-1.0
aF-1.0
aF-1.0
aI23
aI23
aI-1
aF-1.0
aF-1.0
aF-1.0
asg10
(lp491
F0.006
aF0.004
aF0.004
asba(i__main__
sensor_data_struct
p492
(dp493
g3
(lp494
I560
aI308
aI187
aI1021
aI2583
aF167.0
aI733
aI344
aI219
aI1245
aI2434
aF144.0
asg5
I1
sg6
(lp495
I-1
aI-1
aI-1
aI-1
aI-1
aI-1
asg8
(lp496
I36
aI23
aI-1
aF-1.0
aF-1.0
aF-1.0
aI23
aI20
aI-1
aF-1.0
aF-1.0
aF-1.0
asg10
(lp497
F-0.008
aF-0.006999999999999999
aF0.011000000000000001
asba(i__main__
sensor_data_struct
p498
(dp499
g3
(lp500
I572
aI312
aI189
aI1037
aI2567
aF168.0
aI1040
aI390
aI280
aI1629
aI2305
aF72.0
asg5
I0
sg6
(lp501
I-1
aI-1
aI-1
aI-1
aI-1
aI-1
asg8
(lp502
I32
aI27
aI-1
aF-1.0
aF-1.0
aF-1.0
aI23
aI22
aI-1
aF-1.0
aF-1.0
aF-1.0
asg10
(lp503
F-0.004
aF0.006
aF0.009000000000000001
asba(i__main__
sensor_data_struct
p504
(dp505
g3
(lp506
I568
aI310
aI189
aI1031
aI2575
aF166.0
aI861
aI360
aI243
aI1398
aI2357
aF110.0
asg5
I0
sg6
(lp507
I-1
aI-1
aI-1
aI-1
aI-1
aI-1
asg8
(lp508
I19
aI19
aI-1
aF-1.0
aF-1.0
aF-1.0
aI23
aI24
aI-1
aF-1.0
aF-1.0
aF-1.0
asg10
(lp509
F-0.004
aF-0.005
aF0.004
asba(i__main__
sensor_data_struct
p510
(dp511
g3
(lp512
I565
aI309
aI188
aI1028
aI2579
aF166.0
aI1258
aI416
aI322
aI1887
aI2239
aF12.0
asg5
I0
sg6
(lp513
I-1
aI-1
aI-1
aI-1
aI-1
aI-1
asg8
(lp514
I34
aI35
aI-1
aF-1.0
aF-1.0
aF-1.0
aI23
aI22
aI-1
aF-1.0
aF-1.0
aF-1.0
asg10
(lp515
F-0.003
aF0.009000000000000001
aF0.008
asba(i__main__
sensor_data_struct
p516
(dp517
g3
(lp518
I591
aI314
aI193
aI1061
aI2554
aF162.0
aI1618
aI486
aI388
aI2352
aI2173
aF65494.0
asg5
I0
sg6
(lp519
I-1
aI-1
aI-1
aI-1
aI-1
aI-1
asg8
(lp520
I37
aI39
aI-1
aF-1.0
aF-1.0
aF-1.0
aI25
aI22
aI-1
aF-1.0
aF-1.0
aF-1.0
asg10
(lp521
F0.0
aF0.006999999999999999
aF0.006999999999999999
asba(i__main__
sensor_data_struct
p522
(dp523
g3
(lp524
I566
aI310
aI189
aI1031
aI2584
aF167.0
aI872
aI353
aI248
aI1401
aI2357
aF92.0
asg5
I0
sg6
(lp525
I-1
aI-1
aI-1
aI-1
aI-1
aI-1
asg8
(lp526
I19
aI27
aI-1
aF-1.0
aF-1.0
aF-1.0
aI24
aI22
aI-1
aF-1.0
aF-1.0
aF-1.0
asg10
(lp527
F0.003
aF-0.002
aF0.006
asba(i__main__
sensor_data_struct
p528
(dp529
g3
(lp530
I600
aI316
aI195
aI1074
aI2549
aF161.0
aI784
aI342
aI232
aI1298
aI2411
aF115.0
asg5
I0
sg6
(lp531
I-1
aI-1
aI-1
aI-1
aI-1
aI-1
asg8
(lp532
I22
aI32
aI-1
aF-1.0
aF-1.0
aF-1.0
aI23
aI23
aI-1
aF-1.0
aF-1.0
aF-1.0
asg10
(lp533
F0.008
aF-0.003
aF0.008
asba(i__main__
sensor_data_struct
p534
(dp535
g3
(lp536
I580
aI310
aI191
aI1045
aI2563
aF161.0
aI906
aI389
aI249
aI1486
aI2346
aF137.0
asg5
I1
sg6
(lp537
I-1
aI-1
aI-1
aI-1
aI-1
aI-1
asg8
(lp538
I24
aI23
aI-1
aF-1.0
aF-1.0
aF-1.0
aI25
aI23
aI-1
aF-1.0
aF-1.0
aF-1.0
asg10
(lp539
F-0.001
aF-0.001
aF0.013000000000000001
asba(i__main__
sensor_data_struct
p540
(dp541
g3
(lp542
I565
aI310
aI188
aI1029
aI2579
aF168.0
aI894
aI373
aI250
aI1453
aI2354
aF115.0
asg5
I0
sg6
(lp543
I-1
aI-1
aI-1
aI-1
aI-1
aI-1
asg8
(lp544
I19
aI29
aI-1
aF-1.0
aF-1.0
aF-1.0
aI23
aI20
aI-1
aF-1.0
aF-1.0
aF-1.0
asg10
(lp545
F0.005
aF-0.003
aF0.009000000000000001
asba(i__main__
sensor_data_struct
p546
(dp547
g3
(lp548
I619
aI321
aI197
aI1100
aI2525
aF161.0
aI984
aI372
aI268
aI1553
aI2326
aF71.0
asg5
I1
sg6
(lp549
I-1
aI-1
aI-1
aI-1
aI-1
aI-1
asg8
(lp550
I46
aI42
aI-1
aF-1.0
aF-1.0
aF-1.0
aI33
aI37
aI-1
aF-1.0
aF-1.0
aF-1.0
asg10
(lp551
F0.008
aF0.006
aF0.013999999999999999
asba(i__main__
sensor_data_struct
p552
(dp553
g3
(lp554
I665
aI341
aI207
aI1178
aI2508
aF170.0
aI625
aI319
aI200
aI1102
aI2520
aF154.0
asg5
I1
sg6
(lp555
I-1
aI-1
aI-1
aI-1
aI-1
aI-1
asg8
(lp556
I46
aI38
aI-1
aF-1.0
aF-1.0
aF-1.0
aI35
aI37
aI-1
aF-1.0
aF-1.0
aF-1.0
asg10
(lp557
F0.004
aF-0.008
aF0.015
asba(i__main__
sensor_data_struct
p558
(dp559
g3
(lp560
I597
aI322
aI193
aI1078
aI2547
aF173.0
aI676
aI345
aI208
aI1190
aI2487
aF172.0
asg5
I1
sg6
(lp561
I-1
aI-1
aI-1
aI-1
aI-1
aI-1
asg8
(lp562
I51
aI45
aI-1
aF-1.0
aF-1.0
aF-1.0
aI33
aI34
aI-1
aF-1.0
aF-1.0
aF-1.0
asg10
(lp563
F-0.001
aF-0.012
aF0.015
asba(i__main__
sensor_data_struct
p564
(dp565
g3
(lp566
I574
aI314
aI188
aI1043
aI2565
aF171.0
aI982
aI375
aI268
aI1548
aI2319
aF76.0
asg5
I0
sg6
(lp567
I-1
aI-1
aI-1
aI-1
aI-1
aI-1
asg8
(lp568
I30
aI34
aI-1
aF-1.0
aF-1.0
aF-1.0
aI21
aI22
aI-1
aF-1.0
aF-1.0
aF-1.0
asg10
(lp569
F-0.004
aF0.006
aF0.01
asba(i__main__
sensor_data_struct
p570
(dp571
g3
(lp572
I573
aI310
aI190
aI1039
aI2576
aF164.0
aI962
aI379
aI261
aI1528
aI2313
aF94.0
asg5
I0
sg6
(lp573
I-1
aI-1
aI-1
aI-1
aI-1
aI-1
asg8
(lp574
I16
aI27
aI-1
aF-1.0
aF-1.0
aF-1.0
aI25
aI22
aI-1
aF-1.0
aF-1.0
aF-1.0
asg10
(lp575
F0.006999999999999999
aF-0.003
aF0.005
asba(i__main__
sensor_data_struct
p576
(dp577
g3
(lp578
I562
aI308
aI188
aI1024
aI2586
aF166.0
aI940
aI402
aI255
aI1540
aI2339
aF142.0
asg5
I0
sg6
(lp579
I-1
aI-1
aI-1
aI-1
aI-1
aI-1
asg8
(lp580
I48
aI37
aI-1
aF-1.0
aF-1.0
aF-1.0
aI23
aI23
aI-1
aF-1.0
aF-1.0
aF-1.0
asg10
(lp581
F0.011000000000000001
aF-0.004
aF0.012
asba(i__main__
sensor_data_struct
p582
(dp583
g3
(lp584
I565
aI309
aI187
aI1026
aI2572
aF167.0
aI798
aI343
aI232
aI1310
aI2389
aF112.0
asg5
I0
sg6
(lp585
I-1
aI-1
aI-1
aI-1
aI-1
aI-1
asg8
(lp586
I20
aI23
aI-1
aF-1.0
aF-1.0
aF-1.0
aI23
aI24
aI-1
aF-1.0
aF-1.0
aF-1.0
asg10
(lp587
F-0.001
aF-0.003
aF0.006
asba(i__main__
sensor_data_struct
p588
(dp589
g3
(lp590
I588
aI314
aI191
aI1057
aI2547
aF164.0
aI840
aI360
aI240
aI1382
aI2382
aF119.0
asg5
I1
sg6
(lp591
I-1
aI-1
aI-1
aI-1
aI-1
aI-1
asg8
(lp592
I46
aI37
aI-1
aF-1.0
aF-1.0
aF-1.0
aI25
aI27
aI-1
aF-1.0
aF-1.0
aF-1.0
asg10
(lp593
F0.005
aF0.003
aF0.015
asba(i__main__
sensor_data_struct
p594
(dp595
g3
(lp596
I579
aI314
aI191
aI1051
aI2575
aF167.0
aI1409
aI466
aI345
aI2128
aI2226
aF25.0
asg5
I1
sg6
(lp597
I-1
aI-1
aI-1
aI-1
aI-1
aI-1
asg8
(lp598
I50
aI44
aI-1
aF-1.0
aF-1.0
aF-1.0
aI34
aI36
aI-1
aF-1.0
aF-1.0
aF-1.0
asg10
(lp599
F0.005
aF0.01
aF0.013000000000000001
asba(i__main__
sensor_data_struct
p600
(dp601
g3
(lp602
I581
aI312
aI191
aI1047
aI2561
aF164.0
aI836
aI359
aI238
aI1370
aI2370
aF121.0
asg5
I0
sg6
(lp603
I-1
aI-1
aI-1
aI-1
aI-1
aI-1
asg8
(lp604
I18
aI24
aI-1
aF-1.0
aF-1.0
aF-1.0
aI23
aI22
aI-1
aF-1.0
aF-1.0
aF-1.0
asg10
(lp605
F0.0
aF-0.004
aF0.009000000000000001
asba.