(lp0
(i__main__
sensor_data_struct
p1
(dp2
S'color'
p3
(lp4
I596
aI337
aI219
aI1075
aI2626
aF178.0
aI964
aI413
aI289
aI1563
aI2384
aF127.0
asS'button'
p5
I1
sS'IR'
p6
(lp7
I-1
aI-1
aI-1
aI-1
aI-1
aI-1
asS'TOF'
p8
(lp9
I37
aI46
aI-1
aF24.447999954223633
aF337.5359802246094
aF-1.0
aI28
aI26
aI-1
aF306.239990234375
aF337.7279968261719
aF-1.0
asS'pt'
p10
(lp11
F-0.001
aF0.01
aF0.013000000000000001
asba(i__main__
sensor_data_struct
p12
(dp13
g3
(lp14
I616
aI347
aI222
aI1112
aI2612
aF185.0
aI764
aI377
aI250
aI1302
aI2481
aF164.0
asg5
I0
sg6
(lp15
I-1
aI-1
aI-1
aI-1
aI-1
aI-1
asg8
(lp16
I46
aI20
aI-1
aF26.368000030517578
aF339.26397705078125
aF-1.0
aI28
aI23
aI-1
aF303.93597412109375
aF358.59197998046875
aF-1.0
asg10
(lp17
F-0.006999999999999999
aF-0.005
aF0.01
asba(i__main__
sensor_data_struct
p18
(dp19
g3
(lp20
I789
aI376
aI255
aI1330
aI2466
aF150.0
aI1178
aI469
aI329
aI1853
aI2305
aF117.0
asg5
I0
sg6
(lp21
I-1
aI-1
aI-1
aI-1
aI-1
aI-1
asg8
(lp22
I32
aI35
aI-1
aF26.49599838256836
aF339.135986328125
aF-1.0
aI28
aI22
aI-1
aF300.6719970703125
aF351.8719787597656
aF-1.0
asg10
(lp23
F-0.002
aF0.008
aF0.009000000000000001
asba(i__main__
sensor_data_struct
p24
(dp25
g3
(lp26
I655
aI355
aI224
aI1167
aI2560
aF183.0
aI877
aI409
aI267
aI1469
aI2417
aF165.0
asg5
I1
sg6
(lp27
I-1
aI-1
aI-1
aI-1
aI-1
aI-1
asg8
(lp28
I33
aI46
aI-1
aF26.368000030517578
aF339.7760009765625
aF-1.0
aI32
aI31
aI-1
aF307.135986328125
aF348.4159851074219
aF-1.0
asg10
(lp29
F-0.003
aF0.006999999999999999
aF0.015
asba(i__main__
sensor_data_struct
p30
(dp31
g3
(lp32
I634
aI350
aI221
aI1139
aI2582
aF184.0
aI786
aI380
aI251
aI1335
aI2464
aF160.0
asg5
I0
sg6
(lp33
I-1
aI-1
aI-1
aI-1
aI-1
aI-1
asg8
(lp34
I37
aI13
aI-1
aF27.071998596191406
aF340.2879943847656
aF-1.0
aI30
aI23
aI-1
aF300.6719970703125
aF352.0639953613281
aF-1.0
asg10
(lp35
F-0.006999999999999999
aF0.001
aF0.008
asba(i__main__
sensor_data_struct
p36
(dp37
g3
(lp38
I710
aI357
aI236
aI1225
aI2509
aF160.0
aI1148
aI444
aI318
aI1788
aI2291
aF95.0
asg5
I0
sg6
(lp39
I-1
aI-1
aI-1
aI-1
aI-1
aI-1
asg8
(lp40
I30
aI27
aI-1
aF23.615999221801758
aF339.20001220703125
aF-1.0
aI28
aI24
aI-1
aF297.91998291015625
aF355.96795654296875
aF-1.0
asg10
(lp41
F0.001
aF0.003
aF0.006999999999999999
asba(i__main__
sensor_data_struct
p42
(dp43
g3
(lp44
I613
aI343
aI217
aI1107
aI2599
aF183.0
aI1185
aI475
aI321
aI1866
aI2282
aF130.0
asg5
I0
sg6
(lp45
I-1
aI-1
aI-1
aI-1
aI-1
aI-1
asg8
(lp46
I25
aI28
aI-1
aF23.67999839782715
aF339.90399169921875
aF-1.0
aI29
aI25
aI-1
aF294.97601318359375
aF359.552001953125
aF-1.0
asg10
(lp47
F-0.001
aF-0.004
aF0.006
asba(i__main__
sensor_data_struct
p48
(dp49
g3
(lp50
I613
aI344
aI216
aI1107
aI2593
aF185.0
aI1092
aI483
aI306
aI1782
aI2329
aF183.0
asg5
I0
sg6
(lp51
I-1
aI-1
aI-1
aI-1
aI-1
aI-1
asg8
(lp52
I39
aI17
aI-1
aF26.56000328063965
aF339.8399963378906
aF-1.0
aI28
aI22
aI-1
aF305.0879821777344
aF339.90399169921875
aF-1.0
asg10
(lp53
F-0.006999999999999999
aF0.0
aF0.011000000000000001
asba(i__main__
sensor_data_struct
p54
(dp55
g3
(lp56
I784
aI370
aI252
aI1316
aI2458
aF145.0
aI1173
aI466
aI320
aI1843
aI2286
aF120.0
asg5
I0
sg6
(lp57
I-1
aI-1
aI-1
aI-1
aI-1
aI-1
asg8
(lp58
I27
aI23
aI-1
aF23.615999221801758
aF339.5199890136719
aF-1.0
aI31
aI24
aI-1
aF295.67999267578125
aF356.2239990234375
aF-1.0
asg10
(lp59
F0.0
aF-0.001
aF0.006
asba(i__main__
sensor_data_struct
p60
(dp61
g3
(lp62
I609
aI343
aI215
aI1103
aI2599
aF186.0
aI975
aI466
aI284
aI1640
aI2379
aF211.0
asg5
I1
sg6
(lp63
I-1
aI-1
aI-1
aI-1
aI-1
aI-1
asg8
(lp64
I38
aI33
aI-1
aF25.855998992919922
aF339.7760009765625
aF-1.0
aI22
aI35
aI-1
aF300.031982421875
aF371.3919982910156
aF-1.0
asg10
(lp65
F0.005
aF-0.005
aF0.012
asba(i__main__
sensor_data_struct
p66
(dp67
g3
(lp68
I633
aI348
aI220
aI1130
aI2569
aF182.0
aI889
aI423
aI267
aI1498
aI2409
aF183.0
asg5
I1
sg6
(lp69
I-1
aI-1
aI-1
aI-1
aI-1
aI-1
asg8
(lp70
I53
aI38
aI-1
aF26.17599868774414
aF339.3919982910156
aF-1.0
aI31
aI29
aI-1
aF306.4960021972656
aF364.79998779296875
aF-1.0
asg10
(lp71
F-0.006
aF-0.004
aF0.013999999999999999
asba(i__main__
sensor_data_struct
p72
(dp73
g3
(lp74
I627
aI347
aI218
aI1126
aI2577
aF184.0
aI1300
aI502
aI342
aI2017
aI2250
aF119.0
asg5
I0
sg6
(lp75
I-1
aI-1
aI-1
aI-1
aI-1
aI-1
asg8
(lp76
I28
aI21
aI-1
aF23.743999481201172
aF339.96795654296875
aF-1.0
aI30
aI23
aI-1
aF291.90399169921875
aF357.6319885253906
aF-1.0
asg10
(lp77
F-0.002
aF-0.004
aF0.005
asba(i__main__
sensor_data_struct
p78
(dp79
g3
(lp80
I725
aI359
aI237
aI1244
aI2494
aF157.0
aI1278
aI464
aI344
aI1949
aI2260
aF65.0
asg5
I0
sg6
(lp81
I-1
aI-1
aI-1
aI-1
aI-1
aI-1
asg8
(lp82
I33
aI32
aI-1
aF26.816001892089844
aF339.0719909667969
aF-1.0
aI29
aI24
aI-1
aF297.6000061035156
aF357.6319885253906
aF-1.0
asg10
(lp83
F0.006
aF0.002
aF0.006
asba(i__main__
sensor_data_struct
p84
(dp85
g3
(lp86
I672
aI352
aI227
aI1180
aI2539
aF171.0
aI1348
aI503
aI353
aI2071
aI2243
aF97.0
asg5
I0
sg6
(lp87
I-1
aI-1
aI-1
aI-1
aI-1
aI-1
asg8
(lp88
I29
aI18
aI-1
aF19.967998504638672
aF327.8079833984375
aF-1.0
aI30
aI24
aI-1
aF276.7359924316406
aF345.9200134277344
aF-1.0
asg10
(lp89
F-0.003
aF0.001
aF0.0
asba(i__main__
sensor_data_struct
p90
(dp91
g3
(lp92
I608
aI343
aI215
aI1101
aI2601
aF186.0
aI1063
aI478
aI300
aI1746
aI2339
aF189.0
asg5
I1
sg6
(lp93
I-1
aI-1
aI-1
aI-1
aI-1
aI-1
asg8
(lp94
I53
aI40
aI-1
aF25.21599769592285
aF338.4960021972656
aF-1.0
aI30
aI29
aI-1
aF306.30401611328125
aF369.40802001953125
aF-1.0
asg10
(lp95
F-0.001
aF-0.008
aF0.013999999999999999
asba(i__main__
sensor_data_struct
p96
(dp97
g3
(lp98
I725
aI362
aI237
aI1251
aI2502
aF162.0
aI1380
aI480
aI365
aI2082
aI2246
aF42.0
asg5
I0
sg6
(lp99
I-1
aI-1
aI-1
aI-1
aI-1
aI-1
asg8
(lp100
I31
aI33
aI-1
aF25.7919979095459
aF338.239990234375
aF-1.0
aI27
aI22
aI-1
aF298.11199951171875
aF351.67999267578125
aF-1.0
asg10
(lp101
F-0.001
aF0.008
aF0.006999999999999999
asba(i__main__
sensor_data_struct
p102
(dp103
g3
(lp104
I629
aI348
aI220
aI1129
aI2582
aF184.0
aI876
aI435
aI264
aI1501
aI2421
aF208.0
asg5
I1
sg6
(lp105
I-1
aI-1
aI-1
aI-1
aI-1
aI-1
asg8
(lp106
I50
aI42
aI-1
aF26.368000030517578
aF339.135986328125
aF-1.0
aI36
aI38
aI-1
aF323.8399963378906
aF384.38397216796875
aF-1.0
asg10
(lp107
F-0.009000000000000001
aF0.0
aF0.015
asba(i__main__
sensor_data_struct
p108
(dp109
g3
(lp110
I623
aI351
aI220
aI1124
aI2589
aF190.0
aI734
aI375
aI244
aI1268
aI2503
aF175.0
asg5
I1
sg6
(lp111
I-1
aI-1
aI-1
aI-1
aI-1
aI-1
asg8
(lp112
I38
aI36
aI-1
aF26.687999725341797
aF339.8399963378906
aF-1.0
aI28
aI26
aI-1
aF306.36798095703125
aF369.02398681640625
aF-1.0
asg10
(lp113
F-0.002
aF-0.006
aF0.013000000000000001
asba(i__main__
sensor_data_struct
p114
(dp115
g3
(lp116
I648
aI354
aI224
aI1155
aI2565
aF184.0
aI882
aI435
aI265
aI1506
aI2415
aF206.0
asg5
I1
sg6
(lp117
I-1
aI-1
aI-1
aI-1
aI-1
aI-1
asg8
(lp118
I52
aI19
aI-1
aF28.095998764038086
aF340.4800109863281
aF-1.0
aI37
aI27
aI-1
aF323.90399169921875
aF372.4159851074219
aF-1.0
asg10
(lp119
F-0.01
aF-0.001
aF0.011000000000000001
asba(i__main__
sensor_data_struct
p120
(dp121
g3
(lp122
I617
aI348
aI216
aI1115
aI2584
aF190.0
aI1100
aI484
aI307
aI1790
aI2323
aF182.0
asg5
I0
sg6
(lp123
I-1
aI-1
aI-1
aI-1
aI-1
aI-1
asg8
(lp124
I32
aI29
aI-1
aF26.687999725341797
aF340.09600830078125
aF-1.0
aI28
aI23
aI-1
aF305.7279968261719
aF367.1039733886719
aF-1.0
asg10
(lp125
F0.0
aF-0.005
aF0.013000000000000001
asba(i__main__
sensor_data_struct
p126
(dp127
g3
(lp128
I787
aI371
aI250
aI1322
aI2451
aF147.0
aI1171
aI460
aI320
aI1834
aI2287
aF111.0
asg5
I0
sg6
(lp129
I-1
aI-1
aI-1
aI-1
aI-1
aI-1
asg8
(lp130
I33
aI31
aI-1
aF28.60799789428711
aF339.583984375
aF-1.0
aI28
aI24
aI-1
aF301.5039978027344
aF362.8799743652344
aF-1.0
asg10
(lp131
F0.009000000000000001
aF0.003
aF0.009000000000000001
asba(i__main__
sensor_data_struct
p132
(dp133
g3
(lp134
I741
aI367
aI243
aI1268
aI2490
aF160.0
aI1129
aI454
aI312
aI1782
aI2300
aF121.0
asg5
I0
sg6
(lp135
I-1
aI-1
aI-1
aI-1
aI-1
aI-1
asg8
(lp136
I35
aI14
aI-1
aF26.623998641967773
aF335.1039733886719
aF-1.0
aI28
aI25
aI-1
aF289.66400146484375
aF347.96795654296875
aF-1.0
asg10
(lp137
F-0.006
aF0.003
aF0.004
asba(i__main__
sensor_data_struct
p138
(dp139
g3
(lp140
I626
aI345
aI219
aI1121
aI2581
aF181.0
aI887
aI410
aI267
aI1475
aI2398
aF163.0
asg5
I0
sg6
(lp141
I-1
aI-1
aI-1
aI-1
aI-1
aI-1
asg8
(lp142
I29
aI31
aI-1
aF26.047998428344727
aF340.031982421875
aF-1.0
aI30
aI24
aI-1
aF305.1520080566406
aF367.93597412109375
aF-1.0
asg10
(lp143
F0.003
aF-0.004
aF0.012
asba(i__main__
sensor_data_struct
p144
(dp145
g3
(lp146
I618
aI346
aI217
aI1115
aI2589
aF186.0
aI755
aI373
aI244
aI1292
aI2478
aF165.0
asg5
I1
sg6
(lp147
I-1
aI-1
aI-1
aI-1
aI-1
aI-1
asg8
(lp148
I33
aI30
aI-1
aF26.17599868774414
aF340.09600830078125
aF-1.0
aI30
aI31
aI-1
aF306.68798828125
aF357.1839904785156
aF-1.0
asg10
(lp149
F-0.004
aF0.002
aF0.015
asba(i__main__
sensor_data_struct
p150
(dp151
g3
(lp152
I785
aI374
aI250
aI1328
aI2464
aF152.0
aI1162
aI463
aI321
aI1835
aI2306
aF118.0
asg5
I0
sg6
(lp153
I-1
aI-1
aI-1
aI-1
aI-1
aI-1
asg8
(lp154
I34
aI31
aI-1
aF25.983999252319336
aF339.64801025390625
aF-1.0
aI30
aI25
aI-1
aF300.9280090332031
aF351.48797607421875
aF-1.0
asg10
(lp155
F-0.003
aF0.009000000000000001
aF0.009000000000000001
asba(i__main__
sensor_data_struct
p156
(dp157
g3
(lp158
I690
aI360
aI232
aI1208
aI2528
aF174.0
aI1037
aI442
aI297
aI1676
aI2344
aF143.0
asg5
I0
sg6
(lp159
I-1
aI-1
aI-1
aI-1
aI-1
aI-1
asg8
(lp160
I34
aI25
aI-1
aF25.280000686645508
aF340.7359619140625
aF-1.0
aI28
aI23
aI-1
aF302.78399658203125
aF352.9599914550781
aF-1.0
asg10
(lp161
F-0.005
aF0.006999999999999999
aF0.01
asba(i__main__
sensor_data_struct
p162
(dp163
g3
(lp164
I654
aI352
aI224
aI1163
aI2562
aF179.0
aI1966
aI562
aI481
aI2804
aI2165
aF65433.0
asg5
I1
sg6
(lp165
I-1
aI-1
aI-1
aI-1
aI-1
aI-1
asg8
(lp166
I38
aI43
aI-1
aF27.583999633789062
aF338.6879577636719
aF-1.0
aI38
aI39
aI-1
aF267.45599365234375
aF336.5119934082031
aF-1.0
asg10
(lp167
F0.003
aF0.009000000000000001
aF0.008
asba(i__main__
sensor_data_struct
p168
(dp169
g3
(lp170
I613
aI344
aI217
aI1109
aI2604
aF185.0
aI1142
aI469
aI315
aI1814
aI2299
aF138.0
asg5
I0
sg6
(lp171
I-1
aI-1
aI-1
aI-1
aI-1
aI-1
asg8
(lp172
I24
aI28
aI-1
aF26.304000854492188
aF339.64801025390625
aF-1.0
aI27
aI24
aI-1
aF299.64801025390625
aF362.4320068359375
aF-1.0
asg10
(lp173
F0.004
aF0.0
aF0.009000000000000001
asba(i__main__
sensor_data_struct
p174
(dp175
g3
(lp176
I620
aI347
aI218
aI1119
aI2591
aF186.0
aI1030
aI466
aI298
aI1698
aI2360
aF183.0
asg5
I1
sg6
(lp177
I-1
aI-1
aI-1
aI-1
aI-1
aI-1
asg8
(lp178
I34
aI45
aI-1
aF26.047998428344727
aF339.4559631347656
aF-1.0
aI31
aI31
aI-1
aF306.8800048828125
aF345.0879821777344
aF-1.0
asg10
(lp179
F-0.002
aF0.01
aF0.015
asba(i__main__
sensor_data_struct
p180
(dp181
g3
(lp182
I717
aI363
aI239
aI1237
aI2506
aF165.0
aI1054
aI425
aI299
aI1666
aI2318
aF109.0
asg5
I0
sg6
(lp183
I-1
aI-1
aI-1
aI-1
aI-1
aI-1
asg8
(lp184
I21
aI28
aI-1
aF19.647998809814453
aF340.2239990234375
aF-1.0
aI27
aI25
aI-1
aF282.239990234375
aF348.7359619140625
aF-1.0
asg10
(lp185
F0.005
aF-0.002
aF0.002
asba(i__main__
sensor_data_struct
p186
(dp187
g3
(lp188
I664
aI352
aI227
aI1170
aI2549
aF173.0
aI933
aI403
aI278
aI1512
aI2371
aF129.0
asg5
I0
sg6
(lp189
I-1
aI-1
aI-1
aI-1
aI-1
aI-1
asg8
(lp190
I33
aI17
aI-1
aF24.447999954223633
aF338.4960021972656
aF-1.0
aI29
aI25
aI-1
aF283.64801025390625
aF349.1199951171875
aF-1.0
asg10
(lp191
F-0.004
aF-0.001
aF0.003
asba(i__main__
sensor_data_struct
p192
(dp193
g3
(lp194
I629
aI349
aI221
aI1130
aI2588
aF184.0
aI859
aI429
aI262
aI1475
aI2433
aF206.0
asg5
I1
sg6
(lp195
I-1
aI-1
aI-1
aI-1
aI-1
aI-1
asg8
(lp196
I46
aI44
aI-1
aF26.368000030517578
aF339.3280029296875
aF-1.0
aI38
aI35
aI-1
aF323.90399169921875
aF384.0639953613281
aF-1.0
asg10
(lp197
F-0.009000000000000001
aF0.003
aF0.015
asba(i__main__
sensor_data_struct
p198
(dp199
g3
(lp200
I654
aI356
aI226
aI1161
aI2558
aF184.0
aI960
aI437
aI283
aI1582
aI2369
aF170.0
asg5
I0
sg6
(lp201
I-1
aI-1
aI-1
aI-1
aI-1
aI-1
asg8
(lp202
I44
aI23
aI-1
aF27.45599937438965
aF340.2239990234375
aF-1.0
aI28
aI24
aI-1
aF304.9599914550781
aF359.552001953125
aF-1.0
asg10
(lp203
F-0.005
aF-0.003
aF0.012
asba(i__main__
sensor_data_struct
p204
(dp205
g3
(lp206
I650
aI358
aI224
aI1164
aI2566
aF190.0
aI1095
aI487
aI308
aI1792
aI2334
aF187.0
asg5
I1
sg6
(lp207
I-1
aI-1
aI-1
aI-1
aI-1
aI-1
asg8
(lp208
I36
aI30
aI-1
aF27.583999633789062
aF340.79998779296875
aF-1.0
aI28
aI25
aI-1
aF306.0480041503906
aF359.1679992675781
aF-1.0
asg10
(lp209
F-0.001
aF0.0
aF0.013999999999999999
asba(i__main__
sensor_data_struct
p210
(dp211
g3
(lp212
I644
aI356
aI223
aI1155
aI2571
aF189.0
aI1144
aI476
aI315
aI1826
aI2303
aF149.0
asg5
I0
sg6
(lp213
I-1
aI-1
aI-1
aI-1
aI-1
aI-1
asg8
(lp214
I22
aI27
aI-1
aF26.304000854492188
aF341.2479553222656
aF-1.0
aI30
aI25
aI-1
aF300.4800109863281
aF364.99200439453125
aF-1.0
asg10
(lp215
F0.0
aF-0.005
aF0.009000000000000001
asba(i__main__
sensor_data_struct
p216
(dp217
g3
(lp218
I682
aI358
aI233
aI1191
aI2532
aF173.0
aI951
aI420
aI283
aI1549
aI2369
aF147.0
asg5
I0
sg6
(lp219
I-1
aI-1
aI-1
aI-1
aI-1
aI-1
asg8
(lp220
I20
aI35
aI-1
aF24.38399887084961
aF341.9519958496094
aF-1.0
aI28
aI24
aI-1
aF292.4159851074219
aF355.583984375
aF-1.0
asg10
(lp221
F0.004
aF-0.005
aF0.005
asba(i__main__
sensor_data_struct
p222
(dp223
g3
(lp224
I679
aI357
aI230
aI1190
aI2532
aF174.0
aI950
aI437
aI278
aI1579
aI2378
aF177.0
asg5
I1
sg6
(lp225
I-1
aI-1
aI-1
aI-1
aI-1
aI-1
asg8
(lp226
I34
aI30
aI-1
aF27.263999938964844
aF340.031982421875
aF-1.0
aI29
aI29
aI-1
aF306.9440002441406
aF366.4639892578125
aF-1.0
asg10
(lp227
F0.004
aF-0.001
aF0.015
asba(i__main__
sensor_data_struct
p228
(dp229
g3
(lp230
I688
aI360
aI232
aI1203
aI2528
aF175.0
aI983
aI449
aI285
aI1628
aI2368
aF180.0
asg5
I1
sg6
(lp231
I-1
aI-1
aI-1
aI-1
aI-1
aI-1
asg8
(lp232
I44
aI30
aI-1
aF27.904001235961914
aF340.15997314453125
aF-1.0
aI29
aI29
aI-1
aF306.81597900390625
aF368.38397216796875
aF-1.0
asg10
(lp233
F0.006
aF-0.001
aF0.015
asba(i__main__
sensor_data_struct
p234
(dp235
g3
(lp236
I641
aI352
aI223
aI1146
aI2572
aF184.0
aI873
aI431
aI264
aI1491
aI2422
aF203.0
asg5
I1
sg6
(lp237
I-1
aI-1
aI-1
aI-1
aI-1
aI-1
asg8
(lp238
I48
aI24
aI-1
aF27.7759952545166
aF340.60797119140625
aF-1.0
aI37
aI34
aI-1
aF323.9679870605469
aF381.69598388671875
aF-1.0
asg10
(lp239
F-0.009000000000000001
aF-0.001
aF0.012
asba(i__main__
sensor_data_struct
p240
(dp241
g3
(lp242
I670
aI352
aI229
aI1174
aI2542
aF170.0
aI995
aI450
aI286
aI1640
aI2357
aF177.0
asg5
I1
sg6
(lp243
I-1
aI-1
aI-1
aI-1
aI-1
aI-1
asg8
(lp244
I48
aI30
aI-1
aF26.49599838256836
aF339.64801025390625
aF-1.0
aI27
aI26
aI-1
aF305.9839782714844
aF368.447998046875
aF-1.0
asg10
(lp245
F0.011000000000000001
aF-0.002
aF0.013000000000000001
asba(i__main__
sensor_data_struct
p246
(dp247
g3
(lp248
I667
aI354
aI226
aI1177
aI2542
aF176.0
aI1171
aI441
aI326
aI1813
aI2297
aF77.0
asg5
I0
sg6
(lp249
I-1
aI-1
aI-1
aI-1
aI-1
aI-1
asg8
(lp250
I32
aI28
aI-1
aF26.047998428344727
aF339.7760009765625
aF-1.0
aI30
aI24
aI-1
aF299.45599365234375
aF353.9839782714844
aF-1.0
asg10
(lp251
F-0.001
aF0.006
aF0.006999999999999999
asba(i__main__
sensor_data_struct
p252
(dp253
g3
(lp254
I670
aI356
aI231
aI1177
aI2546
aF175.0
aI965
aI405
aI287
aI1542
aI2356
aF115.0
asg5
I0
sg6
(lp255
I-1
aI-1
aI-1
aI-1
aI-1
aI-1
asg8
(lp256
I22
aI29
aI-1
aF21.5679988861084
aF340.60797119140625
aF-1.0
aI30
aI24
aI-1
aF286.8479919433594
aF351.8719787597656
aF-1.0
asg10
(lp257
F0.006
aF-0.002
aF0.003
asba(i__main__
sensor_data_struct
p258
(dp259
g3
(lp260
I763
aI375
aI249
aI1296
aI2473
aF161.0
aI1141
aI463
aI317
aI1803
aI2299
aF128.0
asg5
I0
sg6
(lp261
I-1
aI-1
aI-1
aI-1
aI-1
aI-1
asg8
(lp262
I27
aI20
aI-1
aF26.56000328063965
aF340.5440368652344
aF-1.0
aI30
aI24
aI-1
aF295.42401123046875
aF356.5440368652344
aF-1.0
asg10
(lp263
F-0.002
aF0.0
aF0.006
asba(i__main__
sensor_data_struct
p264
(dp265
g3
(lp266
I680
aI364
aI232
aI1199
aI2542
aF183.0
aI948
aI433
aI282
aI1569
aI2384
aF169.0
asg5
I1
sg6
(lp267
I-1
aI-1
aI-1
aI-1
aI-1
aI-1
asg8
(lp268
I33
aI32
aI-1
aF28.799999237060547
aF341.5679931640625
aF-1.0
aI31
aI29
aI-1
aF306.4960021972656
aF358.2079772949219
aF-1.0
asg10
(lp269
F0.0
aF0.003
aF0.013999999999999999
asba(i__main__
sensor_data_struct
p270
(dp271
g3
(lp272
I655
aI359
aI229
aI1166
aI2570
aF186.0
aI937
aI456
aI277
aI1587
aI2394
aF212.0
asg5
I1
sg6
(lp273
I-1
aI-1
aI-1
aI-1
aI-1
aI-1
asg8
(lp274
I44
aI39
aI-1
aF28.095998764038086
aF341.2479553222656
aF-1.0
aI35
aI37
aI-1
aF319.552001953125
aF388.15997314453125
aF-1.0
asg10
(lp275
F0.006999999999999999
aF-0.006
aF0.012
asba(i__main__
sensor_data_struct
p276
(dp277
g3
(lp278
I643
aI358
aI225
aI1152
aI2572
aF191.0
aI779
aI397
aI252
aI1342
aI2472
aF189.0
asg5
I1
sg6
(lp279
I-1
aI-1
aI-1
aI-1
aI-1
aI-1
asg8
(lp280
I28
aI40
aI-1
aF28.032001495361328
aF341.5039978027344
aF-1.0
aI35
aI35
aI-1
aF321.4079895019531
aF385.9200134277344
aF-1.0
asg10
(lp281
F0.001
aF-0.009000000000000001
aF0.011000000000000001
asba(i__main__
sensor_data_struct
p282
(dp283
g3
(lp284
I721
aI369
aI238
aI1251
aI2506
aF174.0
aI1053
aI446
aI298
aI1694
aI2330
aF143.0
asg5
I0
sg6
(lp285
I-1
aI-1
aI-1
aI-1
aI-1
aI-1
asg8
(lp286
I37
aI12
aI-1
aF29.247997283935547
aF339.7760009765625
aF-1.0
aI28
aI24
aI-1
aF296.5119934082031
aF349.3760070800781
aF-1.0
asg10
(lp287
F-0.006999999999999999
aF0.002
aF0.006999999999999999
asba(i__main__
sensor_data_struct
p288
(dp289
g3
(lp290
I815
aI383
aI256
aI1368
aI2442
aF152.0
aI1281
aI472
aI344
aI1964
aI2262
aF77.0
asg5
I0
sg6
(lp291
I-1
aI-1
aI-1
aI-1
aI-1
aI-1
asg8
(lp292
I32
aI25
aI-1
aF23.93600082397461
aF336.7040100097656
aF-1.0
aI28
aI25
aI-1
aF293.1839904785156
aF351.2959899902344
aF-1.0
asg10
(lp293
F-0.002
aF0.006999999999999999
aF0.005
asba(i__main__
sensor_data_struct
p294
(dp295
g3
(lp296
I620
aI349
aI218
aI1120
aI2591
aF190.0
aI776
aI375
aI248
aI1315
aI2460
aF158.0
asg5
I0
sg6
(lp297
I-1
aI-1
aI-1
aI-1
aI-1
aI-1
asg8
(lp298
I24
aI33
aI-1
aF26.49599838256836
aF341.69598388671875
aF-1.0
aI29
aI25
aI-1
aF299.64801025390625
aF363.583984375
aF-1.0
asg10
(lp299
F-0.001
aF-0.008
aF0.008
asba(i__main__
sensor_data_struct
p300
(dp301
g3
(lp302
I625
aI350
aI218
aI1127
aI2581
aF189.0
aI1230
aI492
aI333
aI1940
aI2287
aF133.0
asg5
I0
sg6
(lp303
I-1
aI-1
aI-1
aI-1
aI-1
aI-1
asg8
(lp304
I34
aI24
aI-1
aF24.8960018157959
aF339.7760009765625
aF-1.0
aI28
aI23
aI-1
aF298.1759948730469
aF352.38397216796875
aF-1.0
asg10
(lp305
F-0.004
aF0.008
aF0.008
asba(i__main__
sensor_data_struct
p306
(dp307
g3
(lp308
I639
aI350
aI222
aI1143
aI2574
aF182.0
aI1334
aI504
aI349
aI2055
aI2241
aF106.0
asg5
I0
sg6
(lp309
I-1
aI-1
aI-1
aI-1
aI-1
aI-1
asg8
(lp310
I26
aI26
aI-1
aF23.040000915527344
aF339.20001220703125
aF-1.0
aI28
aI26
aI-1
aF287.42401123046875
aF352.8960266113281
aF-1.0
asg10
(lp311
F0.002
aF0.001
aF0.004
asba(i__main__
sensor_data_struct
p312
(dp313
g3
(lp314
I683
aI357
aI230
aI1197
aI2533
aF173.0
aI1045
aI419
aI301
aI1648
aI2329
aF101.0
asg5
I0
sg6
(lp315
I-1
aI-1
aI-1
aI-1
aI-1
aI-1
asg8
(lp316
I24
aI25
aI-1
aF22.976001739501953
aF339.26397705078125
aF-1.0
aI29
aI24
aI-1
aF287.10400390625
aF353.6639709472656
aF-1.0
asg10
(lp317
F0.002
aF0.0
aF0.004
asba(i__main__
sensor_data_struct
p318
(dp319
g3
(lp320
I635
aI351
aI222
aI1137
aI2578
aF185.0
aI908
aI451
aI269
aI1554
aI2405
aF220.0
asg5
I1
sg6
(lp321
I-1
aI-1
aI-1
aI-1
aI-1
aI-1
asg8
(lp322
I55
aI44
aI-1
aF27.00800132751465
aF339.90399169921875
aF-1.0
aI37
aI36
aI-1
aF323.8399963378906
aF384.0639953613281
aF-1.0
asg10
(lp323
F-0.011000000000000001
aF-0.004
aF0.012
asba(i__main__
sensor_data_struct
p324
(dp325
g3
(lp326
I622
aI350
aI218
aI1124
aI2587
aF190.0
aI1069
aI483
aI302
aI1758
aI2338
aF194.0
asg5
I1
sg6
(lp327
I-1
aI-1
aI-1
aI-1
aI-1
aI-1
asg8
(lp328
I32
aI28
aI-1
aF27.583999633789062
aF340.6719970703125
aF-1.0
aI31
aI28
aI-1
aF307.00799560546875
aF365.6319885253906
aF-1.0
asg10
(lp329
F0.001
aF-0.002
aF0.015
asba(i__main__
sensor_data_struct
p330
(dp331
g3
(lp332
I673
aI357
aI228
aI1184
aI2535
aF178.0
aI986
aI418
aI285
aI1585
aI2341
aF131.0
asg5
I0
sg6
(lp333
I-1
aI-1
aI-1
aI-1
aI-1
aI-1
asg8
(lp334
I31
aI18
aI-1
aF26.56000328063965
aF339.7120056152344
aF-1.0
aI30
aI24
aI-1
aF287.10400390625
aF353.9839782714844
aF-1.0
asg10
(lp335
F-0.005
aF-0.004
aF0.004
asba(i__main__
sensor_data_struct
p336
(dp337
g3
(lp338
I654
aI353
aI223
aI1162
aI2552
aF181.0
aI1015
aI418
aI293
aI1623
aI2347
aF115.0
asg5
I0
sg6
(lp339
I-1
aI-1
aI-1
aI-1
aI-1
aI-1
asg8
(lp340
I30
aI25
aI-1
aF26.751998901367188
aF341.44000244140625
aF-1.0
aI26
aI25
aI-1
aF300.9280090332031
aF356.35198974609375
aF-1.0
asg10
(lp341
F-0.002
aF0.005
aF0.01
asba(i__main__
sensor_data_struct
p342
(dp343
g3
(lp344
I616
aI347
aI217
aI1114
aI2593
aF188.0
aI772
aI379
aI247
aI1316
aI2464
aF166.0
asg5
I0
sg6
(lp345
I-1
aI-1
aI-1
aI-1
aI-1
aI-1
asg8
(lp346
I32
aI30
aI-1
aF26.816001892089844
aF340.2879943847656
aF-1.0
aI31
aI25
aI-1
aF303.552001953125
aF367.0399475097656
aF-1.0
asg10
(lp347
F-0.004
aF-0.009000000000000001
aF0.011000000000000001
asba(i__main__
sensor_data_struct
p348
(dp349
g3
(lp350
I631
aI351
aI219
aI1134
aI2576
aF188.0
aI1221
aI496
aI329
aI1931
aI2281
aF145.0
asg5
I0
sg6
(lp351
I-1
aI-1
aI-1
aI-1
aI-1
aI-1
asg8
(lp352
I41
aI14
aI-1
aF28.479999542236328
aF341.3760070800781
aF-1.0
aI28
aI23
aI-1
aF298.68798828125
aF353.9200134277344
aF-1.0
asg10
(lp353
F-0.006999999999999999
aF-0.001
aF0.008
asba(i__main__
sensor_data_struct
p354
(dp355
g3
(lp356
I619
aI346
aI217
aI1117
aI2591
aF186.0
aI1228
aI495
aI330
aI1936
aI2276
aF141.0
asg5
I0
sg6
(lp357
I-1
aI-1
aI-1
aI-1
aI-1
aI-1
asg8
(lp358
I23
aI32
aI-1
aF27.3279972076416
aF340.7359619140625
aF-1.0
aI28
aI24
aI-1
aF299.3280029296875
aF364.09600830078125
aF-1.0
asg10
(lp359
F0.006
aF-0.002
aF0.008
asba(i__main__
sensor_data_struct
p360
(dp361
g3
(lp362
I673
aI357
aI228
aI1185
aI2539
aF178.0
aI985
aI427
aI287
aI1602
aI2362
aF144.0
asg5
I1
sg6
(lp363
I-1
aI-1
aI-1
aI-1
aI-1
aI-1
asg8
(lp364
I30
aI30
aI-1
aF27.583999633789062
aF340.99200439453125
aF-1.0
aI29
aI23
aI-1
aF305.343994140625
aF356.6719970703125
aF-1.0
asg10
(lp365
F0.001
aF0.004
aF0.013000000000000001
asba(i__main__
sensor_data_struct
p366
(dp367
g3
(lp368
I680
aI364
aI229
aI1204
aI2541
aF186.0
aI1079
aI487
aI306
aI1775
aI2344
aF194.0
asg5
I1
sg6
(lp369
I-1
aI-1
aI-1
aI-1
aI-1
aI-1
asg8
(lp370
I34
aI28
aI-1
aF27.904001235961914
aF340.79998779296875
aF-1.0
aI31
aI29
aI-1
aF307.20001220703125
aF359.0399475097656
aF-1.0
asg10
(lp371
F0.001
aF0.001
aF0.015
asba(i__main__
sensor_data_struct
p372
(dp373
g3
(lp374
I628
aI354
aI221
aI1135
aI2590
aF193.0
aI1136
aI468
aI315
aI1807
aI2304
aF139.0
asg5
I0
sg6
(lp375
I-1
aI-1
aI-1
aI-1
aI-1
aI-1
asg8
(lp376
I18
aI36
aI-1
aF26.8799991607666
aF342.2079772949219
aF-1.0
aI27
aI22
aI-1
aF297.343994140625
aF361.1519775390625
aF-1.0
asg10
(lp377
F0.006
aF-0.004
aF0.006999999999999999
asba(i__main__
sensor_data_struct
p378
(dp379
g3
(lp380
I632
aI352
aI223
aI1135
aI2586
aF187.0
aI930
aI460
aI276
aI1582
aI2394
aF222.0
asg5
I1
sg6
(lp381
I-1
aI-1
aI-1
aI-1
aI-1
aI-1
asg8
(lp382
I53
aI43
aI-1
aF26.751998901367188
aF340.15997314453125
aF-1.0
aI35
aI36
aI-1
aF322.239990234375
aF387.7120056152344
aF-1.0
asg10
(lp383
F0.006
aF-0.009000000000000001
aF0.013999999999999999
asba(i__main__
sensor_data_struct
p384
(dp385
g3
(lp386
I656
aI362
aI227
aI1174
aI2568
aF192.0
aI1222
aI496
aI331
aI1929
aI2279
aF143.0
asg5
I0
sg6
(lp387
I-1
aI-1
aI-1
aI-1
aI-1
aI-1
asg8
(lp388
I30
aI31
aI-1
aF28.288000106811523
aF341.75994873046875
aF-1.0
aI29
aI23
aI-1
aF300.09600830078125
aF364.4800109863281
aF-1.0
asg10
(lp389
F0.008
aF0.0
aF0.008
asba(i__main__
sensor_data_struct
p390
(dp391
g3
(lp392
I617
aI349
aI218
aI1117
aI2597
aF190.0
aI987
aI462
aI289
aI1650
aI2380
aF197.0
asg5
I1
sg6
(lp393
I-1
aI-1
aI-1
aI-1
aI-1
aI-1
asg8
(lp394
I46
aI46
aI-1
aF27.00800132751465
aF338.9439697265625
aF-1.0
aI32
aI29
aI-1
aF308.2239990234375
aF343.7439880371094
aF-1.0
asg10
(lp395
F-0.01
aF0.006
aF0.015
asba(i__main__
sensor_data_struct
p396
(dp397
g3
(lp398
I628
aI353
aI222
aI1132
aI2592
aF190.0
aI816
aI399
aI255
aI1389
aI2446
aF178.0
asg5
I1
sg6
(lp399
I-1
aI-1
aI-1
aI-1
aI-1
aI-1
asg8
(lp400
I45
aI39
aI-1
aF27.071998596191406
aF340.09600830078125
aF-1.0
aI27
aI26
aI-1
aF305.5359802246094
aF368.0
aF-1.0
asg10
(lp401
F-0.004
aF-0.011000000000000001
aF0.013000000000000001
asba(i__main__
sensor_data_struct
p402
(dp403
g3
(lp404
I720
aI365
aI238
aI1243
aI2500
aF168.0
aI1037
aI451
aI295
aI1685
aI2339
aF159.0
asg5
I0
sg6
(lp405
I-1
aI-1
aI-1
aI-1
aI-1
aI-1
asg8
(lp406
I43
aI28
aI-1
aF28.735998153686523
aF340.4159851074219
aF-1.0
aI28
aI24
aI-1
aF305.2799987792969
aF364.4159851074219
aF-1.0
asg10
(lp407
F0.006
aF0.0
aF0.012
asba(i__main__
sensor_data_struct
p408
(dp409
g3
(lp410
I623
aI350
aI219
aI1124
aI2587
aF189.0
aI1080
aI480
aI304
aI1765
aI2333
aF184.0
asg5
I1
sg6
(lp411
I-1
aI-1
aI-1
aI-1
aI-1
aI-1
asg8
(lp412
I46
aI36
aI-1
aF26.943998336791992
aF340.2239990234375
aF-1.0
aI28
aI25
aI-1
aF305.66400146484375
aF368.7040100097656
aF-1.0
asg10
(lp413
F-0.004
aF-0.009000000000000001
aF0.013000000000000001
asba(i__main__
sensor_data_struct
p414
(dp415
g3
(lp416
I650
aI355
aI224
aI1157
aI2557
aF185.0
aI904
aI420
aI271
aI1507
aI2396
aF171.0
asg5
I1
sg6
(lp417
I-1
aI-1
aI-1
aI-1
aI-1
aI-1
asg8
(lp418
I32
aI26
aI-1
aF27.7759952545166
aF340.9280090332031
aF-1.0
aI29
aI27
aI-1
aF306.1759948730469
aF365.88800048828125
aF-1.0
asg10
(lp419
F0.002
aF-0.002
aF0.013999999999999999
asba(i__main__
sensor_data_struct
p420
(dp421
g3
(lp422
I646
aI355
aI223
aI1154
aI2563
aF187.0
aI847
aI403
aI260
aI1425
aI2422
aF170.0
asg5
I0
sg6
(lp423
I-1
aI-1
aI-1
aI-1
aI-1
aI-1
asg8
(lp424
I42
aI25
aI-1
aF27.967998504638672
aF340.99200439453125
aF-1.0
aI27
aI23
aI-1
aF305.1520080566406
aF362.0480041503906
aF-1.0
asg10
(lp425
F-0.005
aF-0.004
aF0.012
asba(i__main__
sensor_data_struct
p426
(dp427
g3
(lp428
I688
aI362
aI232
aI1205
aI2528
aF178.0
aI983
aI430
aI286
aI1601
aI2357
aF150.0
asg5
I0
sg6
(lp429
I-1
aI-1
aI-1
aI-1
aI-1
aI-1
asg8
(lp430
I32
aI16
aI-1
aF27.647998809814453
aF340.99200439453125
aF-1.0
aI27
aI22
aI-1
aF299.7760009765625
aF356.60797119140625
aF-1.0
asg10
(lp431
F-0.005
aF-0.001
aF0.009000000000000001
asba(i__main__
sensor_data_struct
p432
(dp433
g3
(lp434
I619
aI349
aI218
aI1118
aI2589
aF190.0
aI831
aI422
aI256
aI1435
aI2441
aF208.0
asg5
I1
sg6
(lp435
I-1
aI-1
aI-1
aI-1
aI-1
aI-1
asg8
(lp436
I53
aI46
aI-1
aF26.56000328063965
aF339.8399963378906
aF-1.0
aI36
aI36
aI-1
aF323.45599365234375
aF384.5119934082031
aF-1.0
asg10
(lp437
F0.004
aF-0.01
aF0.015
asba(i__main__
sensor_data_struct
p438
(dp439
g3
(lp440
I666
aI358
aI226
aI1179
aI2544
aF183.0
aI1218
aI448
aI337
aI1869
aI2284
aF65.0
asg5
I0
sg6
(lp441
I-1
aI-1
aI-1
aI-1
aI-1
aI-1
asg8
(lp442
I29
aI30
aI-1
aF29.695999145507812
aF341.6319885253906
aF-1.0
aI28
aI23
aI-1
aF300.60797119140625
aF358.8480224609375
aF-1.0
asg10
(lp443
F0.003
aF0.004
aF0.009000000000000001
asba(i__main__
sensor_data_struct
p444
(dp445
g3
(lp446
I781
aI375
aI250
aI1319
aI2459
aF155.0
aI1114
aI469
aI312
aI1788
aI2321
aF150.0
asg5
I0
sg6
(lp447
I-1
aI-1
aI-1
aI-1
aI-1
aI-1
asg8
(lp448
I29
aI22
aI-1
aF26.49599838256836
aF342.0159912109375
aF-1.0
aI29
aI25
aI-1
aF301.3760070800781
aF357.69598388671875
aF-1.0
asg10
(lp449
F-0.002
aF0.003
aF0.01
asba(i__main__
sensor_data_struct
p450
(dp451
g3
(lp452
I623
aI351
aI221
aI1124
aI2596
aF189.0
aI829
aI414
aI257
aI1421
aI2442
aF196.0
asg5
I1
sg6
(lp453
I-1
aI-1
aI-1
aI-1
aI-1
aI-1
asg8
(lp454
I50
aI37
aI-1
aF27.00800132751465
aF340.2879943847656
aF-1.0
aI37
aI35
aI-1
aF321.7279968261719
aF382.8480224609375
aF-1.0
asg10
(lp455
F0.006
aF-0.005
aF0.013999999999999999
asba(i__main__
sensor_data_struct
p456
(dp457
g3
(lp458
I641
aI356
aI224
aI1149
aI2574
aF189.0
aI770
aI376
aI248
aI1307
aI2465
aF161.0
asg5
I0
sg6
(lp459
I-1
aI-1
aI-1
aI-1
aI-1
aI-1
asg8
(lp460
I34
aI24
aI-1
aF27.711999893188477
aF340.9280090332031
aF-1.0
aI29
aI23
aI-1
aF303.23199462890625
aF363.4559631347656
aF-1.0
asg10
(lp461
F-0.003
aF-0.004
aF0.01
asba(i__main__
sensor_data_struct
p462
(dp463
g3
(lp464
I671
aI364
aI229
aI1192
aI2549
aF189.0
aI946
aI448
aI279
aI1585
aI2383
aF195.0
asg5
I1
sg6
(lp465
I-1
aI-1
aI-1
aI-1
aI-1
aI-1
asg8
(lp466
I52
aI46
aI-1
aF26.8799991607666
aF339.90399169921875
aF-1.0
aI30
aI29
aI-1
aF306.68798828125
aF368.9599914550781
aF-1.0
asg10
(lp467
F-0.002
aF-0.011000000000000001
aF0.015
asba(i__main__
sensor_data_struct
p468
(dp469
g3
(lp470
I777
aI376
aI251
aI1319
aI2474
aF157.0
aI1103
aI472
aI312
aI1782
aI2333
aF158.0
asg5
I0
sg6
(lp471
I-1
aI-1
aI-1
aI-1
aI-1
aI-1
asg8
(lp472
I32
aI32
aI-1
aF26.368000030517578
aF341.2479553222656
aF-1.0
aI25
aI25
aI-1
aF303.7439880371094
aF351.42401123046875
aF-1.0
asg10
(lp473
F-0.005
aF0.009000000000000001
aF0.011000000000000001
asba(i__main__
sensor_data_struct
p474
(dp475
g3
(lp476
I699
aI370
aI234
aI1231
aI2528
aF185.0
aI1126
aI489
aI316
aI1826
aI2327
aF174.0
asg5
I1
sg6
(lp477
I-1
aI-1
aI-1
aI-1
aI-1
aI-1
asg8
(lp478
I32
aI34
aI-1
aF27.00800132751465
aF341.1199951171875
aF-1.0
aI30
aI23
aI-1
aF304.89599609375
aF344.0
aF-1.0
asg10
(lp479
F-0.005
aF0.008
aF0.012
asba(i__main__
sensor_data_struct
p480
(dp481
g3
(lp482
I628
aI351
aI222
aI1132
aI2596
aF187.0
aI1244
aI478
aI333
aI1928
aI2262
aF106.0
asg5
I0
sg6
(lp483
I-1
aI-1
aI-1
aI-1
aI-1
aI-1
asg8
(lp484
I21
aI29
aI-1
aF19.13599967956543
aF341.05596923828125
aF-1.0
aI28
aI22
aI-1
aF279.10400390625
aF345.21600341796875
aF-1.0
asg10
(lp485
F0.001
aF-0.005
aF0.001
asba(i__main__
sensor_data_struct
p486
(dp487
g3
(lp488
I665
aI357
aI229
aI1175
aI2551
aF179.0
aI947
aI424
aI281
aI1554
aI2375
aF156.0
asg5
I0
sg6
(lp489
I-1
aI-1
aI-1
aI-1
aI-1
aI-1
asg8
(lp490
I23
aI25
aI-1
aF26.943998336791992
aF341.1199951171875
aF-1.0
aI28
aI22
aI-1
aF303.552001953125
aF365.75994873046875
aF-1.0
asg10
(lp491
F0.001
aF-0.003
aF0.01
asba(i__main__
sensor_data_struct
p492
(dp493
g3
(lp494
I607
aI348
aI217
aI1104
aI2607
aF193.0
aI1109
aI487
aI309
aI1804
aI2322
aF182.0
asg5
I1
sg6
(lp495
I-1
aI-1
aI-1
aI-1
aI-1
aI-1
asg8
(lp496
I49
aI32
aI-1
aF27.00800132751465
aF340.35198974609375
aF-1.0
aI28
aI23
aI-1
aF305.343994140625
aF367.23199462890625
aF-1.0
asg10
(lp497
F0.012
aF-0.001
aF0.012
asba(i__main__
sensor_data_struct
p498
(dp499
g3
(lp500
I650
aI353
aI223
aI1157
aI2559
aF182.0
aI904
aI407
aI273
aI1490
aI2395
aF149.0
asg5
I0
sg6
(lp501
I-1
aI-1
aI-1
aI-1
aI-1
aI-1
asg8
(lp502
I30
aI26
aI-1
aF28.032001495361328
aF341.44000244140625
aF-1.0
aI30
aI26
aI-1
aF305.8559875488281
aF361.6639709472656
aF-1.0
asg10
(lp503
F0.002
aF0.002
aF0.013000000000000001
asba(i__main__
sensor_data_struct
p504
(dp505
g3
(lp506
I704
aI365
aI235
aI1228
aI2517
aF175.0
aI1002
aI445
aI289
aI1645
aI2362
aF165.0
asg5
I1
sg6
(lp507
I-1
aI-1
aI-1
aI-1
aI-1
aI-1
asg8
(lp508
I34
aI37
aI-1
aF28.2239990234375
aF341.88800048828125
aF-1.0
aI28
aI29
aI-1
aF306.36798095703125
aF357.88800048828125
aF-1.0
asg10
(lp509
F0.001
aF0.005
aF0.013999999999999999
asba(i__main__
sensor_data_struct
p510
(dp511
g3
(lp512
I626
aI351
aI220
aI1131
aI2592
aF189.0
aI872
aI401
aI265
aI1450
aI2407
aF155.0
asg5
I1
sg6
(lp513
I-1
aI-1
aI-1
aI-1
aI-1
aI-1
asg8
(lp514
I44
aI30
aI-1
aF27.711999893188477
aF340.4800109863281
aF-1.0
aI28
aI24
aI-1
aF305.6000061035156
aF368.8960266113281
aF-1.0
asg10
(lp515
F0.008
aF-0.001
aF0.013000000000000001
asba(i__main__
sensor_data_struct
p516
(dp517
g3
(lp518
I623
aI350
aI219
aI1125
aI2592
aF189.0
aI1058
aI507
aI298
aI1778
aI2351
aF238.0
asg5
I1
sg6
(lp519
I-1
aI-1
aI-1
aI-1
aI-1
aI-1
asg8
(lp520
I33
aI43
aI-1
aF27.519996643066406
aF341.05596923828125
aF-1.0
aI28
aI36
aI-1
aF319.48797607421875
aF388.15997314453125
aF-1.0
asg10
(lp521
F0.005
aF-0.008
aF0.011000000000000001
asba(i__main__
sensor_data_struct
p522
(dp523
g3
(lp524
I628
aI354
aI221
aI1136
aI2594
aF193.0
aI867
aI434
aI263
aI1488
aI2425
aF211.0
asg5
I1
sg6
(lp525
I-1
aI-1
aI-1
aI-1
aI-1
aI-1
asg8
(lp526
I52
aI44
aI-1
aF27.84000015258789
aF341.5679931640625
aF-1.0
aI35
aI36
aI-1
aF320.0
aF385.1519775390625
aF-1.0
asg10
(lp527
F0.009000000000000001
aF-0.008
aF0.012
asba(i__main__
sensor_data_struct
p528
(dp529
g3
(lp530
I708
aI364
aI235
aI1229
aI2507
aF172.0
aI979
aI413
aI286
aI1574
aI2352
aF124.0
asg5
I0
sg6
(lp531
I-1
aI-1
aI-1
aI-1
aI-1
aI-1
asg8
(lp532
I34
aI16
aI-1
aF25.472000122070312
aF334.9119873046875
aF-1.0
aI28
aI24
aI-1
aF279.2959899902344
aF348.35198974609375
aF-1.0
asg10
(lp533
F-0.004
aF-0.001
aF0.001
asba(i__main__
sensor_data_struct
p534
(dp535
g3
(lp536
I625
aI349
aI219
aI1127
aI2588
aF187.0
aI1270
aI498
aI339
aI1983
aI2264
aF125.0
asg5
I0
sg6
(lp537
I-1
aI-1
aI-1
aI-1
aI-1
aI-1
asg8
(lp538
I23
aI31
aI-1
aF26.751998901367188
aF341.1199951171875
aF-1.0
aI29
aI23
aI-1
aF296.447998046875
aF361.02398681640625
aF-1.0
asg10
(lp539
F0.006
aF-0.002
aF0.006
asba(i__main__
sensor_data_struct
p540
(dp541
g3
(lp542
I700
aI362
aI234
aI1220
aI2519
aF172.0
aI1239
aI459
aI338
aI1902
aI2271
aF74.0
asg5
I0
sg6
(lp543
I-1
aI-1
aI-1
aI-1
aI-1
aI-1
asg8
(lp544
I30
aI31
aI-1
aF28.60799789428711
aF341.69598388671875
aF-1.0
aI29
aI24
aI-1
aF300.7359924316406
aF359.1679992675781
aF-1.0
asg10
(lp545
F0.002
aF0.005
aF0.009000000000000001
asba(i__main__
sensor_data_struct
p546
(dp547
g3
(lp548
I623
aI352
aI221
aI1124
aI2591
aF191.0
aI872
aI442
aI264
aI1504
aI2426
aF221.0
asg5
I1
sg6
(lp549
I-1
aI-1
aI-1
aI-1
aI-1
aI-1
asg8
(lp550
I53
aI46
aI-1
aF26.368000030517578
aF339.5199890136719
aF-1.0
aI37
aI34
aI-1
aF323.8399963378906
aF385.6000061035156
aF-1.0
asg10
(lp551
F0.0
aF-0.013000000000000001
aF0.013999999999999999
asba(i__main__
sensor_data_struct
p552
(dp553
g3
(lp554
I633
aI354
aI221
aI1140
aI2580
aF191.0
aI1163
aI496
aI323
aI1872
aI2312
aF168.0
asg5
I0
sg6
(lp555
I-1
aI-1
aI-1
aI-1
aI-1
aI-1
asg8
(lp556
I32
aI36
aI-1
aF27.583999633789062
aF340.60797119140625
aF-1.0
aI28
aI22
aI-1
aF304.1919860839844
aF353.40802001953125
aF-1.0
asg10
(lp557
F-0.002
aF0.008
aF0.011000000000000001
asba(i__main__
sensor_data_struct
p558
(dp559
g3
(lp560
I648
aI357
aI224
aI1161
aI2569
aF189.0
aI1051
aI428
aI301
aI1673
aI2337
aF114.0
asg5
I0
sg6
(lp561
I-1
aI-1
aI-1
aI-1
aI-1
aI-1
asg8
(lp562
I34
aI32
aI-1
aF28.15999984741211
aF342.0159912109375
aF-1.0
aI29
aI21
aI-1
aF304.7040100097656
aF356.15997314453125
aF-1.0
asg10
(lp563
F0.001
aF0.006
aF0.012
asba(i__main__
sensor_data_struct
p564
(dp565
g3
(lp566
I1034
aI415
aI300
aI1634
aI2338
aF99.0
aI1391
aI503
aI365
aI2118
aI2241
aF75.0
asg5
I0
sg6
(lp567
I-1
aI-1
aI-1
aI-1
aI-1
aI-1
asg8
(lp568
I33
aI30
aI-1
aF29.1200008392334
aF342.0159912109375
aF-1.0
aI28
aI24
aI-1
aF296.38397216796875
aF356.4800109863281
aF-1.0
asg10
(lp569
F0.002
aF0.005
aF0.006
asba(i__main__
sensor_data_struct
p570
(dp571
g3
(lp572
I667
aI358
aI228
aI1181
aI2550
aF181.0
aI962
aI431
aI282
aI1584
aI2375
aF161.0
asg5
I1
sg6
(lp573
I-1
aI-1
aI-1
aI-1
aI-1
aI-1
asg8
(lp574
I32
aI36
aI-1
aF27.711999893188477
aF342.0799865722656
aF-1.0
aI31
aI27
aI-1
aF306.36798095703125
aF356.4800109863281
aF-1.0
asg10
(lp575
F-0.001
aF0.006
aF0.013999999999999999
asba(i__main__
sensor_data_struct
p576
(dp577
g3
(lp578
I808
aI381
aI256
aI1358
aI2451
aF151.0
aI1281
aI483
aI344
aI1981
aI2269
aF94.0
asg5
I0
sg6
(lp579
I-1
aI-1
aI-1
aI-1
aI-1
aI-1
asg8
(lp580
I40
aI35
aI-1
aF29.760000228881836
aF340.99200439453125
aF-1.0
aI29
aI25
aI-1
aF303.03997802734375
aF359.48797607421875
aF-1.0
asg10
(lp581
F0.005
aF0.006
aF0.01
asba(i__main__
sensor_data_struct
p582
(dp583
g3
(lp584
I658
aI356
aI228
aI1167
aI2562
aF181.0
aI898
aI438
aI269
aI1524
aI2407
aF202.0
asg5
I1
sg6
(lp585
I-1
aI-1
aI-1
aI-1
aI-1
aI-1
asg8
(lp586
I20
aI39
aI-1
aF27.391996383666992
aF341.6319885253906
aF-1.0
aI19
aI38
aI-1
aF316.8639831542969
aF388.9280090332031
aF-1.0
asg10
(lp587
F0.004
aF-0.006999999999999999
aF0.009000000000000001
asba(i__main__
sensor_data_struct
p588
(dp589
g3
(lp590
I630
aI355
aI222
aI1137
aI2588
aF193.0
aI768
aI385
aI247
aI1321
aI2478
aF177.0
asg5
I1
sg6
(lp591
I-1
aI-1
aI-1
aI-1
aI-1
aI-1
asg8
(lp592
I36
aI39
aI-1
aF28.416000366210938
aF341.88800048828125
aF-1.0
aI27
aI37
aI-1
aF317.69598388671875
aF388.5440368652344
aF-1.0
asg10
(lp593
F0.008
aF-0.005
aF0.01
asba(i__main__
sensor_data_struct
p594
(dp595
g3
(lp596
I655
aI357
aI225
aI1167
aI2558
aF186.0
aI962
aI416
aI284
aI1563
aI2371
aF136.0
asg5
I0
sg6
(lp597
I-1
aI-1
aI-1
aI-1
aI-1
aI-1
asg8
(lp598
I34
aI18
aI-1
aF26.17599868774414
aF340.99200439453125
aF-1.0
aI29
aI24
aI-1
aF300.35198974609375
aF349.05596923828125
aF-1.0
asg10
(lp599
F-0.006999999999999999
aF0.006999999999999999
aF0.009000000000000001
asba(i__main__
sensor_data_struct
p600
(dp601
g3
(lp602
I625
aI351
aI221
aI1129
aI2596
aF189.0
aI1085
aI431
aI308
aI1713
aI2326
aF102.0
asg5
I1
sg6
(lp603
I-1
aI-1
aI-1
aI-1
aI-1
aI-1
asg8
(lp604
I49
aI36
aI-1
aF27.967998504638672
aF340.2239990234375
aF-1.0
aI27
aI25
aI-1
aF305.21600341796875
aF358.8480224609375
aF-1.0
asg10
(lp605
F0.006999999999999999
aF0.005
aF0.012
asba.