(lp0
(i__main__
sensor_data_struct
p1
(dp2
S'color'
p3
(lp4
I611
aI314
aI200
aI1092
aI2569
aF150.0
aI963
aI374
aI266
aI1529
aI2333
aF82.0
asS'button'
p5
I0
sS'IR'
p6
(lp7
I-1
aI-1
aI-1
aI-1
aI-1
aI-1
asS'TOF'
p8
(lp9
I27
aI23
aI-1
aF19.07200050354004
aF336.32000732421875
aF-1.0
aI29
aI25
aI-1
aF282.9440002441406
aF353.343994140625
aF-1.0
asS'pt'
p10
(lp11
F0.0
aF0.0
aF0.003
asba(i__main__
sensor_data_struct
p12
(dp13
g3
(lp14
I622
aI329
aI200
aI1122
aI2556
aF170.0
aI1085
aI440
aI286
aI1744
aI2307
aF132.0
asg5
I0
sg6
(lp15
I-1
aI-1
aI-1
aI-1
aI-1
aI-1
asg8
(lp16
I26
aI23
aI-1
aF24.703998565673828
aF339.7760009765625
aF-1.0
aI30
aI24
aI-1
aF298.68798828125
aF363.4559631347656
aF-1.0
asg10
(lp17
F-0.001
aF-0.003
aF0.008
asba(i__main__
sensor_data_struct
p18
(dp19
g3
(lp20
I594
aI324
aI194
aI1086
aI2577
aF176.0
aI1051
aI443
aI279
aI1713
aI2320
aF153.0
asg5
I0
sg6
(lp21
I-1
aI-1
aI-1
aI-1
aI-1
aI-1
asg8
(lp22
I47
aI20
aI-1
aF26.368000030517578
aF339.7120056152344
aF-1.0
aI27
aI25
aI-1
aF302.78399658203125
aF362.7520446777344
aF-1.0
asg10
(lp23
F-0.006999999999999999
aF-0.004
aF0.01
asba(i__main__
sensor_data_struct
p24
(dp25
g3
(lp26
I971
aI379
aI269
aI1547
aI2340
aF86.0
aI1411
aI477
aI352
aI2129
aI2225
aF37.0
asg5
I0
sg6
(lp27
I-1
aI-1
aI-1
aI-1
aI-1
aI-1
asg8
(lp28
I30
aI30
aI-1
aF25.600000381469727
aF338.6239929199219
aF-1.0
aI29
aI24
aI-1
aF288.32000732421875
aF355.3280029296875
aF-1.0
asg10
(lp29
F0.004
aF0.003
aF0.004
asba(i__main__
sensor_data_struct
p30
(dp31
g3
(lp32
I579
aI319
aI192
aI1065
aI2600
aF174.0
aI1106
aI451
aI289
aI1781
aI2302
aF141.0
asg5
I0
sg6
(lp33
I-1
aI-1
aI-1
aI-1
aI-1
aI-1
asg8
(lp34
I33
aI17
aI-1
aF25.7919979095459
aF339.583984375
aF-1.0
aI30
aI23
aI-1
aF299.583984375
aF358.97601318359375
aF-1.0
asg10
(lp35
F-0.005
aF-0.002
aF0.009000000000000001
asba(i__main__
sensor_data_struct
p36
(dp37
g3
(lp38
I632
aI330
aI203
aI1130
aI2543
aF167.0
aI926
aI411
aI255
aI1545
aI2369
aF161.0
asg5
I1
sg6
(lp39
I-1
aI-1
aI-1
aI-1
aI-1
aI-1
asg8
(lp40
I30
aI27
aI-1
aF26.17599868774414
aF340.09600830078125
aF-1.0
aI28
aI25
aI-1
aF305.02398681640625
aF367.48797607421875
aF-1.0
asg10
(lp41
F-0.001
aF-0.004
aF0.013000000000000001
asba(i__main__
sensor_data_struct
p42
(dp43
g3
(lp44
I607
aI325
aI198
aI1098
aI2564
aF170.0
aI879
aI400
aI246
aI1482
aI2390
aF165.0
asg5
I1
sg6
(lp45
I-1
aI-1
aI-1
aI-1
aI-1
aI-1
asg8
(lp46
I48
aI37
aI-1
aF25.600000381469727
aF339.5199890136719
aF-1.0
aI30
aI27
aI-1
aF305.21600341796875
aF368.2559814453125
aF-1.0
asg10
(lp47
F-0.005
aF-0.006999999999999999
aF0.013000000000000001
asba(i__main__
sensor_data_struct
p48
(dp49
g3
(lp50
I571
aI318
aI189
aI1055
aI2602
aF178.0
aI1026
aI445
aI274
aI1690
aI2333
aF168.0
asg5
I1
sg6
(lp51
I-1
aI-1
aI-1
aI-1
aI-1
aI-1
asg8
(lp52
I50
aI35
aI-1
aF25.919998168945312
aF339.583984375
aF-1.0
aI29
aI25
aI-1
aF305.2799987792969
aF367.61602783203125
aF-1.0
asg10
(lp53
F0.008
aF-0.003
aF0.013000000000000001
asba(i__main__
sensor_data_struct
p54
(dp55
g3
(lp56
I646
aI329
aI204
aI1149
aI2532
aF160.0
aI1104
aI413
aI289
aI1742
aI2304
aF81.0
asg5
I1
sg6
(lp57
I-1
aI-1
aI-1
aI-1
aI-1
aI-1
asg8
(lp58
I42
aI44
aI-1
aF26.56000328063965
aF339.3919982910156
aF-1.0
aI40
aI40
aI-1
aF296.6399841308594
aF344.1280212402344
aF-1.0
asg10
(lp59
F0.002
aF0.009000000000000001
aF0.013000000000000001
asba(i__main__
sensor_data_struct
p60
(dp61
g3
(lp62
I608
aI324
aI199
aI1100
aI2573
aF168.0
aI885
aI426
aI247
aI1523
aI2400
aF204.0
asg5
I1
sg6
(lp63
I-1
aI-1
aI-1
aI-1
aI-1
aI-1
asg8
(lp64
I46
aI37
aI-1
aF25.535999298095703
aF338.36798095703125
aF-1.0
aI37
aI36
aI-1
aF323.45599365234375
aF378.6879577636719
aF-1.0
asg10
(lp65
F-0.01
aF0.003
aF0.013000000000000001
asba(i__main__
sensor_data_struct
p66
(dp67
g3
(lp68
I586
aI322
aI193
aI1078
aI2596
aF176.0
aI1184
aI468
aI304
aI1882
aI2277
aF131.0
asg5
I0
sg6
(lp69
I-1
aI-1
aI-1
aI-1
aI-1
aI-1
asg8
(lp70
I41
aI35
aI-1
aF27.263999938964844
aF340.09600830078125
aF-1.0
aI28
aI24
aI-1
aF300.8639831542969
aF362.36798095703125
aF-1.0
asg10
(lp71
F0.008
aF0.006
aF0.009000000000000001
asba(i__main__
sensor_data_struct
p72
(dp73
g3
(lp74
I637
aI328
aI204
aI1133
aI2535
aF161.0
aI953
aI407
aI261
aI1565
aI2350
aF141.0
asg5
I0
sg6
(lp75
I-1
aI-1
aI-1
aI-1
aI-1
aI-1
asg8
(lp76
I27
aI24
aI-1
aF25.21599769592285
aF339.90399169921875
aF-1.0
aI26
aI23
aI-1
aF302.78399658203125
aF365.5039978027344
aF-1.0
asg10
(lp77
F0.0
aF-0.003
aF0.01
asba(i__main__
sensor_data_struct
p78
(dp79
g3
(lp80
I609
aI324
aI196
aI1102
aI2560
aF170.0
aI887
aI377
aI250
aI1460
aI2378
aF124.0
asg5
I0
sg6
(lp81
I-1
aI-1
aI-1
aI-1
aI-1
aI-1
asg8
(lp82
I31
aI22
aI-1
aF24.959999084472656
aF340.9280090332031
aF-1.0
aI29
aI23
aI-1
aF302.7200012207031
aF357.9519958496094
aF-1.0
asg10
(lp83
F-0.003
aF0.003
aF0.011000000000000001
asba(i__main__
sensor_data_struct
p84
(dp85
g3
(lp86
I611
aI323
aI197
aI1103
aI2558
aF167.0
aI908
aI378
aI254
aI1481
aI2366
aF115.0
asg5
I0
sg6
(lp87
I-1
aI-1
aI-1
aI-1
aI-1
aI-1
asg8
(lp88
I23
aI32
aI-1
aF25.408000946044922
aF340.15997314453125
aF-1.0
aI29
aI26
aI-1
aF297.9839782714844
aF362.36798095703125
aF-1.0
asg10
(lp89
F0.006
aF-0.002
aF0.006999999999999999
asba(i__main__
sensor_data_struct
p90
(dp91
g3
(lp92
I643
aI328
aI204
aI1141
aI2529
aF159.0
aI963
aI408
aI262
aI1577
aI2344
aF139.0
asg5
I0
sg6
(lp93
I-1
aI-1
aI-1
aI-1
aI-1
aI-1
asg8
(lp94
I23
aI30
aI-1
aF25.535999298095703
aF340.4800109863281
aF-1.0
aI29
aI24
aI-1
aF302.6559753417969
aF365.82403564453125
aF-1.0
asg10
(lp95
F0.003
aF-0.003
aF0.01
asba(i__main__
sensor_data_struct
p96
(dp97
g3
(lp98
I596
aI322
aI195
aI1086
aI2580
aF172.0
aI827
aI404
aI237
aI1434
aI2425
aF195.0
asg5
I1
sg6
(lp99
I-1
aI-1
aI-1
aI-1
aI-1
aI-1
asg8
(lp100
I52
aI40
aI-1
aF26.17599868774414
aF339.3919982910156
aF-1.0
aI38
aI36
aI-1
aF323.45599365234375
aF380.8639831542969
aF-1.0
asg10
(lp101
F-0.01
aF-0.001
aF0.013000000000000001
asba(i__main__
sensor_data_struct
p102
(dp103
g3
(lp104
I604
aI326
aI195
aI1100
aI2568
aF175.0
aI1025
aI399
aI277
aI1634
aI2328
aF94.0
asg5
I0
sg6
(lp105
I-1
aI-1
aI-1
aI-1
aI-1
aI-1
asg8
(lp106
I34
aI31
aI-1
aF25.408000946044922
aF340.031982421875
aF-1.0
aI29
aI24
aI-1
aF301.1199951171875
aF355.135986328125
aF-1.0
asg10
(lp107
F-0.003
aF0.006999999999999999
aF0.01
asba(i__main__
sensor_data_struct
p108
(dp109
g3
(lp110
I649
aI329
aI205
aI1150
aI2528
aF158.0
aI1005
aI393
aI273
aI1598
aI2322
aF94.0
asg5
I0
sg6
(lp111
I-1
aI-1
aI-1
aI-1
aI-1
aI-1
asg8
(lp112
I27
aI23
aI-1
aF21.695999145507812
aF338.8799743652344
aF-1.0
aI28
aI25
aI-1
aF285.1199951171875
aF353.02398681640625
aF-1.0
asg10
(lp113
F0.001
aF0.0
aF0.004
asba(i__main__
sensor_data_struct
p114
(dp115
g3
(lp116
I573
aI317
aI190
aI1056
aI2599
aF175.0
aI664
aI337
aI208
aI1176
aI2519
aF164.0
asg5
I1
sg6
(lp117
I-1
aI-1
aI-1
aI-1
aI-1
aI-1
asg8
(lp118
I53
aI43
aI-1
aF24.703998565673828
aF338.81597900390625
aF-1.0
aI29
aI27
aI-1
aF305.66400146484375
aF367.2959899902344
aF-1.0
asg10
(lp119
F-0.002
aF-0.011000000000000001
aF0.013999999999999999
asba(i__main__
sensor_data_struct
p120
(dp121
g3
(lp122
I576
aI319
aI190
aI1061
aI2593
aF177.0
aI1169
aI455
aI300
aI1851
aI2278
aF119.0
asg5
I0
sg6
(lp123
I-1
aI-1
aI-1
aI-1
aI-1
aI-1
asg8
(lp124
I32
aI33
aI-1
aF27.647998809814453
aF339.3919982910156
aF-1.0
aI30
aI24
aI-1
aF300.2239990234375
aF364.7359619140625
aF-1.0
asg10
(lp125
F0.009000000000000001
aF0.002
aF0.008
asba(i__main__
sensor_data_struct
p126
(dp127
g3
(lp128
I594
aI321
aI193
aI1082
aI2571
aF172.0
aI1234
aI467
aI312
aI1930
aI2256
aF108.0
asg5
I0
sg6
(lp129
I-1
aI-1
aI-1
aI-1
aI-1
aI-1
asg8
(lp130
I21
aI30
aI-1
aF23.93600082397461
aF341.3760070800781
aF-1.0
aI29
aI25
aI-1
aF290.81597900390625
aF355.5199890136719
aF-1.0
asg10
(lp131
F0.002
aF-0.004
aF0.005
asba(i__main__
sensor_data_struct
p132
(dp133
g3
(lp134
I705
aI339
aI215
aI1223
aI2483
aF148.0
aI1210
aI430
aI312
aI1862
aI2264
aF57.0
asg5
I0
sg6
(lp135
I-1
aI-1
aI-1
aI-1
aI-1
aI-1
asg8
(lp136
I32
aI25
aI-1
aF21.759998321533203
aF335.1039733886719
aF-1.0
aI30
aI27
aI-1
aF289.9839782714844
aF351.2959899902344
aF-1.0
asg10
(lp137
F-0.003
aF0.006999999999999999
aF0.005
asba(i__main__
sensor_data_struct
p138
(dp139
g3
(lp140
I610
aI326
aI197
aI1108
aI2569
aF172.0
aI1127
aI452
aI295
aI1806
aI2300
aF131.0
asg5
I0
sg6
(lp141
I-1
aI-1
aI-1
aI-1
aI-1
aI-1
asg8
(lp142
I33
aI35
aI-1
aF26.623998641967773
aF340.6719970703125
aF-1.0
aI28
aI24
aI-1
aF303.3599853515625
aF357.88800048828125
aF-1.0
asg10
(lp143
F0.002
aF0.006
aF0.011000000000000001
asba(i__main__
sensor_data_struct
p144
(dp145
g3
(lp146
I620
aI327
aI201
aI1116
aI2557
aF167.0
aI902
aI426
aI250
aI1541
aI2390
aF196.0
asg5
I1
sg6
(lp147
I-1
aI-1
aI-1
aI-1
aI-1
aI-1
asg8
(lp148
I29
aI38
aI-1
aF26.368000030517578
aF340.2879943847656
aF-1.0
aI25
aI40
aI-1
aF316.8639831542969
aF382.0159912109375
aF-1.0
asg10
(lp149
F0.006
aF-0.006
aF0.01
asba(i__main__
sensor_data_struct
p150
(dp151
g3
(lp152
I596
aI323
aI194
aI1088
aI2578
aF174.0
aI1193
aI461
aI308
aI1885
aI2281
aF114.0
asg5
I0
sg6
(lp153
I-1
aI-1
aI-1
aI-1
aI-1
aI-1
asg8
(lp154
I32
aI22
aI-1
aF23.615999221801758
aF339.64801025390625
aF-1.0
aI30
aI26
aI-1
aF296.83197021484375
aF357.69598388671875
aF-1.0
asg10
(lp155
F-0.002
aF0.004
aF0.006999999999999999
asba(i__main__
sensor_data_struct
p156
(dp157
g3
(lp158
I812
aI354
aI238
aI1349
aI2415
aF120.0
aI1202
aI442
aI310
aI1866
aI2266
aF80.0
asg5
I0
sg6
(lp159
I-1
aI-1
aI-1
aI-1
aI-1
aI-1
asg8
(lp160
I27
aI28
aI-1
aF23.487998962402344
aF339.26397705078125
aF-1.0
aI31
aI25
aI-1
aF291.583984375
aF356.09600830078125
aF-1.0
asg10
(lp161
F0.003
aF0.001
aF0.005
asba(i__main__
sensor_data_struct
p162
(dp163
g3
(lp164
I583
aI319
aI192
aI1069
aI2592
aF173.0
aI915
aI411
aI252
aI1530
aI2365
aF167.0
asg5
I1
sg6
(lp165
I-1
aI-1
aI-1
aI-1
aI-1
aI-1
asg8
(lp166
I19
aI37
aI-1
aF23.040000915527344
aF341.6319885253906
aF-1.0
aI20
aI35
aI-1
aF233.27999877929688
aF370.9439697265625
aF-1.0
asg10
(lp167
F0.003
aF-0.006
aF0.003
asba(i__main__
sensor_data_struct
p168
(dp169
g3
(lp170
I603
aI320
aI195
aI1091
aI2566
aF166.0
aI1326
aI477
aI332
aI2040
aI2239
aF79.0
asg5
I0
sg6
(lp171
I-1
aI-1
aI-1
aI-1
aI-1
aI-1
asg8
(lp172
I30
aI24
aI-1
aF20.607999801635742
aF337.6639709472656
aF-1.0
aI29
aI25
aI-1
aF281.91998291015625
aF353.1519775390625
aF-1.0
asg10
(lp173
F0.001
aF0.003
aF0.003
asba(i__main__
sensor_data_struct
p174
(dp175
g3
(lp176
I675
aI336
aI211
aI1186
aI2510
aF156.0
aI1025
aI413
aI275
aI1647
aI2320
aF117.0
asg5
I0
sg6
(lp177
I-1
aI-1
aI-1
aI-1
aI-1
aI-1
asg8
(lp178
I35
aI15
aI-1
aF25.21599769592285
aF337.7919921875
aF-1.0
aI29
aI26
aI-1
aF293.88800048828125
aF351.1679992675781
aF-1.0
asg10
(lp179
F-0.006
aF0.003
aF0.006
asba(i__main__
sensor_data_struct
p180
(dp181
g3
(lp182
I573
aI318
aI190
aI1058
aI2604
aF176.0
aI1100
aI460
aI289
aI1786
aI2310
aF157.0
asg5
I0
sg6
(lp183
I-1
aI-1
aI-1
aI-1
aI-1
aI-1
asg8
(lp184
I36
aI29
aI-1
aF26.751998901367188
aF339.583984375
aF-1.0
aI28
aI25
aI-1
aF304.2559814453125
aF362.17596435546875
aF-1.0
asg10
(lp185
F0.006
aF0.001
aF0.012
asba(i__main__
sensor_data_struct
p186
(dp187
g3
(lp188
I637
aI331
aI204
aI1140
aI2544
aF166.0
aI946
aI412
aI261
aI1569
aI2367
aF152.0
asg5
I0
sg6
(lp189
I-1
aI-1
aI-1
aI-1
aI-1
aI-1
asg8
(lp190
I40
aI21
aI-1
aF26.49599838256836
aF340.15997314453125
aF-1.0
aI28
aI24
aI-1
aF302.9119873046875
aF354.0480041503906
aF-1.0
asg10
(lp191
F-0.008
aF0.003
aF0.011000000000000001
asba(i__main__
sensor_data_struct
p192
(dp193
g3
(lp194
I601
aI326
aI195
aI1097
aI2574
aF176.0
aI1160
aI467
aI301
aI1857
aI2291
aF140.0
asg5
I0
sg6
(lp195
I-1
aI-1
aI-1
aI-1
aI-1
aI-1
asg8
(lp196
I36
aI17
aI-1
aF26.11199951171875
aF341.3760070800781
aF-1.0
aI28
aI25
aI-1
aF299.135986328125
aF354.17596435546875
aF-1.0
asg10
(lp197
F-0.006
aF0.001
aF0.009000000000000001
asba(i__main__
sensor_data_struct
p198
(dp199
g3
(lp200
I673
aI332
aI210
aI1177
aI2503
aF151.0
aI975
aI389
aI267
aI1562
aI2334
aF102.0
asg5
I0
sg6
(lp201
I-1
aI-1
aI-1
aI-1
aI-1
aI-1
asg8
(lp202
I26
aI25
aI-1
aF17.3439998626709
aF337.9839782714844
aF-1.0
aI29
aI24
aI-1
aF275.0719909667969
aF343.552001953125
aF-1.0
asg10
(lp203
F-0.001
aF-0.004
aF0.0
asba(i__main__
sensor_data_struct
p204
(dp205
g3
(lp206
I595
aI321
aI194
aI1085
aI2580
aF171.0
aI1008
aI394
aI273
aI1607
aI2325
aF94.0
asg5
I0
sg6
(lp207
I-1
aI-1
aI-1
aI-1
aI-1
aI-1
asg8
(lp208
I36
aI32
aI-1
aF27.904001235961914
aF339.583984375
aF-1.0
aI29
aI25
aI-1
aF302.97601318359375
aF364.4159851074219
aF-1.0
asg10
(lp209
F0.006999999999999999
aF0.002
aF0.01
asba(i__main__
sensor_data_struct
p210
(dp211
g3
(lp212
I615
aI325
aI199
aI1107
aI2554
aF167.0
aI943
aI401
aI258
aI1546
aI2348
aF137.0
asg5
I0
sg6
(lp213
I-1
aI-1
aI-1
aI-1
aI-1
aI-1
asg8
(lp214
I40
aI15
aI-1
aF26.17599868774414
aF339.96795654296875
aF-1.0
aI29
aI25
aI-1
aF299.0719909667969
aF357.2479553222656
aF-1.0
asg10
(lp215
F-0.006999999999999999
aF-0.005
aF0.008
asba(i__main__
sensor_data_struct
p216
(dp217
g3
(lp218
I594
aI323
aI194
aI1085
aI2577
aF174.0
aI1235
aI462
aI315
aI1926
aI2260
aF97.0
asg5
I0
sg6
(lp219
I-1
aI-1
aI-1
aI-1
aI-1
aI-1
asg8
(lp220
I28
aI21
aI-1
aF22.6560001373291
aF339.7760009765625
aF-1.0
aI30
aI25
aI-1
aF286.0159912109375
aF352.7040100097656
aF-1.0
asg10
(lp221
F-0.002
aF0.001
aF0.004
asba(i__main__
sensor_data_struct
p222
(dp223
g3
(lp224
I598
aI323
aI195
aI1091
aI2580
aF172.0
aI1174
aI473
aI305
aI1881
aI2294
aF142.0
asg5
I0
sg6
(lp225
I-1
aI-1
aI-1
aI-1
aI-1
aI-1
asg8
(lp226
I33
aI22
aI-1
aF24.0
aF340.35198974609375
aF-1.0
aI28
aI25
aI-1
aF299.7760009765625
aF353.27996826171875
aF-1.0
asg10
(lp227
F-0.006
aF0.006999999999999999
aF0.009000000000000001
asba(i__main__
sensor_data_struct
p228
(dp229
g3
(lp230
I591
aI325
aI195
aI1086
aI2595
aF178.0
aI820
aI409
aI236
aI1435
aI2436
aF206.0
asg5
I1
sg6
(lp231
I-1
aI-1
aI-1
aI-1
aI-1
aI-1
asg8
(lp232
I54
aI51
aI-1
aF25.66399574279785
aF336.9599914550781
aF-1.0
aI36
aI36
aI-1
aF323.26397705078125
aF380.35198974609375
aF-1.0
asg10
(lp233
F-0.011000000000000001
aF0.006999999999999999
aF0.013999999999999999
asba(i__main__
sensor_data_struct
p234
(dp235
g3
(lp236
I583
aI324
aI192
aI1078
aI2601
aF181.0
aI1282
aI446
aI327
aI1990
aI2290
aF48.0
asg5
I1
sg6
(lp237
I-1
aI-1
aI-1
aI-1
aI-1
aI-1
asg8
(lp238
I48
aI46
aI-1
aF27.583999633789062
aF338.55999755859375
aF-1.0
aI37
aI35
aI-1
aF318.08001708984375
aF379.00799560546875
aF-1.0
asg10
(lp239
F0.002
aF0.012
aF0.012
asba(i__main__
sensor_data_struct
p240
(dp241
g3
(lp242
I593
aI324
aI194
aI1085
aI2579
aF176.0
aI715
aI350
aI217
aI1245
aI2478
aF161.0
asg5
I1
sg6
(lp243
I-1
aI-1
aI-1
aI-1
aI-1
aI-1
asg8
(lp244
I47
aI34
aI-1
aF25.919998168945312
aF339.64801025390625
aF-1.0
aI30
aI28
aI-1
aF305.4079895019531
aF368.38397216796875
aF-1.0
asg10
(lp245
F-0.006
aF-0.008
aF0.012
asba(i__main__
sensor_data_struct
p246
(dp247
g3
(lp248
I662
aI336
aI206
aI1173
aI2515
aF164.0
aI1031
aI411
aI277
aI1654
aI2325
aF111.0
asg5
I0
sg6
(lp249
I-1
aI-1
aI-1
aI-1
aI-1
aI-1
asg8
(lp250
I32
aI21
aI-1
aF24.8960018157959
aF340.79998779296875
aF-1.0
aI28
aI26
aI-1
aF298.30401611328125
aF358.0799865722656
aF-1.0
asg10
(lp251
F-0.004
aF0.003
aF0.008
asba(i__main__
sensor_data_struct
p252
(dp253
g3
(lp254
I607
aI327
aI196
aI1105
aI2569
aF175.0
aI1120
aI463
aI294
aI1811
aI2305
aF151.0
asg5
I0
sg6
(lp255
I-1
aI-1
aI-1
aI-1
aI-1
aI-1
asg8
(lp256
I28
aI23
aI-1
aF26.047998428344727
aF340.6719970703125
aF-1.0
aI28
aI26
aI-1
aF303.2959899902344
aF359.3599853515625
aF-1.0
asg10
(lp257
F0.0
aF0.001
aF0.011000000000000001
asba(i__main__
sensor_data_struct
p258
(dp259
g3
(lp260
I587
aI323
aI192
aI1079
aI2588
aF178.0
aI1036
aI461
aI280
aI1725
aI2349
aF186.0
asg5
I1
sg6
(lp261
I-1
aI-1
aI-1
aI-1
aI-1
aI-1
asg8
(lp262
I37
aI45
aI-1
aF25.408000946044922
aF339.583984375
aF-1.0
aI32
aI29
aI-1
aF306.55999755859375
aF349.05596923828125
aF-1.0
asg10
(lp263
F-0.008
aF0.008
aF0.015
asba(i__main__
sensor_data_struct
p264
(dp265
g3
(lp266
I596
aI326
aI196
aI1091
aI2586
aF177.0
aI896
aI438
aI250
aI1549
aI2400
aF217.0
asg5
I1
sg6
(lp267
I-1
aI-1
aI-1
aI-1
aI-1
aI-1
asg8
(lp268
I56
aI46
aI-1
aF25.535999298095703
aF338.4960021972656
aF-1.0
aI36
aI36
aI-1
aF323.0719909667969
aF381.5679931640625
aF-1.0
asg10
(lp269
F-0.012
aF-0.005
aF0.015
asba(i__main__
sensor_data_struct
p270
(dp271
g3
(lp272
I615
aI329
aI198
aI1114
aI2557
aF174.0
aI837
aI368
aI240
aI1394
aI2399
aF133.0
asg5
I0
sg6
(lp273
I-1
aI-1
aI-1
aI-1
aI-1
aI-1
asg8
(lp274
I34
aI16
aI-1
aF27.3279972076416
aF340.031982421875
aF-1.0
aI30
aI26
aI-1
aF292.031982421875
aF352.5119934082031
aF-1.0
asg10
(lp275
F-0.006
aF-0.003
aF0.005
asba(i__main__
sensor_data_struct
p276
(dp277
g3
(lp278
I756
aI349
aI225
aI1295
aI2463
aF140.0
aI1299
aI457
aI327
aI1999
aI2254
aF60.0
asg5
I1
sg6
(lp279
I-1
aI-1
aI-1
aI-1
aI-1
aI-1
asg8
(lp280
I40
aI47
aI-1
aF27.3279972076416
aF339.3919982910156
aF-1.0
aI41
aI41
aI-1
aF294.3999938964844
aF344.1280212402344
aF-1.0
asg10
(lp281
F0.002
aF0.01
aF0.012
asba(i__main__
sensor_data_struct
p282
(dp283
g3
(lp284
I585
aI320
aI194
aI1071
aI2592
aF173.0
aI853
aI415
aI241
aI1474
aI2411
aF201.0
asg5
I1
sg6
(lp285
I-1
aI-1
aI-1
aI-1
aI-1
aI-1
asg8
(lp286
I56
aI45
aI-1
aF25.408000946044922
aF339.26397705078125
aF-1.0
aI36
aI38
aI-1
aF320.12799072265625
aF379.96795654296875
aF-1.0
asg10
(lp287
F0.006999999999999999
aF-0.009000000000000001
aF0.012
asba(i__main__
sensor_data_struct
p288
(dp289
g3
(lp290
I599
aI324
aI195
aI1092
aI2574
aF174.0
aI1180
aI464
aI305
aI1874
aI2284
aF126.0
asg5
I0
sg6
(lp291
I-1
aI-1
aI-1
aI-1
aI-1
aI-1
asg8
(lp292
I32
aI18
aI-1
aF25.472000122070312
aF340.15997314453125
aF-1.0
aI28
aI23
aI-1
aF297.66400146484375
aF356.09600830078125
aF-1.0
asg10
(lp293
F-0.004
aF0.0
aF0.006999999999999999
asba(i__main__
sensor_data_struct
p294
(dp295
g3
(lp296
I628
aI331
aI200
aI1131
aI2545
aF172.0
aI945
aI449
aI259
aI1614
aI2378
aF212.0
asg5
I1
sg6
(lp297
I-1
aI-1
aI-1
aI-1
aI-1
aI-1
asg8
(lp298
I49
aI21
aI-1
aF27.391996383666992
aF340.2239990234375
aF-1.0
aI38
aI29
aI-1
aF323.64801025390625
aF376.6400146484375
aF-1.0
asg10
(lp299
F-0.009000000000000001
aF0.0
aF0.012
asba(i__main__
sensor_data_struct
p300
(dp301
g3
(lp302
I645
aI337
aI204
aI1158
aI2538
aF173.0
aI1043
aI416
aI280
aI1674
aI2325
aF113.0
asg5
I0
sg6
(lp303
I-1
aI-1
aI-1
aI-1
aI-1
aI-1
asg8
(lp304
I34
aI25
aI-1
aF26.943998336791992
aF341.5039978027344
aF-1.0
aI27
aI25
aI-1
aF301.1839904785156
aF354.6879577636719
aF-1.0
asg10
(lp305
F-0.003
aF0.006
aF0.01
asba(i__main__
sensor_data_struct
p306
(dp307
g3
(lp308
I595
aI325
aI194
aI1089
aI2580
aF177.0
aI1194
aI468
aI307
aI1892
aI2277
aF126.0
asg5
I0
sg6
(lp309
I-1
aI-1
aI-1
aI-1
aI-1
aI-1
asg8
(lp310
I28
aI29
aI-1
aF27.200000762939453
aF340.2879943847656
aF-1.0
aI28
aI23
aI-1
aF299.135986328125
aF361.02398681640625
aF-1.0
asg10
(lp311
F0.003
aF0.002
aF0.008
asba(i__main__
sensor_data_struct
p312
(dp313
g3
(lp314
I669
aI334
aI209
aI1179
aI2517
aF157.0
aI1181
aI418
aI307
aI1813
aI2267
aF51.0
asg5
I0
sg6
(lp315
I-1
aI-1
aI-1
aI-1
aI-1
aI-1
asg8
(lp316
I26
aI31
aI-1
aF25.72800064086914
aF339.7760009765625
aF-1.0
aI30
aI24
aI-1
aF294.59197998046875
aF357.6319885253906
aF-1.0
asg10
(lp317
F0.006
aF0.002
aF0.005
asba(i__main__
sensor_data_struct
p318
(dp319
g3
(lp320
I600
aI323
aI195
aI1093
aI2576
aF172.0
aI967
aI432
aI264
aI1613
aI2357
aF174.0
asg5
I1
sg6
(lp321
I-1
aI-1
aI-1
aI-1
aI-1
aI-1
asg8
(lp322
I49
aI40
aI-1
aF25.535999298095703
aF339.00799560546875
aF-1.0
aI28
aI27
aI-1
aF306.0480041503906
aF368.9599914550781
aF-1.0
asg10
(lp323
F-0.002
aF-0.006
aF0.013999999999999999
asba(i__main__
sensor_data_struct
p324
(dp325
g3
(lp326
I606
aI326
aI196
aI1101
aI2566
aF174.0
aI1201
aI469
aI310
aI1902
aI2279
aF123.0
asg5
I0
sg6
(lp327
I-1
aI-1
aI-1
aI-1
aI-1
aI-1
asg8
(lp328
I33
aI20
aI-1
aF24.128000259399414
aF340.031982421875
aF-1.0
aI28
aI24
aI-1
aF296.89599609375
aF356.15997314453125
aF-1.0
asg10
(lp329
F-0.003
aF0.003
aF0.006999999999999999
asba(i__main__
sensor_data_struct
p330
(dp331
g3
(lp332
I604
aI322
aI196
aI1095
aI2570
aF168.0
aI882
aI396
aI246
aI1479
aI2383
aF158.0
asg5
I1
sg6
(lp333
I-1
aI-1
aI-1
aI-1
aI-1
aI-1
asg8
(lp334
I50
aI32
aI-1
aF26.11199951171875
aF339.3919982910156
aF-1.0
aI29
aI27
aI-1
aF305.6000061035156
aF368.0639953613281
aF-1.0
asg10
(lp335
F0.01
aF-0.002
aF0.013000000000000001
asba(i__main__
sensor_data_struct
p336
(dp337
g3
(lp338
I613
aI325
aI197
aI1109
aI2559
aF169.0
aI1038
aI406
aI279
aI1661
aI2329
aF99.0
asg5
I0
sg6
(lp339
I-1
aI-1
aI-1
aI-1
aI-1
aI-1
asg8
(lp340
I40
aI41
aI-1
aF27.135997772216797
aF340.5440368652344
aF-1.0
aI30
aI26
aI-1
aF305.343994140625
aF358.0159912109375
aF-1.0
asg10
(lp341
F0.004
aF0.006999999999999999
aF0.013000000000000001
asba(i__main__
sensor_data_struct
p342
(dp343
g3
(lp344
I753
aI349
aI227
aI1282
aI2455
aF140.0
aI1160
aI440
aI298
aI1820
aI2271
aF99.0
asg5
I0
sg6
(lp345
I-1
aI-1
aI-1
aI-1
aI-1
aI-1
asg8
(lp346
I35
aI15
aI-1
aF26.047998428344727
aF329.9839782714844
aF-1.0
aI30
aI24
aI-1
aF278.78399658203125
aF346.17596435546875
aF-1.0
asg10
(lp347
F-0.005
aF0.001
aF0.001
asba(i__main__
sensor_data_struct
p348
(dp349
g3
(lp350
I583
aI321
aI192
aI1073
aI2596
aF176.0
aI772
aI355
aI230
aI1314
aI2451
aF141.0
asg5
I1
sg6
(lp351
I-1
aI-1
aI-1
aI-1
aI-1
aI-1
asg8
(lp352
I33
aI28
aI-1
aF26.943998336791992
aF339.7760009765625
aF-1.0
aI30
aI30
aI-1
aF306.55999755859375
aF362.30401611328125
aF-1.0
asg10
(lp353
F0.003
aF0.002
aF0.015
asba(i__main__
sensor_data_struct
p354
(dp355
g3
(lp356
I587
aI324
aI193
aI1080
aI2590
aF179.0
aI691
aI356
aI213
aI1230
aI2506
aF181.0
asg5
I1
sg6
(lp357
I-1
aI-1
aI-1
aI-1
aI-1
aI-1
asg8
(lp358
I55
aI47
aI-1
aF26.943998336791992
aF339.3280029296875
aF-1.0
aI36
aI38
aI-1
aF323.7760009765625
aF379.90399169921875
aF-1.0
asg10
(lp359
F-0.011000000000000001
aF-0.001
aF0.015
asba(i__main__
sensor_data_struct
p360
(dp361
g3
(lp362
I588
aI325
aI193
aI1083
aI2592
aF180.0
aI1034
aI457
aI277
aI1715
aI2339
aF182.0
asg5
I1
sg6
(lp363
I-1
aI-1
aI-1
aI-1
aI-1
aI-1
asg8
(lp364
I37
aI29
aI-1
aF27.200000762939453
aF340.2239990234375
aF-1.0
aI31
aI30
aI-1
aF307.00799560546875
aF367.42401123046875
aF-1.0
asg10
(lp365
F0.002
aF-0.002
aF0.015
asba(i__main__
sensor_data_struct
p366
(dp367
g3
(lp368
I606
aI328
aI197
aI1105
aI2573
aF176.0
aI787
aI369
aI231
aI1345
aI2435
aF157.0
asg5
I0
sg6
(lp369
I-1
aI-1
aI-1
aI-1
aI-1
aI-1
asg8
(lp370
I34
aI32
aI-1
aF26.687999725341797
aF340.4800109863281
aF-1.0
aI30
aI26
aI-1
aF305.0879821777344
aF367.8719787597656
aF-1.0
asg10
(lp371
F0.001
aF-0.005
aF0.012
asba(i__main__
sensor_data_struct
p372
(dp373
g3
(lp374
I593
aI324
aI194
aI1086
aI2584
aF176.0
aI1185
aI469
aI304
aI1882
aI2274
aF133.0
asg5
I0
sg6
(lp375
I-1
aI-1
aI-1
aI-1
aI-1
aI-1
asg8
(lp376
I42
aI15
aI-1
aF27.647998809814453
aF340.60797119140625
aF-1.0
aI29
aI24
aI-1
aF299.45599365234375
aF356.15997314453125
aF-1.0
asg10
(lp377
F-0.006999999999999999
aF-0.004
aF0.008
asba(i__main__
sensor_data_struct
p378
(dp379
g3
(lp380
I590
aI324
aI193
aI1083
aI2584
aF178.0
aI1052
aI458
aI280
aI1735
aI2331
aF176.0
asg5
I1
sg6
(lp381
I-1
aI-1
aI-1
aI-1
aI-1
aI-1
asg8
(lp382
I33
aI26
aI-1
aF26.623998641967773
aF339.96795654296875
aF-1.0
aI28
aI28
aI-1
aF305.8559875488281
aF364.60797119140625
aF-1.0
asg10
(lp383
F0.002
aF0.0
aF0.013999999999999999
asba(i__main__
sensor_data_struct
p384
(dp385
g3
(lp386
I617
aI329
aI198
aI1118
aI2557
aF174.0
aI861
aI380
aI244
aI1439
aI2395
aF141.0
asg5
I1
sg6
(lp387
I-1
aI-1
aI-1
aI-1
aI-1
aI-1
asg8
(lp388
I34
aI36
aI-1
aF27.135997772216797
aF340.5440368652344
aF-1.0
aI31
aI30
aI-1
aF306.6239929199219
aF357.44000244140625
aF-1.0
asg10
(lp389
F0.001
aF0.005
aF0.015
asba(i__main__
sensor_data_struct
p390
(dp391
g3
(lp392
I590
aI323
aI194
aI1082
aI2590
aF176.0
aI830
aI404
aI237
aI1435
aI2418
aF194.0
asg5
I1
sg6
(lp393
I-1
aI-1
aI-1
aI-1
aI-1
aI-1
asg8
(lp394
I54
aI42
aI-1
aF25.919998168945312
aF339.7120056152344
aF-1.0
aI37
aI36
aI-1
aF321.5359802246094
aF382.9119873046875
aF-1.0
asg10
(lp395
F0.006
aF-0.006999999999999999
aF0.013999999999999999
asba(i__main__
sensor_data_struct
p396
(dp397
g3
(lp398
I602
aI327
aI197
aI1098
aI2576
aF176.0
aI863
aI421
aI243
aI1493
aI2408
aF206.0
asg5
I1
sg6
(lp399
I-1
aI-1
aI-1
aI-1
aI-1
aI-1
asg8
(lp400
I54
aI45
aI-1
aF26.816001892089844
aF339.5199890136719
aF-1.0
aI39
aI34
aI-1
aF323.45599365234375
aF380.9280090332031
aF-1.0
asg10
(lp401
F-0.011000000000000001
aF-0.002
aF0.015
asba(i__main__
sensor_data_struct
p402
(dp403
g3
(lp404
I593
aI327
aI194
aI1089
aI2584
aF181.0
aI1050
aI458
aI280
aI1733
aI2333
aF177.0
asg5
I1
sg6
(lp405
I-1
aI-1
aI-1
aI-1
aI-1
aI-1
asg8
(lp406
I36
aI29
aI-1
aF27.071998596191406
aF340.60797119140625
aF-1.0
aI28
aI26
aI-1
aF306.30401611328125
aF366.0159912109375
aF-1.0
asg10
(lp407
F0.0
aF-0.003
aF0.013999999999999999
asba(i__main__
sensor_data_struct
p408
(dp409
g3
(lp410
I703
aI339
aI215
aI1220
aI2486
aF149.0
aI1183
aI435
aI306
aI1840
aI2272
aF78.0
asg5
I0
sg6
(lp411
I-1
aI-1
aI-1
aI-1
aI-1
aI-1
asg8
(lp412
I34
aI34
aI-1
aF28.351999282836914
aF339.8399963378906
aF-1.0
aI31
aI24
aI-1
aF299.5199890136719
aF363.583984375
aF-1.0
asg10
(lp413
F0.009000000000000001
aF0.003
aF0.008
asba(i__main__
sensor_data_struct
p414
(dp415
g3
(lp416
I587
aI321
aI193
aI1075
aI2585
aF174.0
aI736
aI353
aI221
aI1270
aI2460
aF156.0
asg5
I1
sg6
(lp417
I-1
aI-1
aI-1
aI-1
aI-1
aI-1
asg8
(lp418
I31
aI30
aI-1
aF26.047998428344727
aF339.90399169921875
aF-1.0
aI28
aI27
aI-1
aF305.47198486328125
aF368.0639953613281
aF-1.0
asg10
(lp419
F0.0
aF-0.005
aF0.013000000000000001
asba(i__main__
sensor_data_struct
p420
(dp421
g3
(lp422
I590
aI323
aI193
aI1080
aI2579
aF177.0
aI725
aI353
aI219
aI1259
aI2470
aF161.0
asg5
I1
sg6
(lp423
I-1
aI-1
aI-1
aI-1
aI-1
aI-1
asg8
(lp424
I44
aI38
aI-1
aF25.66399574279785
aF339.64801025390625
aF-1.0
aI29
aI26
aI-1
aF304.447998046875
aF366.7200012207031
aF-1.0
asg10
(lp425
F-0.005
aF-0.011000000000000001
aF0.012
asba(i__main__
sensor_data_struct
p426
(dp427
g3
(lp428
I714
aI339
aI217
aI1229
aI2472
aF144.0
aI1038
aI394
aI279
aI1632
aI2306
aF80.0
asg5
I0
sg6
(lp429
I-1
aI-1
aI-1
aI-1
aI-1
aI-1
asg8
(lp430
I24
aI25
aI-1
aF15.616000175476074
aF337.9200134277344
aF-1.0
aI29
aI26
aI-1
aF277.6319885253906
aF344.1280212402344
aF-1.0
asg10
(lp431
F0.003
aF-0.002
aF0.0
asba(i__main__
sensor_data_struct
p432
(dp433
g3
(lp434
I618
aI326
aI199
aI1114
aI2557
aF168.0
aI876
aI372
aI249
aI1437
aI2377
aF120.0
asg5
I0
sg6
(lp435
I-1
aI-1
aI-1
aI-1
aI-1
aI-1
asg8
(lp436
I27
aI24
aI-1
aF24.191999435424805
aF340.15997314453125
aF-1.0
aI29
aI25
aI-1
aF294.4639892578125
aF358.7200012207031
aF-1.0
asg10
(lp437
F-0.001
aF-0.003
aF0.006
asba(i__main__
sensor_data_struct
p438
(dp439
g3
(lp440
I850
aI361
aI246
aI1397
aI2394
aF113.0
aI1232
aI450
aI315
aI1907
aI2257
aF79.0
asg5
I0
sg6
(lp441
I-1
aI-1
aI-1
aI-1
aI-1
aI-1
asg8
(lp442
I26
aI24
aI-1
aF18.880001068115234
aF338.30401611328125
aF-1.0
aI29
aI24
aI-1
aF281.85601806640625
aF350.9119873046875
aF-1.0
asg10
(lp443
F0.001
aF0.0
aF0.002
asba(i__main__
sensor_data_struct
p444
(dp445
g3
(lp446
I576
aI320
aI191
aI1063
aI2600
aF178.0
aI1065
aI444
aI281
aI1730
aI2314
aF149.0
asg5
I0
sg6
(lp447
I-1
aI-1
aI-1
aI-1
aI-1
aI-1
asg8
(lp448
I36
aI33
aI-1
aF26.239999771118164
aF339.7760009765625
aF-1.0
aI29
aI24
aI-1
aF303.67999267578125
aF366.7200012207031
aF-1.0
asg10
(lp449
F0.01
aF-0.002
aF0.011000000000000001
asba(i__main__
sensor_data_struct
p450
(dp451
g3
(lp452
I590
aI321
aI193
aI1078
aI2579
aF173.0
aI808
aI376
aI233
aI1376
aI2420
aF160.0
asg5
I1
sg6
(lp453
I-1
aI-1
aI-1
aI-1
aI-1
aI-1
asg8
(lp454
I47
aI36
aI-1
aF26.4320011138916
aF339.96795654296875
aF-1.0
aI29
aI28
aI-1
aF305.7279968261719
aF366.59197998046875
aF-1.0
asg10
(lp455
F0.011000000000000001
aF-0.003
aF0.013000000000000001
asba(i__main__
sensor_data_struct
p456
(dp457
g3
(lp458
I768
aI348
aI227
aI1299
aI2437
aF133.0
aI1215
aI433
aI312
aI1869
aI2260
aF60.0
asg5
I0
sg6
(lp459
I-1
aI-1
aI-1
aI-1
aI-1
aI-1
asg8
(lp460
I32
aI21
aI-1
aF20.415998458862305
aF330.4960021972656
aF-1.0
aI28
aI24
aI-1
aF279.67999267578125
aF350.3360290527344
aF-1.0
asg10
(lp461
F-0.002
aF0.004
aF0.002
asba(i__main__
sensor_data_struct
p462
(dp463
g3
(lp464
I846
aI361
aI243
aI1396
aI2395
aF117.0
aI1464
aI471
aI362
aI2176
aI2210
aF3.0
asg5
I0
sg6
(lp465
I-1
aI-1
aI-1
aI-1
aI-1
aI-1
asg8
(lp466
I28
aI27
aI-1
aF19.90399932861328
aF329.5359802246094
aF-1.0
aI29
aI24
aI-1
aF278.0159912109375
aF348.5440368652344
aF-1.0
asg10
(lp467
F0.001
aF0.005
aF0.001
asba(i__main__
sensor_data_struct
p468
(dp469
g3
(lp470
I763
aI349
aI228
aI1294
aI2446
aF136.0
aI1105
aI439
aI291
aI1767
aI2305
aF121.0
asg5
I0
sg6
(lp471
I-1
aI-1
aI-1
aI-1
aI-1
aI-1
asg8
(lp472
I30
aI20
aI-1
aF24.639999389648438
aF341.2479553222656
aF-1.0
aI28
aI25
aI-1
aF299.20001220703125
aF357.88800048828125
aF-1.0
asg10
(lp473
F-0.002
aF0.003
aF0.009000000000000001
asba(i__main__
sensor_data_struct
p474
(dp475
g3
(lp476
I608
aI327
aI196
aI1106
aI2567
aF175.0
aI1000
aI481
aI269
aI1711
aI2361
aF237.0
asg5
I1
sg6
(lp477
I-1
aI-1
aI-1
aI-1
aI-1
aI-1
asg8
(lp478
I49
aI50
aI-1
aF23.93600082397461
aF337.7919921875
aF-1.0
aI36
aI36
aI-1
aF322.4319763183594
aF383.61602783203125
aF-1.0
asg10
(lp479
F-0.005
aF0.001
aF0.01
asba(i__main__
sensor_data_struct
p480
(dp481
g3
(lp482
I624
aI330
aI201
aI1125
aI2554
aF171.0
aI881
aI391
aI248
aI1471
aI2386
aF149.0
asg5
I0
sg6
(lp483
I-1
aI-1
aI-1
aI-1
aI-1
aI-1
asg8
(lp484
I24
aI29
aI-1
aF26.49599838256836
aF340.8639831542969
aF-1.0
aI29
aI24
aI-1
aF304.2559814453125
aF366.4639892578125
aF-1.0
asg10
(lp485
F0.001
aF-0.004
aF0.011000000000000001
asba(i__main__
sensor_data_struct
p486
(dp487
g3
(lp488
I600
aI327
aI195
aI1097
aI2576
aF178.0
aI1044
aI462
aI280
aI1734
aI2341
aF185.0
asg5
I1
sg6
(lp489
I-1
aI-1
aI-1
aI-1
aI-1
aI-1
asg8
(lp490
I33
aI40
aI-1
aF26.751998901367188
aF341.05596923828125
aF-1.0
aI32
aI32
aI-1
aF306.68798828125
aF356.6719970703125
aF-1.0
asg10
(lp491
F-0.002
aF0.006
aF0.015
asba(i__main__
sensor_data_struct
p492
(dp493
g3
(lp494
I638
aI335
aI203
aI1147
aI2544
aF173.0
aI931
aI403
aI258
aI1545
aI2377
aF144.0
asg5
I1
sg6
(lp495
I-1
aI-1
aI-1
aI-1
aI-1
aI-1
asg8
(lp496
I33
aI42
aI-1
aF26.751998901367188
aF340.4159851074219
aF-1.0
aI30
aI28
aI-1
aF305.9839782714844
aF352.7040100097656
aF-1.0
asg10
(lp497
F-0.002
aF0.008
aF0.013999999999999999
asba(i__main__
sensor_data_struct
p498
(dp499
g3
(lp500
I584
aI323
aI193
aI1076
aI2596
aF178.0
aI1154
aI445
aI297
aI1819
aI2275
aF110.0
asg5
I0
sg6
(lp501
I-1
aI-1
aI-1
aI-1
aI-1
aI-1
asg8
(lp502
I22
aI34
aI-1
aF24.06399917602539
aF341.5039978027344
aF-1.0
aI30
aI25
aI-1
aF286.52801513671875
aF352.8319396972656
aF-1.0
asg10
(lp503
F0.0
aF-0.006999999999999999
aF0.004
asba(i__main__
sensor_data_struct
p504
(dp505
g3
(lp506
I578
aI322
aI191
aI1067
aI2595
aF180.0
aI1002
aI474
aI270
aI1703
aI2358
aF225.0
asg5
I1
sg6
(lp507
I-1
aI-1
aI-1
aI-1
aI-1
aI-1
asg8
(lp508
I55
aI39
aI-1
aF25.535999298095703
aF339.583984375
aF-1.0
aI36
aI38
aI-1
aF322.4960021972656
aF384.57598876953125
aF-1.0
asg10
(lp509
F0.01
aF-0.003
aF0.013999999999999999
asba(i__main__
sensor_data_struct
p510
(dp511
g3
(lp512
I669
aI358
aI208
aI1211
aI2527
aF195.0
aI1028
aI443
aI274
aI1691
aI2331
aF164.0
asg5
I0
sg6
(lp513
I-1
aI-1
aI-1
aI-1
aI-1
aI-1
asg8
(lp514
I44
aI31
aI-1
aF27.711999893188477
aF341.1199951171875
aF-1.0
aI30
aI25
aI-1
aF305.343994140625
aF368.57598876953125
aF-1.0
asg10
(lp515
F0.009000000000000001
aF-0.001
aF0.013000000000000001
asba(i__main__
sensor_data_struct
p516
(dp517
g3
(lp518
I621
aI326
aI198
aI1117
aI2545
aF168.0
aI960
aI385
aI264
aI1545
aI2343
aF102.0
asg5
I0
sg6
(lp519
I-1
aI-1
aI-1
aI-1
aI-1
aI-1
asg8
(lp520
I33
aI19
aI-1
aF24.639999389648438
aF339.64801025390625
aF-1.0
aI32
aI26
aI-1
aF296.6399841308594
aF353.9839782714844
aF-1.0
asg10
(lp521
F-0.004
aF0.004
aF0.006999999999999999
asba(i__main__
sensor_data_struct
p522
(dp523
g3
(lp524
I660
aI333
aI207
aI1166
aI2516
aF159.0
aI939
aI381
aI259
aI1514
aI2344
aF106.0
asg5
I0
sg6
(lp525
I-1
aI-1
aI-1
aI-1
aI-1
aI-1
asg8
(lp526
I29
aI20
aI-1
aF19.775999069213867
aF338.4320068359375
aF-1.0
aI29
aI25
aI-1
aF278.3999938964844
aF345.9200134277344
aF-1.0
asg10
(lp527
F-0.002
aF-0.002
aF0.001
asba(i__main__
sensor_data_struct
p528
(dp529
g3
(lp530
I660
aI334
aI209
aI1166
aI2524
aF159.0
aI1022
aI411
aI274
aI1641
aI2319
aF116.0
asg5
I0
sg6
(lp531
I-1
aI-1
aI-1
aI-1
aI-1
aI-1
asg8
(lp532
I23
aI30
aI-1
aF23.1039981842041
aF341.05596923828125
aF-1.0
aI31
aI25
aI-1
aF286.9119873046875
aF353.9200134277344
aF-1.0
asg10
(lp533
F0.0
aF-0.005
aF0.004
asba(i__main__
sensor_data_struct
p534
(dp535
g3
(lp536
I660
aI335
aI209
aI1166
aI2520
aF161.0
aI1028
aI433
aI276
aI1677
aI2330
aF147.0
asg5
I0
sg6
(lp537
I-1
aI-1
aI-1
aI-1
aI-1
aI-1
asg8
(lp538
I31
aI24
aI-1
aF26.56000328063965
aF340.5440368652344
aF-1.0
aI28
aI23
aI-1
aF303.1679992675781
aF364.6719970703125
aF-1.0
asg10
(lp539
F-0.002
aF-0.003
aF0.01
asba(i__main__
sensor_data_struct
p540
(dp541
g3
(lp542
I589
aI325
aI194
aI1085
aI2597
aF179.0
aI884
aI386
aI251
aI1482
aI2412
aF138.0
asg5
I1
sg6
(lp543
I-1
aI-1
aI-1
aI-1
aI-1
aI-1
asg8
(lp544
I46
aI45
aI-1
aF26.687999725341797
aF337.9200134277344
aF-1.0
aI38
aI35
aI-1
aF324.6719970703125
aF385.1519775390625
aF-1.0
asg10
(lp545
F-0.003
aF0.013000000000000001
aF0.015
asba(i__main__
sensor_data_struct
p546
(dp547
g3
(lp548
I729
aI344
aI222
aI1249
aI2464
aF143.0
aI1151
aI440
aI297
aI1810
aI2274
aF103.0
asg5
I0
sg6
(lp549
I-1
aI-1
aI-1
aI-1
aI-1
aI-1
asg8
(lp550
I25
aI23
aI-1
aF22.464000701904297
aF339.583984375
aF-1.0
aI30
aI24
aI-1
aF283.64801025390625
aF352.1280212402344
aF-1.0
asg10
(lp551
F-0.002
aF-0.002
aF0.003
asba(i__main__
sensor_data_struct
p552
(dp553
g3
(lp554
I596
aI325
aI195
aI1091
aI2584
aF176.0
aI1188
aI474
aI306
aI1894
aI2281
aF138.0
asg5
I0
sg6
(lp555
I-1
aI-1
aI-1
aI-1
aI-1
aI-1
asg8
(lp556
I25
aI29
aI-1
aF26.687999725341797
aF340.35198974609375
aF-1.0
aI32
aI23
aI-1
aF299.64801025390625
aF363.96795654296875
aF-1.0
asg10
(lp557
F0.004
aF0.0
aF0.009000000000000001
asba(i__main__
sensor_data_struct
p558
(dp559
g3
(lp560
I581
aI323
aI193
aI1072
aI2602
aF179.0
aI807
aI404
aI233
aI1414
aI2439
aF205.0
asg5
I1
sg6
(lp561
I-1
aI-1
aI-1
aI-1
aI-1
aI-1
asg8
(lp562
I53
aI47
aI-1
aF25.280000686645508
aF338.8799743652344
aF-1.0
aI36
aI37
aI-1
aF323.71197509765625
aF382.52801513671875
aF-1.0
asg10
(lp563
F0.005
aF-0.013000000000000001
aF0.015
asba(i__main__
sensor_data_struct
p564
(dp565
g3
(lp566
I610
aI333
aI198
aI1117
aI2576
aF182.0
aI717
aI351
aI218
aI1250
aI2481
aF161.0
asg5
I1
sg6
(lp567
I-1
aI-1
aI-1
aI-1
aI-1
aI-1
asg8
(lp568
I34
aI37
aI-1
aF28.095998764038086
aF341.82403564453125
aF-1.0
aI25
aI34
aI-1
aF299.8399963378906
aF371.3919982910156
aF-1.0
asg10
(lp569
F0.004
aF-0.006999999999999999
aF0.012
asba(i__main__
sensor_data_struct
p570
(dp571
g3
(lp572
I703
aI342
aI214
aI1224
aI2485
aF154.0
aI1086
aI417
aI287
aI1714
aI2296
aF95.0
asg5
I0
sg6
(lp573
I-1
aI-1
aI-1
aI-1
aI-1
aI-1
asg8
(lp574
I26
aI32
aI-1
aF26.816001892089844
aF340.6719970703125
aF-1.0
aI26
aI25
aI-1
aF298.4319763183594
aF362.6239929199219
aF-1.0
asg10
(lp575
F0.006999999999999999
aF0.0
aF0.006999999999999999
asba(i__main__
sensor_data_struct
p576
(dp577
g3
(lp578
I729
aI349
aI222
aI1266
aI2487
aF151.0
aI1396
aI504
aI352
aI2189
aI2286
aF84.0
asg5
I1
sg6
(lp579
I-1
aI-1
aI-1
aI-1
aI-1
aI-1
asg8
(lp580
I51
aI47
aI-1
aF27.135997772216797
aF340.79998779296875
aF-1.0
aI37
aI35
aI-1
aF321.2799987792969
aF381.5679931640625
aF-1.0
asg10
(lp581
F0.009000000000000001
aF0.009000000000000001
aF0.013000000000000001
asba(i__main__
sensor_data_struct
p582
(dp583
g3
(lp584
I637
aI334
aI204
aI1144
aI2548
aF171.0
aI894
aI404
aI250
aI1503
aI2387
aF164.0
asg5
I0
sg6
(lp585
I-1
aI-1
aI-1
aI-1
aI-1
aI-1
asg8
(lp586
I32
aI34
aI-1
aF27.7759952545166
aF341.69598388671875
aF-1.0
aI29
aI24
aI-1
aF304.38397216796875
aF366.2079772949219
aF-1.0
asg10
(lp587
F0.004
aF-0.004
aF0.012
asba(i__main__
sensor_data_struct
p588
(dp589
g3
(lp590
I688
aI340
aI213
aI1205
aI2499
aF157.0
aI1025
aI411
aI276
aI1644
aI2321
aF113.0
asg5
I0
sg6
(lp591
I-1
aI-1
aI-1
aI-1
aI-1
aI-1
asg8
(lp592
I23
aI30
aI-1
aF24.959999084472656
aF341.1199951171875
aF-1.0
aI29
aI25
aI-1
aF297.02398681640625
aF361.7919921875
aF-1.0
asg10
(lp593
F0.002
aF-0.001
aF0.006999999999999999
asba(i__main__
sensor_data_struct
p594
(dp595
g3
(lp596
I700
aI343
aI216
aI1220
aI2493
aF156.0
aI1008
aI423
aI273
aI1647
aI2343
aF140.0
asg5
I0
sg6
(lp597
I-1
aI-1
aI-1
aI-1
aI-1
aI-1
asg8
(lp598
I30
aI23
aI-1
aF26.687999725341797
aF341.75994873046875
aF-1.0
aI30
aI25
aI-1
aF303.552001953125
aF357.5679931640625
aF-1.0
asg10
(lp599
F-0.002
aF0.003
aF0.011000000000000001
asba(i__main__
sensor_data_struct
p600
(dp601
g3
(lp602
I617
aI331
aI198
aI1119
aI2557
aF177.0
aI1133
aI470
aI296
aI1832
aI2301
aF157.0
asg5
I0
sg6
(lp603
I-1
aI-1
aI-1
aI-1
aI-1
aI-1
asg8
(lp604
I30
aI19
aI-1
aF26.623998641967773
aF340.4159851074219
aF-1.0
aI28
aI25
aI-1
aF303.67999267578125
aF361.0879821777344
aF-1.0
asg10
(lp605
F-0.003
aF-0.001
aF0.011000000000000001
asba.