(lp0
(i__main__
sensor_data_struct
p1
(dp2
S'color'
p3
(lp4
I536
aI302
aI187
aI999
aI2658
aF165.0
aI779
aI389
aI230
aI1366
aI2459
aF192.0
asS'button'
p5
I1
sS'IR'
p6
(lp7
I-1
aI-1
aI-1
aI-1
aI-1
aI-1
asS'TOF'
p8
(lp9
I56
aI50
aI-1
aF23.487998962402344
aF334.52801513671875
aF-1.0
aI37
aI34
aI-1
aF323.8399963378906
aF375.1679992675781
aF-1.0
asS'pt'
p10
(lp11
F-0.012
aF0.001
aF0.013999999999999999
asba(i__main__
sensor_data_struct
p12
(dp13
g3
(lp14
I563
aI310
aI189
aI1038
aI2614
aF168.0
aI1236
aI456
aI315
aI1919
aI2257
aF87.0
asg5
I0
sg6
(lp15
I-1
aI-1
aI-1
aI-1
aI-1
aI-1
asg8
(lp16
I31
aI18
aI-1
aF19.520000457763672
aF335.1679992675781
aF-1.0
aI27
aI23
aI-1
aF279.1679992675781
aF349.5039978027344
aF-1.0
asg10
(lp17
F-0.002
aF0.001
aF0.001
asba(i__main__
sensor_data_struct
p18
(dp19
g3
(lp20
I669
aI327
aI211
aI1169
aI2516
aF144.0
aI1150
aI413
aI303
aI1775
aI2280
aF56.0
asg5
I0
sg6
(lp21
I-1
aI-1
aI-1
aI-1
aI-1
aI-1
asg8
(lp22
I26
aI22
aI-1
aF18.815998077392578
aF336.5119934082031
aF-1.0
aI25
aI24
aI-1
aF281.0879821777344
aF351.1679992675781
aF-1.0
asg10
(lp23
F0.001
aF0.001
aF0.002
asba(i__main__
sensor_data_struct
p24
(dp25
g3
(lp26
I551
aI311
aI188
aI1027
aI2639
aF174.0
aI639
aI338
aI205
aI1154
aI2555
aF175.0
asg5
I1
sg6
(lp27
I-1
aI-1
aI-1
aI-1
aI-1
aI-1
asg8
(lp28
I54
aI46
aI-1
aF24.191999435424805
aF335.8719787597656
aF-1.0
aI35
aI35
aI-1
aF323.583984375
aF375.7439880371094
aF-1.0
asg10
(lp29
F-0.013000000000000001
aF0.001
aF0.013999999999999999
asba(i__main__
sensor_data_struct
p30
(dp31
g3
(lp32
I577
aI317
aI193
aI1060
aI2606
aF171.0
aI841
aI399
aI240
aI1442
aI2415
aF181.0
asg5
I1
sg6
(lp33
I-1
aI-1
aI-1
aI-1
aI-1
aI-1
asg8
(lp34
I55
aI47
aI-1
aF23.743999481201172
aF337.02398681640625
aF-1.0
aI34
aI34
aI-1
aF307.20001220703125
aF366.2720031738281
aF-1.0
asg10
(lp35
F-0.005
aF-0.008
aF0.015
asba(i__main__
sensor_data_struct
p36
(dp37
g3
(lp38
I579
aI319
aI192
aI1067
aI2605
aF174.0
aI1052
aI462
aI283
aI1743
aI2342
aF180.0
asg5
I1
sg6
(lp39
I-1
aI-1
aI-1
aI-1
aI-1
aI-1
asg8
(lp40
I35
aI31
aI-1
aF24.703998565673828
aF339.20001220703125
aF-1.0
aI29
aI27
aI-1
aF306.11199951171875
aF356.7359619140625
aF-1.0
asg10
(lp41
F-0.004
aF0.002
aF0.013999999999999999
asba(i__main__
sensor_data_struct
p42
(dp43
g3
(lp44
I580
aI322
aI192
aI1071
aI2602
aF179.0
aI1008
aI481
aI272
aI1720
aI2362
aF232.0
asg5
I1
sg6
(lp45
I-1
aI-1
aI-1
aI-1
aI-1
aI-1
asg8
(lp46
I55
aI48
aI-1
aF24.76799964904785
aF335.8079833984375
aF-1.0
aI35
aI35
aI-1
aF323.3919982910156
aF384.76800537109375
aF-1.0
asg10
(lp47
F-0.013000000000000001
aF0.003
aF0.015
asba(i__main__
sensor_data_struct
p48
(dp49
g3
(lp50
I645
aI329
aI206
aI1146
aI2537
aF159.0
aI969
aI406
aI265
aI1582
aI2347
aF132.0
asg5
I0
sg6
(lp51
I-1
aI-1
aI-1
aI-1
aI-1
aI-1
asg8
(lp52
I18
aI32
aI-1
aF24.511999130249023
aF340.2239990234375
aF-1.0
aI27
aI25
aI-1
aF297.91998291015625
aF362.239990234375
aF-1.0
asg10
(lp53
F0.004
aF-0.005
aF0.006999999999999999
asba(i__main__
sensor_data_struct
p54
(dp55
g3
(lp56
I573
aI318
aI191
aI1058
aI2606
aF176.0
aI685
aI341
aI213
aI1204
aI2508
aF159.0
asg5
I1
sg6
(lp57
I-1
aI-1
aI-1
aI-1
aI-1
aI-1
asg8
(lp58
I49
aI35
aI-1
aF24.8960018157959
aF338.4320068359375
aF-1.0
aI28
aI26
aI-1
aF305.5359802246094
aF368.38397216796875
aF-1.0
asg10
(lp59
F-0.005
aF-0.008
aF0.013000000000000001
asba(i__main__
sensor_data_struct
p60
(dp61
g3
(lp62
I595
aI323
aI195
aI1087
aI2582
aF173.0
aI794
aI368
aI233
aI1351
aI2432
aF152.0
asg5
I1
sg6
(lp63
I-1
aI-1
aI-1
aI-1
aI-1
aI-1
asg8
(lp64
I31
aI27
aI-1
aF25.21599769592285
aF339.0719909667969
aF-1.0
aI28
aI27
aI-1
aF305.7919921875
aF358.97601318359375
aF-1.0
asg10
(lp65
F-0.002
aF-0.001
aF0.013999999999999999
asba(i__main__
sensor_data_struct
p66
(dp67
g3
(lp68
I609
aI324
aI199
aI1101
aI2571
aF168.0
aI926
aI398
aI257
aI1526
aI2365
aF139.0
asg5
I0
sg6
(lp69
I-1
aI-1
aI-1
aI-1
aI-1
aI-1
asg8
(lp70
I26
aI28
aI-1
aF24.31999969482422
aF339.7120056152344
aF-1.0
aI29
aI24
aI-1
aF299.26397705078125
aF364.2879943847656
aF-1.0
asg10
(lp71
F-0.001
aF-0.006999999999999999
aF0.008
asba(i__main__
sensor_data_struct
p72
(dp73
g3
(lp74
I609
aI322
aI197
aI1100
aI2562
aF166.0
aI973
aI383
aI267
aI1555
aI2336
aF93.0
asg5
I0
sg6
(lp75
I-1
aI-1
aI-1
aI-1
aI-1
aI-1
asg8
(lp76
I28
aI19
aI-1
aF23.423999786376953
aF339.00799560546875
aF-1.0
aI30
aI24
aI-1
aF293.8240051269531
aF354.6239929199219
aF-1.0
asg10
(lp77
F-0.002
aF0.001
aF0.006
asba(i__main__
sensor_data_struct
p78
(dp79
g3
(lp80
I612
aI321
aI200
aI1099
aI2562
aF161.0
aI920
aI405
aI254
aI1531
aI2369
aF154.0
asg5
I0
sg6
(lp81
I-1
aI-1
aI-1
aI-1
aI-1
aI-1
asg8
(lp82
I28
aI27
aI-1
aF24.38399887084961
aF338.4320068359375
aF-1.0
aI26
aI23
aI-1
aF304.5119934082031
aF367.2959899902344
aF-1.0
asg10
(lp83
F0.002
aF-0.004
aF0.012
asba(i__main__
sensor_data_struct
p84
(dp85
g3
(lp86
I586
aI323
aI192
aI1078
aI2590
aF179.0
aI1094
aI446
aI287
aI1764
aI2308
aF138.0
asg5
I0
sg6
(lp87
I-1
aI-1
aI-1
aI-1
aI-1
aI-1
asg8
(lp88
I37
aI30
aI-1
aF26.8799991607666
aF338.7520446777344
aF-1.0
aI28
aI23
aI-1
aF303.42401123046875
aF365.6319885253906
aF-1.0
asg10
(lp89
F0.009000000000000001
aF0.001
aF0.01
asba(i__main__
sensor_data_struct
p90
(dp91
g3
(lp92
I564
aI315
aI189
aI1045
aI2617
aF175.0
aI945
aI452
aI259
aI1619
aI2381
aF217.0
asg5
I1
sg6
(lp93
I-1
aI-1
aI-1
aI-1
aI-1
aI-1
asg8
(lp94
I52
aI44
aI-1
aF24.639999389648438
aF338.0480041503906
aF-1.0
aI36
aI36
aI-1
aF323.0719909667969
aF382.6559753417969
aF-1.0
asg10
(lp95
F-0.008
aF-0.003
aF0.015
asba(i__main__
sensor_data_struct
p96
(dp97
g3
(lp98
I557
aI315
aI187
aI1037
aI2619
aF179.0
aI904
aI443
aI252
aI1565
aI2400
aF221.0
asg5
I1
sg6
(lp99
I-1
aI-1
aI-1
aI-1
aI-1
aI-1
asg8
(lp100
I53
aI47
aI-1
aF22.78400230407715
aF337.21600341796875
aF-1.0
aI35
aI35
aI-1
aF323.00799560546875
aF384.9599914550781
aF-1.0
asg10
(lp101
F0.013000000000000001
aF-0.005
aF0.015
asba(i__main__
sensor_data_struct
p102
(dp103
g3
(lp104
I1077
aI394
aI290
aI1677
aI2303
aF59.0
aI1329
aI471
aI334
aI2037
aI2241
aF67.0
asg5
I0
sg6
(lp105
I-1
aI-1
aI-1
aI-1
aI-1
aI-1
asg8
(lp106
I31
aI23
aI-1
aF19.13599967956543
aF328.57598876953125
aF-1.0
aI28
aI24
aI-1
aF278.8479919433594
aF348.79998779296875
aF-1.0
asg10
(lp107
F0.0
aF0.004
aF0.001
asba(i__main__
sensor_data_struct
p108
(dp109
g3
(lp110
I745
aI341
aI224
aI1265
aI2455
aF132.0
aI1078
aI406
aI286
aI1693
aI2299
aF81.0
asg5
I0
sg6
(lp111
I-1
aI-1
aI-1
aI-1
aI-1
aI-1
asg8
(lp112
I27
aI21
aI-1
aF17.983999252319336
aF329.8559875488281
aF-1.0
aI27
aI25
aI-1
aF276.35198974609375
aF345.40802001953125
aF-1.0
asg10
(lp113
F-0.002
aF0.001
aF0.0
asba(i__main__
sensor_data_struct
p114
(dp115
g3
(lp116
I585
aI317
aI194
aI1067
aI2592
aF168.0
aI899
aI415
aI251
aI1523
aI2389
aF179.0
asg5
I1
sg6
(lp117
I-1
aI-1
aI-1
aI-1
aI-1
aI-1
asg8
(lp118
I51
aI44
aI-1
aF24.06399917602539
aF337.8559875488281
aF-1.0
aI31
aI32
aI-1
aF306.75201416015625
aF369.7279968261719
aF-1.0
asg10
(lp119
F0.001
aF-0.008
aF0.015
asba(i__main__
sensor_data_struct
p120
(dp121
g3
(lp122
I591
aI321
aI193
aI1080
aI2582
aF173.0
aI814
aI362
aI239
aI1366
aI2427
aF132.0
asg5
I0
sg6
(lp123
I-1
aI-1
aI-1
aI-1
aI-1
aI-1
asg8
(lp124
I25
aI22
aI-1
aF25.535999298095703
aF339.3280029296875
aF-1.0
aI30
aI23
aI-1
aF305.21600341796875
aF361.40802001953125
aF-1.0
asg10
(lp125
F0.002
aF0.0
aF0.013000000000000001
asba(i__main__
sensor_data_struct
p126
(dp127
g3
(lp128
I677
aI338
aI214
aI1199
aI2536
aF157.0
aI1179
aI478
aI308
aI1919
aI2330
aF146.0
asg5
I1
sg6
(lp129
I-1
aI-1
aI-1
aI-1
aI-1
aI-1
asg8
(lp130
I52
aI48
aI-1
aF25.152000427246094
aF338.11199951171875
aF-1.0
aI36
aI35
aI-1
aF321.2799987792969
aF381.2479553222656
aF-1.0
asg10
(lp131
F0.006999999999999999
aF0.012
aF0.015
asba(i__main__
sensor_data_struct
p132
(dp133
g3
(lp134
I575
aI322
aI191
aI1066
aI2606
aF181.0
aI969
aI439
aI267
aI1627
aI2370
aF182.0
asg5
I1
sg6
(lp135
I-1
aI-1
aI-1
aI-1
aI-1
aI-1
asg8
(lp136
I44
aI46
aI-1
aF24.576000213623047
aF337.6639709472656
aF-1.0
aI29
aI25
aI-1
aF307.583984375
aF349.82403564453125
aF-1.0
asg10
(lp137
F-0.01
aF0.008
aF0.013999999999999999
asba(i__main__
sensor_data_struct
p138
(dp139
g3
(lp140
I605
aI325
aI200
aI1100
aI2585
aF170.0
aI937
aI420
aI259
aI1569
aI2374
aF169.0
asg5
I1
sg6
(lp141
I-1
aI-1
aI-1
aI-1
aI-1
aI-1
asg8
(lp142
I52
aI36
aI-1
aF25.408000946044922
aF338.4320068359375
aF-1.0
aI28
aI26
aI-1
aF305.7919921875
aF363.3919982910156
aF-1.0
asg10
(lp143
F-0.005
aF-0.005
aF0.013000000000000001
asba(i__main__
sensor_data_struct
p144
(dp145
g3
(lp146
I578
aI319
aI192
aI1064
aI2602
aF175.0
aI799
aI377
aI233
aI1370
aI2436
aF165.0
asg5
I1
sg6
(lp147
I-1
aI-1
aI-1
aI-1
aI-1
aI-1
asg8
(lp148
I51
aI31
aI-1
aF25.472000122070312
aF338.4960021972656
aF-1.0
aI29
aI31
aI-1
aF307.0719909667969
aF370.239990234375
aF-1.0
asg10
(lp149
F0.009000000000000001
aF-0.002
aF0.015
asba(i__main__
sensor_data_struct
p150
(dp151
g3
(lp152
I570
aI317
aI191
aI1054
aI2613
aF175.0
aI694
aI357
aI214
aI1236
aI2511
aF181.0
asg5
I1
sg6
(lp153
I-1
aI-1
aI-1
aI-1
aI-1
aI-1
asg8
(lp154
I53
aI46
aI-1
aF25.152000427246094
aF337.27996826171875
aF-1.0
aI37
aI35
aI-1
aF323.583984375
aF381.5039978027344
aF-1.0
asg10
(lp155
F-0.011000000000000001
aF0.002
aF0.015
asba(i__main__
sensor_data_struct
p156
(dp157
g3
(lp158
I677
aI335
aI210
aI1192
aI2513
aF155.0
aI1389
aI464
aI349
aI2099
aI2239
aF25.0
asg5
I0
sg6
(lp159
I-1
aI-1
aI-1
aI-1
aI-1
aI-1
asg8
(lp160
I39
aI39
aI-1
aF27.391996383666992
aF340.09600830078125
aF-1.0
aI27
aI24
aI-1
aF301.05596923828125
aF361.6000061035156
aF-1.0
asg10
(lp161
F0.005
aF0.006
aF0.009000000000000001
asba(i__main__
sensor_data_struct
p162
(dp163
g3
(lp164
I597
aI321
aI196
aI1086
aI2580
aF169.0
aI858
aI393
aI244
aI1451
aI2402
aF163.0
asg5
I1
sg6
(lp165
I-1
aI-1
aI-1
aI-1
aI-1
aI-1
asg8
(lp166
I33
aI34
aI-1
aF25.023998260498047
aF339.135986328125
aF-1.0
aI30
aI25
aI-1
aF305.7919921875
aF368.57598876953125
aF-1.0
asg10
(lp167
F0.002
aF-0.005
aF0.013000000000000001
asba(i__main__
sensor_data_struct
p168
(dp169
g3
(lp170
I586
aI323
aI194
aI1081
aI2603
aF177.0
aI970
aI407
aI268
aI1604
aI2385
aF131.0
asg5
I1
sg6
(lp171
I-1
aI-1
aI-1
aI-1
aI-1
aI-1
asg8
(lp172
I52
aI47
aI-1
aF25.600000381469727
aF339.26397705078125
aF-1.0
aI35
aI35
aI-1
aF321.9839782714844
aF383.8719787597656
aF-1.0
asg10
(lp173
F0.008
aF0.009000000000000001
aF0.015
asba(i__main__
sensor_data_struct
p174
(dp175
g3
(lp176
I582
aI323
aI192
aI1074
aI2598
aF180.0
aI1031
aI456
aI277
aI1711
aI2342
aF182.0
asg5
I1
sg6
(lp177
I-1
aI-1
aI-1
aI-1
aI-1
aI-1
asg8
(lp178
I53
aI41
aI-1
aF25.088001251220703
aF339.00799560546875
aF-1.0
aI32
aI28
aI-1
aF306.239990234375
aF369.47198486328125
aF-1.0
asg10
(lp179
F-0.003
aF-0.006999999999999999
aF0.013999999999999999
asba(i__main__
sensor_data_struct
p180
(dp181
g3
(lp182
I613
aI326
aI200
aI1110
aI2574
aF169.0
aI908
aI411
aI255
aI1532
aI2396
aF167.0
asg5
I1
sg6
(lp183
I-1
aI-1
aI-1
aI-1
aI-1
aI-1
asg8
(lp184
I37
aI41
aI-1
aF24.76799964904785
aF339.3280029296875
aF-1.0
aI29
aI27
aI-1
aF306.0480041503906
aF342.2079772949219
aF-1.0
asg10
(lp185
F-0.008
aF0.008
aF0.013999999999999999
asba(i__main__
sensor_data_struct
p186
(dp187
g3
(lp188
I600
aI330
aI197
aI1103
aI2589
aF181.0
aI728
aI360
aI221
aI1275
aI2484
aF170.0
asg5
I1
sg6
(lp189
I-1
aI-1
aI-1
aI-1
aI-1
aI-1
asg8
(lp190
I45
aI39
aI-1
aF27.135997772216797
aF339.583984375
aF-1.0
aI34
aI31
aI-1
aF307.583984375
aF359.3599853515625
aF-1.0
asg10
(lp191
F-0.006
aF0.0
aF0.015
asba(i__main__
sensor_data_struct
p192
(dp193
g3
(lp194
I609
aI328
aI198
aI1110
aI2578
aF175.0
aI865
aI383
aI247
aI1451
aI2407
aF142.0
asg5
I1
sg6
(lp195
I-1
aI-1
aI-1
aI-1
aI-1
aI-1
asg8
(lp196
I33
aI43
aI-1
aF25.983999252319336
aF339.8399963378906
aF-1.0
aI30
aI27
aI-1
aF306.0480041503906
aF352.1280212402344
aF-1.0
asg10
(lp197
F-0.003
aF0.008
aF0.012
asba(i__main__
sensor_data_struct
p198
(dp199
g3
(lp200
I580
aI321
aI193
aI1071
aI2609
aF177.0
aI720
aI354
aI219
aI1257
aI2481
aF164.0
asg5
I1
sg6
(lp201
I-1
aI-1
aI-1
aI-1
aI-1
aI-1
asg8
(lp202
I38
aI39
aI-1
aF25.72800064086914
aF339.4559631347656
aF-1.0
aI26
aI34
aI-1
aF300.09600830078125
aF370.8799743652344
aF-1.0
asg10
(lp203
F0.004
aF-0.006
aF0.012
asba(i__main__
sensor_data_struct
p204
(dp205
g3
(lp206
I604
aI327
aI196
aI1101
aI2570
aF176.0
aI1233
aI468
aI315
aI1934
aI2266
aF107.0
asg5
I0
sg6
(lp207
I-1
aI-1
aI-1
aI-1
aI-1
aI-1
asg8
(lp208
I26
aI21
aI-1
aF23.615999221801758
aF339.64801025390625
aF-1.0
aI27
aI27
aI-1
aF291.45599365234375
aF356.031982421875
aF-1.0
asg10
(lp209
F-0.001
aF-0.002
aF0.005
asba(i__main__
sensor_data_struct
p210
(dp211
g3
(lp212
I602
aI325
aI198
aI1094
aI2578
aF172.0
aI860
aI424
aI244
aI1495
aI2420
aF211.0
asg5
I1
sg6
(lp213
I-1
aI-1
aI-1
aI-1
aI-1
aI-1
asg8
(lp214
I54
aI44
aI-1
aF25.66399574279785
aF338.9439697265625
aF-1.0
aI36
aI35
aI-1
aF323.135986328125
aF385.1519775390625
aF-1.0
asg10
(lp215
F-0.009000000000000001
aF-0.006999999999999999
aF0.013000000000000001
asba(i__main__
sensor_data_struct
p216
(dp217
g3
(lp218
I579
aI323
aI192
aI1070
aI2600
aF181.0
aI1001
aI477
aI271
aI1708
aI2365
aF229.0
asg5
I1
sg6
(lp219
I-1
aI-1
aI-1
aI-1
aI-1
aI-1
asg8
(lp220
I53
aI45
aI-1
aF25.280000686645508
aF338.9439697265625
aF-1.0
aI37
aI34
aI-1
aF323.00799560546875
aF384.7039794921875
aF-1.0
asg10
(lp221
F0.004
aF-0.01
aF0.015
asba(i__main__
sensor_data_struct
p222
(dp223
g3
(lp224
I842
aI363
aI244
aI1397
aI2408
aF120.0
aI1197
aI457
aI310
aI1889
aI2287
aF105.0
asg5
I0
sg6
(lp225
I-1
aI-1
aI-1
aI-1
aI-1
aI-1
asg8
(lp226
I34
aI33
aI-1
aF27.583999633789062
aF340.5440368652344
aF-1.0
aI27
aI24
aI-1
aF301.1839904785156
aF360.9599914550781
aF-1.0
asg10
(lp227
F0.003
aF0.005
aF0.01
asba(i__main__
sensor_data_struct
p228
(dp229
g3
(lp230
I723
aI342
aI221
aI1277
aI2540
aF143.0
aI1029
aI439
aI277
aI1689
aI2338
aF156.0
asg5
I0
sg6
(lp231
I-1
aI-1
aI-1
aI-1
aI-1
aI-1
asg8
(lp232
I32
aI28
aI-1
aF26.49599838256836
aF339.583984375
aF-1.0
aI27
aI25
aI-1
aF305.2799987792969
aF361.5359802246094
aF-1.0
asg10
(lp233
F0.003
aF0.003
aF0.013000000000000001
asba(i__main__
sensor_data_struct
p234
(dp235
g3
(lp236
I593
aI326
aI195
aI1091
aI2595
aF179.0
aI767
aI355
aI228
aI1309
aI2451
aF144.0
asg5
I0
sg6
(lp237
I-1
aI-1
aI-1
aI-1
aI-1
aI-1
asg8
(lp238
I41
aI33
aI-1
aF27.00800132751465
aF340.4159851074219
aF-1.0
aI27
aI24
aI-1
aF304.447998046875
aF367.48797607421875
aF-1.0
asg10
(lp239
F0.006999999999999999
aF-0.003
aF0.012
asba(i__main__
sensor_data_struct
p240
(dp241
g3
(lp242
I617
aI327
aI199
aI1119
aI2568
aF170.0
aI1170
aI427
aI304
aI1828
aI2291
aF71.0
asg5
I0
sg6
(lp243
I-1
aI-1
aI-1
aI-1
aI-1
aI-1
asg8
(lp244
I39
aI45
aI-1
aF26.304000854492188
aF338.9439697265625
aF-1.0
aI29
aI24
aI-1
aF303.87200927734375
aF354.239990234375
aF-1.0
asg10
(lp245
F0.0
aF0.01
aF0.011000000000000001
asba(i__main__
sensor_data_struct
p246
(dp247
g3
(lp248
I607
aI327
aI198
aI1106
aI2577
aF174.0
aI867
aI370
aI247
aI1428
aI2385
aF121.0
asg5
I0
sg6
(lp249
I-1
aI-1
aI-1
aI-1
aI-1
aI-1
asg8
(lp250
I28
aI25
aI-1
aF24.576000213623047
aF339.583984375
aF-1.0
aI30
aI23
aI-1
aF299.5199890136719
aF360.9599914550781
aF-1.0
asg10
(lp251
F0.001
aF0.0
aF0.009000000000000001
asba(i__main__
sensor_data_struct
p252
(dp253
g3
(lp254
I619
aI328
aI200
aI1120
aI2566
aF170.0
aI863
aI373
aI247
aI1430
aI2396
aF127.0
asg5
I0
sg6
(lp255
I-1
aI-1
aI-1
aI-1
aI-1
aI-1
asg8
(lp256
I34
aI12
aI-1
aF26.623998641967773
aF336.32000732421875
aF-1.0
aI31
aI26
aI-1
aF292.4800109863281
aF348.6719970703125
aF-1.0
asg10
(lp257
F-0.006
aF0.004
aF0.005
asba(i__main__
sensor_data_struct
p258
(dp259
g3
(lp260
I613
aI325
aI198
aI1109
aI2565
aF169.0
aI963
aI381
aI266
aI1539
aI2339
aF94.0
asg5
I0
sg6
(lp261
I-1
aI-1
aI-1
aI-1
aI-1
aI-1
asg8
(lp262
I27
aI19
aI-1
aF22.20800018310547
aF339.00799560546875
aF-1.0
aI31
aI24
aI-1
aF286.2079772949219
aF352.8960266113281
aF-1.0
asg10
(lp263
F-0.001
aF0.001
aF0.004
asba(i__main__
sensor_data_struct
p264
(dp265
g3
(lp266
I638
aI331
aI205
aI1140
aI2544
aF165.0
aI931
aI414
aI257
aI1555
aI2372
aF163.0
asg5
I1
sg6
(lp267
I-1
aI-1
aI-1
aI-1
aI-1
aI-1
asg8
(lp268
I29
aI22
aI-1
aF25.72800064086914
aF339.583984375
aF-1.0
aI28
aI25
aI-1
aF305.7919921875
aF361.7919921875
aF-1.0
asg10
(lp269
F-0.002
aF-0.001
aF0.013000000000000001
asba(i__main__
sensor_data_struct
p270
(dp271
g3
(lp272
I620
aI326
aI201
aI1117
aI2562
aF166.0
aI925
aI389
aI258
aI1512
aI2361
aF124.0
asg5
I0
sg6
(lp273
I-1
aI-1
aI-1
aI-1
aI-1
aI-1
asg8
(lp274
I22
aI28
aI-1
aF22.911998748779297
aF340.35198974609375
aF-1.0
aI30
aI26
aI-1
aF290.81597900390625
aF356.2239990234375
aF-1.0
asg10
(lp275
F-0.001
aF-0.006
aF0.005
asba(i__main__
sensor_data_struct
p276
(dp277
g3
(lp278
I579
aI321
aI192
aI1068
aI2600
aF178.0
aI946
aI438
aI263
aI1601
aI2381
aF191.0
asg5
I1
sg6
(lp279
I-1
aI-1
aI-1
aI-1
aI-1
aI-1
asg8
(lp280
I23
aI34
aI-1
aF25.66399574279785
aF340.031982421875
aF-1.0
aI22
aI31
aI-1
aF299.0719909667969
aF371.135986328125
aF-1.0
asg10
(lp281
F0.005
aF-0.005
aF0.011000000000000001
asba(i__main__
sensor_data_struct
p282
(dp283
g3
(lp284
I590
aI321
aI195
aI1077
aI2588
aF172.0
aI855
aI391
aI244
aI1446
aI2406
aF160.0
asg5
I0
sg6
(lp285
I-1
aI-1
aI-1
aI-1
aI-1
aI-1
asg8
(lp286
I48
aI28
aI-1
aF25.3439998626709
aF339.3919982910156
aF-1.0
aI29
aI25
aI-1
aF304.0639953613281
aF365.3760070800781
aF-1.0
asg10
(lp287
F-0.006999999999999999
aF-0.006999999999999999
aF0.012
asba(i__main__
sensor_data_struct
p288
(dp289
g3
(lp290
I600
aI328
aI196
aI1098
aI2578
aF179.0
aI732
aI348
aI221
aI1259
aI2462
aF149.0
asg5
I0
sg6
(lp291
I-1
aI-1
aI-1
aI-1
aI-1
aI-1
asg8
(lp292
I38
aI24
aI-1
aF26.4320011138916
aF340.2239990234375
aF-1.0
aI26
aI23
aI-1
aF300.8639831542969
aF364.8639831542969
aF-1.0
asg10
(lp293
F-0.005
aF-0.006999999999999999
aF0.009000000000000001
asba(i__main__
sensor_data_struct
p294
(dp295
g3
(lp296
I623
aI328
aI201
aI1121
aI2556
aF168.0
aI880
aI389
aI248
aI1468
aI2388
aF146.0
asg5
I0
sg6
(lp297
I-1
aI-1
aI-1
aI-1
aI-1
aI-1
asg8
(lp298
I33
aI18
aI-1
aF25.72800064086914
aF339.96795654296875
aF-1.0
aI28
aI24
aI-1
aF303.2959899902344
aF359.1679992675781
aF-1.0
asg10
(lp299
F-0.005
aF-0.001
aF0.011000000000000001
asba(i__main__
sensor_data_struct
p300
(dp301
g3
(lp302
I611
aI327
aI199
aI1106
aI2567
aF172.0
aI904
aI398
aI252
aI1504
aI2374
aF150.0
asg5
I0
sg6
(lp303
I-1
aI-1
aI-1
aI-1
aI-1
aI-1
asg8
(lp304
I24
aI33
aI-1
aF25.280000686645508
aF340.60797119140625
aF-1.0
aI27
aI24
aI-1
aF300.2879943847656
aF364.15997314453125
aF-1.0
asg10
(lp305
F-0.002
aF-0.01
aF0.009000000000000001
asba(i__main__
sensor_data_struct
p306
(dp307
g3
(lp308
I592
aI324
aI193
aI1085
aI2579
aF177.0
aI1153
aI456
aI301
aI1838
aI2294
aF125.0
asg5
I0
sg6
(lp309
I-1
aI-1
aI-1
aI-1
aI-1
aI-1
asg8
(lp310
I27
aI24
aI-1
aF24.256000518798828
aF339.64801025390625
aF-1.0
aI27
aI25
aI-1
aF298.68798828125
aF361.02398681640625
aF-1.0
asg10
(lp311
F0.0
aF0.0
aF0.008
asba(i__main__
sensor_data_struct
p312
(dp313
g3
(lp314
I596
aI325
aI195
aI1090
aI2580
aF176.0
aI783
aI361
aI230
aI1331
aI2436
aF147.0
asg5
I1
sg6
(lp315
I-1
aI-1
aI-1
aI-1
aI-1
aI-1
asg8
(lp316
I27
aI25
aI-1
aF26.56000328063965
aF339.7120056152344
aF-1.0
aI28
aI25
aI-1
aF305.66400146484375
aF366.97601318359375
aF-1.0
asg10
(lp317
F0.003
aF-0.003
aF0.013000000000000001
asba(i__main__
sensor_data_struct
p318
(dp319
g3
(lp320
I603
aI327
aI197
aI1102
aI2583
aF176.0
aI846
aI392
aI243
aI1441
aI2419
aF166.0
asg5
I1
sg6
(lp321
I-1
aI-1
aI-1
aI-1
aI-1
aI-1
asg8
(lp322
I42
aI38
aI-1
aF25.855998992919922
aF339.8399963378906
aF-1.0
aI30
aI28
aI-1
aF306.0480041503906
aF353.40802001953125
aF-1.0
asg10
(lp323
F-0.008
aF0.005
aF0.013999999999999999
asba(i__main__
sensor_data_struct
p324
(dp325
g3
(lp326
I642
aI330
aI204
aI1147
aI2543
aF163.0
aI1061
aI415
aI283
aI1692
aI2317
aF103.0
asg5
I0
sg6
(lp327
I-1
aI-1
aI-1
aI-1
aI-1
aI-1
asg8
(lp328
I34
aI31
aI-1
aF27.7759952545166
aF339.583984375
aF-1.0
aI29
aI23
aI-1
aF303.23199462890625
aF362.7520446777344
aF-1.0
asg10
(lp329
F0.006
aF0.003
aF0.01
asba(i__main__
sensor_data_struct
p330
(dp331
g3
(lp332
I587
aI323
aI193
aI1081
aI2594
aF177.0
aI1036
aI399
aI280
aI1660
aI2346
aF88.0
asg5
I1
sg6
(lp333
I-1
aI-1
aI-1
aI-1
aI-1
aI-1
asg8
(lp334
I42
aI48
aI-1
aF26.687999725341797
aF338.30401611328125
aF-1.0
aI38
aI39
aI-1
aF303.03997802734375
aF353.7279968261719
aF-1.0
asg10
(lp335
F-0.001
aF0.012
aF0.013000000000000001
asba(i__main__
sensor_data_struct
p336
(dp337
g3
(lp338
I574
aI319
aI191
aI1061
aI2609
aF177.0
aI1025
aI440
aI276
aI1686
aI2341
aF159.0
asg5
I0
sg6
(lp339
I-1
aI-1
aI-1
aI-1
aI-1
aI-1
asg8
(lp340
I30
aI21
aI-1
aF25.3439998626709
aF339.4559631347656
aF-1.0
aI29
aI25
aI-1
aF304.7040100097656
aF359.61602783203125
aF-1.0
asg10
(lp341
F-0.003
aF-0.001
aF0.011000000000000001
asba(i__main__
sensor_data_struct
p342
(dp343
g3
(lp344
I587
aI324
aI193
aI1082
aI2594
aF179.0
aI1635
aI571
aI398
aI2521
aI2244
aF79.0
asg5
I1
sg6
(lp345
I-1
aI-1
aI-1
aI-1
aI-1
aI-1
asg8
(lp346
I45
aI48
aI-1
aF28.2239990234375
aF339.20001220703125
aF-1.0
aI38
aI36
aI-1
aF317.9519958496094
aF378.6239929199219
aF-1.0
asg10
(lp347
F0.003
aF0.011000000000000001
aF0.011000000000000001
asba(i__main__
sensor_data_struct
p348
(dp349
g3
(lp350
I580
aI322
aI192
aI1071
aI2602
aF179.0
aI1032
aI442
aI276
aI1694
aI2332
aF160.0
asg5
I0
sg6
(lp351
I-1
aI-1
aI-1
aI-1
aI-1
aI-1
asg8
(lp352
I33
aI35
aI-1
aF25.600000381469727
aF339.8399963378906
aF-1.0
aI28
aI23
aI-1
aF304.1919860839844
aF366.7200012207031
aF-1.0
asg10
(lp353
F-0.001
aF-0.008
aF0.011000000000000001
asba(i__main__
sensor_data_struct
p354
(dp355
g3
(lp356
I591
aI325
aI194
aI1085
aI2588
aF179.0
aI688
aI342
aI213
aI1207
aI2499
aF160.0
asg5
I1
sg6
(lp357
I-1
aI-1
aI-1
aI-1
aI-1
aI-1
asg8
(lp358
I33
aI35
aI-1
aF26.56000328063965
aF340.2879943847656
aF-1.0
aI27
aI33
aI-1
aF301.05596923828125
aF370.55999755859375
aF-1.0
asg10
(lp359
F0.004
aF-0.006
aF0.013000000000000001
asba(i__main__
sensor_data_struct
p360
(dp361
g3
(lp362
I846
aI361
aI244
aI1397
aI2400
aF116.0
aI1233
aI456
aI315
aI1921
aI2266
aF88.0
asg5
I0
sg6
(lp363
I-1
aI-1
aI-1
aI-1
aI-1
aI-1
asg8
(lp364
I38
aI33
aI-1
aF28.479999542236328
aF339.96795654296875
aF-1.0
aI26
aI22
aI-1
aF299.583984375
aF362.6239929199219
aF-1.0
asg10
(lp365
F0.006999999999999999
aF0.004
aF0.008
asba(i__main__
sensor_data_struct
p366
(dp367
g3
(lp368
I598
aI323
aI195
aI1091
aI2580
aF172.0
aI1290
aI470
aI326
aI1995
aI2250
aF84.0
asg5
I0
sg6
(lp369
I-1
aI-1
aI-1
aI-1
aI-1
aI-1
asg8
(lp370
I30
aI21
aI-1
aF20.351999282836914
aF330.4320068359375
aF-1.0
aI26
aI26
aI-1
aF280.12799072265625
aF351.48797607421875
aF-1.0
asg10
(lp371
F-0.001
aF0.004
aF0.002
asba(i__main__
sensor_data_struct
p372
(dp373
g3
(lp374
I589
aI322
aI193
aI1080
aI2586
aF175.0
aI1431
aI481
aI354
aI2168
aI2231
aF35.0
asg5
I1
sg6
(lp375
I-1
aI-1
aI-1
aI-1
aI-1
aI-1
asg8
(lp376
I40
aI42
aI-1
aF27.200000762939453
aF339.3919982910156
aF-1.0
aI38
aI38
aI-1
aF289.91998291015625
aF340.6719970703125
aF-1.0
asg10
(lp377
F0.003
aF0.009000000000000001
aF0.011000000000000001
asba(i__main__
sensor_data_struct
p378
(dp379
g3
(lp380
I583
aI319
aI193
aI1069
aI2594
aF172.0
aI763
aI369
aI226
aI1321
aI2454
aF169.0
asg5
I1
sg6
(lp381
I-1
aI-1
aI-1
aI-1
aI-1
aI-1
asg8
(lp382
I52
aI43
aI-1
aF25.152000427246094
aF338.4960021972656
aF-1.0
aI32
aI29
aI-1
aF306.6239929199219
aF367.2959899902344
aF-1.0
asg10
(lp383
F-0.003
aF-0.006
aF0.015
asba(i__main__
sensor_data_struct
p384
(dp385
g3
(lp386
I578
aI321
aI192
aI1068
aI2607
aF178.0
aI642
aI339
aI205
aI1158
aI2549
aF176.0
asg5
I1
sg6
(lp387
I-1
aI-1
aI-1
aI-1
aI-1
aI-1
asg8
(lp388
I53
aI47
aI-1
aF26.239999771118164
aF337.21600341796875
aF-1.0
aI38
aI34
aI-1
aF323.64801025390625
aF383.0399475097656
aF-1.0
asg10
(lp389
F-0.012
aF0.003
aF0.013000000000000001
asba(i__main__
sensor_data_struct
p390
(dp391
g3
(lp392
I578
aI321
aI192
aI1068
aI2607
aF178.0
aI1184
aI465
aI305
aI1881
aI2283
aF126.0
asg5
I0
sg6
(lp393
I-1
aI-1
aI-1
aI-1
aI-1
aI-1
asg8
(lp394
I36
aI30
aI-1
aF28.351999282836914
aF339.583984375
aF-1.0
aI29
aI26
aI-1
aF300.54400634765625
aF362.11199951171875
aF-1.0
asg10
(lp395
F0.006999999999999999
aF0.003
aF0.009000000000000001
asba(i__main__
sensor_data_struct
p396
(dp397
g3
(lp398
I624
aI331
aI200
aI1130
aI2561
aF173.0
aI1036
aI457
aI278
aI1720
aI2344
aF181.0
asg5
I1
sg6
(lp399
I-1
aI-1
aI-1
aI-1
aI-1
aI-1
asg8
(lp400
I50
aI38
aI-1
aF26.8799991607666
aF339.3919982910156
aF-1.0
aI30
aI29
aI-1
aF307.0719909667969
aF365.3119812011719
aF-1.0
asg10
(lp401
F0.01
aF0.004
aF0.015
asba(i__main__
sensor_data_struct
p402
(dp403
g3
(lp404
I582
aI324
aI193
aI1076
aI2605
aF181.0
aI939
aI456
aI258
aI1618
aI2386
aF226.0
asg5
I1
sg6
(lp405
I-1
aI-1
aI-1
aI-1
aI-1
aI-1
asg8
(lp406
I52
aI47
aI-1
aF24.76799964904785
aF338.81597900390625
aF-1.0
aI35
aI35
aI-1
aF323.7760009765625
aF383.2959899902344
aF-1.0
asg10
(lp407
F0.012
aF-0.006
aF0.015
asba(i__main__
sensor_data_struct
p408
(dp409
g3
(lp410
I656
aI334
aI207
aI1166
aI2532
aF162.0
aI1395
aI452
aI353
aI2079
aI2227
aF2.0
asg5
I0
sg6
(lp411
I-1
aI-1
aI-1
aI-1
aI-1
aI-1
asg8
(lp412
I30
aI27
aI-1
aF23.423999786376953
aF339.3919982910156
aF-1.0
aI30
aI23
aI-1
aF288.12799072265625
aF354.30401611328125
aF-1.0
asg10
(lp413
F0.002
aF0.004
aF0.004
asba(i__main__
sensor_data_struct
p414
(dp415
g3
(lp416
I578
aI322
aI193
aI1069
aI2609
aF179.0
aI740
aI377
aI223
aI1311
aI2487
aF191.0
asg5
I1
sg6
(lp417
I-1
aI-1
aI-1
aI-1
aI-1
aI-1
asg8
(lp418
I55
aI45
aI-1
aF26.4320011138916
aF337.21600341796875
aF-1.0
aI41
aI35
aI-1
aF323.7760009765625
aF383.8079833984375
aF-1.0
asg10
(lp419
F-0.012
aF0.003
aF0.013999999999999999
asba(i__main__
sensor_data_struct
p420
(dp421
g3
(lp422
I600
aI327
aI196
aI1097
aI2578
aF177.0
aI1187
aI477
aI308
aI1900
aI2291
aF142.0
asg5
I0
sg6
(lp423
I-1
aI-1
aI-1
aI-1
aI-1
aI-1
asg8
(lp424
I29
aI27
aI-1
aF26.49599838256836
aF341.3119812011719
aF-1.0
aI27
aI23
aI-1
aF300.2879943847656
aF358.2720031738281
aF-1.0
asg10
(lp425
F0.0
aF0.004
aF0.009000000000000001
asba(i__main__
sensor_data_struct
p426
(dp427
g3
(lp428
I606
aI327
aI197
aI1105
aI2577
aF175.0
aI851
aI380
aI245
aI1429
aI2412
aF144.0
asg5
I0
sg6
(lp429
I-1
aI-1
aI-1
aI-1
aI-1
aI-1
asg8
(lp430
I32
aI26
aI-1
aF26.623998641967773
aF341.5039978027344
aF-1.0
aI28
aI24
aI-1
aF304.2559814453125
aF355.8399963378906
aF-1.0
asg10
(lp431
F-0.005
aF0.003
aF0.012
asba(i__main__
sensor_data_struct
p432
(dp433
g3
(lp434
I575
aI322
aI191
aI1066
aI2606
aF181.0
aI957
aI427
aI260
aI1599
aI2360
aF172.0
asg5
I1
sg6
(lp435
I-1
aI-1
aI-1
aI-1
aI-1
aI-1
asg8
(lp436
I51
aI35
aI-1
aF69.95199584960938
aF338.9439697265625
aF-1.0
aI30
aI31
aI-1
aF306.8800048828125
aF368.5119934082031
aF-1.0
asg10
(lp437
F0.012
aF0.003
aF0.015
asba(i__main__
sensor_data_struct
p438
(dp439
g3
(lp440
I603
aI322
aI196
aI1091
aI2563
aF169.0
aI852
aI411
aI242
aI1469
aI2414
aF194.0
asg5
I1
sg6
(lp441
I-1
aI-1
aI-1
aI-1
aI-1
aI-1
asg8
(lp442
I31
aI41
aI-1
aF25.983999252319336
aF340.09600830078125
aF-1.0
aI24
aI37
aI-1
aF318.7200012207031
aF384.5119934082031
aF-1.0
asg10
(lp443
F0.003
aF-0.008
aF0.01
asba(i__main__
sensor_data_struct
p444
(dp445
g3
(lp446
I647
aI335
aI206
aI1156
aI2538
aF167.0
aI987
aI417
aI269
aI1617
aI2348
aF140.0
asg5
I0
sg6
(lp447
I-1
aI-1
aI-1
aI-1
aI-1
aI-1
asg8
(lp448
I42
aI14
aI-1
aF27.3279972076416
aF339.4559631347656
aF-1.0
aI29
aI23
aI-1
aF298.4960021972656
aF351.1679992675781
aF-1.0
asg10
(lp449
F-0.008
aF0.003
aF0.008
asba(i__main__
sensor_data_struct
p450
(dp451
g3
(lp452
I706
aI344
aI217
aI1235
aI2500
aF154.0
aI1322
aI489
aI334
aI2083
aI2285
aF98.0
asg5
I1
sg6
(lp453
I-1
aI-1
aI-1
aI-1
aI-1
aI-1
asg8
(lp454
I43
aI48
aI-1
aF27.071998596191406
aF339.135986328125
aF-1.0
aI36
aI35
aI-1
aF319.10400390625
aF382.14398193359375
aF-1.0
asg10
(lp455
F0.003
aF0.011000000000000001
aF0.013000000000000001
asba(i__main__
sensor_data_struct
p456
(dp457
g3
(lp458
I638
aI334
aI205
aI1146
aI2552
aF170.0
aI903
aI403
aI252
aI1512
aI2382
aF158.0
asg5
I1
sg6
(lp459
I-1
aI-1
aI-1
aI-1
aI-1
aI-1
asg8
(lp460
I33
aI27
aI-1
aF26.943998336791992
aF340.4800109863281
aF-1.0
aI29
aI27
aI-1
aF305.7919921875
aF359.61602783203125
aF-1.0
asg10
(lp461
F0.0
aF0.002
aF0.013999999999999999
asba(i__main__
sensor_data_struct
p462
(dp463
g3
(lp464
I651
aI342
aI223
aI1173
aI2612
aF165.0
aI1054
aI443
aI283
aI1721
aI2335
aF149.0
asg5
I0
sg6
(lp465
I-1
aI-1
aI-1
aI-1
aI-1
aI-1
asg8
(lp466
I32
aI20
aI-1
aF26.56000328063965
aF341.6319885253906
aF-1.0
aI27
aI23
aI-1
aF303.03997802734375
aF355.96795654296875
aF-1.0
asg10
(lp467
F-0.003
aF0.004
aF0.011000000000000001
asba(i__main__
sensor_data_struct
p468
(dp469
g3
(lp470
I625
aI334
aI201
aI1134
aI2561
aF177.0
aI1168
aI467
aI304
aI1869
aI2295
aF135.0
asg5
I0
sg6
(lp471
I-1
aI-1
aI-1
aI-1
aI-1
aI-1
asg8
(lp472
I32
aI31
aI-1
aF26.943998336791992
aF340.2239990234375
aF-1.0
aI27
aI24
aI-1
aF300.8639831542969
aF355.7760009765625
aF-1.0
asg10
(lp473
F-0.001
aF0.006999999999999999
aF0.009000000000000001
asba(i__main__
sensor_data_struct
p474
(dp475
g3
(lp476
I637
aI332
aI206
aI1140
aI2552
aF166.0
aI1009
aI419
aI270
aI1639
aI2327
aF136.0
asg5
I0
sg6
(lp477
I-1
aI-1
aI-1
aI-1
aI-1
aI-1
asg8
(lp478
I20
aI33
aI-1
aF25.21599769592285
aF340.35198974609375
aF-1.0
aI28
aI24
aI-1
aF298.81597900390625
aF362.30401611328125
aF-1.0
asg10
(lp479
F-0.001
aF-0.009000000000000001
aF0.008
asba(i__main__
sensor_data_struct
p480
(dp481
g3
(lp482
I643
aI335
aI206
aI1152
aI2545
aF169.0
aI905
aI420
aI255
aI1538
aI2399
aF182.0
asg5
I1
sg6
(lp483
I-1
aI-1
aI-1
aI-1
aI-1
aI-1
asg8
(lp484
I44
aI22
aI-1
aF26.8799991607666
aF339.64801025390625
aF-1.0
aI37
aI18
aI-1
aF309.5039978027344
aF361.0879821777344
aF-1.0
asg10
(lp485
F-0.009000000000000001
aF0.003
aF0.011000000000000001
asba(i__main__
sensor_data_struct
p486
(dp487
g3
(lp488
I675
aI337
aI212
aI1190
aI2520
aF157.0
aI1017
aI417
aI274
aI1646
aI2329
aF127.0
asg5
I0
sg6
(lp489
I-1
aI-1
aI-1
aI-1
aI-1
aI-1
asg8
(lp490
I23
aI31
aI-1
aF26.687999725341797
aF339.7760009765625
aF-1.0
aI28
aI24
aI-1
aF299.8399963378906
aF364.79998779296875
aF-1.0
asg10
(lp491
F0.006
aF-0.002
aF0.009000000000000001
asba(i__main__
sensor_data_struct
p492
(dp493
g3
(lp494
I603
aI327
aI198
aI1102
aI2585
aF175.0
aI786
aI384
aI231
aI1368
aI2454
aF181.0
asg5
I1
sg6
(lp495
I-1
aI-1
aI-1
aI-1
aI-1
aI-1
asg8
(lp496
I49
aI10
aI-1
aF27.45599937438965
aF338.6239929199219
aF-1.0
aI35
aI14
aI-1
aF323.7760009765625
aF379.00799560546875
aF-1.0
asg10
(lp497
F-0.01
aF0.001
aF0.009000000000000001
asba(i__main__
sensor_data_struct
p498
(dp499
g3
(lp500
I616
aI335
aI199
aI1126
aI2570
aF183.0
aI1006
aI455
aI272
aI1685
aI2353
aF192.0
asg5
I1
sg6
(lp501
I-1
aI-1
aI-1
aI-1
aI-1
aI-1
asg8
(lp502
I54
aI43
aI-1
aF27.071998596191406
aF339.5199890136719
aF-1.0
aI34
aI31
aI-1
aF307.9679870605469
aF356.15997314453125
aF-1.0
asg10
(lp503
F-0.008
aF-0.004
aF0.015
asba(i__main__
sensor_data_struct
p504
(dp505
g3
(lp506
I692
aI345
aI216
aI1217
aI2510
aF161.0
aI947
aI443
aI259
aI1611
aI2376
aF202.0
asg5
I1
sg6
(lp507
I-1
aI-1
aI-1
aI-1
aI-1
aI-1
asg8
(lp508
I38
aI8
aI-1
aF28.15999984741211
aF336.8319396972656
aF-1.0
aI36
aI11
aI-1
aF323.9679870605469
aF366.52801513671875
aF-1.0
asg10
(lp509
F-0.008
aF0.003
aF0.006
asba(i__main__
sensor_data_struct
p510
(dp511
g3
(lp512
I628
aI338
aI202
aI1143
aI2566
aF181.0
aI1028
aI460
aI279
aI1717
aI2355
aF188.0
asg5
I1
sg6
(lp513
I-1
aI-1
aI-1
aI-1
aI-1
aI-1
asg8
(lp514
I35
aI46
aI-1
aF26.368000030517578
aF339.7760009765625
aF-1.0
aI31
aI32
aI-1
aF306.9440002441406
aF342.9119873046875
aF-1.0
asg10
(lp515
F-0.008
aF0.008
aF0.015
asba(i__main__
sensor_data_struct
p516
(dp517
g3
(lp518
I660
aI340
aI210
aI1175
aI2534
aF168.0
aI963
aI424
aI263
aI1602
aI2360
aF164.0
asg5
I0
sg6
(lp519
I-1
aI-1
aI-1
aI-1
aI-1
aI-1
asg8
(lp520
I38
aI21
aI-1
aF27.263999938964844
aF340.4159851074219
aF-1.0
aI30
aI26
aI-1
aF304.9599914550781
aF356.35198974609375
aF-1.0
asg10
(lp521
F-0.006
aF0.001
aF0.011000000000000001
asba(i__main__
sensor_data_struct
p522
(dp523
g3
(lp524
I591
aI327
aI195
aI1090
aI2599
aF181.0
aI1003
aI451
aI271
aI1676
aI2352
aF187.0
asg5
I1
sg6
(lp525
I-1
aI-1
aI-1
aI-1
aI-1
aI-1
asg8
(lp526
I52
aI41
aI-1
aF25.983999252319336
aF339.4559631347656
aF-1.0
aI31
aI30
aI-1
aF306.55999755859375
aF369.5359802246094
aF-1.0
asg10
(lp527
F-0.001
aF-0.009000000000000001
aF0.015
asba(i__main__
sensor_data_struct
p528
(dp529
g3
(lp530
I656
aI335
aI207
aI1167
aI2532
aF164.0
aI957
aI412
aI261
aI1580
aI2355
aF148.0
asg5
I0
sg6
(lp531
I-1
aI-1
aI-1
aI-1
aI-1
aI-1
asg8
(lp532
I29
aI33
aI-1
aF27.263999938964844
aF340.2879943847656
aF-1.0
aI28
aI25
aI-1
aF303.8079833984375
aF367.2959899902344
aF-1.0
asg10
(lp533
F0.006999999999999999
aF-0.002
aF0.011000000000000001
asba(i__main__
sensor_data_struct
p534
(dp535
g3
(lp536
I595
aI326
aI196
aI1091
aI2588
aF177.0
aI768
aI384
aI227
aI1347
aI2460
aF190.0
asg5
I1
sg6
(lp537
I-1
aI-1
aI-1
aI-1
aI-1
aI-1
asg8
(lp538
I50
aI47
aI-1
aF25.983999252319336
aF339.4559631347656
aF-1.0
aI36
aI34
aI-1
aF323.00799560546875
aF384.8319396972656
aF-1.0
asg10
(lp539
F0.002
aF-0.009000000000000001
aF0.015
asba(i__main__
sensor_data_struct
p540
(dp541
g3
(lp542
I900
aI373
aI254
aI1469
aI2375
aF110.0
aI1327
aI451
aI335
aI2008
aI2236
aF35.0
asg5
I0
sg6
(lp543
I-1
aI-1
aI-1
aI-1
aI-1
aI-1
asg8
(lp544
I28
aI23
aI-1
aF19.392000198364258
aF328.5119934082031
aF-1.0
aI27
aI24
aI-1
aF275.135986328125
aF345.27996826171875
aF-1.0
asg10
(lp545
F0.0
aF0.004
aF0.0
asba(i__main__
sensor_data_struct
p546
(dp547
g3
(lp548
I641
aI331
aI205
aI1146
aI2547
aF164.0
aI919
aI379
aI257
aI1492
aI2360
aF111.0
asg5
I0
sg6
(lp549
I-1
aI-1
aI-1
aI-1
aI-1
aI-1
asg8
(lp550
I22
aI25
aI-1
aF19.84000015258789
aF339.3919982910156
aF-1.0
aI28
aI23
aI-1
aF280.0639953613281
aF348.8639831542969
aF-1.0
asg10
(lp551
F0.001
aF-0.003
aF0.002
asba(i__main__
sensor_data_struct
p552
(dp553
g3
(lp554
I623
aI329
aI203
aI1123
aI2564
aF168.0
aI937
aI412
aI258
aI1558
aI2367
aF157.0
asg5
I0
sg6
(lp555
I-1
aI-1
aI-1
aI-1
aI-1
aI-1
asg8
(lp556
I36
aI28
aI-1
aF25.855998992919922
aF339.8399963378906
aF-1.0
aI27
aI24
aI-1
aF303.48797607421875
aF365.88800048828125
aF-1.0
asg10
(lp557
F-0.005
aF-0.006999999999999999
aF0.011000000000000001
asba(i__main__
sensor_data_struct
p558
(dp559
g3
(lp560
I595
aI326
aI195
aI1092
aI2586
aF178.0
aI784
aI372
aI231
aI1348
aI2446
aF163.0
asg5
I1
sg6
(lp561
I-1
aI-1
aI-1
aI-1
aI-1
aI-1
asg8
(lp562
I37
aI32
aI-1
aF26.623998641967773
aF339.7760009765625
aF-1.0
aI30
aI30
aI-1
aF306.68798828125
aF367.7439880371094
aF-1.0
asg10
(lp563
F0.002
aF-0.003
aF0.015
asba(i__main__
sensor_data_struct
p564
(dp565
g3
(lp566
I595
aI328
aI196
aI1094
aI2593
aF181.0
aI1035
aI482
aI276
aI1748
aI2346
aF222.0
asg5
I1
sg6
(lp567
I-1
aI-1
aI-1
aI-1
aI-1
aI-1
asg8
(lp568
I18
aI41
aI-1
aF26.687999725341797
aF340.9280090332031
aF-1.0
aI15
aI38
aI-1
aF312.9599914550781
aF385.9839782714844
aF-1.0
asg10
(lp569
F0.004
aF-0.008
aF0.008
asba(i__main__
sensor_data_struct
p570
(dp571
g3
(lp572
I610
aI329
aI198
aI1111
aI2571
aF176.0
aI838
aI372
aI242
aI1403
aI2411
aF137.0
asg5
I0
sg6
(lp573
I-1
aI-1
aI-1
aI-1
aI-1
aI-1
asg8
(lp574
I28
aI26
aI-1
aF26.56000328063965
aF340.4800109863281
aF-1.0
aI27
aI23
aI-1
aF304.0
aF362.81597900390625
aF-1.0
asg10
(lp575
F0.001
aF-0.001
aF0.012
asba(i__main__
sensor_data_struct
p576
(dp577
g3
(lp578
I712
aI345
aI217
aI1240
aI2487
aF154.0
aI1213
aI434
aI314
aI1872
aI2270
aF61.0
asg5
I0
sg6
(lp579
I-1
aI-1
aI-1
aI-1
aI-1
aI-1
asg8
(lp580
I34
aI23
aI-1
aF22.847999572753906
aF335.7439880371094
aF-1.0
aI29
aI25
aI-1
aF291.71197509765625
aF351.2959899902344
aF-1.0
asg10
(lp581
F-0.002
aF0.006
aF0.004
asba(i__main__
sensor_data_struct
p582
(dp583
g3
(lp584
I599
aI325
aI197
aI1094
aI2587
aF174.0
aI901
aI438
aI252
aI1555
aI2400
aF214.0
asg5
I1
sg6
(lp585
I-1
aI-1
aI-1
aI-1
aI-1
aI-1
asg8
(lp586
I53
aI45
aI-1
aF25.408000946044922
aF339.135986328125
aF-1.0
aI36
aI37
aI-1
aF322.68798828125
aF382.78399658203125
aF-1.0
asg10
(lp587
F0.001
aF-0.01
aF0.013999999999999999
asba(i__main__
sensor_data_struct
p588
(dp589
g3
(lp590
I702
aI342
aI215
aI1223
aI2488
aF154.0
aI1106
aI415
aI292
aI1733
aI2291
aF82.0
asg5
I0
sg6
(lp591
I-1
aI-1
aI-1
aI-1
aI-1
aI-1
asg8
(lp592
I26
aI28
aI-1
aF22.847999572753906
aF339.7760009765625
aF-1.0
aI28
aI25
aI-1
aF288.2559814453125
aF354.7520446777344
aF-1.0
asg10
(lp593
F0.003
aF-0.001
aF0.004
asba(i__main__
sensor_data_struct
p594
(dp595
g3
(lp596
I724
aI346
aI223
aI1249
aI2481
aF147.0
aI1078
aI431
aI286
aI1728
aI2313
aF120.0
asg5
I0
sg6
(lp597
I-1
aI-1
aI-1
aI-1
aI-1
aI-1
asg8
(lp598
I25
aI24
aI-1
aF24.511999130249023
aF339.8399963378906
aF-1.0
aI29
aI24
aI-1
aF299.135986328125
aF358.6559753417969
aF-1.0
asg10
(lp599
F0.001
aF0.0
aF0.008
asba(i__main__
sensor_data_struct
p600
(dp601
g3
(lp602
I594
aI326
aI195
aI1092
aI2593
aF178.0
aI1156
aI465
aI300
aI1850
aI2291
aF139.0
asg5
I0
sg6
(lp603
I-1
aI-1
aI-1
aI-1
aI-1
aI-1
asg8
(lp604
I37
aI29
aI-1
aF28.2239990234375
aF339.5199890136719
aF-1.0
aI29
aI23
aI-1
aF301.5039978027344
aF364.79998779296875
aF-1.0
asg10
(lp605
F0.008
aF0.002
aF0.01
asba.