(lp0
(i__main__
sensor_data_struct
p1
(dp2
S'color'
p3
(lp4
I517
aI296
aI183
aI971
aI2681
aF165.0
aI1127
aI460
aI293
aI1813
aI2296
aF145.0
asS'button'
p5
I0
sS'IR'
p6
(lp7
I-1
aI-1
aI-1
aI-1
aI-1
aI-1
asS'TOF'
p8
(lp9
I44
aI33
aI-1
aF22.847999572753906
aF331.90399169921875
aF-1.0
aI28
aI24
aI-1
aF302.9119873046875
aF363.3919982910156
aF-1.0
asS'pt'
p10
(lp11
F0.01
aF0.001
aF0.01
asba(i__main__
sensor_data_struct
p12
(dp13
g3
(lp14
I643
aI324
aI206
aI1138
aI2541
aF151.0
aI955
aI388
aI264
aI1542
aI2348
aF109.0
asg5
I0
sg6
(lp15
I-1
aI-1
aI-1
aI-1
aI-1
aI-1
asg8
(lp16
I33
aI16
aI-1
aF23.743999481201172
aF335.42401123046875
aF-1.0
aI29
aI23
aI-1
aF283.3280029296875
aF347.90399169921875
aF-1.0
asg10
(lp17
F-0.004
aF0.0
aF0.003
asba(i__main__
sensor_data_struct
p18
(dp19
g3
(lp20
I603
aI318
aI199
aI1090
aI2583
aF160.0
aI902
aI408
aI252
aI1518
aI2386
aF166.0
asg5
I1
sg6
(lp21
I-1
aI-1
aI-1
aI-1
aI-1
aI-1
asg8
(lp22
I35
aI47
aI-1
aF23.040000915527344
aF335.552001953125
aF-1.0
aI33
aI31
aI-1
aF305.9839782714844
aF335.42401123046875
aF-1.0
asg10
(lp23
F-0.008
aF0.011000000000000001
aF0.015
asba(i__main__
sensor_data_struct
p24
(dp25
g3
(lp26
I578
aI320
aI195
aI1067
aI2618
aF174.0
aI787
aI390
aI231
aI1373
aI2449
aF190.0
asg5
I1
sg6
(lp27
I-1
aI-1
aI-1
aI-1
aI-1
aI-1
asg8
(lp28
I56
aI45
aI-1
aF24.38399887084961
aF335.8079833984375
aF-1.0
aI37
aI36
aI-1
aF322.8800048828125
aF377.7919921875
aF-1.0
asg10
(lp29
F-0.01
aF-0.002
aF0.013999999999999999
asba(i__main__
sensor_data_struct
p30
(dp31
g3
(lp32
I663
aI332
aI211
aI1169
aI2531
aF154.0
aI965
aI422
aI264
aI1601
aI2359
aF159.0
asg5
I1
sg6
(lp33
I-1
aI-1
aI-1
aI-1
aI-1
aI-1
asg8
(lp34
I36
aI32
aI-1
aF25.3439998626709
aF336.8319396972656
aF-1.0
aI29
aI28
aI-1
aF305.47198486328125
aF353.0879821777344
aF-1.0
asg10
(lp35
F0.002
aF0.003
aF0.013999999999999999
asba(i__main__
sensor_data_struct
p36
(dp37
g3
(lp38
I689
aI337
aI215
aI1203
aI2505
aF150.0
aI994
aI428
aI269
aI1638
aI2347
aF155.0
asg5
I1
sg6
(lp39
I-1
aI-1
aI-1
aI-1
aI-1
aI-1
asg8
(lp40
I36
aI43
aI-1
aF24.0
aF337.21600341796875
aF-1.0
aI30
aI25
aI-1
aF304.83197021484375
aF337.40802001953125
aF-1.0
asg10
(lp41
F-0.003
aF0.008
aF0.012
asba(i__main__
sensor_data_struct
p42
(dp43
g3
(lp44
I581
aI316
aI195
aI1062
aI2602
aF167.0
aI905
aI410
aI251
aI1520
aI2375
aF169.0
asg5
I1
sg6
(lp45
I-1
aI-1
aI-1
aI-1
aI-1
aI-1
asg8
(lp46
I59
aI44
aI-1
aF23.359996795654297
aF335.67999267578125
aF-1.0
aI31
aI27
aI-1
aF305.2799987792969
aF366.6559753417969
aF-1.0
asg10
(lp47
F-0.002
aF-0.008
aF0.013999999999999999
asba(i__main__
sensor_data_struct
p48
(dp49
g3
(lp50
I607
aI319
aI198
aI1096
aI2573
aF161.0
aI885
aI380
aI249
aI1460
aI2376
aF130.0
asg5
I0
sg6
(lp51
I-1
aI-1
aI-1
aI-1
aI-1
aI-1
asg8
(lp52
I20
aI35
aI-1
aF23.743999481201172
aF337.7279968261719
aF-1.0
aI27
aI25
aI-1
aF296.76800537109375
aF356.35198974609375
aF-1.0
asg10
(lp53
F0.008
aF-0.003
aF0.006
asba(i__main__
sensor_data_struct
p54
(dp55
g3
(lp56
I768
aI347
aI231
aI1299
aI2454
aF129.0
aI1119
aI438
aI292
aI1779
aI2294
aF114.0
asg5
I0
sg6
(lp57
I-1
aI-1
aI-1
aI-1
aI-1
aI-1
asg8
(lp58
I32
aI25
aI-1
aF22.591999053955078
aF337.40802001953125
aF-1.0
aI28
aI23
aI-1
aF298.30401611328125
aF349.88800048828125
aF-1.0
asg10
(lp59
F-0.003
aF0.006
aF0.008
asba(i__main__
sensor_data_struct
p60
(dp61
g3
(lp62
I585
aI320
aI194
aI1074
aI2601
aF173.0
aI1015
aI474
aI271
aI1716
aI2346
aF220.0
asg5
I1
sg6
(lp63
I-1
aI-1
aI-1
aI-1
aI-1
aI-1
asg8
(lp64
I41
aI10
aI-1
aF26.17599868774414
aF335.42401123046875
aF-1.0
aI38
aI12
aI-1
aF323.135986328125
aF364.99200439453125
aF-1.0
asg10
(lp65
F-0.008
aF0.001
aF0.006
asba(i__main__
sensor_data_struct
p66
(dp67
g3
(lp68
I602
aI320
aI199
aI1091
aI2585
aF163.0
aI885
aI399
aI247
aI1488
aI2387
aF161.0
asg5
I1
sg6
(lp69
I-1
aI-1
aI-1
aI-1
aI-1
aI-1
asg8
(lp70
I57
aI31
aI-1
aF24.831998825073242
aF335.552001953125
aF-1.0
aI31
aI30
aI-1
aF306.0480041503906
aF363.135986328125
aF-1.0
asg10
(lp71
F0.008
aF0.001
aF0.015
asba(i__main__
sensor_data_struct
p72
(dp73
g3
(lp74
I566
aI314
aI190
aI1046
aI2615
aF172.0
aI1101
aI456
aI290
aI1780
aI2307
aF150.0
asg5
I0
sg6
(lp75
I-1
aI-1
aI-1
aI-1
aI-1
aI-1
asg8
(lp76
I36
aI20
aI-1
aF23.359996795654297
aF337.0879821777344
aF-1.0
aI28
aI22
aI-1
aF300.7359924316406
aF342.6559753417969
aF-1.0
asg10
(lp77
F-0.008
aF0.006999999999999999
aF0.01
asba(i__main__
sensor_data_struct
p78
(dp79
g3
(lp80
I585
aI322
aI194
aI1078
aI2605
aF176.0
aI960
aI456
aI262
aI1637
aI2371
aF216.0
asg5
I1
sg6
(lp81
I-1
aI-1
aI-1
aI-1
aI-1
aI-1
asg8
(lp82
I55
aI31
aI-1
aF25.023998260498047
aF336.76800537109375
aF-1.0
aI39
aI34
aI-1
aF322.8800048828125
aF374.6559753417969
aF-1.0
asg10
(lp83
F-0.01
aF-0.001
aF0.012
asba(i__main__
sensor_data_struct
p84
(dp85
g3
(lp86
I602
aI327
aI197
aI1102
aI2585
aF176.0
aI754
aI361
aI225
aI1302
aI2458
aF160.0
asg5
I1
sg6
(lp87
I-1
aI-1
aI-1
aI-1
aI-1
aI-1
asg8
(lp88
I40
aI33
aI-1
aF25.72800064086914
aF337.6639709472656
aF-1.0
aI30
aI27
aI-1
aF305.343994140625
aF353.0879821777344
aF-1.0
asg10
(lp89
F-0.006999999999999999
aF0.001
aF0.013999999999999999
asba(i__main__
sensor_data_struct
p90
(dp91
g3
(lp92
I629
aI324
aI203
aI1123
aI2553
aF158.0
aI932
aI397
aI257
aI1533
aI2362
aF135.0
asg5
I0
sg6
(lp93
I-1
aI-1
aI-1
aI-1
aI-1
aI-1
asg8
(lp94
I29
aI31
aI-1
aF24.8960018157959
aF336.76800537109375
aF-1.0
aI29
aI22
aI-1
aF303.10400390625
aF363.20001220703125
aF-1.0
asg10
(lp95
F0.005
aF-0.001
aF0.011000000000000001
asba(i__main__
sensor_data_struct
p96
(dp97
g3
(lp98
I603
aI320
aI197
aI1093
aI2579
aF165.0
aI1279
aI467
aI319
aI1973
aI2234
aF88.0
asg5
I0
sg6
(lp99
I-1
aI-1
aI-1
aI-1
aI-1
aI-1
asg8
(lp100
I25
aI27
aI-1
aF19.392000198364258
aF335.48797607421875
aF-1.0
aI31
aI22
aI-1
aF282.30401611328125
aF345.6000061035156
aF-1.0
asg10
(lp101
F0.003
aF0.0
aF0.002
asba(i__main__
sensor_data_struct
p102
(dp103
g3
(lp104
I563
aI315
aI190
aI1044
aI2621
aF175.0
aI914
aI444
aI253
aI1575
aI2390
aF218.0
asg5
I1
sg6
(lp105
I-1
aI-1
aI-1
aI-1
aI-1
aI-1
asg8
(lp106
I60
aI46
aI-1
aF23.423999786376953
aF334.52801513671875
aF-1.0
aI36
aI36
aI-1
aF322.55999755859375
aF381.3760070800781
aF-1.0
asg10
(lp107
F-0.013000000000000001
aF-0.005
aF0.015
asba(i__main__
sensor_data_struct
p108
(dp109
g3
(lp110
I560
aI315
aI189
aI1042
aI2626
aF177.0
aI1280
aI522
aI331
aI2079
aI2315
aF166.0
asg5
I1
sg6
(lp111
I-1
aI-1
aI-1
aI-1
aI-1
aI-1
asg8
(lp112
I55
aI46
aI-1
aF24.06399917602539
aF336.32000732421875
aF-1.0
aI38
aI36
aI-1
aF321.5359802246094
aF378.239990234375
aF-1.0
asg10
(lp113
F0.009000000000000001
aF0.008
aF0.015
asba(i__main__
sensor_data_struct
p114
(dp115
g3
(lp116
I582
aI320
aI193
aI1070
aI2600
aF174.0
aI1134
aI444
aI293
aI1797
aI2280
aF118.0
asg5
I0
sg6
(lp117
I-1
aI-1
aI-1
aI-1
aI-1
aI-1
asg8
(lp118
I35
aI18
aI-1
aF24.703998565673828
aF336.8960266113281
aF-1.0
aI30
aI26
aI-1
aF294.2720031738281
aF353.21600341796875
aF-1.0
asg10
(lp119
F-0.005
aF-0.002
aF0.006
asba(i__main__
sensor_data_struct
p120
(dp121
g3
(lp122
I592
aI318
aI196
aI1078
aI2590
aF166.0
aI862
aI381
aI244
aI1440
aI2394
aF142.0
asg5
I0
sg6
(lp123
I-1
aI-1
aI-1
aI-1
aI-1
aI-1
asg8
(lp124
I32
aI33
aI-1
aF24.511999130249023
aF336.447998046875
aF-1.0
aI28
aI23
aI-1
aF303.1679992675781
aF364.8639831542969
aF-1.0
asg10
(lp125
F0.008
aF-0.002
aF0.011000000000000001
asba(i__main__
sensor_data_struct
p126
(dp127
g3
(lp128
I597
aI320
aI195
aI1087
aI2582
aF168.0
aI918
aI377
aI256
aI1494
aI2367
aF109.0
asg5
I0
sg6
(lp129
I-1
aI-1
aI-1
aI-1
aI-1
aI-1
asg8
(lp130
I33
aI29
aI-1
aF24.576000213623047
aF338.4960021972656
aF-1.0
aI30
aI25
aI-1
aF303.23199462890625
aF350.97601318359375
aF-1.0
asg10
(lp131
F-0.001
aF0.005
aF0.011000000000000001
asba(i__main__
sensor_data_struct
p132
(dp133
g3
(lp134
I591
aI319
aI196
aI1077
aI2592
aF168.0
aI841
aI388
aI239
aI1428
aI2407
aF164.0
asg5
I1
sg6
(lp135
I-1
aI-1
aI-1
aI-1
aI-1
aI-1
asg8
(lp136
I45
aI34
aI-1
aF24.447999954223633
aF336.38397216796875
aF-1.0
aI33
aI30
aI-1
aF305.7919921875
aF366.97601318359375
aF-1.0
asg10
(lp137
F0.004
aF-0.003
aF0.015
asba(i__main__
sensor_data_struct
p138
(dp139
g3
(lp140
I569
aI315
aI191
aI1050
aI2615
aF172.0
aI722
aI365
aI219
aI1273
aI2486
aF181.0
asg5
I1
sg6
(lp141
I-1
aI-1
aI-1
aI-1
aI-1
aI-1
asg8
(lp142
I47
aI48
aI-1
aF24.639999389648438
aF336.1919860839844
aF-1.0
aI36
aI36
aI-1
aF320.89599609375
aF383.1039733886719
aF-1.0
asg10
(lp143
F0.002
aF-0.011000000000000001
aF0.011000000000000001
asba(i__main__
sensor_data_struct
p144
(dp145
g3
(lp146
I580
aI319
aI193
aI1066
aI2600
aF173.0
aI765
aI369
aI225
aI1323
aI2446
aF169.0
asg5
I1
sg6
(lp147
I-1
aI-1
aI-1
aI-1
aI-1
aI-1
asg8
(lp148
I54
aI44
aI-1
aF24.06399917602539
aF336.0
aF-1.0
aI31
aI29
aI-1
aF305.7919921875
aF367.1039733886719
aF-1.0
asg10
(lp149
F-0.001
aF-0.009000000000000001
aF0.015
asba(i__main__
sensor_data_struct
p150
(dp151
g3
(lp152
I570
aI316
aI191
aI1054
aI2617
aF173.0
aI1346
aI519
aI340
aI2139
aI2281
aF133.0
asg5
I1
sg6
(lp153
I-1
aI-1
aI-1
aI-1
aI-1
aI-1
asg8
(lp154
I47
aI47
aI-1
aF25.408000946044922
aF336.0
aF-1.0
aI38
aI36
aI-1
aF319.48797607421875
aF377.6639709472656
aF-1.0
asg10
(lp155
F0.002
aF0.011000000000000001
aF0.013999999999999999
asba(i__main__
sensor_data_struct
p156
(dp157
g3
(lp158
I712
aI338
aI220
aI1226
aI2484
aF141.0
aI1081
aI415
aI286
aI1705
aI2296
aF94.0
asg5
I0
sg6
(lp159
I-1
aI-1
aI-1
aI-1
aI-1
aI-1
asg8
(lp160
I26
aI27
aI-1
aF21.695999145507812
aF336.0639953613281
aF-1.0
aI29
aI25
aI-1
aF287.2959899902344
aF350.97601318359375
aF-1.0
asg10
(lp161
F0.002
aF0.0
aF0.004
asba(i__main__
sensor_data_struct
p162
(dp163
g3
(lp164
I588
aI318
aI194
aI1074
aI2590
aF169.0
aI783
aI360
aI230
aI1328
aI2432
aF145.0
asg5
I0
sg6
(lp165
I-1
aI-1
aI-1
aI-1
aI-1
aI-1
asg8
(lp166
I31
aI23
aI-1
aF24.31999969482422
aF336.7040100097656
aF-1.0
aI32
aI24
aI-1
aF304.0
aF357.44000244140625
aF-1.0
asg10
(lp167
F-0.002
aF-0.001
aF0.012
asba(i__main__
sensor_data_struct
p168
(dp169
g3
(lp170
I557
aI314
aI189
aI1037
aI2633
aF176.0
aI658
aI337
aI207
aI1172
aI2528
aF166.0
asg5
I1
sg6
(lp171
I-1
aI-1
aI-1
aI-1
aI-1
aI-1
asg8
(lp172
I55
aI39
aI-1
aF23.615999221801758
aF335.8079833984375
aF-1.0
aI38
aI37
aI-1
aF322.75201416015625
aF382.3999938964844
aF-1.0
asg10
(lp173
F0.01
aF-0.003
aF0.015
asba(i__main__
sensor_data_struct
p174
(dp175
g3
(lp176
I595
aI322
aI196
aI1087
aI2588
aF171.0
aI762
aI377
aI226
aI1331
aI2459
aF182.0
asg5
I1
sg6
(lp177
I-1
aI-1
aI-1
aI-1
aI-1
aI-1
asg8
(lp178
I22
aI44
aI-1
aF25.983999252319336
aF337.47198486328125
aF-1.0
aI20
aI39
aI-1
aF318.2720031738281
aF376.32000732421875
aF-1.0
asg10
(lp179
F0.003
aF-0.009000000000000001
aF0.009000000000000001
asba(i__main__
sensor_data_struct
p180
(dp181
g3
(lp182
I613
aI324
aI199
aI1107
aI2567
aF166.0
aI853
aI379
aI243
aI1425
aI2394
aF143.0
asg5
I0
sg6
(lp183
I-1
aI-1
aI-1
aI-1
aI-1
aI-1
asg8
(lp184
I30
aI20
aI-1
aF24.76799964904785
aF337.343994140625
aF-1.0
aI29
aI23
aI-1
aF302.8479919433594
aF353.9839782714844
aF-1.0
asg10
(lp185
F-0.003
aF0.0
aF0.011000000000000001
asba(i__main__
sensor_data_struct
p186
(dp187
g3
(lp188
I591
aI323
aI195
aI1085
aI2595
aF175.0
aI932
aI425
aI256
aI1566
aI2367
aF180.0
asg5
I1
sg6
(lp189
I-1
aI-1
aI-1
aI-1
aI-1
aI-1
asg8
(lp190
I57
aI47
aI-1
aF23.743999481201172
aF335.3599853515625
aF-1.0
aI32
aI32
aI-1
aF305.8559875488281
aF367.2959899902344
aF-1.0
asg10
(lp191
F-0.006999999999999999
aF-0.011000000000000001
aF0.015
asba(i__main__
sensor_data_struct
p192
(dp193
g3
(lp194
I622
aI325
aI201
aI1117
aI2558
aF163.0
aI891
aI389
aI250
aI1478
aI2377
aF141.0
asg5
I0
sg6
(lp195
I-1
aI-1
aI-1
aI-1
aI-1
aI-1
asg8
(lp196
I32
aI19
aI-1
aF24.576000213623047
aF337.47198486328125
aF-1.0
aI29
aI23
aI-1
aF301.3760070800781
aF353.343994140625
aF-1.0
asg10
(lp197
F-0.004
aF0.0
aF0.011000000000000001
asba(i__main__
sensor_data_struct
p198
(dp199
g3
(lp200
I585
aI321
aI193
aI1075
aI2594
aF175.0
aI1226
aI460
aI312
aI1916
aI2262
aF99.0
asg5
I0
sg6
(lp201
I-1
aI-1
aI-1
aI-1
aI-1
aI-1
asg8
(lp202
I34
aI33
aI-1
aF26.239999771118164
aF338.55999755859375
aF-1.0
aI28
aI26
aI-1
aF298.75201416015625
aF351.3599853515625
aF-1.0
asg10
(lp203
F0.002
aF0.006
aF0.008
asba(i__main__
sensor_data_struct
p204
(dp205
g3
(lp206
I630
aI329
aI203
aI1135
aI2564
aF166.0
aI1089
aI460
aI287
aI1774
aI2312
aF162.0
asg5
I0
sg6
(lp207
I-1
aI-1
aI-1
aI-1
aI-1
aI-1
asg8
(lp208
I36
aI36
aI-1
aF25.72800064086914
aF337.47198486328125
aF-1.0
aI28
aI24
aI-1
aF303.67999267578125
aF349.88800048828125
aF-1.0
asg10
(lp209
F0.003
aF0.006999999999999999
aF0.012
asba(i__main__
sensor_data_struct
p210
(dp211
g3
(lp212
I579
aI317
aI193
aI1062
aI2602
aF171.0
aI794
aI375
aI231
aI1361
aI2433
aF165.0
asg5
I1
sg6
(lp213
I-1
aI-1
aI-1
aI-1
aI-1
aI-1
asg8
(lp214
I56
aI42
aI-1
aF23.93600082397461
aF336.0639953613281
aF-1.0
aI31
aI28
aI-1
aF305.1520080566406
aF366.4639892578125
aF-1.0
asg10
(lp215
F-0.003
aF-0.006999999999999999
aF0.013999999999999999
asba(i__main__
sensor_data_struct
p216
(dp217
g3
(lp218
I585
aI319
aI193
aI1073
aI2594
aF172.0
aI1172
aI461
aI302
aI1859
aI2277
aF126.0
asg5
I0
sg6
(lp219
I-1
aI-1
aI-1
aI-1
aI-1
aI-1
asg8
(lp220
I35
aI30
aI-1
aF23.615999221801758
aF336.9599914550781
aF-1.0
aI28
aI24
aI-1
aF298.36798095703125
aF351.1679992675781
aF-1.0
asg10
(lp221
F-0.002
aF0.006
aF0.008
asba(i__main__
sensor_data_struct
p222
(dp223
g3
(lp224
I595
aI320
aI196
aI1082
aI2584
aF168.0
aI1254
aI469
aI316
aI1950
aI2247
aF101.0
asg5
I0
sg6
(lp225
I-1
aI-1
aI-1
aI-1
aI-1
aI-1
asg8
(lp226
I34
aI17
aI-1
aF24.511999130249023
aF336.6400146484375
aF-1.0
aI30
aI24
aI-1
aF286.97601318359375
aF349.1839904785156
aF-1.0
asg10
(lp227
F-0.006
aF-0.003
aF0.003
asba(i__main__
sensor_data_struct
p228
(dp229
g3
(lp230
I575
aI315
aI192
aI1055
aI2604
aF169.0
aI729
aI356
aI221
aI1270
aI2478
aF163.0
asg5
I1
sg6
(lp231
I-1
aI-1
aI-1
aI-1
aI-1
aI-1
asg8
(lp232
I21
aI40
aI-1
aF24.256000518798828
aF337.21600341796875
aF-1.0
aI22
aI34
aI-1
aF295.42401123046875
aF368.8319396972656
aF-1.0
asg10
(lp233
F-0.001
aF-0.01
aF0.009000000000000001
asba(i__main__
sensor_data_struct
p234
(dp235
g3
(lp236
I742
aI341
aI223
aI1263
aI2458
aF134.0
aI1528
aI479
aI329
aI2233
aI2108
aF19.0
asg5
I0
sg6
(lp237
I-1
aI-1
aI-1
aI-1
aI-1
aI-1
asg8
(lp238
I29
aI27
aI-1
aF18.303998947143555
aF325.8240051269531
aF-1.0
aI30
aI23
aI-1
aF278.4639892578125
aF343.23199462890625
aF-1.0
asg10
(lp239
F0.001
aF0.004
aF0.0
asba(i__main__
sensor_data_struct
p240
(dp241
g3
(lp242
I626
aI324
aI201
aI1121
aI2550
aF161.0
aI1279
aI461
aI321
aI1968
aI2240
aF77.0
asg5
I0
sg6
(lp243
I-1
aI-1
aI-1
aI-1
aI-1
aI-1
asg8
(lp244
I28
aI24
aI-1
aF18.04800033569336
aF334.7200012207031
aF-1.0
aI30
aI25
aI-1
aF277.5679931640625
aF342.59197998046875
aF-1.0
asg10
(lp245
F0.0
aF0.002
aF0.0
asba(i__main__
sensor_data_struct
p246
(dp247
g3
(lp248
I582
aI318
aI193
aI1068
aI2600
aF171.0
aI1123
aI453
aI292
aI1801
aI2296
aF136.0
asg5
I0
sg6
(lp249
I-1
aI-1
aI-1
aI-1
aI-1
aI-1
asg8
(lp250
I33
aI30
aI-1
aF26.047998428344727
aF336.8319396972656
aF-1.0
aI28
aI23
aI-1
aF301.1199951171875
aF354.81597900390625
aF-1.0
asg10
(lp251
F0.004
aF0.004
aF0.01
asba(i__main__
sensor_data_struct
p252
(dp253
g3
(lp254
I638
aI325
aI204
aI1134
aI2542
aF156.0
aI959
aI385
aI264
aI1541
aI2341
aF103.0
asg5
I0
sg6
(lp255
I-1
aI-1
aI-1
aI-1
aI-1
aI-1
asg8
(lp256
I26
aI26
aI-1
aF21.887998580932617
aF336.7040100097656
aF-1.0
aI29
aI26
aI-1
aF289.9839782714844
aF352.2559814453125
aF-1.0
asg10
(lp257
F0.002
aF-0.002
aF0.004
asba(i__main__
sensor_data_struct
p258
(dp259
g3
(lp260
I701
aI336
aI217
aI1211
aI2489
aF143.0
aI1057
aI417
aI278
aI1684
aI2299
aF111.0
asg5
I0
sg6
(lp261
I-1
aI-1
aI-1
aI-1
aI-1
aI-1
asg8
(lp262
I21
aI33
aI-1
aF23.423999786376953
aF338.239990234375
aF-1.0
aI30
aI25
aI-1
aF292.35198974609375
aF352.8960266113281
aF-1.0
asg10
(lp263
F0.006
aF-0.003
aF0.004
asba(i__main__
sensor_data_struct
p264
(dp265
g3
(lp266
I572
aI316
aI191
aI1056
aI2613
aF173.0
aI819
aI364
aI238
aI1378
aI2427
aF134.0
asg5
I1
sg6
(lp267
I-1
aI-1
aI-1
aI-1
aI-1
aI-1
asg8
(lp268
I37
aI45
aI-1
aF24.511999130249023
aF336.57598876953125
aF-1.0
aI32
aI30
aI-1
aF305.9839782714844
aF341.9519958496094
aF-1.0
asg10
(lp269
F-0.001
aF0.009000000000000001
aF0.015
asba(i__main__
sensor_data_struct
p270
(dp271
g3
(lp272
I610
aI330
aI199
aI1116
aI2586
aF177.0
aI1060
aI440
aI282
aI1721
aI2323
aF143.0
asg5
I0
sg6
(lp273
I-1
aI-1
aI-1
aI-1
aI-1
aI-1
asg8
(lp274
I36
aI29
aI-1
aF26.368000030517578
aF336.8960266113281
aF-1.0
aI29
aI22
aI-1
aF303.552001953125
aF352.8319396972656
aF-1.0
asg10
(lp275
F0.004
aF0.004
aF0.012
asba(i__main__
sensor_data_struct
p276
(dp277
g3
(lp278
I583
aI319
aI194
aI1070
aI2600
aF172.0
aI1191
aI462
aI303
aI1878
aI2264
aF120.0
asg5
I0
sg6
(lp279
I-1
aI-1
aI-1
aI-1
aI-1
aI-1
asg8
(lp280
I29
aI23
aI-1
aF23.808000564575195
aF337.21600341796875
aF-1.0
aI30
aI25
aI-1
aF296.32000732421875
aF356.79998779296875
aF-1.0
asg10
(lp281
F-0.003
aF-0.004
aF0.006999999999999999
asba(i__main__
sensor_data_struct
p282
(dp283
g3
(lp284
I612
aI324
aI200
aI1104
aI2567
aF166.0
aI896
aI394
aI250
aI1491
aI2378
aF148.0
asg5
I0
sg6
(lp285
I-1
aI-1
aI-1
aI-1
aI-1
aI-1
asg8
(lp286
I31
aI23
aI-1
aF24.639999389648438
aF337.21600341796875
aF-1.0
aI30
aI25
aI-1
aF303.3599853515625
aF359.1039733886719
aF-1.0
asg10
(lp287
F0.0
aF-0.002
aF0.012
asba(i__main__
sensor_data_struct
p288
(dp289
g3
(lp290
I600
aI321
aI197
aI1090
aI2580
aF167.0
aI791
aI353
aI233
aI1326
aI2425
aF129.0
asg5
I0
sg6
(lp291
I-1
aI-1
aI-1
aI-1
aI-1
aI-1
asg8
(lp292
I24
aI29
aI-1
aF22.336000442504883
aF338.0480041503906
aF-1.0
aI28
aI24
aI-1
aF291.3919982910156
aF355.00799560546875
aF-1.0
asg10
(lp293
F-0.001
aF-0.005
aF0.005
asba(i__main__
sensor_data_struct
p294
(dp295
g3
(lp296
I597
aI318
aI196
aI1083
aI2580
aF164.0
aI898
aI389
aI251
aI1487
aI2377
aF138.0
asg5
I1
sg6
(lp297
I-1
aI-1
aI-1
aI-1
aI-1
aI-1
asg8
(lp298
I34
aI33
aI-1
aF24.447999954223633
aF336.447998046875
aF-1.0
aI27
aI22
aI-1
aF303.10400390625
aF365.1199951171875
aF-1.0
asg10
(lp299
F0.01
aF-0.001
aF0.011000000000000001
asba(i__main__
sensor_data_struct
p300
(dp301
g3
(lp302
I595
aI319
aI196
aI1081
aI2584
aF166.0
aI839
aI384
aI240
aI1420
aI2411
aF158.0
asg5
I1
sg6
(lp303
I-1
aI-1
aI-1
aI-1
aI-1
aI-1
asg8
(lp304
I35
aI27
aI-1
aF24.38399887084961
aF336.57598876953125
aF-1.0
aI29
aI27
aI-1
aF305.343994140625
aF359.61602783203125
aF-1.0
asg10
(lp305
F-0.001
aF-0.002
aF0.013999999999999999
asba(i__main__
sensor_data_struct
p306
(dp307
g3
(lp308
I596
aI321
aI197
aI1084
aI2584
aF168.0
aI794
aI384
aI232
aI1374
aI2441
aF178.0
asg5
I1
sg6
(lp309
I-1
aI-1
aI-1
aI-1
aI-1
aI-1
asg8
(lp310
I28
aI39
aI-1
aF24.8960018157959
aF337.6000061035156
aF-1.0
aI25
aI37
aI-1
aF317.6319885253906
aF381.88800048828125
aF-1.0
asg10
(lp311
F0.002
aF-0.006999999999999999
aF0.01
asba(i__main__
sensor_data_struct
p312
(dp313
g3
(lp314
I636
aI329
aI206
aI1133
aI2545
aF162.0
aI997
aI419
aI268
aI1625
aI2331
aF141.0
asg5
I0
sg6
(lp315
I-1
aI-1
aI-1
aI-1
aI-1
aI-1
asg8
(lp316
I26
aI36
aI-1
aF24.76799964904785
aF338.36798095703125
aF-1.0
aI29
aI24
aI-1
aF299.71197509765625
aF362.4960021972656
aF-1.0
asg10
(lp317
F-0.001
aF-0.008
aF0.009000000000000001
asba(i__main__
sensor_data_struct
p318
(dp319
g3
(lp320
I589
aI321
aI195
aI1079
aI2594
aF172.0
aI793
aI384
aI232
aI1374
aI2446
aF178.0
asg5
I1
sg6
(lp321
I-1
aI-1
aI-1
aI-1
aI-1
aI-1
asg8
(lp322
I46
aI19
aI-1
aF25.3439998626709
aF336.0
aF-1.0
aI36
aI30
aI-1
aF323.135986328125
aF377.343994140625
aF-1.0
asg10
(lp323
F-0.01
aF0.003
aF0.01
asba(i__main__
sensor_data_struct
p324
(dp325
g3
(lp326
I583
aI322
aI193
aI1075
aI2603
aF177.0
aI983
aI446
aI266
aI1648
aI2355
aF190.0
asg5
I1
sg6
(lp327
I-1
aI-1
aI-1
aI-1
aI-1
aI-1
asg8
(lp328
I38
aI36
aI-1
aF25.023998260498047
aF336.76800537109375
aF-1.0
aI34
aI35
aI-1
aF306.81597900390625
aF355.8399963378906
aF-1.0
asg10
(lp329
F-0.001
aF0.0
aF0.015
asba(i__main__
sensor_data_struct
p330
(dp331
g3
(lp332
I592
aI323
aI195
aI1085
aI2593
aF174.0
aI1154
aI439
aI296
aI1809
aI2266
aF101.0
asg5
I0
sg6
(lp333
I-1
aI-1
aI-1
aI-1
aI-1
aI-1
asg8
(lp334
I24
aI25
aI-1
aF20.607999801635742
aF337.6639709472656
aF-1.0
aI29
aI23
aI-1
aF284.35198974609375
aF348.99200439453125
aF-1.0
asg10
(lp335
F0.0
aF-0.004
aF0.003
asba(i__main__
sensor_data_struct
p336
(dp337
g3
(lp338
I577
aI318
aI192
aI1063
aI2604
aF174.0
aI1094
aI446
aI287
aI1764
aI2308
aF138.0
asg5
I0
sg6
(lp339
I-1
aI-1
aI-1
aI-1
aI-1
aI-1
asg8
(lp340
I45
aI42
aI-1
aF25.472000122070312
aF337.5359802246094
aF-1.0
aI29
aI26
aI-1
aF303.7439880371094
aF349.6319885253906
aF-1.0
asg10
(lp341
F0.005
aF0.006999999999999999
aF0.012
asba(i__main__
sensor_data_struct
p342
(dp343
g3
(lp344
I576
aI320
aI192
aI1065
aI2611
aF177.0
aI1010
aI449
aI272
aI1679
aI2343
aF181.0
asg5
I1
sg6
(lp345
I-1
aI-1
aI-1
aI-1
aI-1
aI-1
asg8
(lp346
I37
aI45
aI-1
aF24.511999130249023
aF337.27996826171875
aF-1.0
aI32
aI30
aI-1
aF305.91998291015625
aF342.7200012207031
aF-1.0
asg10
(lp347
F-0.006999999999999999
aF0.008
aF0.015
asba(i__main__
sensor_data_struct
p348
(dp349
g3
(lp350
I592
aI319
aI196
aI1080
aI2595
aF167.0
aI852
aI393
aI242
aI1446
aI2407
aF166.0
asg5
I1
sg6
(lp351
I-1
aI-1
aI-1
aI-1
aI-1
aI-1
asg8
(lp352
I51
aI32
aI-1
aF24.576000213623047
aF336.32000732421875
aF-1.0
aI32
aI31
aI-1
aF305.8559875488281
aF367.23199462890625
aF-1.0
asg10
(lp353
F0.006
aF-0.002
aF0.015
asba(i__main__
sensor_data_struct
p354
(dp355
g3
(lp356
I587
aI319
aI195
aI1072
aI2594
aF170.0
aI803
aI380
aI233
aI1377
aI2430
aF168.0
asg5
I1
sg6
(lp357
I-1
aI-1
aI-1
aI-1
aI-1
aI-1
asg8
(lp358
I47
aI41
aI-1
aF24.511999130249023
aF336.0639953613281
aF-1.0
aI32
aI31
aI-1
aF305.91998291015625
aF361.6639709472656
aF-1.0
asg10
(lp359
F-0.004
aF-0.004
aF0.015
asba(i__main__
sensor_data_struct
p360
(dp361
g3
(lp362
I633
aI328
aI205
aI1130
aI2549
aF162.0
aI943
aI409
aI258
aI1558
aI2354
aF150.0
asg5
I0
sg6
(lp363
I-1
aI-1
aI-1
aI-1
aI-1
aI-1
asg8
(lp364
I27
aI26
aI-1
aF24.76799964904785
aF337.5359802246094
aF-1.0
aI28
aI24
aI-1
aF302.6559753417969
aF363.7120056152344
aF-1.0
asg10
(lp365
F0.0
aF-0.004
aF0.011000000000000001
asba(i__main__
sensor_data_struct
p366
(dp367
g3
(lp368
I577
aI320
aI192
aI1066
aI2609
aF177.0
aI924
aI444
aI255
aI1586
aI2387
aF214.0
asg5
I1
sg6
(lp369
I-1
aI-1
aI-1
aI-1
aI-1
aI-1
asg8
(lp370
I60
aI42
aI-1
aF24.8960018157959
aF336.57598876953125
aF-1.0
aI40
aI35
aI-1
aF322.8800048828125
aF380.5440368652344
aF-1.0
asg10
(lp371
F-0.011000000000000001
aF-0.003
aF0.012
asba(i__main__
sensor_data_struct
p372
(dp373
g3
(lp374
I603
aI325
aI197
aI1098
aI2579
aF173.0
aI823
aI373
aI238
aI1387
aI2414
aF147.0
asg5
I0
sg6
(lp375
I-1
aI-1
aI-1
aI-1
aI-1
aI-1
asg8
(lp376
I46
aI17
aI-1
aF26.623998641967773
aF338.36798095703125
aF-1.0
aI29
aI24
aI-1
aF299.3280029296875
aF352.6400146484375
aF-1.0
asg10
(lp377
F-0.008
aF-0.002
aF0.009000000000000001
asba(i__main__
sensor_data_struct
p378
(dp379
g3
(lp380
I833
aI358
aI243
aI1379
aI2412
aF116.0
aI1249
aI453
aI319
aI1933
aI2260
aF76.0
asg5
I0
sg6
(lp381
I-1
aI-1
aI-1
aI-1
aI-1
aI-1
asg8
(lp382
I33
aI32
aI-1
aF26.368000030517578
aF338.30401611328125
aF-1.0
aI30
aI25
aI-1
aF298.8800048828125
aF351.8719787597656
aF-1.0
asg10
(lp383
F0.002
aF0.005
aF0.008
asba(i__main__
sensor_data_struct
p384
(dp385
g3
(lp386
I814
aI354
aI240
aI1352
aI2418
aF118.0
aI1162
aI429
aI301
aI1807
aI2272
aF79.0
asg5
I0
sg6
(lp387
I-1
aI-1
aI-1
aI-1
aI-1
aI-1
asg8
(lp388
I29
aI25
aI-1
aF18.11199951171875
aF334.9119873046875
aF-1.0
aI28
aI23
aI-1
aF281.7279968261719
aF345.21600341796875
aF-1.0
asg10
(lp389
F0.001
aF0.0
aF0.001
asba(i__main__
sensor_data_struct
p390
(dp391
g3
(lp392
I577
aI318
aI192
aI1062
aI2604
aF174.0
aI980
aI438
aI264
aI1632
aI2344
aF179.0
asg5
I1
sg6
(lp393
I-1
aI-1
aI-1
aI-1
aI-1
aI-1
asg8
(lp394
I56
aI45
aI-1
aF23.871999740600586
aF335.7439880371094
aF-1.0
aI32
aI30
aI-1
aF305.6000061035156
aF367.1039733886719
aF-1.0
asg10
(lp395
F-0.005
aF-0.009000000000000001
aF0.015
asba(i__main__
sensor_data_struct
p396
(dp397
g3
(lp398
I581
aI321
aI193
aI1072
aI2607
aF176.0
aI1018
aI439
aI273
aI1678
aI2339
aF162.0
asg5
I1
sg6
(lp399
I-1
aI-1
aI-1
aI-1
aI-1
aI-1
asg8
(lp400
I30
aI29
aI-1
aF25.66399574279785
aF337.1519775390625
aF-1.0
aI29
aI25
aI-1
aF304.7040100097656
aF355.7760009765625
aF-1.0
asg10
(lp401
F0.002
aF0.002
aF0.013000000000000001
asba(i__main__
sensor_data_struct
p402
(dp403
g3
(lp404
I622
aI326
aI201
aI1120
aI2562
aF165.0
aI897
aI383
aI253
aI1476
aI2377
aF128.0
asg5
I0
sg6
(lp405
I-1
aI-1
aI-1
aI-1
aI-1
aI-1
asg8
(lp406
I26
aI23
aI-1
aF24.511999130249023
aF337.343994140625
aF-1.0
aI30
aI22
aI-1
aF300.60797119140625
aF358.7200012207031
aF-1.0
asg10
(lp407
F0.0
aF-0.001
aF0.01
asba(i__main__
sensor_data_struct
p408
(dp409
g3
(lp410
I713
aI339
aI218
aI1232
aI2483
aF144.0
aI1273
aI436
aI325
aI1932
aI2245
aF37.0
asg5
I0
sg6
(lp411
I-1
aI-1
aI-1
aI-1
aI-1
aI-1
asg8
(lp412
I29
aI24
aI-1
aF22.27199935913086
aF338.239990234375
aF-1.0
aI30
aI23
aI-1
aF292.35198974609375
aF350.8480224609375
aF-1.0
asg10
(lp413
F0.001
aF0.003
aF0.005
asba(i__main__
sensor_data_struct
p414
(dp415
g3
(lp416
I570
aI316
aI192
aI1051
aI2615
aF173.0
aI846
aI418
aI241
aI1470
aI2420
aF208.0
asg5
I1
sg6
(lp417
I-1
aI-1
aI-1
aI-1
aI-1
aI-1
asg8
(lp418
I56
aI45
aI-1
aF23.359996795654297
aF335.3599853515625
aF-1.0
aI37
aI35
aI-1
aF322.6239929199219
aF380.4800109863281
aF-1.0
asg10
(lp419
F0.002
aF-0.013000000000000001
aF0.013999999999999999
asba(i__main__
sensor_data_struct
p420
(dp421
g3
(lp422
I665
aI334
aI210
aI1173
aI2521
aF157.0
aI1010
aI413
aI272
aI1633
aI2328
aF124.0
asg5
I0
sg6
(lp423
I-1
aI-1
aI-1
aI-1
aI-1
aI-1
asg8
(lp424
I33
aI24
aI-1
aF24.447999954223633
aF339.3919982910156
aF-1.0
aI30
aI23
aI-1
aF300.8639831542969
aF352.57598876953125
aF-1.0
asg10
(lp425
F-0.003
aF0.004
aF0.01
asba(i__main__
sensor_data_struct
p426
(dp427
g3
(lp428
I589
aI322
aI194
aI1081
aI2592
aF175.0
aI1128
aI455
aI293
aI1805
aI2290
aF137.0
asg5
I0
sg6
(lp429
I-1
aI-1
aI-1
aI-1
aI-1
aI-1
asg8
(lp430
I28
aI23
aI-1
aF24.0
aF337.40802001953125
aF-1.0
aI29
aI24
aI-1
aF299.7760009765625
aF355.90399169921875
aF-1.0
asg10
(lp431
F0.0
aF0.001
aF0.009000000000000001
asba(i__main__
sensor_data_struct
p432
(dp433
g3
(lp434
I598
aI319
aI196
aI1086
aI2582
aF165.0
aI881
aI394
aI246
aI1480
aI2391
aF155.0
asg5
I1
sg6
(lp435
I-1
aI-1
aI-1
aI-1
aI-1
aI-1
asg8
(lp436
I56
aI37
aI-1
aF24.447999954223633
aF335.8719787597656
aF-1.0
aI34
aI32
aI-1
aF306.36798095703125
aF361.7279968261719
aF-1.0
asg10
(lp437
F0.012
aF0.005
aF0.015
asba(i__main__
sensor_data_struct
p438
(dp439
g3
(lp440
I735
aI342
aI222
aI1259
aI2467
aF138.0
aI1508
aI483
aI376
aI2240
aI2216
aF65534.0
asg5
I0
sg6
(lp441
I-1
aI-1
aI-1
aI-1
aI-1
aI-1
asg8
(lp442
I34
aI32
aI-1
aF28.2239990234375
aF338.239990234375
aF-1.0
aI28
aI22
aI-1
aF296.38397216796875
aF351.48797607421875
aF-1.0
asg10
(lp443
F0.003
aF0.006
aF0.006
asba(i__main__
sensor_data_struct
p444
(dp445
g3
(lp446
I619
aI326
aI203
aI1115
aI2572
aF165.0
aI873
aI414
aI246
aI1494
aI2403
aF189.0
asg5
I1
sg6
(lp447
I-1
aI-1
aI-1
aI-1
aI-1
aI-1
asg8
(lp448
I21
aI41
aI-1
aF25.21599769592285
aF337.8559875488281
aF-1.0
aI20
aI39
aI-1
aF314.4960021972656
aF383.2959899902344
aF-1.0
asg10
(lp449
F0.006999999999999999
aF-0.005
aF0.009000000000000001
asba(i__main__
sensor_data_struct
p450
(dp451
g3
(lp452
I611
aI325
aI199
aI1108
aI2576
aF168.0
aI1265
aI427
aI325
aI1916
aI2253
aF25.0
asg5
I0
sg6
(lp453
I-1
aI-1
aI-1
aI-1
aI-1
aI-1
asg8
(lp454
I34
aI33
aI-1
aF27.519996643066406
aF337.40802001953125
aF-1.0
aI28
aI22
aI-1
aF300.2879943847656
aF354.9439697265625
aF-1.0
asg10
(lp455
F0.005
aF0.005
aF0.009000000000000001
asba(i__main__
sensor_data_struct
p456
(dp457
g3
(lp458
I658
aI329
aI208
aI1159
aI2522
aF153.0
aI960
aI386
aI264
aI1543
aI2340
aF104.0
asg5
I0
sg6
(lp459
I-1
aI-1
aI-1
aI-1
aI-1
aI-1
asg8
(lp460
I26
aI23
aI-1
aF18.751998901367188
aF336.0639953613281
aF-1.0
aI29
aI24
aI-1
aF279.6159973144531
aF343.552001953125
aF-1.0
asg10
(lp461
F-0.001
aF-0.003
aF0.001
asba(i__main__
sensor_data_struct
p462
(dp463
g3
(lp464
I648
aI327
aI206
aI1148
aI2536
aF154.0
aI951
aI390
aI260
aI1540
aI2342
aF116.0
asg5
I0
sg6
(lp465
I-1
aI-1
aI-1
aI-1
aI-1
aI-1
asg8
(lp466
I23
aI33
aI-1
aF24.256000518798828
aF338.30401611328125
aF-1.0
aI28
aI24
aI-1
aF294.2720031738281
aF354.81597900390625
aF-1.0
asg10
(lp467
F0.005
aF-0.003
aF0.005
asba(i__main__
sensor_data_struct
p468
(dp469
g3
(lp470
I576
aI317
aI192
aI1060
aI2606
aF172.0
aI1100
aI435
aI286
aI1749
aI2286
aF120.0
asg5
I0
sg6
(lp471
I-1
aI-1
aI-1
aI-1
aI-1
aI-1
asg8
(lp472
I20
aI36
aI-1
aF23.423999786376953
aF337.9200134277344
aF-1.0
aI30
aI24
aI-1
aF293.6319885253906
aF355.3919982910156
aF-1.0
asg10
(lp473
F0.0
aF-0.006999999999999999
aF0.006
asba(i__main__
sensor_data_struct
p474
(dp475
g3
(lp476
I638
aI328
aI204
aI1141
aI2551
aF161.0
aI951
aI406
aI261
aI1569
aI2365
aF141.0
asg5
I1
sg6
(lp477
I-1
aI-1
aI-1
aI-1
aI-1
aI-1
asg8
(lp478
I43
aI45
aI-1
aF25.72800064086914
aF337.6639709472656
aF-1.0
aI31
aI29
aI-1
aF305.7279968261719
aF350.0159912109375
aF-1.0
asg10
(lp479
F0.003
aF0.008
aF0.015
asba(i__main__
sensor_data_struct
p480
(dp481
g3
(lp482
I602
aI325
aI198
aI1100
aI2592
aF172.0
aI1212
aI465
aI307
aI1903
aI2258
aF115.0
asg5
I0
sg6
(lp483
I-1
aI-1
aI-1
aI-1
aI-1
aI-1
asg8
(lp484
I27
aI28
aI-1
aF23.808000564575195
aF336.8319396972656
aF-1.0
aI30
aI22
aI-1
aF296.2559814453125
aF353.9839782714844
aF-1.0
asg10
(lp485
F0.002
aF0.002
aF0.006
asba(i__main__
sensor_data_struct
p486
(dp487
g3
(lp488
I611
aI324
aI201
aI1102
aI2571
aF165.0
aI942
aI407
aI258
aI1555
aI2355
aF147.0
asg5
I0
sg6
(lp489
I-1
aI-1
aI-1
aI-1
aI-1
aI-1
asg8
(lp490
I39
aI32
aI-1
aF24.703998565673828
aF337.343994140625
aF-1.0
aI28
aI25
aI-1
aF300.35198974609375
aF363.135986328125
aF-1.0
asg10
(lp491
F-0.003
aF-0.009000000000000001
aF0.01
asba(i__main__
sensor_data_struct
p492
(dp493
g3
(lp494
I590
aI323
aI195
aI1083
aI2597
aF175.0
aI1026
aI447
aI274
aI1692
aI2333
aF171.0
asg5
I1
sg6
(lp495
I-1
aI-1
aI-1
aI-1
aI-1
aI-1
asg8
(lp496
I46
aI32
aI-1
aF25.472000122070312
aF337.02398681640625
aF-1.0
aI29
aI27
aI-1
aF305.1520080566406
aF358.8480224609375
aF-1.0
asg10
(lp497
F-0.006
aF-0.004
aF0.013000000000000001
asba(i__main__
sensor_data_struct
p498
(dp499
g3
(lp500
I597
aI325
aI198
aI1092
aI2593
aF174.0
aI839
aI410
aI240
aI1454
aI2424
aF199.0
asg5
I1
sg6
(lp501
I-1
aI-1
aI-1
aI-1
aI-1
aI-1
asg8
(lp502
I52
aI37
aI-1
aF25.472000122070312
aF335.8719787597656
aF-1.0
aI36
aI35
aI-1
aF322.9440002441406
aF379.4559631347656
aF-1.0
asg10
(lp503
F-0.011000000000000001
aF0.004
aF0.012
asba(i__main__
sensor_data_struct
p504
(dp505
g3
(lp506
I585
aI323
aI195
aI1077
aI2603
aF177.0
aI755
aI371
aI224
aI1316
aI2459
aF176.0
asg5
I1
sg6
(lp507
I-1
aI-1
aI-1
aI-1
aI-1
aI-1
asg8
(lp508
I55
aI45
aI-1
aF25.21599769592285
aF336.1919860839844
aF-1.0
aI36
aI34
aI-1
aF306.1759948730469
aF364.35198974609375
aF-1.0
asg10
(lp509
F-0.009000000000000001
aF-0.008
aF0.015
asba(i__main__
sensor_data_struct
p510
(dp511
g3
(lp512
I588
aI322
aI196
aI1077
aI2599
aF173.0
aI811
aI372
aI235
aI1374
aI2419
aF151.0
asg5
I0
sg6
(lp513
I-1
aI-1
aI-1
aI-1
aI-1
aI-1
asg8
(lp514
I33
aI38
aI-1
aF25.088001251220703
aF337.8559875488281
aF-1.0
aI29
aI25
aI-1
aF300.8639831542969
aF362.30401611328125
aF-1.0
asg10
(lp515
F-0.002
aF-0.01
aF0.01
asba(i__main__
sensor_data_struct
p516
(dp517
g3
(lp518
I580
aI320
aI193
aI1069
aI2605
aF175.0
aI1091
aI463
aI289
aI1782
aI2321
aF165.0
asg5
I0
sg6
(lp519
I-1
aI-1
aI-1
aI-1
aI-1
aI-1
asg8
(lp520
I38
aI43
aI-1
aF24.959999084472656
aF336.9599914550781
aF-1.0
aI29
aI24
aI-1
aF303.93597412109375
aF332.5440368652344
aF-1.0
asg10
(lp521
F-0.002
aF0.011000000000000001
aF0.012
asba(i__main__
sensor_data_struct
p522
(dp523
g3
(lp524
I576
aI320
aI193
aI1064
aI2613
aF176.0
aI697
aI351
aI214
aI1230
aI2498
aF171.0
asg5
I1
sg6
(lp525
I-1
aI-1
aI-1
aI-1
aI-1
aI-1
asg8
(lp526
I55
aI46
aI-1
aF24.31999969482422
aF335.67999267578125
aF-1.0
aI37
aI34
aI-1
aF306.36798095703125
aF365.5039978027344
aF-1.0
asg10
(lp527
F-0.004
aF-0.006999999999999999
aF0.015
asba(i__main__
sensor_data_struct
p528
(dp529
g3
(lp530
I609
aI325
aI200
aI1102
aI2573
aF168.0
aI871
aI423
aI245
aI1503
aI2404
aF205.0
asg5
I1
sg6
(lp531
I-1
aI-1
aI-1
aI-1
aI-1
aI-1
asg8
(lp532
I33
aI46
aI-1
aF25.280000686645508
aF337.40802001953125
aF-1.0
aI39
aI37
aI-1
aF320.83197021484375
aF381.75994873046875
aF-1.0
asg10
(lp533
F-0.001
aF-0.01
aF0.011000000000000001
asba(i__main__
sensor_data_struct
p534
(dp535
g3
(lp536
I598
aI327
aI197
aI1098
aI2593
aF177.0
aI1102
aI447
aI287
aI1768
aI2293
aF137.0
asg5
I0
sg6
(lp537
I-1
aI-1
aI-1
aI-1
aI-1
aI-1
asg8
(lp538
I28
aI27
aI-1
aF25.21599769592285
aF338.17596435546875
aF-1.0
aI31
aI25
aI-1
aF299.00799560546875
aF362.17596435546875
aF-1.0
asg10
(lp539
F-0.003
aF-0.006999999999999999
aF0.008
asba(i__main__
sensor_data_struct
p540
(dp541
g3
(lp542
I604
aI325
aI197
aI1100
aI2577
aF172.0
aI839
aI379
aI241
aI1414
aI2412
aF149.0
asg5
I0
sg6
(lp543
I-1
aI-1
aI-1
aI-1
aI-1
aI-1
asg8
(lp544
I39
aI22
aI-1
aF25.72800064086914
aF338.0480041503906
aF-1.0
aI29
aI24
aI-1
aF302.6559753417969
aF351.3599853515625
aF-1.0
asg10
(lp545
F-0.008
aF0.002
aF0.011000000000000001
asba(i__main__
sensor_data_struct
p546
(dp547
g3
(lp548
I497
aI287
aI176
aI933
aI2674
aF162.0
aI710
aI366
aI209
aI1256
aI2458
aF194.0
asg5
I1
sg6
(lp549
I-1
aI-1
aI-1
aI-1
aI-1
aI-1
asg8
(lp550
I49
aI60
aI-1
aF270.52801513671875
aF331.7760009765625
aF-1.0
aI34
aI47
aI-1
aF304.76800537109375
aF365.1839904785156
aF-1.0
asg10
(lp551
F0.013000000000000001
aF0.005
aF0.015
asba(i__main__
sensor_data_struct
p552
(dp553
g3
(lp554
I556
aI308
aI185
aI1024
aI2602
aF170.0
aI749
aI379
aI222
aI1319
aI2465
aF192.0
asg5
I1
sg6
(lp555
I-1
aI-1
aI-1
aI-1
aI-1
aI-1
asg8
(lp556
I54
aI50
aI-1
aF64.51200103759766
aF337.27996826171875
aF-1.0
aI36
aI36
aI-1
aF323.64801025390625
aF383.61602783203125
aF-1.0
asg10
(lp557
F-0.012
aF0.004
aF0.013999999999999999
asba(i__main__
sensor_data_struct
p558
(dp559
g3
(lp560
I593
aI324
aI192
aI1085
aI2571
aF178.0
aI1115
aI449
aI291
aI1786
aI2296
aF133.0
asg5
I0
sg6
(lp561
I-1
aI-1
aI-1
aI-1
aI-1
aI-1
asg8
(lp562
I30
aI19
aI-1
aF26.304000854492188
aF340.7359619140625
aF-1.0
aI30
aI26
aI-1
aF298.239990234375
aF363.3919982910156
aF-1.0
asg10
(lp563
F-0.004
aF-0.001
aF0.006999999999999999
asba(i__main__
sensor_data_struct
p564
(dp565
g3
(lp566
I592
aI320
aI194
aI1077
aI2577
aF170.0
aI817
aI381
aI235
aI1392
aI2418
aF164.0
asg5
I1
sg6
(lp567
I-1
aI-1
aI-1
aI-1
aI-1
aI-1
asg8
(lp568
I48
aI38
aI-1
aF25.408000946044922
aF338.8799743652344
aF-1.0
aI31
aI25
aI-1
aF305.21600341796875
aF368.7040100097656
aF-1.0
asg10
(lp569
F-0.006999999999999999
aF-0.006999999999999999
aF0.013000000000000001
asba(i__main__
sensor_data_struct
p570
(dp571
g3
(lp572
I694
aI338
aI212
aI1210
aI2488
aF153.0
aI1169
aI422
aI304
aI1808
aI2274
aF64.0
asg5
I0
sg6
(lp573
I-1
aI-1
aI-1
aI-1
aI-1
aI-1
asg8
(lp574
I31
aI24
aI-1
aF21.95199966430664
aF335.0399475097656
aF-1.0
aI28
aI25
aI-1
aF286.78399658203125
aF356.35198974609375
aF-1.0
asg10
(lp575
F-0.003
aF0.006
aF0.004
asba(i__main__
sensor_data_struct
p576
(dp577
g3
(lp578
I610
aI325
aI199
aI1102
aI2564
aF169.0
aI905
aI412
aI251
aI1526
aI2382
aF172.0
asg5
I1
sg6
(lp579
I-1
aI-1
aI-1
aI-1
aI-1
aI-1
asg8
(lp580
I44
aI33
aI-1
aF25.72800064086914
aF339.64801025390625
aF-1.0
aI29
aI27
aI-1
aF306.239990234375
aF369.21600341796875
aF-1.0
asg10
(lp581
F-0.001
aF-0.004
aF0.013999999999999999
asba(i__main__
sensor_data_struct
p582
(dp583
g3
(lp584
I610
aI326
aI198
aI1104
aI2562
aF171.0
aI891
aI408
aI249
aI1506
aI2389
aF172.0
asg5
I1
sg6
(lp585
I-1
aI-1
aI-1
aI-1
aI-1
aI-1
asg8
(lp586
I54
aI42
aI-1
aF26.4320011138916
aF339.583984375
aF-1.0
aI30
aI27
aI-1
aF306.11199951171875
aF368.8319396972656
aF-1.0
asg10
(lp587
F-0.006999999999999999
aF-0.004
aF0.013999999999999999
asba(i__main__
sensor_data_struct
p588
(dp589
g3
(lp590
I671
aI333
aI209
aI1177
aI2505
aF154.0
aI1015
aI402
aI273
aI1621
aI2319
aF105.0
asg5
I0
sg6
(lp591
I-1
aI-1
aI-1
aI-1
aI-1
aI-1
asg8
(lp592
I29
aI22
aI-1
aF23.423999786376953
aF339.8399963378906
aF-1.0
aI30
aI27
aI-1
aF292.60797119140625
aF357.82403564453125
aF-1.0
asg10
(lp593
F-0.001
aF0.0
aF0.005
asba(i__main__
sensor_data_struct
p594
(dp595
g3
(lp596
I599
aI324
aI194
aI1092
aI2572
aF174.0
aI891
aI438
aI249
aI1543
aI2402
aF219.0
asg5
I1
sg6
(lp597
I-1
aI-1
aI-1
aI-1
aI-1
aI-1
asg8
(lp598
I55
aI46
aI-1
aF24.831998825073242
aF337.9200134277344
aF-1.0
aI36
aI35
aI-1
aF322.81597900390625
aF385.6639709472656
aF-1.0
asg10
(lp599
F-0.012
aF-0.006999999999999999
aF0.015
asba(i__main__
sensor_data_struct
p600
(dp601
g3
(lp602
I645
aI331
aI204
aI1147
aI2529
aF163.0
aI940
aI387
aI259
aI1523
aI2346
aF116.0
asg5
I0
sg6
(lp603
I-1
aI-1
aI-1
aI-1
aI-1
aI-1
asg8
(lp604
I23
aI22
aI-1
aF23.167997360229492
aF340.35198974609375
aF-1.0
aI29
aI25
aI-1
aF285.3760070800781
aF353.02398681640625
aF-1.0
asg10
(lp605
F-0.001
aF-0.003
aF0.004
asba.