(lp0
(i__main__
sensor_data_struct
p1
(dp2
S'color'
p3
(lp4
I767
aI331
aI232
aI1276
aI2446
aF103.0
aI1159
aI424
aI296
aI1797
aI2260
aF76.0
asS'button'
p5
I0
sS'IR'
p6
(lp7
I-1
aI-1
aI-1
aI-1
aI-1
aI-1
asS'TOF'
p8
(lp9
I25
aI29
aI-1
aF23.359996795654297
aF331.4559631347656
aF-1.0
aI30
aI23
aI-1
aF295.6159973144531
aF352.447998046875
aF-1.0
asS'pt'
p10
(lp11
F0.006
aF0.001
aF0.006
asba(i__main__
sensor_data_struct
p12
(dp13
g3
(lp14
I556
aI306
aI188
aI1026
aI2623
aF164.0
aI691
aI334
aI213
aI1201
aI2494
aF146.0
asg5
I1
sg6
(lp15
I-1
aI-1
aI-1
aI-1
aI-1
aI-1
asg8
(lp16
I36
aI29
aI-1
aF23.1039981842041
aF334.78399658203125
aF-1.0
aI30
aI25
aI-1
aF304.83197021484375
aF354.17596435546875
aF-1.0
asg10
(lp17
F-0.002
aF-0.004
aF0.013000000000000001
asba(i__main__
sensor_data_struct
p18
(dp19
g3
(lp20
I595
aI321
aI194
aI1084
aI2575
aF171.0
aI975
aI412
aI258
aI1588
aI2316
aF144.0
asg5
I0
sg6
(lp21
I-1
aI-1
aI-1
aI-1
aI-1
aI-1
asg8
(lp22
I50
aI33
aI-1
aF23.67999839782715
aF335.67999267578125
aF-1.0
aI30
aI23
aI-1
aF303.8079833984375
aF363.26397705078125
aF-1.0
asg10
(lp23
F-0.005
aF-0.008
aF0.012
asba(i__main__
sensor_data_struct
p24
(dp25
g3
(lp26
I581
aI312
aI191
aI1058
aI2584
aF164.0
aI1224
aI444
aI308
aI1890
aI2245
aF77.0
asg5
I0
sg6
(lp27
I-1
aI-1
aI-1
aI-1
aI-1
aI-1
asg8
(lp28
I30
aI17
aI-1
aF22.527999877929688
aF335.93597412109375
aF-1.0
aI30
aI24
aI-1
aF286.4639892578125
aF342.3360290527344
aF-1.0
asg10
(lp29
F-0.003
aF0.001
aF0.004
asba(i__main__
sensor_data_struct
p30
(dp31
g3
(lp32
I570
aI310
aI191
aI1045
aI2608
aF164.0
aI821
aI369
aI236
aI1383
aI2414
aF143.0
asg5
I0
sg6
(lp33
I-1
aI-1
aI-1
aI-1
aI-1
aI-1
asg8
(lp34
I38
aI32
aI-1
aF23.23200035095215
aF335.93597412109375
aF-1.0
aI28
aI24
aI-1
aF302.8479919433594
aF327.93597412109375
aF-1.0
asg10
(lp35
F-0.008
aF0.004
aF0.012
asba(i__main__
sensor_data_struct
p36
(dp37
g3
(lp38
I712
aI334
aI218
aI1224
aI2481
aF136.0
aI1113
aI417
aI291
aI1747
aI2290
aF83.0
asg5
I0
sg6
(lp39
I-1
aI-1
aI-1
aI-1
aI-1
aI-1
asg8
(lp40
I33
aI25
aI-1
aF22.20800018310547
aF336.0639953613281
aF-1.0
aI30
aI23
aI-1
aF295.8079833984375
aF343.61602783203125
aF-1.0
asg10
(lp41
F-0.003
aF0.005
aF0.006999999999999999
asba(i__main__
sensor_data_struct
p42
(dp43
g3
(lp44
I561
aI308
aI187
aI1032
aI2605
aF167.0
aI871
aI423
aI244
aI1503
aI2403
aF206.0
asg5
I1
sg6
(lp45
I-1
aI-1
aI-1
aI-1
aI-1
aI-1
asg8
(lp46
I61
aI46
aI-1
aF22.464000701904297
aF332.2239990234375
aF-1.0
aI39
aI35
aI-1
aF322.36798095703125
aF372.7359619140625
aF-1.0
asg10
(lp47
F-0.012
aF-0.006
aF0.015
asba(i__main__
sensor_data_struct
p48
(dp49
g3
(lp50
I631
aI319
aI202
aI1116
aI2534
aF150.0
aI995
aI390
aI266
aI1585
aI2313
aF97.0
asg5
I0
sg6
(lp51
I-1
aI-1
aI-1
aI-1
aI-1
aI-1
asg8
(lp52
I28
aI18
aI-1
aF22.01599884033203
aF335.42401123046875
aF-1.0
aI29
aI25
aI-1
aF293.9519958496094
aF348.7359619140625
aF-1.0
asg10
(lp53
F-0.002
aF-0.001
aF0.006
asba(i__main__
sensor_data_struct
p54
(dp55
g3
(lp56
I566
aI311
aI188
aI1043
aI2606
aF169.0
aI1430
aI510
aI349
aI2215
aI2244
aF85.0
asg5
I1
sg6
(lp57
I-1
aI-1
aI-1
aI-1
aI-1
aI-1
asg8
(lp58
I43
aI48
aI-1
aF25.3439998626709
aF335.61602783203125
aF-1.0
aI40
aI35
aI-1
aF317.3119812011719
aF364.2879943847656
aF-1.0
asg10
(lp59
F0.003
aF0.011000000000000001
aF0.013000000000000001
asba(i__main__
sensor_data_struct
p60
(dp61
g3
(lp62
I567
aI313
aI189
aI1047
aI2610
aF171.0
aI952
aI407
aI254
aI1563
aI2332
aF147.0
asg5
I1
sg6
(lp63
I-1
aI-1
aI-1
aI-1
aI-1
aI-1
asg8
(lp64
I43
aI28
aI-1
aF24.256000518798828
aF336.0639953613281
aF-1.0
aI30
aI25
aI-1
aF304.57598876953125
aF354.7520446777344
aF-1.0
asg10
(lp65
F-0.004
aF-0.004
aF0.012
asba(i__main__
sensor_data_struct
p66
(dp67
g3
(lp68
I580
aI312
aI191
aI1057
aI2587
aF164.0
aI1226
aI439
aI305
aI1880
aI2229
aF71.0
asg5
I0
sg6
(lp69
I-1
aI-1
aI-1
aI-1
aI-1
aI-1
asg8
(lp70
I24
aI27
aI-1
aF18.11199951171875
aF336.0
aF-1.0
aI29
aI25
aI-1
aF279.48797607421875
aF343.1039733886719
aF-1.0
asg10
(lp71
F0.001
aF-0.004
aF0.001
asba(i__main__
sensor_data_struct
p72
(dp73
g3
(lp74
I564
aI308
aI189
aI1035
aI2607
aF164.0
aI771
aI354
aI225
aI1308
aI2427
aF143.0
asg5
I0
sg6
(lp75
I-1
aI-1
aI-1
aI-1
aI-1
aI-1
asg8
(lp76
I37
aI36
aI-1
aF23.295997619628906
aF335.3599853515625
aF-1.0
aI30
aI25
aI-1
aF302.9119873046875
aF363.4559631347656
aF-1.0
asg10
(lp77
F-0.003
aF-0.009000000000000001
aF0.011000000000000001
asba(i__main__
sensor_data_struct
p78
(dp79
g3
(lp80
I569
aI312
aI189
aI1045
aI2601
aF169.0
aI935
aI413
aI252
aI1553
aI2347
aF163.0
asg5
I1
sg6
(lp81
I-1
aI-1
aI-1
aI-1
aI-1
aI-1
asg8
(lp82
I57
aI43
aI-1
aF23.359996795654297
aF334.7200012207031
aF-1.0
aI30
aI30
aI-1
aF305.5359802246094
aF354.17596435546875
aF-1.0
asg10
(lp83
F-0.008
aF-0.006999999999999999
aF0.015
asba(i__main__
sensor_data_struct
p84
(dp85
g3
(lp86
I630
aI317
aI201
aI1116
aI2538
aF148.0
aI954
aI369
aI263
aI1516
aI2336
aF80.0
asg5
I0
sg6
(lp87
I-1
aI-1
aI-1
aI-1
aI-1
aI-1
asg8
(lp88
I26
aI28
aI-1
aF16.0
aF335.1679992675781
aF-1.0
aI29
aI24
aI-1
aF281.85601806640625
aF340.2879943847656
aF-1.0
asg10
(lp89
F0.005
aF-0.002
aF0.001
asba(i__main__
sensor_data_struct
p90
(dp91
g3
(lp92
I635
aI321
aI204
aI1126
aI2543
aF151.0
aI945
aI399
aI257
aI1549
aI2348
aF134.0
asg5
I0
sg6
(lp93
I-1
aI-1
aI-1
aI-1
aI-1
aI-1
asg8
(lp94
I37
aI29
aI-1
aF23.040000915527344
aF337.0879821777344
aF-1.0
aI30
aI24
aI-1
aF301.1839904785156
aF337.9839782714844
aF-1.0
asg10
(lp95
F-0.006
aF0.004
aF0.011000000000000001
asba(i__main__
sensor_data_struct
p96
(dp97
g3
(lp98
I545
aI306
aI185
aI1014
aI2632
aF170.0
aI997
aI421
aI264
aI1626
aI2318
aF147.0
asg5
I1
sg6
(lp99
I-1
aI-1
aI-1
aI-1
aI-1
aI-1
asg8
(lp100
I39
aI29
aI-1
aF24.191999435424805
aF335.42401123046875
aF-1.0
aI28
aI25
aI-1
aF304.447998046875
aF358.52801513671875
aF-1.0
asg10
(lp101
F0.006999999999999999
aF0.0
aF0.013000000000000001
asba(i__main__
sensor_data_struct
p102
(dp103
g3
(lp104
I744
aI336
aI225
aI1256
aI2454
aF124.0
aI1109
aI416
aI284
aI1732
aI2266
aF88.0
asg5
I0
sg6
(lp105
I-1
aI-1
aI-1
aI-1
aI-1
aI-1
asg8
(lp106
I21
aI31
aI-1
aF22.719999313354492
aF336.8319396972656
aF-1.0
aI29
aI26
aI-1
aF291.7760009765625
aF351.552001953125
aF-1.0
asg10
(lp107
F0.006
aF-0.002
aF0.004
asba(i__main__
sensor_data_struct
p108
(dp109
g3
(lp110
I552
aI305
aI187
aI1020
aI2625
aF165.0
aI719
aI346
aI215
aI1244
aI2461
aF155.0
asg5
I0
sg6
(lp111
I-1
aI-1
aI-1
aI-1
aI-1
aI-1
asg8
(lp112
I58
aI44
aI-1
aF22.911998748779297
aF334.8480224609375
aF-1.0
aI30
aI25
aI-1
aF305.0879821777344
aF365.05596923828125
aF-1.0
asg10
(lp113
F-0.002
aF-0.008
aF0.013999999999999999
asba(i__main__
sensor_data_struct
p114
(dp115
g3
(lp116
I570
aI310
aI189
aI1044
aI2599
aF165.0
aI1165
aI442
aI298
aI1827
aI2267
aF101.0
asg5
I0
sg6
(lp117
I-1
aI-1
aI-1
aI-1
aI-1
aI-1
asg8
(lp118
I32
aI26
aI-1
aF22.20800018310547
aF336.5119934082031
aF-1.0
aI29
aI24
aI-1
aF297.1520080566406
aF344.1919860839844
aF-1.0
asg10
(lp119
F-0.002
aF0.005
aF0.006999999999999999
asba(i__main__
sensor_data_struct
p120
(dp121
g3
(lp122
I883
aI357
aI252
aI1430
aI2379
aF92.0
aI1426
aI456
aI351
aI2115
aI2204
aF0.0
asg5
I0
sg6
(lp123
I-1
aI-1
aI-1
aI-1
aI-1
aI-1
asg8
(lp124
I31
aI27
aI-1
aF19.583999633789062
aF334.97601318359375
aF-1.0
aI30
aI24
aI-1
aF281.91998291015625
aF342.8480224609375
aF-1.0
asg10
(lp125
F0.002
aF0.004
aF0.002
asba(i__main__
sensor_data_struct
p126
(dp127
g3
(lp128
I561
aI308
aI188
aI1032
aI2612
aF166.0
aI1114
aI418
aI286
aI1741
aI2269
aF88.0
asg5
I0
sg6
(lp129
I-1
aI-1
aI-1
aI-1
aI-1
aI-1
asg8
(lp130
I27
aI21
aI-1
aF21.823999404907227
aF334.8480224609375
aF-1.0
aI28
aI25
aI-1
aF285.3760070800781
aF348.9280090332031
aF-1.0
asg10
(lp131
F-0.003
aF-0.003
aF0.004
asba(i__main__
sensor_data_struct
p132
(dp133
g3
(lp134
I572
aI310
aI190
aI1047
aI2602
aF164.0
aI1033
aI430
aI270
aI1676
aI2308
aF145.0
asg5
I0
sg6
(lp135
I-1
aI-1
aI-1
aI-1
aI-1
aI-1
asg8
(lp136
I34
aI21
aI-1
aF23.808000564575195
aF335.8079833984375
aF-1.0
aI30
aI23
aI-1
aF303.93597412109375
aF348.09600830078125
aF-1.0
asg10
(lp137
F-0.004
aF0.0
aF0.012
asba(i__main__
sensor_data_struct
p138
(dp139
g3
(lp140
I1101
aI396
aI294
aI1705
aI2294
aF52.0
aI1425
aI467
aI349
aI2129
aI2206
aF19.0
asg5
I0
sg6
(lp141
I-1
aI-1
aI-1
aI-1
aI-1
aI-1
asg8
(lp142
I33
aI30
aI-1
aF23.487998962402344
aF332.79998779296875
aF-1.0
aI28
aI25
aI-1
aF288.2559814453125
aF342.0799865722656
aF-1.0
asg10
(lp143
F0.002
aF0.005
aF0.004
asba(i__main__
sensor_data_struct
p144
(dp145
g3
(lp146
I572
aI311
aI190
aI1047
aI2597
aF166.0
aI1226
aI445
aI306
aI1890
aI2238
aF80.0
asg5
I0
sg6
(lp147
I-1
aI-1
aI-1
aI-1
aI-1
aI-1
asg8
(lp148
I36
aI15
aI-1
aF24.959999084472656
aF336.447998046875
aF-1.0
aI31
aI24
aI-1
aF286.14398193359375
aF339.7120056152344
aF-1.0
asg10
(lp149
F-0.006
aF-0.002
aF0.004
asba(i__main__
sensor_data_struct
p150
(dp151
g3
(lp152
I658
aI325
aI208
aI1152
aI2517
aF147.0
aI990
aI409
aI264
aI1606
aI2325
aF130.0
asg5
I0
sg6
(lp153
I-1
aI-1
aI-1
aI-1
aI-1
aI-1
asg8
(lp154
I30
aI17
aI-1
aF23.67999839782715
aF336.8960266113281
aF-1.0
aI28
aI24
aI-1
aF300.6719970703125
aF345.7279968261719
aF-1.0
asg10
(lp155
F-0.004
aF0.001
aF0.011000000000000001
asba(i__main__
sensor_data_struct
p156
(dp157
g3
(lp158
I570
aI313
aI189
aI1049
aI2604
aF170.0
aI734
aI352
aI220
aI1273
aI2473
aF156.0
asg5
I1
sg6
(lp159
I-1
aI-1
aI-1
aI-1
aI-1
aI-1
asg8
(lp160
I43
aI46
aI-1
aF23.93600082397461
aF335.61602783203125
aF-1.0
aI33
aI26
aI-1
aF305.66400146484375
aF327.03997802734375
aF-1.0
asg10
(lp161
F-0.009000000000000001
aF0.006
aF0.015
asba(i__main__
sensor_data_struct
p162
(dp163
g3
(lp164
I640
aI322
aI205
aI1130
aI2536
aF150.0
aI1057
aI412
aI276
aI1676
aI2292
aF105.0
asg5
I0
sg6
(lp165
I-1
aI-1
aI-1
aI-1
aI-1
aI-1
asg8
(lp166
I37
aI16
aI-1
aF24.76799964904785
aF336.2559814453125
aF-1.0
aI29
aI23
aI-1
aF293.88800048828125
aF345.9200134277344
aF-1.0
asg10
(lp167
F-0.006
aF-0.002
aF0.006
asba(i__main__
sensor_data_struct
p168
(dp169
g3
(lp170
I564
aI311
aI190
aI1042
aI2624
aF168.0
aI1047
aI422
aI281
aI1707
aI2356
aF120.0
asg5
I1
sg6
(lp171
I-1
aI-1
aI-1
aI-1
aI-1
aI-1
asg8
(lp172
I54
aI44
aI-1
aF24.31999969482422
aF334.78399658203125
aF-1.0
aI39
aI34
aI-1
aF320.0
aF369.21600341796875
aF-1.0
asg10
(lp173
F0.004
aF0.013000000000000001
aF0.015
asba(i__main__
sensor_data_struct
p174
(dp175
g3
(lp176
I567
aI314
aI189
aI1048
aI2610
aF173.0
aI848
aI358
aI242
aI1398
aI2395
aF112.0
asg5
I0
sg6
(lp177
I-1
aI-1
aI-1
aI-1
aI-1
aI-1
asg8
(lp178
I46
aI32
aI-1
aF25.7919979095459
aF336.1919860839844
aF-1.0
aI29
aI24
aI-1
aF304.2559814453125
aF354.30401611328125
aF-1.0
asg10
(lp179
F0.008
aF0.003
aF0.013000000000000001
asba(i__main__
sensor_data_struct
p180
(dp181
g3
(lp182
I608
aI321
aI198
aI1097
aI2566
aF164.0
aI844
aI390
aI243
aI1436
aI2422
aF163.0
asg5
I1
sg6
(lp183
I-1
aI-1
aI-1
aI-1
aI-1
aI-1
asg8
(lp184
I43
aI16
aI-1
aF25.088001251220703
aF336.1919860839844
aF-1.0
aI39
aI32
aI-1
aF318.6559753417969
aF364.4159851074219
aF-1.0
asg10
(lp185
F-0.009000000000000001
aF0.006
aF0.01
asba(i__main__
sensor_data_struct
p186
(dp187
g3
(lp188
I612
aI318
aI198
aI1100
aI2563
aF158.0
aI1086
aI399
aI287
aI1694
aI2293
aF67.0
asg5
I0
sg6
(lp189
I-1
aI-1
aI-1
aI-1
aI-1
aI-1
asg8
(lp190
I33
aI30
aI-1
aF26.368000030517578
aF336.5119934082031
aF-1.0
aI28
aI22
aI-1
aF299.71197509765625
aF351.8719787597656
aF-1.0
asg10
(lp191
F0.005
aF0.003
aF0.009000000000000001
asba(i__main__
sensor_data_struct
p192
(dp193
g3
(lp194
I658
aI326
aI208
aI1153
aI2517
aF148.0
aI1002
aI400
aI265
aI1604
aI2309
aF112.0
asg5
I0
sg6
(lp195
I-1
aI-1
aI-1
aI-1
aI-1
aI-1
asg8
(lp196
I21
aI33
aI-1
aF23.167997360229492
aF337.5359802246094
aF-1.0
aI29
aI23
aI-1
aF296.5119934082031
aF352.6400146484375
aF-1.0
asg10
(lp197
F0.004
aF-0.004
aF0.006999999999999999
asba(i__main__
sensor_data_struct
p198
(dp199
g3
(lp200
I635
aI321
aI202
aI1126
aI2535
aF152.0
aI963
aI384
aI261
aI1543
aI2328
aF102.0
asg5
I0
sg6
(lp201
I-1
aI-1
aI-1
aI-1
aI-1
aI-1
asg8
(lp202
I28
aI19
aI-1
aF23.1039981842041
aF336.0639953613281
aF-1.0
aI29
aI23
aI-1
aF294.97601318359375
aF349.6319885253906
aF-1.0
asg10
(lp203
F-0.002
aF0.0
aF0.006
asba(i__main__
sensor_data_struct
p204
(dp205
g3
(lp206
I633
aI321
aI201
aI1123
aI2533
aF154.0
aI1297
aI456
aI319
aI1978
aI2220
aF65.0
asg5
I0
sg6
(lp207
I-1
aI-1
aI-1
aI-1
aI-1
aI-1
asg8
(lp208
I27
aI21
aI-1
aF17.920000076293945
aF332.4800109863281
aF-1.0
aI28
aI24
aI-1
aF277.7599792480469
aF338.6239929199219
aF-1.0
asg10
(lp209
F0.001
aF0.001
aF0.0
asba(i__main__
sensor_data_struct
p210
(dp211
g3
(lp212
I554
aI309
aI186
aI1026
aI2618
aF171.0
aI957
aI451
aI260
aI1627
aI2366
aF210.0
asg5
I1
sg6
(lp213
I-1
aI-1
aI-1
aI-1
aI-1
aI-1
asg8
(lp214
I53
aI28
aI-1
aF24.639999389648438
aF335.1679992675781
aF-1.0
aI38
aI35
aI-1
aF322.4960021972656
aF366.59197998046875
aF-1.0
asg10
(lp215
F-0.011000000000000001
aF0.003
aF0.011000000000000001
asba(i__main__
sensor_data_struct
p216
(dp217
g3
(lp218
I566
aI311
aI189
aI1041
aI2608
aF168.0
aI768
aI361
aI224
aI1315
aI2433
aF156.0
asg5
I1
sg6
(lp219
I-1
aI-1
aI-1
aI-1
aI-1
aI-1
asg8
(lp220
I49
aI45
aI-1
aF24.128000259399414
aF335.8719787597656
aF-1.0
aI26
aI26
aI-1
aF304.38397216796875
aF359.552001953125
aF-1.0
asg10
(lp221
F0.001
aF-0.009000000000000001
aF0.013000000000000001
asba(i__main__
sensor_data_struct
p222
(dp223
g3
(lp224
I585
aI314
aI192
aI1064
aI2583
aF165.0
aI809
aI362
aI232
aI1357
aI2404
aF138.0
asg5
I0
sg6
(lp225
I-1
aI-1
aI-1
aI-1
aI-1
aI-1
asg8
(lp226
I27
aI33
aI-1
aF24.191999435424805
aF336.9599914550781
aF-1.0
aI28
aI20
aI-1
aF300.35198974609375
aF358.0159912109375
aF-1.0
asg10
(lp227
F-0.002
aF-0.008
aF0.009000000000000001
asba(i__main__
sensor_data_struct
p228
(dp229
g3
(lp230
I574
aI313
aI190
aI1053
aI2597
aF168.0
aI1026
aI441
aI276
aI1686
aI2337
aF160.0
asg5
I1
sg6
(lp231
I-1
aI-1
aI-1
aI-1
aI-1
aI-1
asg8
(lp232
I38
aI11
aI-1
aF25.600000381469727
aF335.23199462890625
aF-1.0
aI36
aI15
aI-1
aF308.15997314453125
aF349.88800048828125
aF-1.0
asg10
(lp233
F-0.008
aF0.002
aF0.006999999999999999
asba(i__main__
sensor_data_struct
p234
(dp235
g3
(lp236
I636
aI324
aI204
aI1134
aI2550
aF155.0
aI960
aI404
aI262
aI1576
aI2356
aF134.0
asg5
I0
sg6
(lp237
I-1
aI-1
aI-1
aI-1
aI-1
aI-1
asg8
(lp238
I33
aI44
aI-1
aF24.38399887084961
aF335.8079833984375
aF-1.0
aI31
aI25
aI-1
aF305.21600341796875
aF338.6239929199219
aF-1.0
asg10
(lp239
F-0.003
aF0.011000000000000001
aF0.013000000000000001
asba(i__main__
sensor_data_struct
p240
(dp241
g3
(lp242
I549
aI309
aI187
aI1023
aI2637
aF172.0
aI968
aI459
aI263
aI1648
aI2364
aF217.0
asg5
I1
sg6
(lp243
I-1
aI-1
aI-1
aI-1
aI-1
aI-1
asg8
(lp244
I59
aI37
aI-1
aF23.615999221801758
aF335.42401123046875
aF-1.0
aI36
aI36
aI-1
aF321.2799987792969
aF384.0639953613281
aF-1.0
asg10
(lp245
F0.006999999999999999
aF-0.005
aF0.015
asba(i__main__
sensor_data_struct
p246
(dp247
g3
(lp248
I563
aI318
aI189
aI1049
aI2624
aF180.0
aI628
aI338
aI202
aI1142
aI2561
aF181.0
asg5
I1
sg6
(lp249
I-1
aI-1
aI-1
aI-1
aI-1
aI-1
asg8
(lp250
I57
aI45
aI-1
aF22.976001739501953
aF335.23199462890625
aF-1.0
aI35
aI33
aI-1
aF322.36798095703125
aF380.7359619140625
aF-1.0
asg10
(lp251
F0.013000000000000001
aF-0.003
aF0.015
asba(i__main__
sensor_data_struct
p252
(dp253
g3
(lp254
I647
aI327
aI205
aI1150
aI2540
aF156.0
aI1210
aI423
aI316
aI1853
aI2269
aF43.0
asg5
I0
sg6
(lp255
I-1
aI-1
aI-1
aI-1
aI-1
aI-1
asg8
(lp256
I29
aI28
aI-1
aF23.615999221801758
aF336.76800537109375
aF-1.0
aI31
aI23
aI-1
aF296.0
aF351.8719787597656
aF-1.0
asg10
(lp257
F0.002
aF0.003
aF0.006
asba(i__main__
sensor_data_struct
p258
(dp259
g3
(lp260
I687
aI333
aI215
aI1194
aI2504
aF145.0
aI1013
aI413
aI270
aI1635
aI2321
aF125.0
asg5
I0
sg6
(lp261
I-1
aI-1
aI-1
aI-1
aI-1
aI-1
asg8
(lp262
I23
aI28
aI-1
aF24.511999130249023
aF337.02398681640625
aF-1.0
aI28
aI22
aI-1
aF299.135986328125
aF358.9119873046875
aF-1.0
asg10
(lp263
F0.003
aF-0.002
aF0.009000000000000001
asba(i__main__
sensor_data_struct
p264
(dp265
g3
(lp266
I584
aI317
aI192
aI1071
aI2594
aF170.0
aI822
aI359
aI238
aI1373
aI2416
aF125.0
asg5
I1
sg6
(lp267
I-1
aI-1
aI-1
aI-1
aI-1
aI-1
asg8
(lp268
I31
aI28
aI-1
aF24.831998825073242
aF337.5359802246094
aF-1.0
aI27
aI24
aI-1
aF304.447998046875
aF351.3599853515625
aF-1.0
asg10
(lp269
F-0.002
aF0.004
aF0.013000000000000001
asba(i__main__
sensor_data_struct
p270
(dp271
g3
(lp272
I589
aI320
aI195
aI1078
aI2594
aF171.0
aI837
aI408
aI238
aI1452
aI2424
aF198.0
asg5
I1
sg6
(lp273
I-1
aI-1
aI-1
aI-1
aI-1
aI-1
asg8
(lp274
I52
aI48
aI-1
aF24.8960018157959
aF335.42401123046875
aF-1.0
aI36
aI34
aI-1
aF322.9440002441406
aF381.69598388671875
aF-1.0
asg10
(lp275
F-0.011000000000000001
aF0.001
aF0.015
asba(i__main__
sensor_data_struct
p276
(dp277
g3
(lp278
I581
aI319
aI192
aI1071
aI2605
aF174.0
aI1125
aI451
aI291
aI1797
aI2285
aF133.0
asg5
I0
sg6
(lp279
I-1
aI-1
aI-1
aI-1
aI-1
aI-1
asg8
(lp280
I25
aI22
aI-1
aF24.76799964904785
aF337.0879821777344
aF-1.0
aI28
aI25
aI-1
aF299.90399169921875
aF356.60797119140625
aF-1.0
asg10
(lp281
F-0.002
aF-0.003
aF0.009000000000000001
asba(i__main__
sensor_data_struct
p282
(dp283
g3
(lp284
I637
aI323
aI203
aI1134
aI2546
aF154.0
aI945
aI384
aI259
aI1527
aI2344
aF109.0
asg5
I0
sg6
(lp285
I-1
aI-1
aI-1
aI-1
aI-1
aI-1
asg8
(lp286
I20
aI30
aI-1
aF23.295997619628906
aF337.9839782714844
aF-1.0
aI27
aI23
aI-1
aF292.4800109863281
aF339.4559631347656
aF-1.0
asg10
(lp287
F0.006
aF-0.003
aF0.004
asba(i__main__
sensor_data_struct
p288
(dp289
g3
(lp290
I576
aI315
aI191
aI1058
aI2600
aF170.0
aI758
aI359
aI225
aI1302
aI2449
aF155.0
asg5
I1
sg6
(lp291
I-1
aI-1
aI-1
aI-1
aI-1
aI-1
asg8
(lp292
I41
aI32
aI-1
aF24.128000259399414
aF336.1280212402344
aF-1.0
aI29
aI26
aI-1
aF305.1520080566406
aF363.5199890136719
aF-1.0
asg10
(lp293
F-0.001
aF-0.005
aF0.013999999999999999
asba(i__main__
sensor_data_struct
p294
(dp295
g3
(lp296
I659
aI334
aI209
aI1168
aI2530
aF160.0
aI992
aI414
aI269
aI1617
aI2340
aF134.0
asg5
I0
sg6
(lp297
I-1
aI-1
aI-1
aI-1
aI-1
aI-1
asg8
(lp298
I38
aI14
aI-1
aF25.919998168945312
aF337.27996826171875
aF-1.0
aI28
aI24
aI-1
aF297.9839782714844
aF349.75994873046875
aF-1.0
asg10
(lp299
F-0.008
aF0.003
aF0.008
asba(i__main__
sensor_data_struct
p300
(dp301
g3
(lp302
I584
aI319
aI192
aI1074
aI2599
aF173.0
aI1167
aI458
aI301
aI1850
aI2278
aF123.0
asg5
I0
sg6
(lp303
I-1
aI-1
aI-1
aI-1
aI-1
aI-1
asg8
(lp304
I33
aI27
aI-1
aF23.487998962402344
aF337.0879821777344
aF-1.0
aI28
aI23
aI-1
aF298.36798095703125
aF348.031982421875
aF-1.0
asg10
(lp305
F-0.003
aF0.008
aF0.008
asba(i__main__
sensor_data_struct
p306
(dp307
g3
(lp308
I555
aI309
aI188
aI1029
aI2630
aF169.0
aI714
aI360
aI217
aI1260
aI2492
aF177.0
asg5
I1
sg6
(lp309
I-1
aI-1
aI-1
aI-1
aI-1
aI-1
asg8
(lp310
I57
aI44
aI-1
aF23.5519962310791
aF334.78399658203125
aF-1.0
aI38
aI36
aI-1
aF322.1759948730469
aF382.4639892578125
aF-1.0
asg10
(lp311
F0.003
aF-0.009000000000000001
aF0.015
asba(i__main__
sensor_data_struct
p312
(dp313
g3
(lp314
I601
aI328
aI196
aI1101
aI2581
aF179.0
aI994
aI436
aI267
aI1645
aI2339
aF170.0
asg5
I1
sg6
(lp315
I-1
aI-1
aI-1
aI-1
aI-1
aI-1
asg8
(lp316
I32
aI29
aI-1
aF25.72800064086914
aF337.02398681640625
aF-1.0
aI30
aI27
aI-1
aF305.47198486328125
aF356.6719970703125
aF-1.0
asg10
(lp317
F0.002
aF-0.001
aF0.015
asba(i__main__
sensor_data_struct
p318
(dp319
g3
(lp320
I589
aI320
aI193
aI1079
aI2590
aF172.0
aI731
aI348
aI220
aI1262
aI2470
aF150.0
asg5
I1
sg6
(lp321
I-1
aI-1
aI-1
aI-1
aI-1
aI-1
asg8
(lp322
I36
aI26
aI-1
aF25.088001251220703
aF336.8319396972656
aF-1.0
aI30
aI28
aI-1
aF305.1520080566406
aF354.6879577636719
aF-1.0
asg10
(lp323
F-0.004
aF-0.001
aF0.013999999999999999
asba(i__main__
sensor_data_struct
p324
(dp325
g3
(lp326
I586
aI318
aI195
aI1071
aI2596
aF168.0
aI859
aI388
aI241
aI1444
aI2387
aF157.0
asg5
I1
sg6
(lp327
I-1
aI-1
aI-1
aI-1
aI-1
aI-1
asg8
(lp328
I52
aI35
aI-1
aF24.639999389648438
aF336.5119934082031
aF-1.0
aI28
aI25
aI-1
aF303.7439880371094
aF363.7760009765625
aF-1.0
asg10
(lp329
F-0.004
aF-0.008
aF0.012
asba(i__main__
sensor_data_struct
p330
(dp331
g3
(lp332
I656
aI328
aI207
aI1158
aI2528
aF153.0
aI937
aI398
aI257
aI1539
aI2357
aF135.0
asg5
I1
sg6
(lp333
I-1
aI-1
aI-1
aI-1
aI-1
aI-1
asg8
(lp334
I30
aI22
aI-1
aF24.639999389648438
aF337.47198486328125
aF-1.0
aI29
aI24
aI-1
aF303.10400390625
aF352.0639953613281
aF-1.0
asg10
(lp335
F-0.002
aF0.002
aF0.011000000000000001
asba(i__main__
sensor_data_struct
p336
(dp337
g3
(lp338
I726
aI341
aI221
aI1245
aI2471
aF140.0
aI1020
aI422
aI272
aI1655
aI2325
aF135.0
asg5
I0
sg6
(lp339
I-1
aI-1
aI-1
aI-1
aI-1
aI-1
asg8
(lp340
I30
aI21
aI-1
aF24.447999954223633
aF337.47198486328125
aF-1.0
aI28
aI24
aI-1
aF300.9280090332031
aF353.343994140625
aF-1.0
asg10
(lp341
F-0.002
aF0.002
aF0.009000000000000001
asba(i__main__
sensor_data_struct
p342
(dp343
g3
(lp344
I572
aI317
aI190
aI1057
aI2606
aF175.0
aI997
aI471
aI268
aI1695
aI2358
aF223.0
asg5
I1
sg6
(lp345
I-1
aI-1
aI-1
aI-1
aI-1
aI-1
asg8
(lp346
I56
aI49
aI-1
aF24.959999084472656
aF335.552001953125
aF-1.0
aI36
aI35
aI-1
aF322.75201416015625
aF381.3119812011719
aF-1.0
asg10
(lp347
F-0.012
aF-0.001
aF0.015
asba(i__main__
sensor_data_struct
p348
(dp349
g3
(lp350
I569
aI314
aI191
aI1051
aI2620
aF171.0
aI800
aI393
aI231
aI1392
aI2435
aF191.0
asg5
I1
sg6
(lp351
I-1
aI-1
aI-1
aI-1
aI-1
aI-1
asg8
(lp352
I57
aI46
aI-1
aF24.0
aF336.1280212402344
aF-1.0
aI37
aI38
aI-1
aF321.343994140625
aF382.3999938964844
aF-1.0
asg10
(lp353
F0.005
aF-0.009000000000000001
aF0.013999999999999999
asba(i__main__
sensor_data_struct
p354
(dp355
g3
(lp356
I575
aI317
aI191
aI1060
aI2606
aF173.0
aI660
aI336
aI208
aI1173
aI2531
aF163.0
asg5
I1
sg6
(lp357
I-1
aI-1
aI-1
aI-1
aI-1
aI-1
asg8
(lp358
I55
aI22
aI-1
aF25.600000381469727
aF337.343994140625
aF-1.0
aI39
aI32
aI-1
aF323.00799560546875
aF380.2879943847656
aF-1.0
asg10
(lp359
F-0.009000000000000001
aF-0.005
aF0.011000000000000001
asba(i__main__
sensor_data_struct
p360
(dp361
g3
(lp362
I582
aI320
aI192
aI1071
aI2598
aF175.0
aI967
aI426
aI262
aI1608
aI2355
aF166.0
asg5
I1
sg6
(lp363
I-1
aI-1
aI-1
aI-1
aI-1
aI-1
asg8
(lp364
I35
aI44
aI-1
aF25.21599769592285
aF337.21600341796875
aF-1.0
aI32
aI30
aI-1
aF305.9839782714844
aF344.38397216796875
aF-1.0
asg10
(lp365
F-0.001
aF0.008
aF0.015
asba(i__main__
sensor_data_struct
p366
(dp367
g3
(lp368
I593
aI322
aI195
aI1088
aI2595
aF172.0
aI1023
aI424
aI273
aI1658
aI2320
aF137.0
asg5
I0
sg6
(lp369
I-1
aI-1
aI-1
aI-1
aI-1
aI-1
asg8
(lp370
I26
aI23
aI-1
aF24.38399887084961
aF337.0879821777344
aF-1.0
aI30
aI23
aI-1
aF300.99200439453125
aF356.7359619140625
aF-1.0
asg10
(lp371
F-0.001
aF-0.001
aF0.01
asba(i__main__
sensor_data_struct
p372
(dp373
g3
(lp374
I574
aI315
aI191
aI1057
aI2609
aF171.0
aI967
aI387
aI265
aI1559
aI2346
aF102.0
asg5
I0
sg6
(lp375
I-1
aI-1
aI-1
aI-1
aI-1
aI-1
asg8
(lp376
I47
aI33
aI-1
aF25.72800064086914
aF335.93597412109375
aF-1.0
aI32
aI24
aI-1
aF303.552001953125
aF355.5199890136719
aF-1.0
asg10
(lp377
F0.009000000000000001
aF0.004
aF0.012
asba(i__main__
sensor_data_struct
p378
(dp379
g3
(lp380
I717
aI336
aI219
aI1229
aI2474
aF137.0
aI1046
aI425
aI277
aI1683
aI2311
aF128.0
asg5
I0
sg6
(lp381
I-1
aI-1
aI-1
aI-1
aI-1
aI-1
asg8
(lp382
I31
aI16
aI-1
aF23.615999221801758
aF338.4320068359375
aF-1.0
aI29
aI22
aI-1
aF299.20001220703125
aF350.7200012207031
aF-1.0
asg10
(lp383
F-0.004
aF0.004
aF0.009000000000000001
asba(i__main__
sensor_data_struct
p384
(dp385
g3
(lp386
I681
aI336
aI213
aI1192
aI2507
aF153.0
aI988
aI420
aI266
aI1619
aI2338
aF147.0
asg5
I0
sg6
(lp387
I-1
aI-1
aI-1
aI-1
aI-1
aI-1
asg8
(lp388
I30
aI25
aI-1
aF25.535999298095703
aF338.30401611328125
aF-1.0
aI30
aI25
aI-1
aF303.2959899902344
aF350.9119873046875
aF-1.0
asg10
(lp389
F-0.003
aF0.004
aF0.012
asba(i__main__
sensor_data_struct
p390
(dp391
g3
(lp392
I637
aI328
aI204
aI1143
aI2557
aF161.0
aI1199
aI453
aI308
aI1903
aI2302
aF100.0
asg5
I1
sg6
(lp393
I-1
aI-1
aI-1
aI-1
aI-1
aI-1
asg8
(lp394
I52
aI45
aI-1
aF25.535999298095703
aF337.47198486328125
aF-1.0
aI38
aI35
aI-1
aF319.3599853515625
aF380.7359619140625
aF-1.0
asg10
(lp395
F0.005
aF0.01
aF0.013999999999999999
asba(i__main__
sensor_data_struct
p396
(dp397
g3
(lp398
I780
aI347
aI232
aI1310
aI2439
aF124.0
aI1113
aI428
aI289
aI1756
aI2283
aF102.0
asg5
I0
sg6
(lp399
I-1
aI-1
aI-1
aI-1
aI-1
aI-1
asg8
(lp400
I22
aI29
aI-1
aF24.256000518798828
aF337.6000061035156
aF-1.0
aI28
aI24
aI-1
aF294.08001708984375
aF353.7279968261719
aF-1.0
asg10
(lp401
F0.006
aF-0.001
aF0.005
asba(i__main__
sensor_data_struct
p402
(dp403
g3
(lp404
I616
aI322
aI201
aI1107
aI2565
aF161.0
aI889
aI401
aI247
aI1495
aI2383
aF163.0
asg5
I1
sg6
(lp405
I-1
aI-1
aI-1
aI-1
aI-1
aI-1
asg8
(lp406
I34
aI31
aI-1
aF24.8960018157959
aF336.7040100097656
aF-1.0
aI30
aI27
aI-1
aF305.5359802246094
aF363.3919982910156
aF-1.0
asg10
(lp407
F0.001
aF-0.003
aF0.015
asba(i__main__
sensor_data_struct
p408
(dp409
g3
(lp410
I589
aI320
aI193
aI1078
aI2586
aF172.0
aI764
aI362
aI226
aI1313
aI2449
aF157.0
asg5
I1
sg6
(lp411
I-1
aI-1
aI-1
aI-1
aI-1
aI-1
asg8
(lp412
I40
aI29
aI-1
aF25.3439998626709
aF336.8960266113281
aF-1.0
aI30
aI26
aI-1
aF305.4079895019531
aF354.4320068359375
aF-1.0
asg10
(lp413
F-0.005
aF-0.001
aF0.013999999999999999
asba(i__main__
sensor_data_struct
p414
(dp415
g3
(lp416
I588
aI317
aI193
aI1074
aI2588
aF168.0
aI862
aI373
aI244
aI1430
aI2391
aF130.0
asg5
I0
sg6
(lp417
I-1
aI-1
aI-1
aI-1
aI-1
aI-1
asg8
(lp418
I31
aI30
aI-1
aF25.21599769592285
aF336.8319396972656
aF-1.0
aI30
aI22
aI-1
aF304.0
aF355.90399169921875
aF-1.0
asg10
(lp419
F0.005
aF0.001
aF0.013000000000000001
asba(i__main__
sensor_data_struct
p420
(dp421
g3
(lp422
I612
aI322
aI200
aI1103
aI2571
aF163.0
aI913
aI409
aI252
aI1526
aI2368
aF164.0
asg5
I1
sg6
(lp423
I-1
aI-1
aI-1
aI-1
aI-1
aI-1
asg8
(lp424
I47
aI32
aI-1
aF25.088001251220703
aF336.447998046875
aF-1.0
aI26
aI26
aI-1
aF305.2799987792969
aF355.135986328125
aF-1.0
asg10
(lp425
F-0.006
aF-0.003
aF0.013000000000000001
asba(i__main__
sensor_data_struct
p426
(dp427
g3
(lp428
I588
aI317
aI195
aI1072
aI2592
aF166.0
aI850
aI391
aI239
aI1440
aI2396
aF166.0
asg5
I1
sg6
(lp429
I-1
aI-1
aI-1
aI-1
aI-1
aI-1
asg8
(lp430
I50
aI38
aI-1
aF24.38399887084961
aF336.0639953613281
aF-1.0
aI32
aI30
aI-1
aF305.66400146484375
aF365.05596923828125
aF-1.0
asg10
(lp431
F0.002
aF-0.006999999999999999
aF0.015
asba(i__main__
sensor_data_struct
p432
(dp433
g3
(lp434
I599
aI319
aI195
aI1088
aI2578
aF166.0
aI1189
aI462
aI305
aI1877
aI2272
aF119.0
asg5
I0
sg6
(lp435
I-1
aI-1
aI-1
aI-1
aI-1
aI-1
asg8
(lp436
I32
aI23
aI-1
aF22.144001007080078
aF336.6400146484375
aF-1.0
aI29
aI24
aI-1
aF296.2559814453125
aF349.6319885253906
aF-1.0
asg10
(lp437
F-0.004
aF0.006999999999999999
aF0.006999999999999999
asba(i__main__
sensor_data_struct
p438
(dp439
g3
(lp440
I549
aI310
aI187
aI1025
aI2642
aF174.0
aI982
aI439
aI265
aI1639
aI2352
aF180.0
asg5
I1
sg6
(lp441
I-1
aI-1
aI-1
aI-1
aI-1
aI-1
asg8
(lp442
I56
aI32
aI-1
aF23.93600082397461
aF335.2959899902344
aF-1.0
aI34
aI32
aI-1
aF306.1759948730469
aF365.5679931640625
aF-1.0
asg10
(lp443
F0.011000000000000001
aF-0.001
aF0.015
asba(i__main__
sensor_data_struct
p444
(dp445
g3
(lp446
I691
aI333
aI215
aI1198
aI2498
aF143.0
aI1026
aI422
aI273
aI1659
aI2317
aF133.0
asg5
I0
sg6
(lp447
I-1
aI-1
aI-1
aI-1
aI-1
aI-1
asg8
(lp448
I27
aI28
aI-1
aF24.76799964904785
aF336.9599914550781
aF-1.0
aI29
aI24
aI-1
aF300.4159851074219
aF362.55999755859375
aF-1.0
asg10
(lp449
F0.005
aF-0.001
aF0.01
asba(i__main__
sensor_data_struct
p450
(dp451
g3
(lp452
I650
aI326
aI206
aI1149
aI2532
aF152.0
aI994
aI393
aI269
aI1589
aI2326
aF100.0
asg5
I0
sg6
(lp453
I-1
aI-1
aI-1
aI-1
aI-1
aI-1
asg8
(lp454
I23
aI28
aI-1
aF23.040000915527344
aF337.21600341796875
aF-1.0
aI29
aI23
aI-1
aF295.87200927734375
aF355.583984375
aF-1.0
asg10
(lp455
F0.003
aF-0.001
aF0.006
asba(i__main__
sensor_data_struct
p456
(dp457
g3
(lp458
I616
aI322
aI201
aI1107
aI2565
aF161.0
aI843
aI392
aI241
aI1436
aI2414
aF168.0
asg5
I1
sg6
(lp459
I-1
aI-1
aI-1
aI-1
aI-1
aI-1
asg8
(lp460
I33
aI36
aI-1
aF24.76799964904785
aF336.9599914550781
aF-1.0
aI21
aI31
aI-1
aF296.89599609375
aF368.6400146484375
aF-1.0
asg10
(lp461
F0.008
aF-0.004
aF0.01
asba(i__main__
sensor_data_struct
p462
(dp463
g3
(lp464
I598
aI319
aI196
aI1084
aI2578
aF165.0
aI842
aI383
aI240
aI1422
aI2407
aF155.0
asg5
I1
sg6
(lp465
I-1
aI-1
aI-1
aI-1
aI-1
aI-1
asg8
(lp466
I32
aI25
aI-1
aF24.831998825073242
aF336.9599914550781
aF-1.0
aI30
aI25
aI-1
aF304.7040100097656
aF363.7120056152344
aF-1.0
asg10
(lp467
F0.002
aF-0.001
aF0.013999999999999999
asba(i__main__
sensor_data_struct
p468
(dp469
g3
(lp470
I605
aI324
aI198
aI1099
aI2577
aF170.0
aI835
aI383
aI238
aI1414
aI2406
aF159.0
asg5
I0
sg6
(lp471
I-1
aI-1
aI-1
aI-1
aI-1
aI-1
asg8
(lp472
I36
aI34
aI-1
aF25.21599769592285
aF337.21600341796875
aF-1.0
aI28
aI26
aI-1
aF304.0639953613281
aF364.79998779296875
aF-1.0
asg10
(lp473
F0.0
aF-0.006
aF0.013000000000000001
asba(i__main__
sensor_data_struct
p474
(dp475
g3
(lp476
I672
aI334
aI213
aI1179
aI2518
aF153.0
aI1054
aI416
aI278
aI1680
aI2302
aF110.0
asg5
I0
sg6
(lp477
I-1
aI-1
aI-1
aI-1
aI-1
aI-1
asg8
(lp478
I22
aI29
aI-1
aF22.336000442504883
aF338.4960021972656
aF-1.0
aI28
aI25
aI-1
aF285.69598388671875
aF343.48797607421875
aF-1.0
asg10
(lp479
F-0.001
aF-0.006999999999999999
aF0.004
asba(i__main__
sensor_data_struct
p480
(dp481
g3
(lp482
I601
aI323
aI196
aI1094
aI2576
aF171.0
aI1048
aI432
aI276
aI1694
aI2308
aF139.0
asg5
I0
sg6
(lp483
I-1
aI-1
aI-1
aI-1
aI-1
aI-1
asg8
(lp484
I29
aI29
aI-1
aF24.76799964904785
aF337.7919921875
aF-1.0
aI28
aI24
aI-1
aF299.583984375
aF361.0879821777344
aF-1.0
asg10
(lp485
F-0.002
aF-0.006999999999999999
aF0.009000000000000001
asba(i__main__
sensor_data_struct
p486
(dp487
g3
(lp488
I686
aI337
aI215
aI1199
aI2510
aF151.0
aI953
aI416
aI263
aI1580
aI2365
aF154.0
asg5
I0
sg6
(lp489
I-1
aI-1
aI-1
aI-1
aI-1
aI-1
asg8
(lp490
I41
aI11
aI-1
aF26.8799991607666
aF331.7760009765625
aF-1.0
aI38
aI12
aI-1
aF306.6239929199219
aF339.7120056152344
aF-1.0
asg10
(lp491
F-0.006999999999999999
aF0.0
aF0.004
asba(i__main__
sensor_data_struct
p492
(dp493
g3
(lp494
I835
aI358
aI242
aI1382
aI2408
aF116.0
aI1357
aI458
aI341
aI2050
aI2232
aF32.0
asg5
I0
sg6
(lp495
I-1
aI-1
aI-1
aI-1
aI-1
aI-1
asg8
(lp496
I30
aI27
aI-1
aF19.90399932861328
aF327.552001953125
aF-1.0
aI30
aI24
aI-1
aF281.85601806640625
aF346.11199951171875
aF-1.0
asg10
(lp497
F0.0
aF0.004
aF0.002
asba(i__main__
sensor_data_struct
p498
(dp499
g3
(lp500
I629
aI325
aI203
aI1127
aI2557
aF160.0
aI952
aI401
aI261
aI1559
aI2354
aF132.0
asg5
I0
sg6
(lp501
I-1
aI-1
aI-1
aI-1
aI-1
aI-1
asg8
(lp502
I35
aI27
aI-1
aF25.408000946044922
aF336.76800537109375
aF-1.0
aI26
aI23
aI-1
aF303.42401123046875
aF357.3119812011719
aF-1.0
asg10
(lp503
F0.005
aF0.001
aF0.012
asba(i__main__
sensor_data_struct
p504
(dp505
g3
(lp506
I574
aI318
aI192
aI1062
aI2615
aF175.0
aI995
aI462
aI268
aI1681
aI2354
aF210.0
asg5
I1
sg6
(lp507
I-1
aI-1
aI-1
aI-1
aI-1
aI-1
asg8
(lp508
I17
aI41
aI-1
aF24.959999084472656
aF337.7919921875
aF-1.0
aI22
aI38
aI-1
aF314.4960021972656
aF383.7439880371094
aF-1.0
asg10
(lp509
F0.006999999999999999
aF-0.006
aF0.009000000000000001
asba(i__main__
sensor_data_struct
p510
(dp511
g3
(lp512
I588
aI321
aI195
aI1078
aI2596
aF173.0
aI835
aI409
aI238
aI1449
aI2423
aF200.0
asg5
I1
sg6
(lp513
I-1
aI-1
aI-1
aI-1
aI-1
aI-1
asg8
(lp514
I55
aI49
aI-1
aF24.703998565673828
aF336.7040100097656
aF-1.0
aI36
aI36
aI-1
aF321.343994140625
aF383.48797607421875
aF-1.0
asg10
(lp515
F0.005
aF-0.01
aF0.013999999999999999
asba(i__main__
sensor_data_struct
p516
(dp517
g3
(lp518
I828
aI358
aI241
aI1376
aI2415
aF119.0
aI1142
aI442
aI296
aI1810
aI2289
aF110.0
asg5
I0
sg6
(lp519
I-1
aI-1
aI-1
aI-1
aI-1
aI-1
asg8
(lp520
I30
aI34
aI-1
aF26.11199951171875
aF338.36798095703125
aF-1.0
aI27
aI23
aI-1
aF301.05596923828125
aF353.5359802246094
aF-1.0
asg10
(lp521
F0.002
aF0.006
aF0.01
asba(i__main__
sensor_data_struct
p522
(dp523
g3
(lp524
I581
aI319
aI193
aI1071
aI2607
aF173.0
aI963
aI431
aI261
aI1608
aI2355
aF176.0
asg5
I1
sg6
(lp525
I-1
aI-1
aI-1
aI-1
aI-1
aI-1
asg8
(lp526
I48
aI40
aI-1
aF24.447999954223633
aF336.447998046875
aF-1.0
aI31
aI29
aI-1
aF305.7919921875
aF365.5679931640625
aF-1.0
asg10
(lp527
F0.001
aF-0.006
aF0.015
asba(i__main__
sensor_data_struct
p528
(dp529
g3
(lp530
I608
aI324
aI199
aI1102
aI2577
aF168.0
aI830
aI384
aI240
aI1412
aI2422
aF160.0
asg5
I0
sg6
(lp531
I-1
aI-1
aI-1
aI-1
aI-1
aI-1
asg8
(lp532
I41
aI14
aI-1
aF26.047998428344727
aF338.0480041503906
aF-1.0
aI32
aI18
aI-1
aF305.4079895019531
aF334.97601318359375
aF-1.0
asg10
(lp533
F-0.008
aF0.0
aF0.01
asba(i__main__
sensor_data_struct
p534
(dp535
g3
(lp536
I588
aI321
aI194
aI1080
aI2599
aF173.0
aI1186
aI461
aI302
aI1872
aI2267
aF121.0
asg5
I0
sg6
(lp537
I-1
aI-1
aI-1
aI-1
aI-1
aI-1
asg8
(lp538
I28
aI19
aI-1
aF24.0
aF337.1519775390625
aF-1.0
aI29
aI24
aI-1
aF296.5119934082031
aF353.47198486328125
aF-1.0
asg10
(lp539
F-0.003
aF-0.001
aF0.006999999999999999
asba(i__main__
sensor_data_struct
p540
(dp541
g3
(lp542
I602
aI321
aI198
aI1091
aI2578
aF166.0
aI853
aI384
aI242
aI1434
aI2399
aF152.0
asg5
I0
sg6
(lp543
I-1
aI-1
aI-1
aI-1
aI-1
aI-1
asg8
(lp544
I20
aI33
aI-1
aF24.831998825073242
aF337.5359802246094
aF-1.0
aI29
aI21
aI-1
aF301.24798583984375
aF363.90399169921875
aF-1.0
asg10
(lp545
F0.004
aF-0.005
aF0.011000000000000001
asba(i__main__
sensor_data_struct
p546
(dp547
g3
(lp548
I571
aI317
aI191
aI1055
aI2611
aF175.0
aI1063
aI434
aI281
aI1713
aI2311
aF134.0
asg5
I0
sg6
(lp549
I-1
aI-1
aI-1
aI-1
aI-1
aI-1
asg8
(lp550
I39
aI13
aI-1
aF25.919998168945312
aF337.9839782714844
aF-1.0
aI30
aI23
aI-1
aF297.2799987792969
aF350.78399658203125
aF-1.0
asg10
(lp551
F-0.006999999999999999
aF0.001
aF0.008
asba(i__main__
sensor_data_struct
p552
(dp553
g3
(lp554
I580
aI318
aI194
aI1063
aI2602
aF171.0
aI818
aI373
aI236
aI1382
aI2415
aF150.0
asg5
I0
sg6
(lp555
I-1
aI-1
aI-1
aI-1
aI-1
aI-1
asg8
(lp556
I36
aI35
aI-1
aF24.256000518798828
aF336.8960266113281
aF-1.0
aI25
aI24
aI-1
aF300.7359924316406
aF357.88800048828125
aF-1.0
asg10
(lp557
F-0.003
aF-0.01
aF0.01
asba(i__main__
sensor_data_struct
p558
(dp559
g3
(lp560
I602
aI321
aI196
aI1092
aI2574
aF167.0
aI839
aI358
aI241
aI1383
aI2395
aF116.0
asg5
I0
sg6
(lp561
I-1
aI-1
aI-1
aI-1
aI-1
aI-1
asg8
(lp562
I27
aI18
aI-1
aF23.5519962310791
aF336.8960266113281
aF-1.0
aI30
aI24
aI-1
aF296.0639953613281
aF353.7279968261719
aF-1.0
asg10
(lp563
F-0.002
aF-0.001
aF0.006999999999999999
asba(i__main__
sensor_data_struct
p564
(dp565
g3
(lp566
I591
aI320
aI195
aI1079
aI2590
aF170.0
aI833
aI389
aI239
aI1422
aI2420
aF168.0
asg5
I1
sg6
(lp567
I-1
aI-1
aI-1
aI-1
aI-1
aI-1
asg8
(lp568
I40
aI44
aI-1
aF23.93600082397461
aF335.8719787597656
aF-1.0
aI33
aI30
aI-1
aF306.0480041503906
aF340.031982421875
aF-1.0
asg10
(lp569
F-0.009000000000000001
aF0.008
aF0.015
asba(i__main__
sensor_data_struct
p570
(dp571
g3
(lp572
I690
aI334
aI215
aI1201
aI2503
aF145.0
aI1012
aI426
aI272
aI1653
aI2335
aF144.0
asg5
I0
sg6
(lp573
I-1
aI-1
aI-1
aI-1
aI-1
aI-1
asg8
(lp574
I45
aI27
aI-1
aF25.66399574279785
aF336.1280212402344
aF-1.0
aI27
aI23
aI-1
aF303.93597412109375
aF358.4639892578125
aF-1.0
asg10
(lp575
F0.008
aF0.002
aF0.012
asba(i__main__
sensor_data_struct
p576
(dp577
g3
(lp578
I628
aI325
aI201
aI1125
aI2551
aF161.0
aI1038
aI397
aI280
aI1641
aI2315
aF84.0
asg5
I0
sg6
(lp579
I-1
aI-1
aI-1
aI-1
aI-1
aI-1
asg8
(lp580
I26
aI28
aI-1
aF25.7919979095459
aF337.02398681640625
aF-1.0
aI27
aI23
aI-1
aF300.031982421875
aF356.60797119140625
aF-1.0
asg10
(lp581
F0.004
aF0.003
aF0.009000000000000001
asba(i__main__
sensor_data_struct
p582
(dp583
g3
(lp584
I627
aI324
aI202
aI1121
aI2550
aF159.0
aI940
aI408
aI258
aI1556
aI2361
aF149.0
asg5
I0
sg6
(lp585
I-1
aI-1
aI-1
aI-1
aI-1
aI-1
asg8
(lp586
I34
aI29
aI-1
aF23.808000564575195
aF337.8559875488281
aF-1.0
aI27
aI23
aI-1
aF303.552001953125
aF348.2239990234375
aF-1.0
asg10
(lp587
F-0.006
aF0.006999999999999999
aF0.012
asba(i__main__
sensor_data_struct
p588
(dp589
g3
(lp590
I607
aI328
aI198
aI1109
aI2582
aF175.0
aI839
aI365
aI243
aI1400
aI2418
aF125.0
asg5
I0
sg6
(lp591
I-1
aI-1
aI-1
aI-1
aI-1
aI-1
asg8
(lp592
I32
aI39
aI-1
aF24.511999130249023
aF337.6000061035156
aF-1.0
aI28
aI26
aI-1
aF304.32000732421875
aF338.4960021972656
aF-1.0
asg10
(lp593
F-0.004
aF0.009000000000000001
aF0.013000000000000001
asba(i__main__
sensor_data_struct
p594
(dp595
g3
(lp596
I592
aI319
aI195
aI1081
aI2593
aF168.0
aI926
aI382
aI257
aI1508
aI2362
aF114.0
asg5
I0
sg6
(lp597
I-1
aI-1
aI-1
aI-1
aI-1
aI-1
asg8
(lp598
I28
aI31
aI-1
aF25.535999298095703
aF336.76800537109375
aF-1.0
aI26
aI22
aI-1
aF301.3119812011719
aF361.343994140625
aF-1.0
asg10
(lp599
F0.006
aF0.001
aF0.01
asba(i__main__
sensor_data_struct
p600
(dp601
g3
(lp602
I592
aI320
aI196
aI1081
aI2595
aF169.0
aI845
aI384
aI241
aI1429
aI2411
aF155.0
asg5
I1
sg6
(lp603
I-1
aI-1
aI-1
aI-1
aI-1
aI-1
asg8
(lp604
I35
aI41
aI-1
aF24.191999435424805
aF337.5359802246094
aF-1.0
aI30
aI28
aI-1
aF305.47198486328125
aF344.2559814453125
aF-1.0
asg10
(lp605
F-0.006
aF0.008
aF0.013999999999999999
asba.