(lp0
(i__main__
sensor_data_struct
p1
(dp2
S'color'
p3
(lp4
I571
aI305
aI194
aI1038
aI2612
aF154.0
aI904
aI399
aI251
aI1506
aI2373
aF152.0
asS'button'
p5
I0
sS'IR'
p6
(lp7
I-1
aI-1
aI-1
aI-1
aI-1
aI-1
asS'TOF'
p8
(lp9
I56
aI34
aI-1
aF21.823999404907227
aF332.09600830078125
aF-1.0
aI28
aI23
aI-1
aF304.38397216796875
aF365.05596923828125
aF-1.0
asS'pt'
p10
(lp11
F0.011000000000000001
aF-0.002
aF0.012
asba(i__main__
sensor_data_struct
p12
(dp13
g3
(lp14
I604
aI315
aI199
aI1086
aI2576
aF155.0
aI812
aI348
aI238
aI1342
aI2411
aF111.0
asg5
I0
sg6
(lp15
I-1
aI-1
aI-1
aI-1
aI-1
aI-1
asg8
(lp16
I31
aI17
aI-1
aF20.99199867248535
aF334.52801513671875
aF-1.0
aI29
aI23
aI-1
aF279.552001953125
aF343.8719787597656
aF-1.0
asg10
(lp17
F-0.003
aF0.0
aF0.001
asba(i__main__
sensor_data_struct
p18
(dp19
g3
(lp20
I648
aI325
aI208
aI1143
aI2535
aF150.0
aI1001
aI405
aI271
aI1611
aI2327
aF115.0
asg5
I0
sg6
(lp21
I-1
aI-1
aI-1
aI-1
aI-1
aI-1
asg8
(lp22
I40
aI13
aI-1
aF25.088001251220703
aF332.031982421875
aF-1.0
aI29
aI25
aI-1
aF283.64801025390625
aF344.8960266113281
aF-1.0
asg10
(lp23
F-0.006
aF-0.001
aF0.003
asba(i__main__
sensor_data_struct
p24
(dp25
g3
(lp26
I542
aI308
aI187
aI1013
aI2649
aF173.0
aI669
aI347
aI209
aI1196
aI2525
aF177.0
asg5
I1
sg6
(lp27
I-1
aI-1
aI-1
aI-1
aI-1
aI-1
asg8
(lp28
I56
aI47
aI-1
aF22.6560001373291
aF335.0399475097656
aF-1.0
aI38
aI35
aI-1
aF321.5359802246094
aF383.42401123046875
aF-1.0
asg10
(lp29
F0.009000000000000001
aF-0.008
aF0.013000000000000001
asba(i__main__
sensor_data_struct
p30
(dp31
g3
(lp32
I568
aI316
aI191
aI1051
aI2617
aF174.0
aI1042
aI446
aI277
aI1707
aI2323
aF162.0
asg5
I0
sg6
(lp33
I-1
aI-1
aI-1
aI-1
aI-1
aI-1
asg8
(lp34
I33
aI26
aI-1
aF24.128000259399414
aF336.76800537109375
aF-1.0
aI29
aI23
aI-1
aF303.87200927734375
aF364.6719970703125
aF-1.0
asg10
(lp35
F0.0
aF-0.004
aF0.012
asba(i__main__
sensor_data_struct
p36
(dp37
g3
(lp38
I639
aI326
aI206
aI1136
aI2548
aF156.0
aI974
aI406
aI265
aI1585
aI2339
aF130.0
asg5
I0
sg6
(lp39
I-1
aI-1
aI-1
aI-1
aI-1
aI-1
asg8
(lp40
I36
aI12
aI-1
aF25.21599769592285
aF336.57598876953125
aF-1.0
aI29
aI24
aI-1
aF296.38397216796875
aF351.8719787597656
aF-1.0
asg10
(lp41
F-0.006
aF-0.001
aF0.006999999999999999
asba(i__main__
sensor_data_struct
p42
(dp43
g3
(lp44
I610
aI319
aI199
aI1097
aI2569
aF159.0
aI861
aI372
aI244
aI1423
aI2382
aF129.0
asg5
I0
sg6
(lp45
I-1
aI-1
aI-1
aI-1
aI-1
aI-1
asg8
(lp46
I19
aI35
aI-1
aF22.399999618530273
aF338.0480041503906
aF-1.0
aI28
aI24
aI-1
aF290.6239929199219
aF351.8079833984375
aF-1.0
asg10
(lp47
F0.003
aF-0.006
aF0.004
asba(i__main__
sensor_data_struct
p48
(dp49
g3
(lp50
I561
aI312
aI189
aI1036
aI2614
aF171.0
aI1086
aI451
aI285
aI1757
aI2305
aF150.0
asg5
I0
sg6
(lp51
I-1
aI-1
aI-1
aI-1
aI-1
aI-1
asg8
(lp52
I52
aI22
aI-1
aF24.38399887084961
aF336.57598876953125
aF-1.0
aI30
aI24
aI-1
aF301.1839904785156
aF355.00799560546875
aF-1.0
asg10
(lp53
F-0.008
aF-0.005
aF0.01
asba(i__main__
sensor_data_struct
p54
(dp55
g3
(lp56
I606
aI317
aI197
aI1091
aI2568
aF159.0
aI1287
aI471
aI321
aI1986
aI2235
aF90.0
asg5
I0
sg6
(lp57
I-1
aI-1
aI-1
aI-1
aI-1
aI-1
asg8
(lp58
I26
aI26
aI-1
aF19.90399932861328
aF335.48797607421875
aF-1.0
aI29
aI24
aI-1
aF284.99200439453125
aF348.5440368652344
aF-1.0
asg10
(lp59
F0.003
aF0.001
aF0.003
asba(i__main__
sensor_data_struct
p60
(dp61
g3
(lp62
I641
aI326
aI204
aI1139
aI2537
aF157.0
aI985
aI429
aI266
aI1629
aI2347
aF162.0
asg5
I1
sg6
(lp63
I-1
aI-1
aI-1
aI-1
aI-1
aI-1
asg8
(lp64
I28
aI26
aI-1
aF24.447999954223633
aF336.32000732421875
aF-1.0
aI29
aI27
aI-1
aF304.83197021484375
aF354.6879577636719
aF-1.0
asg10
(lp65
F0.002
aF0.002
aF0.013000000000000001
asba(i__main__
sensor_data_struct
p66
(dp67
g3
(lp68
I557
aI311
aI189
aI1032
aI2628
aF171.0
aI737
aI371
aI220
aI1296
aI2469
aF185.0
asg5
I1
sg6
(lp69
I-1
aI-1
aI-1
aI-1
aI-1
aI-1
asg8
(lp70
I57
aI46
aI-1
aF22.976001739501953
aF335.2959899902344
aF-1.0
aI34
aI36
aI-1
aF322.1759948730469
aF379.3280029296875
aF-1.0
asg10
(lp71
F0.006
aF-0.009000000000000001
aF0.015
asba(i__main__
sensor_data_struct
p72
(dp73
g3
(lp74
I564
aI314
aI189
aI1043
aI2612
aF174.0
aI941
aI423
aI259
aI1576
aI2370
aF172.0
asg5
I1
sg6
(lp75
I-1
aI-1
aI-1
aI-1
aI-1
aI-1
asg8
(lp76
I35
aI46
aI-1
aF23.295997619628906
aF336.8319396972656
aF-1.0
aI31
aI29
aI-1
aF305.8559875488281
aF340.15997314453125
aF-1.0
asg10
(lp77
F-0.006
aF0.008
aF0.015
asba(i__main__
sensor_data_struct
p78
(dp79
g3
(lp80
I710
aI334
aI219
aI1219
aI2481
aF136.0
aI1071
aI424
aI280
aI1708
aI2297
aF116.0
asg5
I0
sg6
(lp81
I-1
aI-1
aI-1
aI-1
aI-1
aI-1
asg8
(lp82
I21
aI29
aI-1
aF23.871999740600586
aF337.40802001953125
aF-1.0
aI28
aI24
aI-1
aF295.93597412109375
aF357.69598388671875
aF-1.0
asg10
(lp83
F0.005
aF-0.002
aF0.006
asba(i__main__
sensor_data_struct
p84
(dp85
g3
(lp86
I607
aI319
aI198
aI1096
aI2573
aF161.0
aI1297
aI475
aI325
aI2003
aI2238
aF90.0
asg5
I0
sg6
(lp87
I-1
aI-1
aI-1
aI-1
aI-1
aI-1
asg8
(lp88
I31
aI20
aI-1
aF20.799999237060547
aF327.3599853515625
aF-1.0
aI30
aI24
aI-1
aF280.2560119628906
aF345.21600341796875
aF-1.0
asg10
(lp89
F-0.004
aF0.004
aF0.002
asba(i__main__
sensor_data_struct
p90
(dp91
g3
(lp92
I634
aI322
aI203
aI1127
aI2543
aF153.0
aI1597
aI478
aI394
aI2322
aI2193
aF65484.0
asg5
I0
sg6
(lp93
I-1
aI-1
aI-1
aI-1
aI-1
aI-1
asg8
(lp94
I34
aI32
aI-1
aF24.831998825073242
aF335.48797607421875
aF-1.0
aI30
aI22
aI-1
aF291.9679870605469
aF349.44000244140625
aF-1.0
asg10
(lp95
F0.005
aF0.004
aF0.004
asba(i__main__
sensor_data_struct
p96
(dp97
g3
(lp98
I826
aI351
aI241
aI1364
aI2411
aF109.0
aI1161
aI440
aI300
aI1826
aI2282
aF97.0
asg5
I0
sg6
(lp99
I-1
aI-1
aI-1
aI-1
aI-1
aI-1
asg8
(lp100
I38
aI32
aI-1
aF25.855998992919922
aF336.0
aF-1.0
aI29
aI22
aI-1
aF300.6719970703125
aF356.2239990234375
aF-1.0
asg10
(lp101
F0.009000000000000001
aF0.005
aF0.009000000000000001
asba(i__main__
sensor_data_struct
p102
(dp103
g3
(lp104
I568
aI316
aI190
aI1050
aI2610
aF175.0
aI1043
aI454
aI278
aI1719
aI2329
aF174.0
asg5
I1
sg6
(lp105
I-1
aI-1
aI-1
aI-1
aI-1
aI-1
asg8
(lp106
I33
aI32
aI-1
aF24.831998825073242
aF337.6000061035156
aF-1.0
aI31
aI27
aI-1
aF305.0879821777344
aF352.0639953613281
aF-1.0
asg10
(lp107
F-0.004
aF0.004
aF0.013999999999999999
asba(i__main__
sensor_data_struct
p108
(dp109
g3
(lp110
I585
aI321
aI195
aI1073
aI2598
aF174.0
aI827
aI376
aI238
aI1396
aI2413
aF150.0
asg5
I0
sg6
(lp111
I-1
aI-1
aI-1
aI-1
aI-1
aI-1
asg8
(lp112
I33
aI34
aI-1
aF24.703998565673828
aF337.0879821777344
aF-1.0
aI29
aI25
aI-1
aF300.4800109863281
aF362.6239929199219
aF-1.0
asg10
(lp113
F-0.003
aF-0.01
aF0.01
asba(i__main__
sensor_data_struct
p114
(dp115
g3
(lp116
I669
aI333
aI210
aI1179
aI2522
aF154.0
aI972
aI417
aI264
aI1605
aI2355
aF149.0
asg5
I1
sg6
(lp117
I-1
aI-1
aI-1
aI-1
aI-1
aI-1
asg8
(lp118
I37
aI43
aI-1
aF25.152000427246094
aF337.40802001953125
aF-1.0
aI29
aI30
aI-1
aF305.4079895019531
aF347.96795654296875
aF-1.0
asg10
(lp119
F0.0
aF0.008
aF0.013999999999999999
asba(i__main__
sensor_data_struct
p120
(dp121
g3
(lp122
I633
aI329
aI204
aI1136
aI2556
aF164.0
aI908
aI390
aI254
aI1498
aI2372
aF134.0
asg5
I0
sg6
(lp123
I-1
aI-1
aI-1
aI-1
aI-1
aI-1
asg8
(lp124
I39
aI14
aI-1
aF25.472000122070312
aF336.7040100097656
aF-1.0
aI30
aI24
aI-1
aF297.0879821777344
aF348.9280090332031
aF-1.0
asg10
(lp125
F-0.006999999999999999
aF0.003
aF0.006999999999999999
asba(i__main__
sensor_data_struct
p126
(dp127
g3
(lp128
I592
aI320
aI197
aI1078
aI2592
aF168.0
aI892
aI403
aI248
aI1499
aI2380
aF164.0
asg5
I1
sg6
(lp129
I-1
aI-1
aI-1
aI-1
aI-1
aI-1
asg8
(lp130
I53
aI36
aI-1
aF24.191999435424805
aF336.38397216796875
aF-1.0
aI29
aI25
aI-1
aF304.76800537109375
aF364.4159851074219
aF-1.0
asg10
(lp131
F-0.003
aF-0.005
aF0.013000000000000001
asba(i__main__
sensor_data_struct
p132
(dp133
g3
(lp134
I617
aI331
aI200
aI1121
aI2570
aF175.0
aI957
aI428
aI260
aI1596
aI2354
aF174.0
asg5
I1
sg6
(lp135
I-1
aI-1
aI-1
aI-1
aI-1
aI-1
asg8
(lp136
I55
aI41
aI-1
aF24.128000259399414
aF335.7439880371094
aF-1.0
aI29
aI29
aI-1
aF305.2799987792969
aF366.59197998046875
aF-1.0
asg10
(lp137
F-0.006
aF-0.009000000000000001
aF0.013999999999999999
asba(i__main__
sensor_data_struct
p138
(dp139
g3
(lp140
I640
aI325
aI203
aI1135
aI2532
aF156.0
aI966
aI383
aI265
aI1546
aI2335
aF96.0
asg5
I0
sg6
(lp141
I-1
aI-1
aI-1
aI-1
aI-1
aI-1
asg8
(lp142
I27
aI19
aI-1
aF21.503999710083008
aF335.93597412109375
aF-1.0
aI27
aI24
aI-1
aF286.52801513671875
aF349.6319885253906
aF-1.0
asg10
(lp143
F-0.002
aF0.0
aF0.004
asba(i__main__
sensor_data_struct
p144
(dp145
g3
(lp146
I562
aI312
aI189
aI1038
aI2617
aF171.0
aI721
aI359
aI218
aI1265
aI2482
aF172.0
asg5
I1
sg6
(lp147
I-1
aI-1
aI-1
aI-1
aI-1
aI-1
asg8
(lp148
I52
aI38
aI-1
aF23.93600082397461
aF335.67999267578125
aF-1.0
aI40
aI35
aI-1
aF321.0879821777344
aF377.7919921875
aF-1.0
asg10
(lp149
F0.003
aF-0.008
aF0.013999999999999999
asba(i__main__
sensor_data_struct
p150
(dp151
g3
(lp152
I591
aI322
aI194
aI1084
aI2593
aF174.0
aI1091
aI441
aI284
aI1751
aI2297
aF133.0
asg5
I0
sg6
(lp153
I-1
aI-1
aI-1
aI-1
aI-1
aI-1
asg8
(lp154
I23
aI29
aI-1
aF24.831998825073242
aF336.8319396972656
aF-1.0
aI28
aI22
aI-1
aF299.3280029296875
aF361.7279968261719
aF-1.0
asg10
(lp155
F0.003
aF-0.002
aF0.009000000000000001
asba(i__main__
sensor_data_struct
p156
(dp157
g3
(lp158
I577
aI317
aI191
aI1062
aI2602
aF173.0
aI974
aI436
aI264
aI1623
aI2350
aF178.0
asg5
I1
sg6
(lp159
I-1
aI-1
aI-1
aI-1
aI-1
aI-1
asg8
(lp160
I43
aI35
aI-1
aF24.38399887084961
aF336.1919860839844
aF-1.0
aI32
aI30
aI-1
aF305.7919921875
aF354.55999755859375
aF-1.0
asg10
(lp161
F-0.006
aF0.0
aF0.015
asba(i__main__
sensor_data_struct
p162
(dp163
g3
(lp164
I587
aI318
aI195
aI1070
aI2589
aF168.0
aI885
aI404
aI246
aI1491
aI2379
aF170.0
asg5
I1
sg6
(lp165
I-1
aI-1
aI-1
aI-1
aI-1
aI-1
asg8
(lp166
I56
aI43
aI-1
aF24.0
aF335.552001953125
aF-1.0
aI30
aI27
aI-1
aF305.1520080566406
aF364.5440368652344
aF-1.0
asg10
(lp167
F-0.006
aF-0.008
aF0.013999999999999999
asba(i__main__
sensor_data_struct
p168
(dp169
g3
(lp170
I583
aI317
aI193
aI1067
aI2594
aF169.0
aI1215
aI458
aI305
aI1896
aI2247
aF105.0
asg5
I0
sg6
(lp171
I-1
aI-1
aI-1
aI-1
aI-1
aI-1
asg8
(lp172
I20
aI31
aI-1
aF22.27199935913086
aF338.0480041503906
aF-1.0
aI31
aI23
aI-1
aF289.7279968261719
aF352.2559814453125
aF-1.0
asg10
(lp173
F0.001
aF-0.006
aF0.004
asba(i__main__
sensor_data_struct
p174
(dp175
g3
(lp176
I574
aI314
aI191
aI1054
aI2604
aF169.0
aI806
aI372
aI233
aI1371
aI2423
aF154.0
asg5
I1
sg6
(lp177
I-1
aI-1
aI-1
aI-1
aI-1
aI-1
asg8
(lp178
I52
aI33
aI-1
aF24.639999389648438
aF335.2959899902344
aF-1.0
aI29
aI31
aI-1
aF305.7919921875
aF365.9519958496094
aF-1.0
asg10
(lp179
F0.008
aF-0.001
aF0.015
asba(i__main__
sensor_data_struct
p180
(dp181
g3
(lp182
I600
aI320
aI197
aI1087
aI2576
aF166.0
aI901
aI432
aI250
aI1545
aI2388
aF206.0
asg5
I1
sg6
(lp183
I-1
aI-1
aI-1
aI-1
aI-1
aI-1
asg8
(lp184
I50
aI38
aI-1
aF24.31999969482422
aF336.0639953613281
aF-1.0
aI37
aI34
aI-1
aF322.68798828125
aF381.3119812011719
aF-1.0
asg10
(lp185
F-0.009000000000000001
aF0.001
aF0.013999999999999999
asba(i__main__
sensor_data_struct
p186
(dp187
g3
(lp188
I617
aI325
aI199
aI1113
aI2559
aF167.0
aI947
aI398
aI260
aI1554
aI2362
aF130.0
asg5
I1
sg6
(lp189
I-1
aI-1
aI-1
aI-1
aI-1
aI-1
asg8
(lp190
I35
aI44
aI-1
aF25.088001251220703
aF337.343994140625
aF-1.0
aI30
aI27
aI-1
aF304.38397216796875
aF342.7200012207031
aF-1.0
asg10
(lp191
F-0.001
aF0.008
aF0.013000000000000001
asba(i__main__
sensor_data_struct
p192
(dp193
g3
(lp194
I574
aI319
aI192
aI1061
aI2611
aF176.0
aI1012
aI425
aI271
aI1648
aI2326
aF143.0
asg5
I0
sg6
(lp195
I-1
aI-1
aI-1
aI-1
aI-1
aI-1
asg8
(lp196
I41
aI25
aI-1
aF24.511999130249023
aF337.02398681640625
aF-1.0
aI30
aI23
aI-1
aF300.09600830078125
aF362.8799743652344
aF-1.0
asg10
(lp197
F-0.005
aF-0.006999999999999999
aF0.009000000000000001
asba(i__main__
sensor_data_struct
p198
(dp199
g3
(lp200
I599
aI320
aI196
aI1089
aI2580
aF167.0
aI1517
aI472
aI380
aI2240
aI2219
aF65511.0
asg5
I0
sg6
(lp201
I-1
aI-1
aI-1
aI-1
aI-1
aI-1
asg8
(lp202
I37
aI35
aI-1
aF27.071998596191406
aF337.6000061035156
aF-1.0
aI31
aI23
aI-1
aF298.68798828125
aF350.4639892578125
aF-1.0
asg10
(lp203
F0.004
aF0.005
aF0.008
asba(i__main__
sensor_data_struct
p204
(dp205
g3
(lp206
I593
aI322
aI196
aI1087
aI2597
aF172.0
aI2108
aI638
aI493
aI3129
aI2203
aF65498.0
asg5
I1
sg6
(lp207
I-1
aI-1
aI-1
aI-1
aI-1
aI-1
asg8
(lp208
I48
aI44
aI-1
aF25.7919979095459
aF337.9200134277344
aF-1.0
aI40
aI38
aI-1
aF316.79998779296875
aF379.26397705078125
aF-1.0
asg10
(lp209
F0.006
aF0.009000000000000001
aF0.011000000000000001
asba(i__main__
sensor_data_struct
p210
(dp211
g3
(lp212
I602
aI326
aI198
aI1103
aI2596
aF174.0
aI1040
aI443
aI277
aI1705
aI2331
aF158.0
asg5
I1
sg6
(lp213
I-1
aI-1
aI-1
aI-1
aI-1
aI-1
asg8
(lp214
I34
aI38
aI-1
aF25.600000381469727
aF338.17596435546875
aF-1.0
aI28
aI23
aI-1
aF304.57598876953125
aF347.7760009765625
aF-1.0
asg10
(lp215
F0.0
aF0.006999999999999999
aF0.013000000000000001
asba(i__main__
sensor_data_struct
p216
(dp217
g3
(lp218
I596
aI320
aI197
aI1087
aI2593
aF167.0
aI897
aI384
aI252
aI1481
aI2379
aF130.0
asg5
I0
sg6
(lp219
I-1
aI-1
aI-1
aI-1
aI-1
aI-1
asg8
(lp220
I31
aI32
aI-1
aF25.3439998626709
aF336.6400146484375
aF-1.0
aI29
aI25
aI-1
aF303.1679992675781
aF364.4159851074219
aF-1.0
asg10
(lp221
F0.008
aF0.0
aF0.011000000000000001
asba(i__main__
sensor_data_struct
p222
(dp223
g3
(lp224
I570
aI316
aI191
aI1053
aI2613
aF173.0
aI1018
aI450
aI273
aI1689
aI2339
aF179.0
asg5
I1
sg6
(lp225
I-1
aI-1
aI-1
aI-1
aI-1
aI-1
asg8
(lp226
I31
aI35
aI-1
aF24.959999084472656
aF337.27996826171875
aF-1.0
aI32
aI32
aI-1
aF306.0480041503906
aF351.7439880371094
aF-1.0
asg10
(lp227
F-0.002
aF0.005
aF0.015
asba(i__main__
sensor_data_struct
p228
(dp229
g3
(lp230
I578
aI317
aI194
aI1062
aI2611
aF170.0
aI822
aI380
aI236
aI1396
aI2413
aF160.0
asg5
I0
sg6
(lp231
I-1
aI-1
aI-1
aI-1
aI-1
aI-1
asg8
(lp232
I50
aI41
aI-1
aF24.191999435424805
aF336.32000732421875
aF-1.0
aI26
aI23
aI-1
aF303.67999267578125
aF365.05596923828125
aF-1.0
asg10
(lp233
F-0.001
aF-0.009000000000000001
aF0.012
asba(i__main__
sensor_data_struct
p234
(dp235
g3
(lp236
I573
aI319
aI192
aI1060
aI2613
aF176.0
aI687
aI358
aI213
aI1229
aI2517
aF186.0
asg5
I1
sg6
(lp237
I-1
aI-1
aI-1
aI-1
aI-1
aI-1
asg8
(lp238
I58
aI45
aI-1
aF24.38399887084961
aF335.0399475097656
aF-1.0
aI35
aI34
aI-1
aF322.30401611328125
aF382.4639892578125
aF-1.0
asg10
(lp239
F-0.011000000000000001
aF-0.008
aF0.015
asba(i__main__
sensor_data_struct
p240
(dp241
g3
(lp242
I582
aI321
aI193
aI1073
aI2605
aF176.0
aI1233
aI457
aI313
aI1917
aI2255
aF91.0
asg5
I0
sg6
(lp243
I-1
aI-1
aI-1
aI-1
aI-1
aI-1
asg8
(lp244
I30
aI28
aI-1
aF22.527999877929688
aF338.4960021972656
aF-1.0
aI28
aI23
aI-1
aF294.9119873046875
aF351.42401123046875
aF-1.0
asg10
(lp245
F0.0
aF0.004
aF0.006
asba(i__main__
sensor_data_struct
p246
(dp247
g3
(lp248
I574
aI315
aI191
aI1056
aI2604
aF171.0
aI1185
aI456
aI301
aI1864
aI2262
aF114.0
asg5
I0
sg6
(lp249
I-1
aI-1
aI-1
aI-1
aI-1
aI-1
asg8
(lp250
I24
aI28
aI-1
aF22.847999572753906
aF337.40802001953125
aF-1.0
aI27
aI23
aI-1
aF294.0159912109375
aF356.60797119140625
aF-1.0
asg10
(lp251
F-0.002
aF-0.005
aF0.006
asba(i__main__
sensor_data_struct
p252
(dp253
g3
(lp254
I678
aI331
aI211
aI1185
aI2509
aF147.0
aI1089
aI414
aI288
aI1718
aI2302
aF89.0
asg5
I0
sg6
(lp255
I-1
aI-1
aI-1
aI-1
aI-1
aI-1
asg8
(lp256
I33
aI25
aI-1
aF22.27199935913086
aF337.27996826171875
aF-1.0
aI28
aI23
aI-1
aF297.6000061035156
aF349.82403564453125
aF-1.0
asg10
(lp257
F-0.002
aF0.005
aF0.006999999999999999
asba(i__main__
sensor_data_struct
p258
(dp259
g3
(lp260
I651
aI332
aI205
aI1159
aI2533
aF162.0
aI1001
aI428
aI269
aI1643
aI2337
aF153.0
asg5
I1
sg6
(lp261
I-1
aI-1
aI-1
aI-1
aI-1
aI-1
asg8
(lp262
I36
aI28
aI-1
aF24.511999130249023
aF338.0480041503906
aF-1.0
aI27
aI24
aI-1
aF303.23199462890625
aF349.9519958496094
aF-1.0
asg10
(lp263
F-0.005
aF0.004
aF0.012
asba(i__main__
sensor_data_struct
p264
(dp265
g3
(lp266
I871
aI363
aI250
aI1424
aI2387
aF107.0
aI1272
aI448
aI321
aI1946
aI2243
aF59.0
asg5
I0
sg6
(lp267
I-1
aI-1
aI-1
aI-1
aI-1
aI-1
asg8
(lp268
I31
aI23
aI-1
aF19.583999633789062
aF327.10400390625
aF-1.0
aI30
aI26
aI-1
aF281.1520080566406
aF344.76800537109375
aF-1.0
asg10
(lp269
F-0.001
aF0.005
aF0.002
asba(i__main__
sensor_data_struct
p270
(dp271
g3
(lp272
I885
aI366
aI253
aI1090
aI1649
aF105.0
aI1206
aI450
aI308
aI1879
aI2261
aF93.0
asg5
I0
sg6
(lp273
I-1
aI-1
aI-1
aI-1
aI-1
aI-1
asg8
(lp274
I35
aI23
aI-1
aF21.247997283935547
aF331.90399169921875
aF-1.0
aI29
aI24
aI-1
aF289.5359802246094
aF345.8559875488281
aF-1.0
asg10
(lp275
F-0.003
aF0.006999999999999999
aF0.005
asba(i__main__
sensor_data_struct
p276
(dp277
g3
(lp278
I586
aI319
aI194
aI1075
aI2599
aF171.0
aI1057
aI451
aI281
aI1730
aI2324
aF163.0
asg5
I1
sg6
(lp279
I-1
aI-1
aI-1
aI-1
aI-1
aI-1
asg8
(lp280
I35
aI35
aI-1
aF25.21599769592285
aF336.9599914550781
aF-1.0
aI30
aI25
aI-1
aF304.1919860839844
aF350.0159912109375
aF-1.0
asg10
(lp281
F0.003
aF0.006999999999999999
aF0.013000000000000001
asba(i__main__
sensor_data_struct
p282
(dp283
g3
(lp284
I720
aI340
aI221
aI1240
aI2485
aF141.0
aI1125
aI413
aI296
aI1750
aI2284
aF69.0
asg5
I0
sg6
(lp285
I-1
aI-1
aI-1
aI-1
aI-1
aI-1
asg8
(lp286
I24
aI28
aI-1
aF19.45599937438965
aF336.1919860839844
aF-1.0
aI29
aI24
aI-1
aF285.69598388671875
aF347.90399169921875
aF-1.0
asg10
(lp287
F0.006
aF0.001
aF0.002
asba(i__main__
sensor_data_struct
p288
(dp289
g3
(lp290
I728
aI343
aI223
aI1257
aI2491
aF141.0
aI1254
aI478
aI320
aI1992
aI2293
aF113.0
asg5
I1
sg6
(lp291
I-1
aI-1
aI-1
aI-1
aI-1
aI-1
asg8
(lp292
I47
aI46
aI-1
aF25.472000122070312
aF337.27996826171875
aF-1.0
aI36
aI34
aI-1
aF319.67999267578125
aF379.00799560546875
aF-1.0
asg10
(lp293
F0.005
aF0.01
aF0.013999999999999999
asba(i__main__
sensor_data_struct
p294
(dp295
g3
(lp296
I621
aI325
aI201
aI1118
aI2564
aF164.0
aI836
aI362
aI242
aI1387
aI2407
aF122.0
asg5
I0
sg6
(lp297
I-1
aI-1
aI-1
aI-1
aI-1
aI-1
asg8
(lp298
I36
aI15
aI-1
aF25.408000946044922
aF331.5199890136719
aF-1.0
aI29
aI23
aI-1
aF283.5199890136719
aF345.8559875488281
aF-1.0
asg10
(lp299
F-0.005
aF0.001
aF0.003
asba(i__main__
sensor_data_struct
p300
(dp301
g3
(lp302
I614
aI326
aI202
aI1110
aI2576
aF167.0
aI859
aI412
aI244
aI1478
aI2414
aF192.0
asg5
I1
sg6
(lp303
I-1
aI-1
aI-1
aI-1
aI-1
aI-1
asg8
(lp304
I55
aI10
aI-1
aF26.751998901367188
aF338.239990234375
aF-1.0
aI37
aI13
aI-1
aF323.3919982910156
aF374.52801513671875
aF-1.0
asg10
(lp305
F-0.01
aF0.0
aF0.009000000000000001
asba(i__main__
sensor_data_struct
p306
(dp307
g3
(lp308
I581
aI321
aI194
aI1073
aI2614
aF176.0
aI983
aI412
aI271
aI1623
aI2381
aF132.0
asg5
I1
sg6
(lp309
I-1
aI-1
aI-1
aI-1
aI-1
aI-1
asg8
(lp310
I51
aI47
aI-1
aF25.983999252319336
aF335.61602783203125
aF-1.0
aI36
aI36
aI-1
aF320.9599914550781
aF380.15997314453125
aF-1.0
asg10
(lp311
F0.003
aF0.013000000000000001
aF0.015
asba(i__main__
sensor_data_struct
p312
(dp313
g3
(lp314
I617
aI327
aI201
aI1116
aI2572
aF168.0
aI847
aI391
aI241
aI1439
aI2409
aF165.0
asg5
I1
sg6
(lp315
I-1
aI-1
aI-1
aI-1
aI-1
aI-1
asg8
(lp316
I38
aI34
aI-1
aF25.7919979095459
aF337.7279968261719
aF-1.0
aI32
aI27
aI-1
aF305.91998291015625
aF352.1919860839844
aF-1.0
asg10
(lp317
F-0.005
aF0.003
aF0.015
asba(i__main__
sensor_data_struct
p318
(dp319
g3
(lp320
I588
aI322
aI195
aI1080
aI2601
aF174.0
aI1094
aI455
aI287
aI1771
aI2305
aF152.0
asg5
I0
sg6
(lp321
I-1
aI-1
aI-1
aI-1
aI-1
aI-1
asg8
(lp322
I49
aI24
aI-1
aF25.855998992919922
aF337.21600341796875
aF-1.0
aI29
aI24
aI-1
aF303.03997802734375
aF353.9200134277344
aF-1.0
asg10
(lp323
F-0.008
aF-0.004
aF0.011000000000000001
asba(i__main__
sensor_data_struct
p324
(dp325
g3
(lp326
I672
aI332
aI213
aI1175
aI2514
aF149.0
aI1097
aI427
aI286
aI1737
aI2288
aF108.0
asg5
I0
sg6
(lp327
I-1
aI-1
aI-1
aI-1
aI-1
aI-1
asg8
(lp328
I28
aI21
aI-1
aF23.359996795654297
aF337.1519775390625
aF-1.0
aI28
aI24
aI-1
aF286.9119873046875
aF352.57598876953125
aF-1.0
asg10
(lp329
F-0.003
aF-0.004
aF0.004
asba(i__main__
sensor_data_struct
p330
(dp331
g3
(lp332
I580
aI319
aI193
aI1067
aI2605
aF173.0
aI1111
aI449
aI290
aI1782
aI2296
aF135.0
asg5
I0
sg6
(lp333
I-1
aI-1
aI-1
aI-1
aI-1
aI-1
asg8
(lp334
I35
aI15
aI-1
aF25.21599769592285
aF338.239990234375
aF-1.0
aI27
aI23
aI-1
aF298.55999755859375
aF349.82403564453125
aF-1.0
asg10
(lp335
F-0.006999999999999999
aF0.003
aF0.008
asba(i__main__
sensor_data_struct
p336
(dp337
g3
(lp338
I620
aI325
aI202
aI1114
aI2564
aF163.0
aI921
aI396
aI255
aI1518
aI2362
aF139.0
asg5
I0
sg6
(lp339
I-1
aI-1
aI-1
aI-1
aI-1
aI-1
asg8
(lp340
I28
aI23
aI-1
aF24.511999130249023
aF337.1519775390625
aF-1.0
aI28
aI22
aI-1
aF301.05596923828125
aF356.4159851074219
aF-1.0
asg10
(lp341
F-0.001
aF-0.002
aF0.01
asba(i__main__
sensor_data_struct
p342
(dp343
g3
(lp344
I562
aI316
aI190
aI1045
aI2628
aF177.0
aI982
aI465
aI266
aI1669
aI2359
aF220.0
asg5
I1
sg6
(lp345
I-1
aI-1
aI-1
aI-1
aI-1
aI-1
asg8
(lp346
I54
aI45
aI-1
aF23.359996795654297
aF335.0399475097656
aF-1.0
aI39
aI35
aI-1
aF321.343994140625
aF383.67999267578125
aF-1.0
asg10
(lp347
F0.006999999999999999
aF-0.009000000000000001
aF0.013999999999999999
asba(i__main__
sensor_data_struct
p348
(dp349
g3
(lp350
I634
aI327
aI203
aI1135
aI2552
aF161.0
aI1078
aI395
aI289
aI1677
aI2299
aF61.0
asg5
I0
sg6
(lp351
I-1
aI-1
aI-1
aI-1
aI-1
aI-1
asg8
(lp352
I23
aI28
aI-1
aF24.128000259399414
aF337.1519775390625
aF-1.0
aI30
aI23
aI-1
aF293.7599792480469
aF355.3919982910156
aF-1.0
asg10
(lp353
F0.006999999999999999
aF0.001
aF0.005
asba(i__main__
sensor_data_struct
p354
(dp355
g3
(lp356
I986
aI379
aI272
aI1569
aI2343
aF79.0
aI1436
aI476
aI355
aI2156
aI2218
aF25.0
asg5
I0
sg6
(lp357
I-1
aI-1
aI-1
aI-1
aI-1
aI-1
asg8
(lp358
I38
aI35
aI-1
aF26.17599868774414
aF337.6000061035156
aF-1.0
aI30
aI24
aI-1
aF297.2799987792969
aF352.0
aF-1.0
asg10
(lp359
F0.006999999999999999
aF0.005
aF0.006999999999999999
asba(i__main__
sensor_data_struct
p360
(dp361
g3
(lp362
I564
aI314
aI190
aI1044
aI2619
aF173.0
aI953
aI429
aI260
aI1593
aI2358
aF177.0
asg5
I1
sg6
(lp363
I-1
aI-1
aI-1
aI-1
aI-1
aI-1
asg8
(lp364
I55
aI44
aI-1
aF23.743999481201172
aF335.61602783203125
aF-1.0
aI31
aI30
aI-1
aF305.7279968261719
aF366.9119873046875
aF-1.0
asg10
(lp365
F-0.003
aF-0.009000000000000001
aF0.015
asba(i__main__
sensor_data_struct
p366
(dp367
g3
(lp368
I578
aI319
aI192
aI1065
aI2602
aF175.0
aI991
aI435
aI266
aI1640
aI2338
aF170.0
asg5
I1
sg6
(lp369
I-1
aI-1
aI-1
aI-1
aI-1
aI-1
asg8
(lp370
I51
aI43
aI-1
aF24.576000213623047
aF336.0
aF-1.0
aI31
aI25
aI-1
aF304.6399841308594
aF362.239990234375
aF-1.0
asg10
(lp371
F-0.009000000000000001
aF-0.006999999999999999
aF0.013000000000000001
asba(i__main__
sensor_data_struct
p372
(dp373
g3
(lp374
I556
aI312
aI187
aI1032
aI2621
aF175.0
aI1023
aI444
aI273
aI1685
aI2332
aF168.0
asg5
I1
sg6
(lp375
I-1
aI-1
aI-1
aI-1
aI-1
aI-1
asg8
(lp376
I46
aI33
aI-1
aF24.447999954223633
aF335.552001953125
aF-1.0
aI30
aI25
aI-1
aF304.6399841308594
aF365.9519958496094
aF-1.0
asg10
(lp377
F0.01
aF-0.001
aF0.013000000000000001
asba(i__main__
sensor_data_struct
p378
(dp379
g3
(lp380
I695
aI333
aI214
aI1206
aI2494
aF143.0
aI1133
aI428
aI295
aI1782
aI2287
aF91.0
asg5
I0
sg6
(lp381
I-1
aI-1
aI-1
aI-1
aI-1
aI-1
asg8
(lp382
I34
aI34
aI-1
aF24.8960018157959
aF337.27996826171875
aF-1.0
aI27
aI22
aI-1
aF300.2879943847656
aF352.38397216796875
aF-1.0
asg10
(lp383
F0.001
aF0.006999999999999999
aF0.01
asba(i__main__
sensor_data_struct
p384
(dp385
g3
(lp386
I581
aI317
aI193
aI1067
aI2602
aF170.0
aI1178
aI463
aI301
aI2349
aI2364
aF128.0
asg5
I0
sg6
(lp387
I-1
aI-1
aI-1
aI-1
aI-1
aI-1
asg8
(lp388
I44
aI37
aI-1
aF25.855998992919922
aF337.1519775390625
aF-1.0
aI29
aI21
aI-1
aF298.8800048828125
aF351.2959899902344
aF-1.0
asg10
(lp389
F0.006999999999999999
aF0.006
aF0.008
asba(i__main__
sensor_data_struct
p390
(dp391
g3
(lp392
I650
aI325
aI205
aI1145
aI2522
aF151.0
aI1003
aI382
aI272
aI1580
aI2314
aF78.0
asg5
I0
sg6
(lp393
I-1
aI-1
aI-1
aI-1
aI-1
aI-1
asg8
(lp394
I28
aI23
aI-1
aF18.815998077392578
aF334.6559753417969
aF-1.0
aI29
aI24
aI-1
aF280.32000732421875
aF345.7919921875
aF-1.0
asg10
(lp395
F0.0
aF0.001
aF0.002
asba(i__main__
sensor_data_struct
p396
(dp397
g3
(lp398
I607
aI322
aI198
aI1101
aI2577
aF166.0
aI1006
aI442
aI271
aI1667
aI2343
aF172.0
asg5
I1
sg6
(lp399
I-1
aI-1
aI-1
aI-1
aI-1
aI-1
asg8
(lp400
I39
aI36
aI-1
aF25.088001251220703
aF336.447998046875
aF-1.0
aI32
aI29
aI-1
aF305.5359802246094
aF352.1919860839844
aF-1.0
asg10
(lp401
F0.004
aF0.006
aF0.015
asba(i__main__
sensor_data_struct
p402
(dp403
g3
(lp404
I608
aI324
aI198
aI1105
aI2580
aF169.0
aI993
aI401
aI270
aI1610
aI2349
aF112.0
asg5
I1
sg6
(lp405
I-1
aI-1
aI-1
aI-1
aI-1
aI-1
asg8
(lp406
I36
aI46
aI-1
aF24.959999084472656
aF336.38397216796875
aF-1.0
aI30
aI27
aI-1
aF304.447998046875
aF331.3919982910156
aF-1.0
asg10
(lp407
F-0.001
aF0.011000000000000001
aF0.013000000000000001
asba(i__main__
sensor_data_struct
p408
(dp409
g3
(lp410
I573
aI317
aI191
aI1057
aI2606
aF174.0
aI654
aI332
aI207
aI1160
aI2531
aF160.0
asg5
I1
sg6
(lp411
I-1
aI-1
aI-1
aI-1
aI-1
aI-1
asg8
(lp412
I57
aI29
aI-1
aF24.76799964904785
aF336.6400146484375
aF-1.0
aI39
aI32
aI-1
aF322.0480041503906
aF368.76800537109375
aF-1.0
asg10
(lp413
F-0.009000000000000001
aF-0.002
aF0.012
asba(i__main__
sensor_data_struct
p414
(dp415
g3
(lp416
I569
aI315
aI191
aI1052
aI2620
aF172.0
aI1116
aI449
aI289
aI1786
aI2288
aF134.0
asg5
I0
sg6
(lp417
I-1
aI-1
aI-1
aI-1
aI-1
aI-1
asg8
(lp418
I19
aI34
aI-1
aF24.191999435424805
aF337.8559875488281
aF-1.0
aI30
aI23
aI-1
aF296.83197021484375
aF358.78399658203125
aF-1.0
asg10
(lp419
F0.003
aF-0.006
aF0.008
asba(i__main__
sensor_data_struct
p420
(dp421
g3
(lp422
I609
aI320
aI199
aI1097
aI2571
aF161.0
aI899
aI409
aI249
aI1513
aI2377
aF171.0
asg5
I1
sg6
(lp423
I-1
aI-1
aI-1
aI-1
aI-1
aI-1
asg8
(lp424
I53
aI33
aI-1
aF24.38399887084961
aF335.552001953125
aF-1.0
aI32
aI34
aI-1
aF305.9839782714844
aF367.0399475097656
aF-1.0
asg10
(lp425
F0.01
aF-0.001
aF0.015
asba(i__main__
sensor_data_struct
p426
(dp427
g3
(lp428
I611
aI320
aI199
aI1097
aI2562
aF161.0
aI906
aI380
aI252
aI1479
aI2359
aF121.0
asg5
I0
sg6
(lp429
I-1
aI-1
aI-1
aI-1
aI-1
aI-1
asg8
(lp430
I26
aI22
aI-1
aF23.1039981842041
aF336.8319396972656
aF-1.0
aI29
aI24
aI-1
aF290.68798828125
aF355.0719909667969
aF-1.0
asg10
(lp431
F-0.004
aF-0.006
aF0.005
asba(i__main__
sensor_data_struct
p432
(dp433
g3
(lp434
I620
aI323
aI200
aI1113
aI2556
aF162.0
aI896
aI388
aI250
aI1484
aI2375
aF138.0
asg5
I1
sg6
(lp435
I-1
aI-1
aI-1
aI-1
aI-1
aI-1
asg8
(lp436
I30
aI30
aI-1
aF24.511999130249023
aF337.7279968261719
aF-1.0
aI29
aI22
aI-1
aF304.0
aF351.552001953125
aF-1.0
asg10
(lp437
F-0.002
aF0.004
aF0.013000000000000001
asba(i__main__
sensor_data_struct
p438
(dp439
g3
(lp440
I589
aI319
aI194
aI1076
aI2588
aF170.0
aI1252
aI464
aI314
aI1942
aI2242
aF96.0
asg5
I0
sg6
(lp441
I-1
aI-1
aI-1
aI-1
aI-1
aI-1
asg8
(lp442
I27
aI22
aI-1
aF21.887998580932617
aF336.1280212402344
aF-1.0
aI29
aI23
aI-1
aF285.88800048828125
aF349.5679931640625
aF-1.0
asg10
(lp443
F-0.002
aF-0.002
aF0.004
asba(i__main__
sensor_data_struct
p444
(dp445
g3
(lp446
I987
aI377
aI272
aI1559
aI2330
aF75.0
aI1253
aI453
aI316
aI1930
aI2243
aF76.0
asg5
I0
sg6
(lp447
I-1
aI-1
aI-1
aI-1
aI-1
aI-1
asg8
(lp448
I28
aI21
aI-1
aF18.04800033569336
aF326.4639892578125
aF-1.0
aI30
aI24
aI-1
aF275.20001220703125
aF342.3360290527344
aF-1.0
asg10
(lp449
F-0.001
aF0.002
aF0.0
asba(i__main__
sensor_data_struct
p450
(dp451
g3
(lp452
I799
aI347
aI234
aI1328
aI2416
aF117.0
aI1209
aI423
aI313
aI1847
aI2258
aF46.0
asg5
I0
sg6
(lp453
I-1
aI-1
aI-1
aI-1
aI-1
aI-1
asg8
(lp454
I26
aI26
aI-1
aF10.432001113891602
aF332.8639831542969
aF-1.0
aI30
aI24
aI-1
aF280.0639953613281
aF342.0799865722656
aF-1.0
asg10
(lp455
F0.004
aF0.001
aF0.0
asba(i__main__
sensor_data_struct
p456
(dp457
g3
(lp458
I611
aI322
aI198
aI1103
aI2565
aF164.0
aI1015
aI446
aI271
aI1679
aI2334
aF176.0
asg5
I1
sg6
(lp459
I-1
aI-1
aI-1
aI-1
aI-1
aI-1
asg8
(lp460
I33
aI28
aI-1
aF24.639999389648438
aF336.2559814453125
aF-1.0
aI33
aI30
aI-1
aF305.2799987792969
aF359.3599853515625
aF-1.0
asg10
(lp461
F0.002
aF-0.001
aF0.015
asba(i__main__
sensor_data_struct
p462
(dp463
g3
(lp464
I601
aI325
aI196
aI1097
aI2581
aF174.0
aI1093
aI437
aI285
aI1745
aI2291
aF126.0
asg5
I0
sg6
(lp465
I-1
aI-1
aI-1
aI-1
aI-1
aI-1
asg8
(lp466
I28
aI20
aI-1
aF24.31999969482422
aF336.5119934082031
aF-1.0
aI29
aI20
aI-1
aF297.66400146484375
aF355.90399169921875
aF-1.0
asg10
(lp467
F-0.003
aF-0.003
aF0.008
asba(i__main__
sensor_data_struct
p468
(dp469
g3
(lp470
I605
aI327
aI198
aI1105
aI2586
aF174.0
aI946
aI420
aI257
aI1575
aI2353
aF167.0
asg5
I1
sg6
(lp471
I-1
aI-1
aI-1
aI-1
aI-1
aI-1
asg8
(lp472
I43
aI39
aI-1
aF25.023998260498047
aF336.38397216796875
aF-1.0
aI28
aI25
aI-1
aF303.93597412109375
aF365.44000244140625
aF-1.0
asg10
(lp473
F-0.005
aF-0.01
aF0.013000000000000001
asba(i__main__
sensor_data_struct
p474
(dp475
g3
(lp476
I590
aI322
aI194
aI1082
aI2590
aF174.0
aI745
aI364
aI223
aI1297
aI2469
aF169.0
asg5
I1
sg6
(lp477
I-1
aI-1
aI-1
aI-1
aI-1
aI-1
asg8
(lp478
I45
aI17
aI-1
aF26.047998428344727
aF336.447998046875
aF-1.0
aI39
aI26
aI-1
aF322.81597900390625
aF378.239990234375
aF-1.0
asg10
(lp479
F-0.01
aF0.002
aF0.01
asba(i__main__
sensor_data_struct
p480
(dp481
g3
(lp482
I609
aI322
aI199
aI1100
aI2571
aF164.0
aI873
aI391
aI245
aI1463
aI2386
aF154.0
asg5
I0
sg6
(lp483
I-1
aI-1
aI-1
aI-1
aI-1
aI-1
asg8
(lp484
I30
aI30
aI-1
aF25.408000946044922
aF337.0879821777344
aF-1.0
aI28
aI25
aI-1
aF304.0639953613281
aF365.44000244140625
aF-1.0
asg10
(lp485
F0.005
aF-0.003
aF0.013000000000000001
asba(i__main__
sensor_data_struct
p486
(dp487
g3
(lp488
I590
aI322
aI196
aI1084
aI2603
aF173.0
aI1059
aI417
aI282
aI1709
aI2340
aF107.0
asg5
I1
sg6
(lp489
I-1
aI-1
aI-1
aI-1
aI-1
aI-1
asg8
(lp490
I55
aI48
aI-1
aF25.152000427246094
aF336.1280212402344
aF-1.0
aI38
aI37
aI-1
aF319.6159973144531
aF380.8639831542969
aF-1.0
asg10
(lp491
F0.005
aF0.012
aF0.015
asba(i__main__
sensor_data_struct
p492
(dp493
g3
(lp494
I585
aI323
aI194
aI1080
aI2605
aF177.0
aI1095
aI459
aI288
aI1779
aI2311
aF158.0
asg5
I0
sg6
(lp495
I-1
aI-1
aI-1
aI-1
aI-1
aI-1
asg8
(lp496
I32
aI37
aI-1
aF24.447999954223633
aF337.6639709472656
aF-1.0
aI27
aI23
aI-1
aF303.23199462890625
aF334.59197998046875
aF-1.0
asg10
(lp497
F-0.004
aF0.011000000000000001
aF0.012
asba(i__main__
sensor_data_struct
p498
(dp499
g3
(lp500
I614
aI325
aI200
aI1112
aI2576
aF167.0
aI854
aI371
aI245
aI1417
aI2398
aF128.0
asg5
I0
sg6
(lp501
I-1
aI-1
aI-1
aI-1
aI-1
aI-1
asg8
(lp502
I42
aI12
aI-1
aF26.687999725341797
aF332.60797119140625
aF-1.0
aI30
aI25
aI-1
aF285.9519958496094
aF345.21600341796875
aF-1.0
asg10
(lp503
F-0.006999999999999999
aF0.001
aF0.004
asba(i__main__
sensor_data_struct
p504
(dp505
g3
(lp506
I605
aI321
aI199
aI1091
aI2570
aF164.0
aI957
aI403
aI260
aI1563
aI2342
aF135.0
asg5
I0
sg6
(lp507
I-1
aI-1
aI-1
aI-1
aI-1
aI-1
asg8
(lp508
I36
aI22
aI-1
aF24.128000259399414
aF336.9599914550781
aF-1.0
aI30
aI23
aI-1
aF298.239990234375
aF361.0879821777344
aF-1.0
asg10
(lp509
F-0.005
aF-0.008
aF0.008
asba(i__main__
sensor_data_struct
p510
(dp511
g3
(lp512
I566
aI316
aI190
aI1048
aI2615
aF175.0
aI967
aI430
aI265
aI1614
aI2364
aF170.0
asg5
I1
sg6
(lp513
I-1
aI-1
aI-1
aI-1
aI-1
aI-1
asg8
(lp514
I34
aI47
aI-1
aF23.743999481201172
aF336.2559814453125
aF-1.0
aI32
aI33
aI-1
aF305.7919921875
aF336.5119934082031
aF-1.0
asg10
(lp515
F-0.005
aF0.012
aF0.015
asba(i__main__
sensor_data_struct
p516
(dp517
g3
(lp518
I658
aI333
aI210
aI1166
aI2538
aF158.0
aI990
aI414
aI268
aI1614
aI2338
aF135.0
asg5
I0
sg6
(lp519
I-1
aI-1
aI-1
aI-1
aI-1
aI-1
asg8
(lp520
I32
aI18
aI-1
aF24.38399887084961
aF338.6879577636719
aF-1.0
aI27
aI25
aI-1
aF299.9679870605469
aF351.61602783203125
aF-1.0
asg10
(lp521
F-0.005
aF0.004
aF0.01
asba(i__main__
sensor_data_struct
p522
(dp523
g3
(lp524
I586
aI323
aI195
aI1078
aI2601
aF176.0
aI804
aI399
aI234
aI1406
aI2448
aF197.0
asg5
I1
sg6
(lp525
I-1
aI-1
aI-1
aI-1
aI-1
aI-1
asg8
(lp526
I52
aI44
aI-1
aF25.023998260498047
aF335.23199462890625
aF-1.0
aI37
aI38
aI-1
aF322.81597900390625
aF381.5679931640625
aF-1.0
asg10
(lp527
F-0.011000000000000001
aF0.006999999999999999
aF0.013999999999999999
asba(i__main__
sensor_data_struct
p528
(dp529
g3
(lp530
I564
aI318
aI191
aI1050
aI2631
aF179.0
aI963
aI462
aI263
aI1647
aI2372
aF224.0
asg5
I1
sg6
(lp531
I-1
aI-1
aI-1
aI-1
aI-1
aI-1
asg8
(lp532
I55
aI47
aI-1
aF23.808000564575195
aF335.8079833984375
aF-1.0
aI38
aI37
aI-1
aF322.9440002441406
aF382.52801513671875
aF-1.0
asg10
(lp533
F0.006999999999999999
aF-0.011000000000000001
aF0.015
asba(i__main__
sensor_data_struct
p534
(dp535
g3
(lp536
I663
aI333
aI211
aI1167
aI2522
aF155.0
aI1050
aI416
aI278
aI1675
aI2306
aF112.0
asg5
I0
sg6
(lp537
I-1
aI-1
aI-1
aI-1
aI-1
aI-1
asg8
(lp538
I22
aI28
aI-1
aF22.719999313354492
aF338.6239929199219
aF-1.0
aI30
aI24
aI-1
aF286.4639892578125
aF351.3599853515625
aF-1.0
asg10
(lp539
F-0.001
aF-0.006999999999999999
aF0.004
asba(i__main__
sensor_data_struct
p540
(dp541
g3
(lp542
I639
aI326
aI205
aI1135
aI2542
aF157.0
aI942
aI411
aI256
aI1562
aI2356
aF155.0
asg5
I1
sg6
(lp543
I-1
aI-1
aI-1
aI-1
aI-1
aI-1
asg8
(lp544
I52
aI32
aI-1
aF25.408000946044922
aF335.7439880371094
aF-1.0
aI32
aI26
aI-1
aF304.83197021484375
aF362.81597900390625
aF-1.0
asg10
(lp545
F0.008
aF0.001
aF0.013999999999999999
asba(i__main__
sensor_data_struct
p546
(dp547
g3
(lp548
I579
aI321
aI193
aI1069
aI2607
aF177.0
aI901
aI411
aI250
aI1516
aI2376
aF173.0
asg5
I1
sg6
(lp549
I-1
aI-1
aI-1
aI-1
aI-1
aI-1
asg8
(lp550
I53
aI43
aI-1
aF24.38399887084961
aF336.0
aF-1.0
aI32
aI29
aI-1
aF305.0879821777344
aF366.3360290527344
aF-1.0
asg10
(lp551
F-0.008
aF-0.01
aF0.013999999999999999
asba(i__main__
sensor_data_struct
p552
(dp553
g3
(lp554
I618
aI327
aI201
aI1114
aI2561
aF168.0
aI894
aI392
aI250
aI1484
aI2374
aF145.0
asg5
I0
sg6
(lp555
I-1
aI-1
aI-1
aI-1
aI-1
aI-1
asg8
(lp556
I39
aI19
aI-1
aF26.047998428344727
aF337.9839782714844
aF-1.0
aI30
aI23
aI-1
aF300.15997314453125
aF357.75994873046875
aF-1.0
asg10
(lp557
F-0.006
aF-0.006
aF0.008
asba(i__main__
sensor_data_struct
p558
(dp559
g3
(lp560
I570
aI315
aI191
aI1052
aI2613
aF172.0
aI776
aI374
aI229
aI1342
aI2451
aF170.0
asg5
I1
sg6
(lp561
I-1
aI-1
aI-1
aI-1
aI-1
aI-1
asg8
(lp562
I41
aI37
aI-1
aF25.023998260498047
aF337.27996826171875
aF-1.0
aI30
aI36
aI-1
aF318.2720031738281
aF384.76800537109375
aF-1.0
asg10
(lp563
F0.01
aF-0.004
aF0.01
asba(i__main__
sensor_data_struct
p564
(dp565
g3
(lp566
I577
aI321
aI192
aI1067
aI2609
aF178.0
aI959
aI429
aI261
aI1601
aI2356
aF174.0
asg5
I1
sg6
(lp567
I-1
aI-1
aI-1
aI-1
aI-1
aI-1
asg8
(lp568
I34
aI34
aI-1
aF25.280000686645508
aF337.7279968261719
aF-1.0
aI30
aI28
aI-1
aF305.8559875488281
aF353.5359802246094
aF-1.0
asg10
(lp569
F-0.005
aF0.002
aF0.015
asba(i__main__
sensor_data_struct
p570
(dp571
g3
(lp572
I569
aI318
aI192
aI1055
aI2622
aF176.0
aI680
aI350
aI212
aI1210
aI2515
aF176.0
asg5
I1
sg6
(lp573
I-1
aI-1
aI-1
aI-1
aI-1
aI-1
asg8
(lp574
I56
aI45
aI-1
aF24.76799964904785
aF336.447998046875
aF-1.0
aI38
aI37
aI-1
aF321.7919921875
aF376.2559814453125
aF-1.0
asg10
(lp575
F0.002
aF-0.011000000000000001
aF0.013000000000000001
asba(i__main__
sensor_data_struct
p576
(dp577
g3
(lp578
I685
aI337
aI214
aI1197
aI2506
aF152.0
aI1003
aI418
aI269
aI1633
aI2332
aF137.0
asg5
I0
sg6
(lp579
I-1
aI-1
aI-1
aI-1
aI-1
aI-1
asg8
(lp580
I24
aI32
aI-1
aF25.66399574279785
aF337.47198486328125
aF-1.0
aI27
aI21
aI-1
aF300.031982421875
aF363.135986328125
aF-1.0
asg10
(lp581
F0.006
aF-0.003
aF0.009000000000000001
asba(i__main__
sensor_data_struct
p582
(dp583
g3
(lp584
I573
aI317
aI191
aI1057
aI2606
aF174.0
aI1026
aI435
aI274
aI1677
aI2327
aF152.0
asg5
I0
sg6
(lp585
I-1
aI-1
aI-1
aI-1
aI-1
aI-1
asg8
(lp586
I37
aI18
aI-1
aF25.023998260498047
aF338.36798095703125
aF-1.0
aI31
aI23
aI-1
aF301.3760070800781
aF352.447998046875
aF-1.0
asg10
(lp587
F-0.006
aF0.001
aF0.011000000000000001
asba(i__main__
sensor_data_struct
p588
(dp589
g3
(lp590
I599
aI322
aI196
aI1091
aI2580
aF170.0
aI1252
aI459
aI316
aI1936
aI2246
aF86.0
asg5
I0
sg6
(lp591
I-1
aI-1
aI-1
aI-1
aI-1
aI-1
asg8
(lp592
I27
aI24
aI-1
aF18.04800033569336
aF335.2959899902344
aF-1.0
aI30
aI23
aI-1
aF280.57598876953125
aF344.0
aF-1.0
asg10
(lp593
F0.001
aF-0.001
aF0.001
asba(i__main__
sensor_data_struct
p594
(dp595
g3
(lp596
I611
aI323
aI198
aI1104
aI2565
aF166.0
aI1266
aI463
aI317
aI1955
aI2239
aF87.0
asg5
I0
sg6
(lp597
I-1
aI-1
aI-1
aI-1
aI-1
aI-1
asg8
(lp598
I25
aI25
aI-1
aF17.023998260498047
aF336.1280212402344
aF-1.0
aI25
aI23
aI-1
aF281.21600341796875
aF344.1280212402344
aF-1.0
asg10
(lp599
F0.002
aF-0.002
aF0.001
asba(i__main__
sensor_data_struct
p600
(dp601
g3
(lp602
I578
aI319
aI192
aI1064
aI2602
aF175.0
aI1042
aI445
aI278
aI1705
aI2324
aF160.0
asg5
I0
sg6
(lp603
I-1
aI-1
aI-1
aI-1
aI-1
aI-1
asg8
(lp604
I35
aI26
aI-1
aF24.831998825073242
aF338.0480041503906
aF-1.0
aI28
aI23
aI-1
aF303.42401123046875
aF351.42401123046875
aF-1.0
asg10
(lp605
F-0.006
aF0.002
aF0.012
asba.