(lp0
(i__main__
sensor_data_struct
p1
(dp2
S'color'
p3
(lp4
I-1
aI-1
aI-1
aI-1
aI-1
aF-1.0
aI-1
aI-1
aI-1
aI-1
aI-1
aF-1.0
asS'button'
p5
I1
sS'IR'
p6
(lp7
I0
aI0
aI0
aI0
aI0
aI0
asS'TOF'
p8
(lp9
I-1
aI-1
aI-1
aF-1.0
aF-1.0
aF-1.0
aI-1
aI-1
aI-1
aF-1.0
aF-1.0
aF-1.0
asS'pt'
p10
(lp11
F-0.006
aF-0.004
aF0.011000000000000001
asba(i__main__
sensor_data_struct
p12
(dp13
g3
(lp14
I-1
aI-1
aI-1
aI-1
aI-1
aF-1.0
aI-1
aI-1
aI-1
aI-1
aI-1
aF-1.0
asg5
I1
sg6
(lp15
I0
aI0
aI0
aI0
aI0
aI0
asg8
(lp16
I-1
aI-1
aI-1
aF-1.0
aF-1.0
aF-1.0
aI-1
aI-1
aI-1
aF-1.0
aF-1.0
aF-1.0
asg10
(lp17
F-0.006
aF0.001
aF0.015
asba(i__main__
sensor_data_struct
p18
(dp19
g3
(lp20
I-1
aI-1
aI-1
aI-1
aI-1
aF-1.0
aI-1
aI-1
aI-1
aI-1
aI-1
aF-1.0
asg5
I1
sg6
(lp21
I0
aI0
aI0
aI0
aI0
aI0
asg8
(lp22
I-1
aI-1
aI-1
aF-1.0
aF-1.0
aF-1.0
aI-1
aI-1
aI-1
aF-1.0
aF-1.0
aF-1.0
asg10
(lp23
F0.006999999999999999
aF0.0
aF0.013000000000000001
asba(i__main__
sensor_data_struct
p24
(dp25
g3
(lp26
I-1
aI-1
aI-1
aI-1
aI-1
aF-1.0
aI-1
aI-1
aI-1
aI-1
aI-1
aF-1.0
asg5
I1
sg6
(lp27
I0
aI0
aI0
aI0
aI0
aI0
asg8
(lp28
I-1
aI-1
aI-1
aF-1.0
aF-1.0
aF-1.0
aI-1
aI-1
aI-1
aF-1.0
aF-1.0
aF-1.0
asg10
(lp29
F-0.002
aF0.003
aF0.002
asba.