(lp0
(i__main__
sensor_data_struct
p1
(dp2
S'color'
p3
(lp4
I506
aI360
aI235
aI1038
aI3027
aF231.0
aI-1
aI-1
aI-1
aI-1
aI-1
aF-1.0
asS'button'
p5
S'plant'
p6
sS'IR'
p7
(lp8
I13
aI-1
aI-1
aI-1
aI-1
aI-1
asS'TOF'
p9
(lp10
I27
aI-1
aI-1
aF-1.0
aF-1.0
aF-1.0
aI-1
aI-1
aI-1
aF-1.0
aF-1.0
aF-1.0
asS'pt'
p11
(lp12
I-1
aI-1
aI-1
asba(i__main__
sensor_data_struct
p13
(dp14
g3
(lp15
I482
aI358
aI236
aI1024
aI3145
aF235.0
aI-1
aI-1
aI-1
aI-1
aI-1
aF-1.0
asg5
g6
sg7
(lp16
I24
aI-1
aI-1
aI-1
aI-1
aI-1
asg9
(lp17
I22
aI-1
aI-1
aF-1.0
aF-1.0
aF-1.0
aI-1
aI-1
aI-1
aF-1.0
aF-1.0
aF-1.0
asg11
g12
sba(i__main__
sensor_data_struct
p18
(dp19
g3
(lp20
I593
aI535
aI356
aI1451
aI3636
aF391.0
aI-1
aI-1
aI-1
aI-1
aI-1
aF-1.0
asg5
g6
sg7
(lp21
I12
aI-1
aI-1
aI-1
aI-1
aI-1
asg9
(lp22
I18
aI-1
aI-1
aF-1.0
aF-1.0
aF-1.0
aI-1
aI-1
aI-1
aF-1.0
aF-1.0
aF-1.0
asg11
g12
sba(i__main__
sensor_data_struct
p23
(dp24
g3
(lp25
I813
aI916
aI652
aI2347
aI4430
aF704.0
aI-1
aI-1
aI-1
aI-1
aI-1
aF-1.0
asg5
g6
sg7
(lp26
I24
aI-1
aI-1
aI-1
aI-1
aI-1
asg9
(lp27
I13
aI-1
aI-1
aF-1.0
aF-1.0
aF-1.0
aI-1
aI-1
aI-1
aF-1.0
aF-1.0
aF-1.0
asg11
g12
sba(i__main__
sensor_data_struct
p28
(dp29
g3
(lp30
I459
aI401
aI271
aI1094
aI3576
aF285.0
aI-1
aI-1
aI-1
aI-1
aI-1
aF-1.0
asg5
g6
sg7
(lp31
I11
aI-1
aI-1
aI-1
aI-1
aI-1
asg9
(lp32
I28
aI-1
aI-1
aF-1.0
aF-1.0
aF-1.0
aI-1
aI-1
aI-1
aF-1.0
aF-1.0
aF-1.0
asg11
g12
sba(i__main__
sensor_data_struct
p33
(dp34
g3
(lp35
I532
aI388
aI257
aI1111
aI3101
aF251.0
aI-1
aI-1
aI-1
aI-1
aI-1
aF-1.0
asg5
g6
sg7
(lp36
I26
aI-1
aI-1
aI-1
aI-1
aI-1
asg9
(lp37
I27
aI-1
aI-1
aF-1.0
aF-1.0
aF-1.0
aI-1
aI-1
aI-1
aF-1.0
aF-1.0
aF-1.0
asg11
g12
sba(i__main__
sensor_data_struct
p38
(dp39
g3
(lp40
I536
aI383
aI255
aI1107
aI3072
aF243.0
aI-1
aI-1
aI-1
aI-1
aI-1
aF-1.0
asg5
g6
sg7
(lp41
I28
aI-1
aI-1
aI-1
aI-1
aI-1
asg9
(lp42
I24
aI-1
aI-1
aF-1.0
aF-1.0
aF-1.0
aI-1
aI-1
aI-1
aF-1.0
aF-1.0
aF-1.0
asg11
g12
sba(i__main__
sensor_data_struct
p43
(dp44
g3
(lp45
I793
aI913
aI656
aI2298
aI4515
aF703.0
aI-1
aI-1
aI-1
aI-1
aI-1
aF-1.0
asg5
g6
sg7
(lp46
I14
aI-1
aI-1
aI-1
aI-1
aI-1
asg9
(lp47
I26
aI-1
aI-1
aF-1.0
aF-1.0
aF-1.0
aI-1
aI-1
aI-1
aF-1.0
aF-1.0
aF-1.0
asg11
g12
sba(i__main__
sensor_data_struct
p48
(dp49
g3
(lp50
I1157
aI1243
aI872
aI3273
aI4262
aF948.0
aI-1
aI-1
aI-1
aI-1
aI-1
aF-1.0
asg5
g6
sg7
(lp51
I3
aI-1
aI-1
aI-1
aI-1
aI-1
asg9
(lp52
I24
aI-1
aI-1
aF-1.0
aF-1.0
aF-1.0
aI-1
aI-1
aI-1
aF-1.0
aF-1.0
aF-1.0
asg11
g12
sba(i__main__
sensor_data_struct
p53
(dp54
g3
(lp55
I826
aI861
aI584
aI2243
aI4065
aF663.0
aI-1
aI-1
aI-1
aI-1
aI-1
aF-1.0
asg5
g6
sg7
(lp56
I45
aI-1
aI-1
aI-1
aI-1
aI-1
asg9
(lp57
I6
aI-1
aI-1
aF-1.0
aF-1.0
aF-1.0
aI-1
aI-1
aI-1
aF-1.0
aF-1.0
aF-1.0
asg11
g12
sba(i__main__
sensor_data_struct
p58
(dp59
g3
(lp60
I2088
aI2274
aI1658
aI5884
aI4389
aF1697.0
aI-1
aI-1
aI-1
aI-1
aI-1
aF-1.0
asg5
g6
sg7
(lp61
I5
aI-1
aI-1
aI-1
aI-1
aI-1
asg9
(lp62
I56
aI-1
aI-1
aF-1.0
aF-1.0
aF-1.0
aI-1
aI-1
aI-1
aF-1.0
aF-1.0
aF-1.0
asg11
g12
sba(i__main__
sensor_data_struct
p63
(dp64
g3
(lp65
I646
aI620
aI433
aI1606
aI3848
aF451.0
aI-1
aI-1
aI-1
aI-1
aI-1
aF-1.0
asg5
g6
sg7
(lp66
I96
aI-1
aI-1
aI-1
aI-1
aI-1
asg9
(lp67
I7
aI-1
aI-1
aF-1.0
aF-1.0
aF-1.0
aI-1
aI-1
aI-1
aF-1.0
aF-1.0
aF-1.0
asg11
g12
sba(i__main__
sensor_data_struct
p68
(dp69
g3
(lp70
I1324
aI1519
aI1079
aI3896
aI4488
aF1177.0
aI-1
aI-1
aI-1
aI-1
aI-1
aF-1.0
asg5
g6
sg7
(lp71
I49
aI-1
aI-1
aI-1
aI-1
aI-1
asg9
(lp72
I8
aI-1
aI-1
aF-1.0
aF-1.0
aF-1.0
aI-1
aI-1
aI-1
aF-1.0
aF-1.0
aF-1.0
asg11
g12
sba(i__main__
sensor_data_struct
p73
(dp74
g3
(lp75
I787
aI780
aI540
aI2065
aI3972
aF580.0
aI-1
aI-1
aI-1
aI-1
aI-1
aF-1.0
asg5
g6
sg7
(lp76
I52
aI-1
aI-1
aI-1
aI-1
aI-1
asg9
(lp77
I6
aI-1
aI-1
aF-1.0
aF-1.0
aF-1.0
aI-1
aI-1
aI-1
aF-1.0
aF-1.0
aF-1.0
asg11
g12
sba(i__main__
sensor_data_struct
p78
(dp79
g3
(lp80
I549
aI551
aI379
aI1458
aI3999
aF414.0
aI-1
aI-1
aI-1
aI-1
aI-1
aF-1.0
asg5
g6
sg7
(lp81
I73
aI-1
aI-1
aI-1
aI-1
aI-1
asg9
(lp82
I8
aI-1
aI-1
aF-1.0
aF-1.0
aF-1.0
aI-1
aI-1
aI-1
aF-1.0
aF-1.0
aF-1.0
asg11
g12
sba(i__main__
sensor_data_struct
p83
(dp84
g3
(lp85
I621
aI544
aI364
aI1491
aI3574
aF390.0
aI-1
aI-1
aI-1
aI-1
aI-1
aF-1.0
asg5
g6
sg7
(lp86
I10
aI-1
aI-1
aI-1
aI-1
aI-1
asg9
(lp87
I29
aI-1
aI-1
aF-1.0
aF-1.0
aF-1.0
aI-1
aI-1
aI-1
aF-1.0
aF-1.0
aF-1.0
asg11
g12
sba(i__main__
sensor_data_struct
p88
(dp89
g3
(lp90
I450
aI368
aI249
aI1020
aI3407
aF252.0
aI-1
aI-1
aI-1
aI-1
aI-1
aF-1.0
asg5
g6
sg7
(lp91
I8
aI-1
aI-1
aI-1
aI-1
aI-1
asg9
(lp92
I8
aI-1
aI-1
aF-1.0
aF-1.0
aF-1.0
aI-1
aI-1
aI-1
aF-1.0
aF-1.0
aF-1.0
asg11
g12
sba(i__main__
sensor_data_struct
p93
(dp94
g3
(lp95
I415
aI388
aI261
aI1040
aI3745
aF286.0
aI-1
aI-1
aI-1
aI-1
aI-1
aF-1.0
asg5
g6
sg7
(lp96
I30
aI-1
aI-1
aI-1
aI-1
aI-1
asg9
(lp97
I27
aI-1
aI-1
aF-1.0
aF-1.0
aF-1.0
aI-1
aI-1
aI-1
aF-1.0
aF-1.0
aF-1.0
asg11
g12
sba(i__main__
sensor_data_struct
p98
(dp99
g3
(lp100
I528
aI383
aI255
aI1095
aI3091
aF246.0
aI-1
aI-1
aI-1
aI-1
aI-1
aF-1.0
asg5
g6
sg7
(lp101
I24
aI-1
aI-1
aI-1
aI-1
aI-1
asg9
(lp102
I26
aI-1
aI-1
aF-1.0
aF-1.0
aF-1.0
aI-1
aI-1
aI-1
aF-1.0
aF-1.0
aF-1.0
asg11
g12
sba(i__main__
sensor_data_struct
p103
(dp104
g3
(lp105
I517
aI419
aI285
aI1173
aI3408
aF284.0
aI-1
aI-1
aI-1
aI-1
aI-1
aF-1.0
asg5
g6
sg7
(lp106
I19
aI-1
aI-1
aI-1
aI-1
aI-1
asg9
(lp107
I23
aI-1
aI-1
aF-1.0
aF-1.0
aF-1.0
aI-1
aI-1
aI-1
aF-1.0
aF-1.0
aF-1.0
asg11
g12
sba(i__main__
sensor_data_struct
p108
(dp109
g3
(lp110
I492
aI355
aI229
aI1037
aI3082
aF232.0
aI-1
aI-1
aI-1
aI-1
aI-1
aF-1.0
asg5
g6
sg7
(lp111
I52
aI-1
aI-1
aI-1
aI-1
aI-1
asg9
(lp112
I18
aI-1
aI-1
aF-1.0
aF-1.0
aF-1.0
aI-1
aI-1
aI-1
aF-1.0
aF-1.0
aF-1.0
asg11
g12
sba(i__main__
sensor_data_struct
p113
(dp114
g3
(lp115
I485
aI333
aI219
aI963
aI2938
aF207.0
aI-1
aI-1
aI-1
aI-1
aI-1
aF-1.0
asg5
g6
sg7
(lp116
I48
aI-1
aI-1
aI-1
aI-1
aI-1
asg9
(lp117
I32
aI-1
aI-1
aF-1.0
aF-1.0
aF-1.0
aI-1
aI-1
aI-1
aF-1.0
aF-1.0
aF-1.0
asg11
g12
sba(i__main__
sensor_data_struct
p118
(dp119
g3
(lp120
I522
aI492
aI340
aI1319
aI3827
aF358.0
aI-1
aI-1
aI-1
aI-1
aI-1
aF-1.0
asg5
g6
sg7
(lp121
I6
aI-1
aI-1
aI-1
aI-1
aI-1
asg9
(lp122
I60
aI-1
aI-1
aF-1.0
aF-1.0
aF-1.0
aI-1
aI-1
aI-1
aF-1.0
aF-1.0
aF-1.0
asg11
g12
sba(i__main__
sensor_data_struct
p123
(dp124
g3
(lp125
I1055
aI1076
aI752
aI2853
aI4090
aF805.0
aI-1
aI-1
aI-1
aI-1
aI-1
aF-1.0
asg5
g6
sg7
(lp126
I15
aI-1
aI-1
aI-1
aI-1
aI-1
asg9
(lp127
I34
aI-1
aI-1
aF-1.0
aF-1.0
aF-1.0
aI-1
aI-1
aI-1
aF-1.0
aF-1.0
aF-1.0
asg11
g12
sba(i__main__
sensor_data_struct
p128
(dp129
g3
(lp130
I2387
aI2673
aI1872
aI6787
aI4353
aF2073.0
aI-1
aI-1
aI-1
aI-1
aI-1
aF-1.0
asg5
g6
sg7
(lp131
I47
aI-1
aI-1
aI-1
aI-1
aI-1
asg9
(lp132
I6
aI-1
aI-1
aF-1.0
aF-1.0
aF-1.0
aI-1
aI-1
aI-1
aF-1.0
aF-1.0
aF-1.0
asg11
g12
sba(i__main__
sensor_data_struct
p133
(dp134
g3
(lp135
I680
aI686
aI467
aI1789
aI3967
aF520.0
aI-1
aI-1
aI-1
aI-1
aI-1
aF-1.0
asg5
g6
sg7
(lp136
I72
aI-1
aI-1
aI-1
aI-1
aI-1
asg9
(lp137
I13
aI-1
aI-1
aF-1.0
aF-1.0
aF-1.0
aI-1
aI-1
aI-1
aF-1.0
aF-1.0
aF-1.0
asg11
g12
sba(i__main__
sensor_data_struct
p138
(dp139
g3
(lp140
I2851
aI3142
aI2291
aI8078
aI4424
aF2356.0
aI-1
aI-1
aI-1
aI-1
aI-1
aF-1.0
asg5
g6
sg7
(lp141
I11
aI-1
aI-1
aI-1
aI-1
aI-1
asg9
(lp142
I10
aI-1
aI-1
aF-1.0
aF-1.0
aF-1.0
aI-1
aI-1
aI-1
aF-1.0
aF-1.0
aF-1.0
asg11
g12
sba(i__main__
sensor_data_struct
p143
(dp144
g3
(lp145
I912
aI941
aI668
aI2534
aI4181
aF700.0
aI-1
aI-1
aI-1
aI-1
aI-1
aF-1.0
asg5
g6
sg7
(lp146
I32
aI-1
aI-1
aI-1
aI-1
aI-1
asg9
(lp147
I55
aI-1
aI-1
aF-1.0
aF-1.0
aF-1.0
aI-1
aI-1
aI-1
aF-1.0
aF-1.0
aF-1.0
asg11
g12
sba(i__main__
sensor_data_struct
p148
(dp149
g3
(lp150
I822
aI786
aI538
aI2109
aI3855
aF579.0
aI-1
aI-1
aI-1
aI-1
aI-1
aF-1.0
asg5
g6
sg7
(lp151
I64
aI-1
aI-1
aI-1
aI-1
aI-1
asg9
(lp152
I6
aI-1
aI-1
aF-1.0
aF-1.0
aF-1.0
aI-1
aI-1
aI-1
aF-1.0
aF-1.0
aF-1.0
asg11
g12
sba(i__main__
sensor_data_struct
p153
(dp154
g3
(lp155
I1663
aI1974
aI1379
aI5028
aI4550
aF1566.0
aI-1
aI-1
aI-1
aI-1
aI-1
aF-1.0
asg5
g6
sg7
(lp156
I71
aI-1
aI-1
aI-1
aI-1
aI-1
asg9
(lp157
I6
aI-1
aI-1
aF-1.0
aF-1.0
aF-1.0
aI-1
aI-1
aI-1
aF-1.0
aF-1.0
aF-1.0
asg11
g12
sba(i__main__
sensor_data_struct
p158
(dp159
g3
(lp160
I596
aI494
aI334
aI1381
aI3464
aF341.0
aI-1
aI-1
aI-1
aI-1
aI-1
aF-1.0
asg5
g6
sg7
(lp161
I11
aI-1
aI-1
aI-1
aI-1
aI-1
asg9
(lp162
I5
aI-1
aI-1
aF-1.0
aF-1.0
aF-1.0
aI-1
aI-1
aI-1
aF-1.0
aF-1.0
aF-1.0
asg11
g12
sba(i__main__
sensor_data_struct
p163
(dp164
g3
(lp165
I539
aI380
aI252
aI1123
aI3077
aF240.0
aI-1
aI-1
aI-1
aI-1
aI-1
aF-1.0
asg5
g6
sg7
(lp166
I2
aI-1
aI-1
aI-1
aI-1
aI-1
asg9
(lp167
I13
aI-1
aI-1
aF-1.0
aF-1.0
aF-1.0
aI-1
aI-1
aI-1
aF-1.0
aF-1.0
aF-1.0
asg11
g12
sba(i__main__
sensor_data_struct
p168
(dp169
g3
(lp170
I485
aI441
aI305
aI1171
aI3693
aF315.0
aI-1
aI-1
aI-1
aI-1
aI-1
aF-1.0
asg5
g6
sg7
(lp171
I18
aI-1
aI-1
aI-1
aI-1
aI-1
asg9
(lp172
I6
aI-1
aI-1
aF-1.0
aF-1.0
aF-1.0
aI-1
aI-1
aI-1
aF-1.0
aF-1.0
aF-1.0
asg11
g12
sba(i__main__
sensor_data_struct
p173
(dp174
g3
(lp175
I428
aI318
aI210
aI918
aI3170
aF209.0
aI-1
aI-1
aI-1
aI-1
aI-1
aF-1.0
asg5
g6
sg7
(lp176
I4
aI-1
aI-1
aI-1
aI-1
aI-1
asg9
(lp177
I28
aI-1
aI-1
aF-1.0
aF-1.0
aF-1.0
aI-1
aI-1
aI-1
aF-1.0
aF-1.0
aF-1.0
asg11
g12
sba(i__main__
sensor_data_struct
p178
(dp179
g3
(lp180
I558
aI410
aI277
aI1148
aI3101
aF263.0
aI-1
aI-1
aI-1
aI-1
aI-1
aF-1.0
asg5
g6
sg7
(lp181
I67
aI-1
aI-1
aI-1
aI-1
aI-1
asg9
(lp182
I13
aI-1
aI-1
aF-1.0
aF-1.0
aF-1.0
aI-1
aI-1
aI-1
aF-1.0
aF-1.0
aF-1.0
asg11
g12
sba(i__main__
sensor_data_struct
p183
(dp184
g3
(lp185
I467
aI296
aI189
aI910
aI2826
aF177.0
aI-1
aI-1
aI-1
aI-1
aI-1
aF-1.0
asg5
g6
sg7
(lp186
I12
aI-1
aI-1
aI-1
aI-1
aI-1
asg9
(lp187
I40
aI-1
aI-1
aF-1.0
aF-1.0
aF-1.0
aI-1
aI-1
aI-1
aF-1.0
aF-1.0
aF-1.0
asg11
g12
sba(i__main__
sensor_data_struct
p188
(dp189
g3
(lp190
I545
aI388
aI255
aI1138
aI3076
aF248.0
aI-1
aI-1
aI-1
aI-1
aI-1
aF-1.0
asg5
g6
sg7
(lp191
I23
aI-1
aI-1
aI-1
aI-1
aI-1
asg9
(lp192
I26
aI-1
aI-1
aF-1.0
aF-1.0
aF-1.0
aI-1
aI-1
aI-1
aF-1.0
aF-1.0
aF-1.0
asg11
g12
sba(i__main__
sensor_data_struct
p193
(dp194
g3
(lp195
I3502
aI5009
aI3691
aI12487
aI5406
aF4067.0
aI-1
aI-1
aI-1
aI-1
aI-1
aF-1.0
asg5
g6
sg7
(lp196
I46
aI-1
aI-1
aI-1
aI-1
aI-1
asg9
(lp197
I27
aI-1
aI-1
aF-1.0
aF-1.0
aF-1.0
aI-1
aI-1
aI-1
aF-1.0
aF-1.0
aF-1.0
asg11
g12
sba(i__main__
sensor_data_struct
p198
(dp199
g3
(lp200
I565
aI422
aI276
aI1223
aI3180
aF280.0
aI-1
aI-1
aI-1
aI-1
aI-1
aF-1.0
asg5
g6
sg7
(lp201
I84
aI-1
aI-1
aI-1
aI-1
aI-1
asg9
(lp202
I36
aI-1
aI-1
aF-1.0
aF-1.0
aF-1.0
aI-1
aI-1
aI-1
aF-1.0
aF-1.0
aF-1.0
asg11
g12
sba(i__main__
sensor_data_struct
p203
(dp204
g3
(lp205
I584
aI454
aI305
aI1275
aI3268
aF303.0
aI-1
aI-1
aI-1
aI-1
aI-1
aF-1.0
asg5
g6
sg7
(lp206
I197
aI-1
aI-1
aI-1
aI-1
aI-1
asg9
(lp207
I37
aI-1
aI-1
aF-1.0
aF-1.0
aF-1.0
aI-1
aI-1
aI-1
aF-1.0
aF-1.0
aF-1.0
asg11
g12
sba(i__main__
sensor_data_struct
p208
(dp209
g3
(lp210
I630
aI531
aI363
aI1465
aI3508
aF367.0
aI-1
aI-1
aI-1
aI-1
aI-1
aF-1.0
asg5
g6
sg7
(lp211
I5
aI-1
aI-1
aI-1
aI-1
aI-1
asg9
(lp212
I10
aI-1
aI-1
aF-1.0
aF-1.0
aF-1.0
aI-1
aI-1
aI-1
aF-1.0
aF-1.0
aF-1.0
asg11
g12
sba(i__main__
sensor_data_struct
p213
(dp214
g3
(lp215
I765
aI769
aI531
aI2060
aI4032
aF576.0
aI-1
aI-1
aI-1
aI-1
aI-1
aF-1.0
asg5
g6
sg7
(lp216
I35
aI-1
aI-1
aI-1
aI-1
aI-1
asg9
(lp217
I6
aI-1
aI-1
aF-1.0
aF-1.0
aF-1.0
aI-1
aI-1
aI-1
aF-1.0
aF-1.0
aF-1.0
asg11
g12
sba(i__main__
sensor_data_struct
p218
(dp219
g3
(lp220
I558
aI396
aI265
aI1152
aI3074
aF249.0
aI-1
aI-1
aI-1
aI-1
aI-1
aF-1.0
asg5
g6
sg7
(lp221
I50
aI-1
aI-1
aI-1
aI-1
aI-1
asg9
(lp222
I15
aI-1
aI-1
aF-1.0
aF-1.0
aF-1.0
aI-1
aI-1
aI-1
aF-1.0
aF-1.0
aF-1.0
asg11
g12
sba(i__main__
sensor_data_struct
p223
(dp224
g3
(lp225
I2083
aI2266
aI1653
aI5865
aI4387
aF1690.0
aI-1
aI-1
aI-1
aI-1
aI-1
aF-1.0
asg5
g6
sg7
(lp226
I30
aI-1
aI-1
aI-1
aI-1
aI-1
asg9
(lp227
I6
aI-1
aI-1
aF-1.0
aF-1.0
aF-1.0
aI-1
aI-1
aI-1
aF-1.0
aF-1.0
aF-1.0
asg11
g12
sba(i__main__
sensor_data_struct
p228
(dp229
g3
(lp230
I477
aI409
aI275
aI1081
aI3439
aF289.0
aI-1
aI-1
aI-1
aI-1
aI-1
aF-1.0
asg5
g6
sg7
(lp231
I24
aI-1
aI-1
aI-1
aI-1
aI-1
asg9
(lp232
I6
aI-1
aI-1
aF-1.0
aF-1.0
aF-1.0
aI-1
aI-1
aI-1
aF-1.0
aF-1.0
aF-1.0
asg11
g12
sba(i__main__
sensor_data_struct
p233
(dp234
g3
(lp235
I1093
aI1678
aI1194
aI3996
aI5553
aF1419.0
aI-1
aI-1
aI-1
aI-1
aI-1
aF-1.0
asg5
g6
sg7
(lp236
I74
aI-1
aI-1
aI-1
aI-1
aI-1
asg9
(lp237
I7
aI-1
aI-1
aF-1.0
aF-1.0
aF-1.0
aI-1
aI-1
aI-1
aF-1.0
aF-1.0
aF-1.0
asg11
g12
sba(i__main__
sensor_data_struct
p238
(dp239
g3
(lp240
I875
aI873
aI604
aI2337
aI4011
aF651.0
aI-1
aI-1
aI-1
aI-1
aI-1
aF-1.0
asg5
g6
sg7
(lp241
I177
aI-1
aI-1
aI-1
aI-1
aI-1
asg9
(lp242
I8
aI-1
aI-1
aF-1.0
aF-1.0
aF-1.0
aI-1
aI-1
aI-1
aF-1.0
aF-1.0
aF-1.0
asg11
g12
sba(i__main__
sensor_data_struct
p243
(dp244
g3
(lp245
I1068
aI1108
aI777
aI2938
aI4156
aF833.0
aI-1
aI-1
aI-1
aI-1
aI-1
aF-1.0
asg5
g6
sg7
(lp246
I83
aI-1
aI-1
aI-1
aI-1
aI-1
asg9
(lp247
I8
aI-1
aI-1
aF-1.0
aF-1.0
aF-1.0
aI-1
aI-1
aI-1
aF-1.0
aF-1.0
aF-1.0
asg11
g12
sba(i__main__
sensor_data_struct
p248
(dp249
g3
(lp250
I886
aI849
aI589
aI2265
aI3880
aF621.0
aI-1
aI-1
aI-1
aI-1
aI-1
aF-1.0
asg5
g6
sg7
(lp251
I6
aI-1
aI-1
aI-1
aI-1
aI-1
asg9
(lp252
I42
aI-1
aI-1
aF-1.0
aF-1.0
aF-1.0
aI-1
aI-1
aI-1
aF-1.0
aF-1.0
aF-1.0
asg11
g12
sba(i__main__
sensor_data_struct
p253
(dp254
g3
(lp255
I762
aI763
aI535
aI2026
aI4040
aF565.0
aI-1
aI-1
aI-1
aI-1
aI-1
aF-1.0
asg5
g6
sg7
(lp256
I68
aI-1
aI-1
aI-1
aI-1
aI-1
asg9
(lp257
I9
aI-1
aI-1
aF-1.0
aF-1.0
aF-1.0
aI-1
aI-1
aI-1
aF-1.0
aF-1.0
aF-1.0
asg11
g12
sba.