(lp0
(i__main__
sensor_data_struct
p1
(dp2
S'color'
p3
(lp4
I703
aI643
aI434
aI1732
aI3691
aF469.0
aI-1
aI-1
aI-1
aI-1
aI-1
aF-1.0
asS'button'
p5
S'plant'
p6
sS'IR'
p7
(lp8
I9
aI-1
aI-1
aI-1
aI-1
aI-1
asS'TOF'
p9
(lp10
I61
aI-1
aI-1
aF-1.0
aF-1.0
aF-1.0
aI-1
aI-1
aI-1
aF-1.0
aF-1.0
aF-1.0
asS'pt'
p11
(lp12
I-1
aI-1
aI-1
asba(i__main__
sensor_data_struct
p13
(dp14
g3
(lp15
I544
aI397
aI263
aI1126
aI3080
aF257.0
aI-1
aI-1
aI-1
aI-1
aI-1
aF-1.0
asg5
g6
sg7
(lp16
I11
aI-1
aI-1
aI-1
aI-1
aI-1
asg9
(lp17
I10
aI-1
aI-1
aF-1.0
aF-1.0
aF-1.0
aI-1
aI-1
aI-1
aF-1.0
aF-1.0
aF-1.0
asg11
g12
sba(i__main__
sensor_data_struct
p18
(dp19
g3
(lp20
I452
aI401
aI272
aI1075
aI3594
aF287.0
aI-1
aI-1
aI-1
aI-1
aI-1
aF-1.0
asg5
g6
sg7
(lp21
I11
aI-1
aI-1
aI-1
aI-1
aI-1
asg9
(lp22
I25
aI-1
aI-1
aF-1.0
aF-1.0
aF-1.0
aI-1
aI-1
aI-1
aF-1.0
aF-1.0
aF-1.0
asg11
g12
sba(i__main__
sensor_data_struct
p23
(dp24
g3
(lp25
I717
aI664
aI458
aI1787
aI3772
aF480.0
aI-1
aI-1
aI-1
aI-1
aI-1
aF-1.0
asg5
g6
sg7
(lp26
I13
aI-1
aI-1
aI-1
aI-1
aI-1
asg9
(lp27
I25
aI-1
aI-1
aF-1.0
aF-1.0
aF-1.0
aI-1
aI-1
aI-1
aF-1.0
aF-1.0
aF-1.0
asg11
g12
sba(i__main__
sensor_data_struct
p28
(dp29
g3
(lp30
I466
aI298
aI191
aI904
aI2825
aF179.0
aI-1
aI-1
aI-1
aI-1
aI-1
aF-1.0
asg5
g6
sg7
(lp31
I3
aI-1
aI-1
aI-1
aI-1
aI-1
asg9
(lp32
I23
aI-1
aI-1
aF-1.0
aF-1.0
aF-1.0
aI-1
aI-1
aI-1
aF-1.0
aF-1.0
aF-1.0
asg11
g12
sba(i__main__
sensor_data_struct
p33
(dp34
g3
(lp35
I533
aI374
aI249
aI1067
aI2988
aF235.0
aI-1
aI-1
aI-1
aI-1
aI-1
aF-1.0
asg5
g6
sg7
(lp36
I29
aI-1
aI-1
aI-1
aI-1
aI-1
asg9
(lp37
I20
aI-1
aI-1
aF-1.0
aF-1.0
aF-1.0
aI-1
aI-1
aI-1
aF-1.0
aF-1.0
aF-1.0
asg11
g12
sba(i__main__
sensor_data_struct
p38
(dp39
g3
(lp40
I672
aI553
aI380
aI1541
aI3462
aF376.0
aI-1
aI-1
aI-1
aI-1
aI-1
aF-1.0
asg5
g6
sg7
(lp41
I9
aI-1
aI-1
aI-1
aI-1
aI-1
asg9
(lp42
I17
aI-1
aI-1
aF-1.0
aF-1.0
aF-1.0
aI-1
aI-1
aI-1
aF-1.0
aF-1.0
aF-1.0
asg11
g12
sba(i__main__
sensor_data_struct
p43
(dp44
g3
(lp45
I853
aI761
aI530
aI2074
aI3696
aF536.0
aI-1
aI-1
aI-1
aI-1
aI-1
aF-1.0
asg5
g6
sg7
(lp46
I43
aI-1
aI-1
aI-1
aI-1
aI-1
asg9
(lp47
I8
aI-1
aI-1
aF-1.0
aF-1.0
aF-1.0
aI-1
aI-1
aI-1
aF-1.0
aF-1.0
aF-1.0
asg11
g12
sba(i__main__
sensor_data_struct
p48
(dp49
g3
(lp50
I1402
aI1580
aI1103
aI4051
aI4378
aF1231.0
aI-1
aI-1
aI-1
aI-1
aI-1
aF-1.0
asg5
g6
sg7
(lp51
I43
aI-1
aI-1
aI-1
aI-1
aI-1
asg9
(lp52
I15
aI-1
aI-1
aF-1.0
aF-1.0
aF-1.0
aI-1
aI-1
aI-1
aF-1.0
aF-1.0
aF-1.0
asg11
g12
sba(i__main__
sensor_data_struct
p53
(dp54
g3
(lp55
I548
aI509
aI345
aI1360
aI3733
aF372.0
aI-1
aI-1
aI-1
aI-1
aI-1
aF-1.0
asg5
g6
sg7
(lp56
I5
aI-1
aI-1
aI-1
aI-1
aI-1
asg9
(lp57
I8
aI-1
aI-1
aF-1.0
aF-1.0
aF-1.0
aI-1
aI-1
aI-1
aF-1.0
aF-1.0
aF-1.0
asg11
g12
sba(i__main__
sensor_data_struct
p58
(dp59
g3
(lp60
I520
aI372
aI246
aI1069
aI3052
aF238.0
aI-1
aI-1
aI-1
aI-1
aI-1
aF-1.0
asg5
g6
sg7
(lp61
I79
aI-1
aI-1
aI-1
aI-1
aI-1
asg9
(lp62
I35
aI-1
aI-1
aF-1.0
aF-1.0
aF-1.0
aI-1
aI-1
aI-1
aF-1.0
aF-1.0
aF-1.0
asg11
g12
sba(i__main__
sensor_data_struct
p63
(dp64
g3
(lp65
I526
aI391
aI265
aI1109
aI3171
aF252.0
aI-1
aI-1
aI-1
aI-1
aI-1
aF-1.0
asg5
g6
sg7
(lp66
I43
aI-1
aI-1
aI-1
aI-1
aI-1
asg9
(lp67
I23
aI-1
aI-1
aF-1.0
aF-1.0
aF-1.0
aI-1
aI-1
aI-1
aF-1.0
aF-1.0
aF-1.0
asg11
g12
sba(i__main__
sensor_data_struct
p68
(dp69
g3
(lp70
I508
aI387
aI255
aI1087
aI3180
aF259.0
aI-1
aI-1
aI-1
aI-1
aI-1
aF-1.0
asg5
g6
sg7
(lp71
I36
aI-1
aI-1
aI-1
aI-1
aI-1
asg9
(lp72
I8
aI-1
aI-1
aF-1.0
aF-1.0
aF-1.0
aI-1
aI-1
aI-1
aF-1.0
aF-1.0
aF-1.0
asg11
g12
sba(i__main__
sensor_data_struct
p73
(dp74
g3
(lp75
I1333
aI1549
aI1065
aI3877
aI4414
aF1232.0
aI-1
aI-1
aI-1
aI-1
aI-1
aF-1.0
asg5
g6
sg7
(lp76
I9
aI-1
aI-1
aI-1
aI-1
aI-1
asg9
(lp77
I1
aI-1
aI-1
aF-1.0
aF-1.0
aF-1.0
aI-1
aI-1
aI-1
aF-1.0
aF-1.0
aF-1.0
asg11
g12
sba(i__main__
sensor_data_struct
p78
(dp79
g3
(lp80
I1213
aI1801
aI1240
aI4256
aI5285
aF1541.0
aI-1
aI-1
aI-1
aI-1
aI-1
aF-1.0
asg5
g6
sg7
(lp81
I11
aI-1
aI-1
aI-1
aI-1
aI-1
asg9
(lp82
I5
aI-1
aI-1
aF-1.0
aF-1.0
aF-1.0
aI-1
aI-1
aI-1
aF-1.0
aF-1.0
aF-1.0
asg11
g12
sba(i__main__
sensor_data_struct
p83
(dp84
g3
(lp85
I1255
aI1373
aI981
aI3602
aI4367
aF1041.0
aI-1
aI-1
aI-1
aI-1
aI-1
aF-1.0
asg5
g6
sg7
(lp86
I23
aI-1
aI-1
aI-1
aI-1
aI-1
asg9
(lp87
I28
aI-1
aI-1
aF-1.0
aF-1.0
aF-1.0
aI-1
aI-1
aI-1
aF-1.0
aF-1.0
aF-1.0
asg11
g12
sba(i__main__
sensor_data_struct
p88
(dp89
g3
(lp90
I732
aI675
aI468
aI1817
aI3770
aF485.0
aI-1
aI-1
aI-1
aI-1
aI-1
aF-1.0
asg5
g6
sg7
(lp91
I11
aI-1
aI-1
aI-1
aI-1
aI-1
asg9
(lp92
I7
aI-1
aI-1
aF-1.0
aF-1.0
aF-1.0
aI-1
aI-1
aI-1
aF-1.0
aF-1.0
aF-1.0
asg11
g12
sba(i__main__
sensor_data_struct
p93
(dp94
g3
(lp95
I526
aI363
aI239
aI1054
aI2964
aF227.0
aI-1
aI-1
aI-1
aI-1
aI-1
aF-1.0
asg5
g6
sg7
(lp96
I19
aI-1
aI-1
aI-1
aI-1
aI-1
asg9
(lp97
I19
aI-1
aI-1
aF-1.0
aF-1.0
aF-1.0
aI-1
aI-1
aI-1
aF-1.0
aF-1.0
aF-1.0
asg11
g12
sba(i__main__
sensor_data_struct
p98
(dp99
g3
(lp100
I441
aI407
aI278
aI1086
aI3725
aF295.0
aI-1
aI-1
aI-1
aI-1
aI-1
aF-1.0
asg5
g6
sg7
(lp101
I17
aI-1
aI-1
aI-1
aI-1
aI-1
asg9
(lp102
I24
aI-1
aI-1
aF-1.0
aF-1.0
aF-1.0
aI-1
aI-1
aI-1
aF-1.0
aF-1.0
aF-1.0
asg11
g12
sba(i__main__
sensor_data_struct
p103
(dp104
g3
(lp105
I682
aI604
aI418
aI1644
aI3658
aF425.0
aI-1
aI-1
aI-1
aI-1
aI-1
aF-1.0
asg5
g6
sg7
(lp106
I18
aI-1
aI-1
aI-1
aI-1
aI-1
asg9
(lp107
I26
aI-1
aI-1
aF-1.0
aF-1.0
aF-1.0
aI-1
aI-1
aI-1
aF-1.0
aF-1.0
aF-1.0
asg11
g12
sba(i__main__
sensor_data_struct
p108
(dp109
g3
(lp110
I484
aI508
aI347
aI1306
aI4085
aF390.0
aI-1
aI-1
aI-1
aI-1
aI-1
aF-1.0
asg5
g6
sg7
(lp111
I10
aI-1
aI-1
aI-1
aI-1
aI-1
asg9
(lp112
I23
aI-1
aI-1
aF-1.0
aF-1.0
aF-1.0
aI-1
aI-1
aI-1
aF-1.0
aF-1.0
aF-1.0
asg11
g12
sba(i__main__
sensor_data_struct
p113
(dp114
g3
(lp115
I559
aI410
aI276
aI1163
aI3119
aF263.0
aI-1
aI-1
aI-1
aI-1
aI-1
aF-1.0
asg5
g6
sg7
(lp116
I33
aI-1
aI-1
aI-1
aI-1
aI-1
asg9
(lp117
I25
aI-1
aI-1
aF-1.0
aF-1.0
aF-1.0
aI-1
aI-1
aI-1
aF-1.0
aF-1.0
aF-1.0
asg11
g12
sba(i__main__
sensor_data_struct
p118
(dp119
g3
(lp120
I617
aI527
aI356
aI1435
aI3501
aF370.0
aI-1
aI-1
aI-1
aI-1
aI-1
aF-1.0
asg5
g6
sg7
(lp121
I16
aI-1
aI-1
aI-1
aI-1
aI-1
asg9
(lp122
I22
aI-1
aI-1
aF-1.0
aF-1.0
aF-1.0
aI-1
aI-1
aI-1
aF-1.0
aF-1.0
aF-1.0
asg11
g12
sba(i__main__
sensor_data_struct
p123
(dp124
g3
(lp125
I530
aI381
aI250
aI1094
aI3054
aF246.0
aI-1
aI-1
aI-1
aI-1
aI-1
aF-1.0
asg5
g6
sg7
(lp126
I16
aI-1
aI-1
aI-1
aI-1
aI-1
asg9
(lp127
I15
aI-1
aI-1
aF-1.0
aF-1.0
aF-1.0
aI-1
aI-1
aI-1
aF-1.0
aF-1.0
aF-1.0
asg11
g12
sba(i__main__
sensor_data_struct
p128
(dp129
g3
(lp130
I494
aI327
aI210
aI969
aI2863
aF202.0
aI-1
aI-1
aI-1
aI-1
aI-1
aF-1.0
asg5
g6
sg7
(lp131
I5
aI-1
aI-1
aI-1
aI-1
aI-1
asg9
(lp132
I13
aI-1
aI-1
aF-1.0
aF-1.0
aF-1.0
aI-1
aI-1
aI-1
aF-1.0
aF-1.0
aF-1.0
asg11
g12
sba(i__main__
sensor_data_struct
p133
(dp134
g3
(lp135
I1206
aI1256
aI881
aI3286
aI4149
aF946.0
aI-1
aI-1
aI-1
aI-1
aI-1
aF-1.0
asg5
g6
sg7
(lp136
I7
aI-1
aI-1
aI-1
aI-1
aI-1
asg9
(lp137
I8
aI-1
aI-1
aF-1.0
aF-1.0
aF-1.0
aI-1
aI-1
aI-1
aF-1.0
aF-1.0
aF-1.0
asg11
g12
sba(i__main__
sensor_data_struct
p138
(dp139
g3
(lp140
I634
aI561
aI387
aI1516
aI3635
aF396.0
aI-1
aI-1
aI-1
aI-1
aI-1
aF-1.0
asg5
g6
sg7
(lp141
I14
aI-1
aI-1
aI-1
aI-1
aI-1
asg9
(lp142
I5
aI-1
aI-1
aF-1.0
aF-1.0
aF-1.0
aI-1
aI-1
aI-1
aF-1.0
aF-1.0
aF-1.0
asg11
g12
sba(i__main__
sensor_data_struct
p143
(dp144
g3
(lp145
I748
aI670
aI462
aI1840
aI3704
aF476.0
aI-1
aI-1
aI-1
aI-1
aI-1
aF-1.0
asg5
g6
sg7
(lp146
I34
aI-1
aI-1
aI-1
aI-1
aI-1
asg9
(lp147
I19
aI-1
aI-1
aF-1.0
aF-1.0
aF-1.0
aI-1
aI-1
aI-1
aF-1.0
aF-1.0
aF-1.0
asg11
g12
sba(i__main__
sensor_data_struct
p148
(dp149
g3
(lp150
I1152
aI1229
aI866
aI3229
aI4247
aF931.0
aI-1
aI-1
aI-1
aI-1
aI-1
aF-1.0
asg5
g6
sg7
(lp151
I5
aI-1
aI-1
aI-1
aI-1
aI-1
asg9
(lp152
I12
aI-1
aI-1
aF-1.0
aF-1.0
aF-1.0
aI-1
aI-1
aI-1
aF-1.0
aF-1.0
aF-1.0
asg11
g12
sba(i__main__
sensor_data_struct
p153
(dp154
g3
(lp155
I1278
aI1831
aI1431
aI4429
aI5677
aF1427.0
aI-1
aI-1
aI-1
aI-1
aI-1
aF-1.0
asg5
g6
sg7
(lp156
I6
aI-1
aI-1
aI-1
aI-1
aI-1
asg9
(lp157
I5
aI-1
aI-1
aF-1.0
aF-1.0
aF-1.0
aI-1
aI-1
aI-1
aF-1.0
aF-1.0
aF-1.0
asg11
g12
sba(i__main__
sensor_data_struct
p158
(dp159
g3
(lp160
I2877
aI3236
aI2369
aI8195
aI4493
aF2439.0
aI-1
aI-1
aI-1
aI-1
aI-1
aF-1.0
asg5
g6
sg7
(lp161
I57
aI-1
aI-1
aI-1
aI-1
aI-1
asg9
(lp162
I12
aI-1
aI-1
aF-1.0
aF-1.0
aF-1.0
aI-1
aI-1
aI-1
aF-1.0
aF-1.0
aF-1.0
asg11
g12
sba(i__main__
sensor_data_struct
p163
(dp164
g3
(lp165
I597
aI490
aI339
aI1325
aI3403
aF331.0
aI-1
aI-1
aI-1
aI-1
aI-1
aF-1.0
asg5
g6
sg7
(lp166
I29
aI-1
aI-1
aI-1
aI-1
aI-1
asg9
(lp167
I18
aI-1
aI-1
aF-1.0
aF-1.0
aF-1.0
aI-1
aI-1
aI-1
aF-1.0
aF-1.0
aF-1.0
asg11
g12
sba(i__main__
sensor_data_struct
p168
(dp169
g3
(lp170
I1421
aI1732
aI1220
aI4462
aI4662
aF1379.0
aI-1
aI-1
aI-1
aI-1
aI-1
aF-1.0
asg5
g6
sg7
(lp171
I13
aI-1
aI-1
aI-1
aI-1
aI-1
asg9
(lp172
I11
aI-1
aI-1
aF-1.0
aF-1.0
aF-1.0
aI-1
aI-1
aI-1
aF-1.0
aF-1.0
aF-1.0
asg11
g12
sba(i__main__
sensor_data_struct
p173
(dp174
g3
(lp175
I430
aI364
aI251
aI970
aI3465
aF251.0
aI-1
aI-1
aI-1
aI-1
aI-1
aF-1.0
asg5
g6
sg7
(lp176
I11
aI-1
aI-1
aI-1
aI-1
aI-1
asg9
(lp177
I21
aI-1
aI-1
aF-1.0
aF-1.0
aF-1.0
aI-1
aI-1
aI-1
aF-1.0
aF-1.0
aF-1.0
asg11
g12
sba(i__main__
sensor_data_struct
p178
(dp179
g3
(lp180
I550
aI402
aI269
aI1134
aI3089
aF259.0
aI-1
aI-1
aI-1
aI-1
aI-1
aF-1.0
asg5
g6
sg7
(lp181
I45
aI-1
aI-1
aI-1
aI-1
aI-1
asg9
(lp182
I23
aI-1
aI-1
aF-1.0
aF-1.0
aF-1.0
aI-1
aI-1
aI-1
aF-1.0
aF-1.0
aF-1.0
asg11
g12
sba(i__main__
sensor_data_struct
p183
(dp184
g3
(lp185
I595
aI533
aI361
aI1430
aI3625
aF383.0
aI-1
aI-1
aI-1
aI-1
aI-1
aF-1.0
asg5
g6
sg7
(lp186
I14
aI-1
aI-1
aI-1
aI-1
aI-1
asg9
(lp187
I19
aI-1
aI-1
aF-1.0
aF-1.0
aF-1.0
aI-1
aI-1
aI-1
aF-1.0
aF-1.0
aF-1.0
asg11
g12
sba(i__main__
sensor_data_struct
p188
(dp189
g3
(lp190
I647
aI672
aI485
aI1733
aI4192
aF495.0
aI-1
aI-1
aI-1
aI-1
aI-1
aF-1.0
asg5
g6
sg7
(lp191
I11
aI-1
aI-1
aI-1
aI-1
aI-1
asg9
(lp192
I11
aI-1
aI-1
aF-1.0
aF-1.0
aF-1.0
aI-1
aI-1
aI-1
aF-1.0
aF-1.0
aF-1.0
asg11
g12
sba(i__main__
sensor_data_struct
p193
(dp194
g3
(lp195
I782
aI726
aI492
aI1938
aI3729
aF531.0
aI-1
aI-1
aI-1
aI-1
aI-1
aF-1.0
asg5
g6
sg7
(lp196
I6
aI-1
aI-1
aI-1
aI-1
aI-1
asg9
(lp197
I21
aI-1
aI-1
aF-1.0
aF-1.0
aF-1.0
aI-1
aI-1
aI-1
aF-1.0
aF-1.0
aF-1.0
asg11
g12
sba(i__main__
sensor_data_struct
p198
(dp199
g3
(lp200
I486
aI301
aI195
aI918
aI2758
aF174.0
aI-1
aI-1
aI-1
aI-1
aI-1
aF-1.0
asg5
g6
sg7
(lp201
I7
aI-1
aI-1
aI-1
aI-1
aI-1
asg9
(lp202
I8
aI-1
aI-1
aF-1.0
aF-1.0
aF-1.0
aI-1
aI-1
aI-1
aF-1.0
aF-1.0
aF-1.0
asg11
g12
sba(i__main__
sensor_data_struct
p203
(dp204
g3
(lp205
I1792
aI2000
aI1381
aI4967
aI4273
aF1564.0
aI-1
aI-1
aI-1
aI-1
aI-1
aF-1.0
asg5
g6
sg7
(lp206
I3
aI-1
aI-1
aI-1
aI-1
aI-1
asg9
(lp207
I8
aI-1
aI-1
aF-1.0
aF-1.0
aF-1.0
aI-1
aI-1
aI-1
aF-1.0
aF-1.0
aF-1.0
asg11
g12
sba(i__main__
sensor_data_struct
p208
(dp209
g3
(lp210
I667
aI518
aI352
aI1465
aI3299
aF343.0
aI-1
aI-1
aI-1
aI-1
aI-1
aF-1.0
asg5
g6
sg7
(lp211
I73
aI-1
aI-1
aI-1
aI-1
aI-1
asg9
(lp212
I6
aI-1
aI-1
aF-1.0
aF-1.0
aF-1.0
aI-1
aI-1
aI-1
aF-1.0
aF-1.0
aF-1.0
asg11
g12
sba(i__main__
sensor_data_struct
p213
(dp214
g3
(lp215
I966
aI1089
aI781
aI2805
aI4459
aF833.0
aI-1
aI-1
aI-1
aI-1
aI-1
aF-1.0
asg5
g6
sg7
(lp216
I5
aI-1
aI-1
aI-1
aI-1
aI-1
asg9
(lp217
I8
aI-1
aI-1
aF-1.0
aF-1.0
aF-1.0
aI-1
aI-1
aI-1
aF-1.0
aF-1.0
aF-1.0
asg11
g12
sba(i__main__
sensor_data_struct
p218
(dp219
g3
(lp220
I504
aI489
aI342
aI1287
aI3915
aF357.0
aI-1
aI-1
aI-1
aI-1
aI-1
aF-1.0
asg5
g6
sg7
(lp221
I12
aI-1
aI-1
aI-1
aI-1
aI-1
asg9
(lp222
I59
aI-1
aI-1
aF-1.0
aF-1.0
aF-1.0
aI-1
aI-1
aI-1
aF-1.0
aF-1.0
aF-1.0
asg11
g12
sba(i__main__
sensor_data_struct
p223
(dp224
g3
(lp225
I542
aI386
aI254
aI1123
aI3062
aF247.0
aI-1
aI-1
aI-1
aI-1
aI-1
aF-1.0
asg5
g6
sg7
(lp226
I88
aI-1
aI-1
aI-1
aI-1
aI-1
asg9
(lp227
I14
aI-1
aI-1
aF-1.0
aF-1.0
aF-1.0
aI-1
aI-1
aI-1
aF-1.0
aF-1.0
aF-1.0
asg11
g12
sba(i__main__
sensor_data_struct
p228
(dp229
g3
(lp230
I2521
aI2928
aI2099
aI7490
aI4555
aF2266.0
aI-1
aI-1
aI-1
aI-1
aI-1
aF-1.0
asg5
g6
sg7
(lp231
I30
aI-1
aI-1
aI-1
aI-1
aI-1
asg9
(lp232
I4
aI-1
aI-1
aF-1.0
aF-1.0
aF-1.0
aI-1
aI-1
aI-1
aF-1.0
aF-1.0
aF-1.0
asg11
g12
sba(i__main__
sensor_data_struct
p233
(dp234
g3
(lp235
I1430
aI1585
aI1131
aI4139
aI4402
aF1209.0
aI-1
aI-1
aI-1
aI-1
aI-1
aF-1.0
asg5
g6
sg7
(lp236
I77
aI-1
aI-1
aI-1
aI-1
aI-1
asg9
(lp237
I31
aI-1
aI-1
aF-1.0
aF-1.0
aF-1.0
aI-1
aI-1
aI-1
aF-1.0
aF-1.0
aF-1.0
asg11
g12
sba(i__main__
sensor_data_struct
p238
(dp239
g3
(lp240
I534
aI386
aI259
aI1088
aI3058
aF246.0
aI-1
aI-1
aI-1
aI-1
aI-1
aF-1.0
asg5
g6
sg7
(lp241
I14
aI-1
aI-1
aI-1
aI-1
aI-1
asg9
(lp242
I8
aI-1
aI-1
aF-1.0
aF-1.0
aF-1.0
aI-1
aI-1
aI-1
aF-1.0
aF-1.0
aF-1.0
asg11
g12
sba(i__main__
sensor_data_struct
p243
(dp244
g3
(lp245
I787
aI728
aI495
aI1949
aI3731
aF531.0
aI-1
aI-1
aI-1
aI-1
aI-1
aF-1.0
asg5
g6
sg7
(lp246
I7
aI-1
aI-1
aI-1
aI-1
aI-1
asg9
(lp247
I22
aI-1
aI-1
aF-1.0
aF-1.0
aF-1.0
aI-1
aI-1
aI-1
aF-1.0
aF-1.0
aF-1.0
asg11
g12
sba(i__main__
sensor_data_struct
p248
(dp249
g3
(lp250
I554
aI384
aI258
aI1125
aI3028
aF237.0
aI-1
aI-1
aI-1
aI-1
aI-1
aF-1.0
asg5
g6
sg7
(lp251
I2
aI-1
aI-1
aI-1
aI-1
aI-1
asg9
(lp252
I8
aI-1
aI-1
aF-1.0
aF-1.0
aF-1.0
aI-1
aI-1
aI-1
aF-1.0
aF-1.0
aF-1.0
asg11
g12
sba(i__main__
sensor_data_struct
p253
(dp254
g3
(lp255
I440
aI401
aI274
aI1065
aI3677
aF289.0
aI-1
aI-1
aI-1
aI-1
aI-1
aF-1.0
asg5
g6
sg7
(lp256
I7
aI-1
aI-1
aI-1
aI-1
aI-1
asg9
(lp257
I6
aI-1
aI-1
aF-1.0
aF-1.0
aF-1.0
aI-1
aI-1
aI-1
aF-1.0
aF-1.0
aF-1.0
asg11
g12
sba.