(lp0
(i__main__
sensor_data_struct
p1
(dp2
S'color'
p3
(lp4
I513
aI398
aI267
aI1116
aI3256
aF266.0
aI-1
aI-1
aI-1
aI-1
aI-1
aF-1.0
asS'button'
p5
S'plant'
p6
sS'IR'
p7
(lp8
I29
aI-1
aI-1
aI-1
aI-1
aI-1
asS'TOF'
p9
(lp10
I27
aI-1
aI-1
aF-1.0
aF-1.0
aF-1.0
aI-1
aI-1
aI-1
aF-1.0
aF-1.0
aF-1.0
asS'pt'
p11
(lp12
I-1
aI-1
aI-1
asba(i__main__
sensor_data_struct
p13
(dp14
g3
(lp15
I520
aI371
aI247
aI1048
aI3011
aF235.0
aI-1
aI-1
aI-1
aI-1
aI-1
aF-1.0
asg5
g6
sg7
(lp16
I24
aI-1
aI-1
aI-1
aI-1
aI-1
asg9
(lp17
I20
aI-1
aI-1
aF-1.0
aF-1.0
aF-1.0
aI-1
aI-1
aI-1
aF-1.0
aF-1.0
aF-1.0
asg11
g12
sba(i__main__
sensor_data_struct
p18
(dp19
g3
(lp20
I493
aI338
aI221
aI974
aI2918
aF211.0
aI-1
aI-1
aI-1
aI-1
aI-1
aF-1.0
asg5
g6
sg7
(lp21
I32
aI-1
aI-1
aI-1
aI-1
aI-1
asg9
(lp22
I20
aI-1
aI-1
aF-1.0
aF-1.0
aF-1.0
aI-1
aI-1
aI-1
aF-1.0
aF-1.0
aF-1.0
asg11
g12
sba(i__main__
sensor_data_struct
p23
(dp24
g3
(lp25
I509
aI376
aI245
aI1067
aI3096
aF248.0
aI-1
aI-1
aI-1
aI-1
aI-1
aF-1.0
asg5
g6
sg7
(lp26
I9
aI-1
aI-1
aI-1
aI-1
aI-1
asg9
(lp27
I15
aI-1
aI-1
aF-1.0
aF-1.0
aF-1.0
aI-1
aI-1
aI-1
aF-1.0
aF-1.0
aF-1.0
asg11
g12
sba(i__main__
sensor_data_struct
p28
(dp29
g3
(lp30
I472
aI380
aI256
aI1052
aI3347
aF259.0
aI-1
aI-1
aI-1
aI-1
aI-1
aF-1.0
asg5
g6
sg7
(lp31
I6
aI-1
aI-1
aI-1
aI-1
aI-1
asg9
(lp32
I17
aI-1
aI-1
aF-1.0
aF-1.0
aF-1.0
aI-1
aI-1
aI-1
aF-1.0
aF-1.0
aF-1.0
asg11
g12
sba(i__main__
sensor_data_struct
p33
(dp34
g3
(lp35
I552
aI548
aI377
aI1438
aI3950
aF409.0
aI-1
aI-1
aI-1
aI-1
aI-1
aF-1.0
asg5
g6
sg7
(lp36
I5
aI-1
aI-1
aI-1
aI-1
aI-1
asg9
(lp37
I25
aI-1
aI-1
aF-1.0
aF-1.0
aF-1.0
aI-1
aI-1
aI-1
aF-1.0
aF-1.0
aF-1.0
asg11
g12
sba(i__main__
sensor_data_struct
p38
(dp39
g3
(lp40
I742
aI699
aI483
aI1853
aI3805
aF508.0
aI-1
aI-1
aI-1
aI-1
aI-1
aF-1.0
asg5
g6
sg7
(lp41
I5
aI-1
aI-1
aI-1
aI-1
aI-1
asg9
(lp42
I33
aI-1
aI-1
aF-1.0
aF-1.0
aF-1.0
aI-1
aI-1
aI-1
aF-1.0
aF-1.0
aF-1.0
asg11
g12
sba(i__main__
sensor_data_struct
p43
(dp44
g3
(lp45
I1420
aI1508
aI1061
aI3898
aI4206
aF1142.0
aI-1
aI-1
aI-1
aI-1
aI-1
aF-1.0
asg5
g6
sg7
(lp46
I7
aI-1
aI-1
aI-1
aI-1
aI-1
asg9
(lp47
I61
aI-1
aI-1
aF-1.0
aF-1.0
aF-1.0
aI-1
aI-1
aI-1
aF-1.0
aF-1.0
aF-1.0
asg11
g12
sba(i__main__
sensor_data_struct
p48
(dp49
g3
(lp50
I462
aI422
aI289
aI1129
aI3702
aF304.0
aI-1
aI-1
aI-1
aI-1
aI-1
aF-1.0
asg5
g6
sg7
(lp51
I9
aI-1
aI-1
aI-1
aI-1
aI-1
asg9
(lp52
I8
aI-1
aI-1
aF-1.0
aF-1.0
aF-1.0
aI-1
aI-1
aI-1
aF-1.0
aF-1.0
aF-1.0
asg11
g12
sba(i__main__
sensor_data_struct
p53
(dp54
g3
(lp55
I506
aI353
aI233
aI1012
aI2968
aF222.0
aI-1
aI-1
aI-1
aI-1
aI-1
aF-1.0
asg5
g6
sg7
(lp56
I5
aI-1
aI-1
aI-1
aI-1
aI-1
asg9
(lp57
I26
aI-1
aI-1
aF-1.0
aF-1.0
aF-1.0
aI-1
aI-1
aI-1
aF-1.0
aF-1.0
aF-1.0
asg11
g12
sba(i__main__
sensor_data_struct
p58
(dp59
g3
(lp60
I522
aI368
aI250
aI1031
aI2986
aF228.0
aI-1
aI-1
aI-1
aI-1
aI-1
aF-1.0
asg5
g6
sg7
(lp61
I120
aI-1
aI-1
aI-1
aI-1
aI-1
asg9
(lp62
I14
aI-1
aI-1
aF-1.0
aF-1.0
aF-1.0
aI-1
aI-1
aI-1
aF-1.0
aF-1.0
aF-1.0
asg11
g12
sba(i__main__
sensor_data_struct
p63
(dp64
g3
(lp65
I738
aI712
aI490
aI1879
aI3866
aF525.0
aI-1
aI-1
aI-1
aI-1
aI-1
aF-1.0
asg5
g6
sg7
(lp66
I7
aI-1
aI-1
aI-1
aI-1
aI-1
asg9
(lp67
I8
aI-1
aI-1
aF-1.0
aF-1.0
aF-1.0
aI-1
aI-1
aI-1
aF-1.0
aF-1.0
aF-1.0
asg11
g12
sba(i__main__
sensor_data_struct
p68
(dp69
g3
(lp70
I574
aI420
aI281
aI1200
aI3122
aF270.0
aI-1
aI-1
aI-1
aI-1
aI-1
aF-1.0
asg5
g6
sg7
(lp71
I9
aI-1
aI-1
aI-1
aI-1
aI-1
asg9
(lp72
I6
aI-1
aI-1
aF-1.0
aF-1.0
aF-1.0
aI-1
aI-1
aI-1
aF-1.0
aF-1.0
aF-1.0
asg11
g12
sba(i__main__
sensor_data_struct
p73
(dp74
g3
(lp75
I525
aI358
aI236
aI1047
aI2949
aF221.0
aI-1
aI-1
aI-1
aI-1
aI-1
aF-1.0
asg5
g6
sg7
(lp76
I7
aI-1
aI-1
aI-1
aI-1
aI-1
asg9
(lp77
I47
aI-1
aI-1
aF-1.0
aF-1.0
aF-1.0
aI-1
aI-1
aI-1
aF-1.0
aF-1.0
aF-1.0
asg11
g12
sba(i__main__
sensor_data_struct
p78
(dp79
g3
(lp80
I395
aI307
aI203
aI847
aI3202
aF207.0
aI-1
aI-1
aI-1
aI-1
aI-1
aF-1.0
asg5
g6
sg7
(lp81
I6
aI-1
aI-1
aI-1
aI-1
aI-1
asg9
(lp82
I13
aI-1
aI-1
aF-1.0
aF-1.0
aF-1.0
aI-1
aI-1
aI-1
aF-1.0
aF-1.0
aF-1.0
asg11
g12
sba(i__main__
sensor_data_struct
p83
(dp84
g3
(lp85
I448
aI397
aI275
aI1072
aI3646
aF279.0
aI-1
aI-1
aI-1
aI-1
aI-1
aF-1.0
asg5
g6
sg7
(lp86
I9
aI-1
aI-1
aI-1
aI-1
aI-1
asg9
(lp87
I24
aI-1
aI-1
aF-1.0
aF-1.0
aF-1.0
aI-1
aI-1
aI-1
aF-1.0
aF-1.0
aF-1.0
asg11
g12
sba(i__main__
sensor_data_struct
p88
(dp89
g3
(lp90
I586
aI530
aI352
aI1430
aI3628
aF388.0
aI-1
aI-1
aI-1
aI-1
aI-1
aF-1.0
asg5
g6
sg7
(lp91
I15
aI-1
aI-1
aI-1
aI-1
aI-1
asg9
(lp92
I26
aI-1
aI-1
aF-1.0
aF-1.0
aF-1.0
aI-1
aI-1
aI-1
aF-1.0
aF-1.0
aF-1.0
asg11
g12
sba(i__main__
sensor_data_struct
p93
(dp94
g3
(lp95
I547
aI398
aI265
aI1134
aI3090
aF256.0
aI-1
aI-1
aI-1
aI-1
aI-1
aF-1.0
asg5
g6
sg7
(lp96
I8
aI-1
aI-1
aI-1
aI-1
aI-1
asg9
(lp97
I15
aI-1
aI-1
aF-1.0
aF-1.0
aF-1.0
aI-1
aI-1
aI-1
aF-1.0
aF-1.0
aF-1.0
asg11
g12
sba(i__main__
sensor_data_struct
p98
(dp99
g3
(lp100
I418
aI365
aI250
aI988
aI3584
aF257.0
aI-1
aI-1
aI-1
aI-1
aI-1
aF-1.0
asg5
g6
sg7
(lp101
I18
aI-1
aI-1
aI-1
aI-1
aI-1
asg9
(lp102
I26
aI-1
aI-1
aF-1.0
aF-1.0
aF-1.0
aI-1
aI-1
aI-1
aF-1.0
aF-1.0
aF-1.0
asg11
g12
sba(i__main__
sensor_data_struct
p103
(dp104
g3
(lp105
I515
aI355
aI234
aI1027
aI2956
aF221.0
aI-1
aI-1
aI-1
aI-1
aI-1
aF-1.0
asg5
g6
sg7
(lp106
I45
aI-1
aI-1
aI-1
aI-1
aI-1
asg9
(lp107
I24
aI-1
aI-1
aF-1.0
aF-1.0
aF-1.0
aI-1
aI-1
aI-1
aF-1.0
aF-1.0
aF-1.0
asg11
g12
sba(i__main__
sensor_data_struct
p108
(dp109
g3
(lp110
I505
aI349
aI231
aI1004
aI2955
aF217.0
aI-1
aI-1
aI-1
aI-1
aI-1
aF-1.0
asg5
g6
sg7
(lp111
I26
aI-1
aI-1
aI-1
aI-1
aI-1
asg9
(lp112
I17
aI-1
aI-1
aF-1.0
aF-1.0
aF-1.0
aI-1
aI-1
aI-1
aF-1.0
aF-1.0
aF-1.0
asg11
g12
sba(i__main__
sensor_data_struct
p113
(dp114
g3
(lp115
I554
aI459
aI309
aI1268
aI3429
aF318.0
aI-1
aI-1
aI-1
aI-1
aI-1
aF-1.0
asg5
g6
sg7
(lp116
I24
aI-1
aI-1
aI-1
aI-1
aI-1
asg9
(lp117
I16
aI-1
aI-1
aF-1.0
aF-1.0
aF-1.0
aI-1
aI-1
aI-1
aF-1.0
aF-1.0
aF-1.0
asg11
g12
sba(i__main__
sensor_data_struct
p118
(dp119
g3
(lp120
I482
aI359
aI242
aI1019
aI3169
aF233.0
aI-1
aI-1
aI-1
aI-1
aI-1
aF-1.0
asg5
g6
sg7
(lp121
I36
aI-1
aI-1
aI-1
aI-1
aI-1
asg9
(lp122
I21
aI-1
aI-1
aF-1.0
aF-1.0
aF-1.0
aI-1
aI-1
aI-1
aF-1.0
aF-1.0
aF-1.0
asg11
g12
sba(i__main__
sensor_data_struct
p123
(dp124
g3
(lp125
I576
aI425
aI283
aI1227
aI3163
aF276.0
aI-1
aI-1
aI-1
aI-1
aI-1
aF-1.0
asg5
g6
sg7
(lp126
I27
aI-1
aI-1
aI-1
aI-1
aI-1
asg9
(lp127
I32
aI-1
aI-1
aF-1.0
aF-1.0
aF-1.0
aI-1
aI-1
aI-1
aF-1.0
aF-1.0
aF-1.0
asg11
g12
sba(i__main__
sensor_data_struct
p128
(dp129
g3
(lp130
I1633
aI2610
aI1943
aI6108
aI5941
aF2167.0
aI-1
aI-1
aI-1
aI-1
aI-1
aF-1.0
asg5
g6
sg7
(lp131
I4
aI-1
aI-1
aI-1
aI-1
aI-1
asg9
(lp132
I7
aI-1
aI-1
aF-1.0
aF-1.0
aF-1.0
aI-1
aI-1
aI-1
aF-1.0
aF-1.0
aF-1.0
asg11
g12
sba(i__main__
sensor_data_struct
p133
(dp134
g3
(lp135
I799
aI808
aI554
aI2122
aI4004
aF610.0
aI-1
aI-1
aI-1
aI-1
aI-1
aF-1.0
asg5
g6
sg7
(lp136
I28
aI-1
aI-1
aI-1
aI-1
aI-1
asg9
(lp137
I10
aI-1
aI-1
aF-1.0
aF-1.0
aF-1.0
aI-1
aI-1
aI-1
aF-1.0
aF-1.0
aF-1.0
asg11
g12
sba(i__main__
sensor_data_struct
p138
(dp139
g3
(lp140
I1384
aI1579
aI1075
aI3986
aI4334
aF1256.0
aI-1
aI-1
aI-1
aI-1
aI-1
aF-1.0
asg5
g6
sg7
(lp141
I96
aI-1
aI-1
aI-1
aI-1
aI-1
asg9
(lp142
I47
aI-1
aI-1
aF-1.0
aF-1.0
aF-1.0
aI-1
aI-1
aI-1
aF-1.0
aF-1.0
aF-1.0
asg11
g12
sba(i__main__
sensor_data_struct
p143
(dp144
g3
(lp145
I2406
aI2659
aI1931
aI6817
aI4419
aF2002.0
aI-1
aI-1
aI-1
aI-1
aI-1
aF-1.0
asg5
g6
sg7
(lp146
I18
aI-1
aI-1
aI-1
aI-1
aI-1
asg9
(lp147
I6
aI-1
aI-1
aF-1.0
aF-1.0
aF-1.0
aI-1
aI-1
aI-1
aF-1.0
aF-1.0
aF-1.0
asg11
g12
sba(i__main__
sensor_data_struct
p148
(dp149
g3
(lp150
I1236
aI1356
aI958
aI3524
aI4334
aF1037.0
aI-1
aI-1
aI-1
aI-1
aI-1
aF-1.0
asg5
g6
sg7
(lp151
I84
aI-1
aI-1
aI-1
aI-1
aI-1
asg9
(lp152
I7
aI-1
aI-1
aF-1.0
aF-1.0
aF-1.0
aI-1
aI-1
aI-1
aF-1.0
aF-1.0
aF-1.0
asg11
g12
sba(i__main__
sensor_data_struct
p153
(dp154
g3
(lp155
I963
aI1006
aI704
aI2664
aI4172
aF759.0
aI-1
aI-1
aI-1
aI-1
aI-1
aF-1.0
asg5
g6
sg7
(lp156
I63
aI-1
aI-1
aI-1
aI-1
aI-1
asg9
(lp157
I5
aI-1
aI-1
aF-1.0
aF-1.0
aF-1.0
aI-1
aI-1
aI-1
aF-1.0
aF-1.0
aF-1.0
asg11
g12
sba(i__main__
sensor_data_struct
p158
(dp159
g3
(lp160
I602
aI562
aI398
aI1497
aI3837
aF400.0
aI-1
aI-1
aI-1
aI-1
aI-1
aF-1.0
asg5
g6
sg7
(lp161
I8
aI-1
aI-1
aI-1
aI-1
aI-1
asg9
(lp162
I8
aI-1
aI-1
aF-1.0
aF-1.0
aF-1.0
aI-1
aI-1
aI-1
aF-1.0
aF-1.0
aF-1.0
asg11
g12
sba(i__main__
sensor_data_struct
p163
(dp164
g3
(lp165
I645
aI572
aI382
aI1553
aI3590
aF413.0
aI-1
aI-1
aI-1
aI-1
aI-1
aF-1.0
asg5
g6
sg7
(lp166
I12
aI-1
aI-1
aI-1
aI-1
aI-1
asg9
(lp167
I19
aI-1
aI-1
aF-1.0
aF-1.0
aF-1.0
aI-1
aI-1
aI-1
aF-1.0
aF-1.0
aF-1.0
asg11
g12
sba(i__main__
sensor_data_struct
p168
(dp169
g3
(lp170
I541
aI393
aI261
aI1123
aI3088
aF253.0
aI-1
aI-1
aI-1
aI-1
aI-1
aF-1.0
asg5
g6
sg7
(lp171
I7
aI-1
aI-1
aI-1
aI-1
aI-1
asg9
(lp172
I13
aI-1
aI-1
aF-1.0
aF-1.0
aF-1.0
aI-1
aI-1
aI-1
aF-1.0
aF-1.0
aF-1.0
asg11
g12
sba(i__main__
sensor_data_struct
p173
(dp174
g3
(lp175
I554
aI628
aI446
aI1602
aI4440
aF484.0
aI-1
aI-1
aI-1
aI-1
aI-1
aF-1.0
asg5
g6
sg7
(lp176
I4
aI-1
aI-1
aI-1
aI-1
aI-1
asg9
(lp177
I34
aI-1
aI-1
aF-1.0
aF-1.0
aF-1.0
aI-1
aI-1
aI-1
aF-1.0
aF-1.0
aF-1.0
asg11
g12
sba(i__main__
sensor_data_struct
p178
(dp179
g3
(lp180
I483
aI329
aI215
aI978
aI2976
aF205.0
aI-1
aI-1
aI-1
aI-1
aI-1
aF-1.0
asg5
g6
sg7
(lp181
I24
aI-1
aI-1
aI-1
aI-1
aI-1
asg9
(lp182
I6
aI-1
aI-1
aF-1.0
aF-1.0
aF-1.0
aI-1
aI-1
aI-1
aF-1.0
aF-1.0
aF-1.0
asg11
g12
sba(i__main__
sensor_data_struct
p183
(dp184
g3
(lp185
I503
aI354
aI235
aI1003
aI2976
aF223.0
aI-1
aI-1
aI-1
aI-1
aI-1
aF-1.0
asg5
g6
sg7
(lp186
I45
aI-1
aI-1
aI-1
aI-1
aI-1
asg9
(lp187
I23
aI-1
aI-1
aF-1.0
aF-1.0
aF-1.0
aI-1
aI-1
aI-1
aF-1.0
aF-1.0
aF-1.0
asg11
g12
sba(i__main__
sensor_data_struct
p188
(dp189
g3
(lp190
I551
aI395
aI261
aI1148
aI3084
aF253.0
aI-1
aI-1
aI-1
aI-1
aI-1
aF-1.0
asg5
g6
sg7
(lp191
I4
aI-1
aI-1
aI-1
aI-1
aI-1
asg9
(lp192
I16
aI-1
aI-1
aF-1.0
aF-1.0
aF-1.0
aI-1
aI-1
aI-1
aF-1.0
aF-1.0
aF-1.0
asg11
g12
sba(i__main__
sensor_data_struct
p193
(dp194
g3
(lp195
I661
aI747
aI531
aI1933
aI4448
aF575.0
aI-1
aI-1
aI-1
aI-1
aI-1
aF-1.0
asg5
g6
sg7
(lp196
I6
aI-1
aI-1
aI-1
aI-1
aI-1
asg9
(lp197
I12
aI-1
aI-1
aF-1.0
aF-1.0
aF-1.0
aI-1
aI-1
aI-1
aF-1.0
aF-1.0
aF-1.0
asg11
g12
sba(i__main__
sensor_data_struct
p198
(dp199
g3
(lp200
I424
aI387
aI265
aI1036
aI3701
aF279.0
aI-1
aI-1
aI-1
aI-1
aI-1
aF-1.0
asg5
g6
sg7
(lp201
I14
aI-1
aI-1
aI-1
aI-1
aI-1
asg9
(lp202
I12
aI-1
aI-1
aF-1.0
aF-1.0
aF-1.0
aI-1
aI-1
aI-1
aF-1.0
aF-1.0
aF-1.0
asg11
g12
sba(i__main__
sensor_data_struct
p203
(dp204
g3
(lp205
I1459
aI1548
aI1113
aI4012
aI4262
aF1155.0
aI-1
aI-1
aI-1
aI-1
aI-1
aF-1.0
asg5
g6
sg7
(lp206
I7
aI-1
aI-1
aI-1
aI-1
aI-1
asg9
(lp207
I26
aI-1
aI-1
aF-1.0
aF-1.0
aF-1.0
aI-1
aI-1
aI-1
aF-1.0
aF-1.0
aF-1.0
asg11
g12
sba(i__main__
sensor_data_struct
p208
(dp209
g3
(lp210
I570
aI506
aI341
aI1368
aI3603
aF364.0
aI-1
aI-1
aI-1
aI-1
aI-1
aF-1.0
asg5
g6
sg7
(lp211
I37
aI-1
aI-1
aI-1
aI-1
aI-1
asg9
(lp212
I62
aI-1
aI-1
aF-1.0
aF-1.0
aF-1.0
aI-1
aI-1
aI-1
aF-1.0
aF-1.0
aF-1.0
asg11
g12
sba(i__main__
sensor_data_struct
p213
(dp214
g3
(lp215
I574
aI489
aI335
aI1343
aI3536
aF340.0
aI-1
aI-1
aI-1
aI-1
aI-1
aF-1.0
asg5
g6
sg7
(lp216
I26
aI-1
aI-1
aI-1
aI-1
aI-1
asg9
(lp217
I13
aI-1
aI-1
aF-1.0
aF-1.0
aF-1.0
aI-1
aI-1
aI-1
aF-1.0
aF-1.0
aF-1.0
asg11
g12
sba(i__main__
sensor_data_struct
p218
(dp219
g3
(lp220
I507
aI358
aI235
aI1053
aI3059
aF228.0
aI-1
aI-1
aI-1
aI-1
aI-1
aF-1.0
asg5
g6
sg7
(lp221
I33
aI-1
aI-1
aI-1
aI-1
aI-1
asg9
(lp222
I35
aI-1
aI-1
aF-1.0
aF-1.0
aF-1.0
aI-1
aI-1
aI-1
aF-1.0
aF-1.0
aF-1.0
asg11
g12
sba(i__main__
sensor_data_struct
p223
(dp224
g3
(lp225
I560
aI412
aI276
aI1174
aI3132
aF266.0
aI-1
aI-1
aI-1
aI-1
aI-1
aF-1.0
asg5
g6
sg7
(lp226
I17
aI-1
aI-1
aI-1
aI-1
aI-1
asg9
(lp227
I8
aI-1
aI-1
aF-1.0
aF-1.0
aF-1.0
aI-1
aI-1
aI-1
aF-1.0
aF-1.0
aF-1.0
asg11
g12
sba(i__main__
sensor_data_struct
p228
(dp229
g3
(lp230
I446
aI426
aI294
aI1131
aI3851
aF312.0
aI-1
aI-1
aI-1
aI-1
aI-1
aF-1.0
asg5
g6
sg7
(lp231
I13
aI-1
aI-1
aI-1
aI-1
aI-1
asg9
(lp232
I31
aI-1
aI-1
aF-1.0
aF-1.0
aF-1.0
aI-1
aI-1
aI-1
aF-1.0
aF-1.0
aF-1.0
asg11
g12
sba(i__main__
sensor_data_struct
p233
(dp234
g3
(lp235
I979
aI977
aI680
aI2603
aI4018
aF726.0
aI-1
aI-1
aI-1
aI-1
aI-1
aF-1.0
asg5
g6
sg7
(lp236
I9
aI-1
aI-1
aI-1
aI-1
aI-1
asg9
(lp237
I26
aI-1
aI-1
aF-1.0
aF-1.0
aF-1.0
aI-1
aI-1
aI-1
aF-1.0
aF-1.0
aF-1.0
asg11
g12
sba(i__main__
sensor_data_struct
p238
(dp239
g3
(lp240
I498
aI437
aI295
aI1182
aI3569
aF312.0
aI-1
aI-1
aI-1
aI-1
aI-1
aF-1.0
asg5
g6
sg7
(lp241
I35
aI-1
aI-1
aI-1
aI-1
aI-1
asg9
(lp242
I20
aI-1
aI-1
aF-1.0
aF-1.0
aF-1.0
aI-1
aI-1
aI-1
aF-1.0
aF-1.0
aF-1.0
asg11
g12
sba(i__main__
sensor_data_struct
p243
(dp244
g3
(lp245
I504
aI354
aI236
aI1002
aI2971
aF222.0
aI-1
aI-1
aI-1
aI-1
aI-1
aF-1.0
asg5
g6
sg7
(lp246
I70
aI-1
aI-1
aI-1
aI-1
aI-1
asg9
(lp247
I26
aI-1
aI-1
aF-1.0
aF-1.0
aF-1.0
aI-1
aI-1
aI-1
aF-1.0
aF-1.0
aF-1.0
asg11
g12
sba(i__main__
sensor_data_struct
p248
(dp249
g3
(lp250
I1742
aI1843
aI1280
aI4762
aI4160
aF1406.0
aI-1
aI-1
aI-1
aI-1
aI-1
aF-1.0
asg5
g6
sg7
(lp251
I7
aI-1
aI-1
aI-1
aI-1
aI-1
asg9
(lp252
I11
aI-1
aI-1
aF-1.0
aF-1.0
aF-1.0
aI-1
aI-1
aI-1
aF-1.0
aF-1.0
aF-1.0
asg11
g12
sba(i__main__
sensor_data_struct
p253
(dp254
g3
(lp255
I491
aI324
aI207
aI977
aI2893
aF200.0
aI-1
aI-1
aI-1
aI-1
aI-1
aF-1.0
asg5
g6
sg7
(lp256
I0
aI-1
aI-1
aI-1
aI-1
aI-1
asg9
(lp257
I9
aI-1
aI-1
aF-1.0
aF-1.0
aF-1.0
aI-1
aI-1
aI-1
aF-1.0
aF-1.0
aF-1.0
asg11
g12
sba.